ARM GAS  C:\Users\Vergil\AppData\Local\Temp\ccGHOEfT.s 			page 1


   1              		.syntax unified
   2              		.cpu cortex-m4
   3              		.eabi_attribute 27, 3
   4              		.eabi_attribute 28, 1
   5              		.fpu fpv4-sp-d16
   6              		.eabi_attribute 20, 1
   7              		.eabi_attribute 21, 1
   8              		.eabi_attribute 23, 3
   9              		.eabi_attribute 24, 1
  10              		.eabi_attribute 25, 1
  11              		.eabi_attribute 26, 1
  12              		.eabi_attribute 30, 2
  13              		.eabi_attribute 34, 1
  14              		.eabi_attribute 18, 4
  15              		.thumb
  16              		.file	"cc3000_spi.c"
  17              		.text
  18              	.Ltext0:
  19              		.cfi_sections	.debug_frame
  20              		.section	.text.cbReadWlanInterruptPin,"ax",%progbits
  21              		.align	2
  22              		.p2align 4,,15
  23              		.thumb
  24              		.thumb_func
  25              		.type	cbReadWlanInterruptPin, %function
  26              	cbReadWlanInterruptPin:
  27              	.LFB132:
  28              		.file 1 "C:\\Users\\Vergil\\ChibiOS_CC3000_SPI/src/cc3000_spi.c"
  29              		.loc 1 634 0
  30              		.cfi_startproc
  31              		@ args = 0, pretend = 0, frame = 0
  32              		@ frame_needed = 0, uses_anonymous_args = 0
  33              		@ link register save eliminated.
  34              		.loc 1 635 0
  35 0000 0023     		movs	r3, #0
  36 0002 C4F20203 		movt	r3, 16386
  37 0006 1869     		ldr	r0, [r3, #16]
  38              		.loc 1 636 0
  39 0008 C0F38020 		ubfx	r0, r0, #10, #1
  40 000c 7047     		bx	lr
  41              		.cfi_endproc
  42              	.LFE132:
  43              		.size	cbReadWlanInterruptPin, .-cbReadWlanInterruptPin
  44 000e 00BF     		.section	.text.cbWriteWlanPin,"ax",%progbits
  45              		.align	2
  46              		.p2align 4,,15
  47              		.thumb
  48              		.thumb_func
  49              		.type	cbWriteWlanPin, %function
  50              	cbWriteWlanPin:
  51              	.LFB133:
  52              		.loc 1 642 0
  53              		.cfi_startproc
  54              		@ args = 0, pretend = 0, frame = 0
  55              		@ frame_needed = 0, uses_anonymous_args = 0
  56              		@ link register save eliminated.
  57              	.LVL0:
ARM GAS  C:\Users\Vergil\AppData\Local\Temp\ccGHOEfT.s 			page 2


  58              		.loc 1 645 0
  59 0000 0023     		movs	r3, #0
  60 0002 C4F20203 		movt	r3, 16386
  61 0006 4FF48072 		mov	r2, #256
  62              		.loc 1 643 0
  63 000a 08B9     		cbnz	r0, .L6
  64              		.loc 1 649 0
  65 000c 5A83     		strh	r2, [r3, #26]	@ movhi
  66 000e 7047     		bx	lr
  67              	.L6:
  68              		.loc 1 645 0
  69 0010 1A83     		strh	r2, [r3, #24]	@ movhi
  70 0012 7047     		bx	lr
  71              		.cfi_endproc
  72              	.LFE133:
  73              		.size	cbWriteWlanPin, .-cbWriteWlanPin
  74 0014 AFF30080 		.section	.text.SpiPauseSpi,"ax",%progbits
  74      AFF30080 
  74      AFF30080 
  75              		.align	2
  76              		.p2align 4,,15
  77              		.thumb
  78              		.thumb_func
  79              		.type	SpiPauseSpi, %function
  80              	SpiPauseSpi:
  81              	.LFB134:
  82              		.loc 1 661 0
  83              		.cfi_startproc
  84              		@ args = 0, pretend = 0, frame = 0
  85              		@ frame_needed = 0, uses_anonymous_args = 0
  86              		@ link register save eliminated.
  87              	.LBB34:
  88              		.loc 1 668 0
  89 0000 2023     		movs	r3, #32
  90              	.LVL1:
  91              	@ 668 "C:\Users\Vergil\ChibiOS_CC3000_SPI/src/cc3000_spi.c" 1
  92 0002 83F31188 		msr     BASEPRI, r3
  93              	@ 0 "" 2
  94              	.LVL2:
  95              		.thumb
  96              	.LBE34:
  97              		.loc 1 669 0
  98 0006 40F20003 		movw	r3, #:lower16:.LANCHOR0
  99              	.LVL3:
 100 000a C0F20003 		movt	r3, #:upper16:.LANCHOR0
 101 000e 0122     		movs	r2, #1
 102 0010 1A70     		strb	r2, [r3, #0]
 103              	.LBB35:
 104              		.loc 1 670 0
 105 0012 0023     		movs	r3, #0
 106              	.LVL4:
 107              	@ 670 "C:\Users\Vergil\ChibiOS_CC3000_SPI/src/cc3000_spi.c" 1
 108 0014 83F31188 		msr     BASEPRI, r3
 109              	@ 0 "" 2
 110              	.LVL5:
 111              		.thumb
 112 0018 7047     		bx	lr
ARM GAS  C:\Users\Vergil\AppData\Local\Temp\ccGHOEfT.s 			page 3


 113              	.LBE35:
 114              		.cfi_endproc
 115              	.LFE134:
 116              		.size	SpiPauseSpi, .-SpiPauseSpi
 117 001a 00BFAFF3 		.section	.text.SpiResumeSpi,"ax",%progbits
 117      0080
 118              		.align	2
 119              		.p2align 4,,15
 120              		.global	SpiResumeSpi
 121              		.thumb
 122              		.thumb_func
 123              		.type	SpiResumeSpi, %function
 124              	SpiResumeSpi:
 125              	.LFB135:
 126              		.loc 1 678 0
 127              		.cfi_startproc
 128              		@ args = 0, pretend = 0, frame = 0
 129              		@ frame_needed = 0, uses_anonymous_args = 0
 130              		@ link register save eliminated.
 131              	.LBB36:
 132              		.loc 1 685 0
 133 0000 2023     		movs	r3, #32
 134              	.LVL6:
 135              	@ 685 "C:\Users\Vergil\ChibiOS_CC3000_SPI/src/cc3000_spi.c" 1
 136 0002 83F31188 		msr     BASEPRI, r3
 137              	@ 0 "" 2
 138              	.LVL7:
 139              		.thumb
 140              	.LBE36:
 141              		.loc 1 686 0
 142 0006 40F20002 		movw	r2, #:lower16:.LANCHOR0
 143 000a C0F20002 		movt	r2, #:upper16:.LANCHOR0
 144 000e 0023     		movs	r3, #0
 145              	.LVL8:
 146 0010 1370     		strb	r3, [r2, #0]
 147              	.LBB37:
 148              		.loc 1 687 0
 149              	@ 687 "C:\Users\Vergil\ChibiOS_CC3000_SPI/src/cc3000_spi.c" 1
 150 0012 83F31188 		msr     BASEPRI, r3
 151              	@ 0 "" 2
 152              	.LVL9:
 153              		.thumb
 154 0016 7047     		bx	lr
 155              	.LBE37:
 156              		.cfi_endproc
 157              	.LFE135:
 158              		.size	SpiResumeSpi, .-SpiResumeSpi
 159 0018 AFF30080 		.section	.text.selectCC3000,"ax",%progbits
 159      AFF30080 
 160              		.align	2
 161              		.p2align 4,,15
 162              		.thumb
 163              		.thumb_func
 164              		.type	selectCC3000, %function
 165              	selectCC3000:
 166              	.LFB118:
 167              		.loc 1 152 0
ARM GAS  C:\Users\Vergil\AppData\Local\Temp\ccGHOEfT.s 			page 4


 168              		.cfi_startproc
 169              		@ args = 0, pretend = 0, frame = 0
 170              		@ frame_needed = 0, uses_anonymous_args = 0
 171 0000 10B5     		push	{r4, lr}
 172              	.LCFI0:
 173              		.cfi_def_cfa_offset 8
 174              		.cfi_offset 4, -8
 175              		.cfi_offset 14, -4
 176              		.loc 1 154 0
 177 0002 40F20004 		movw	r4, #:lower16:.LANCHOR1
 178 0006 C0F20004 		movt	r4, #:upper16:.LANCHOR1
 179 000a 2068     		ldr	r0, [r4, #0]
 180 000c FFF7FEFF 		bl	spiAcquireBus
 181              	.LVL10:
 182              		.loc 1 155 0
 183 0010 40F20001 		movw	r1, #:lower16:.LANCHOR2
 184 0014 2068     		ldr	r0, [r4, #0]
 185 0016 C0F20001 		movt	r1, #:upper16:.LANCHOR2
 186 001a FFF7FEFF 		bl	spiStart
 187              	.LVL11:
 188              		.loc 1 158 0
 189 001e 2068     		ldr	r0, [r4, #0]
 190              		.loc 1 159 0
 191 0020 BDE81040 		pop	{r4, lr}
 192              		.loc 1 158 0
 193 0024 FFF7FEBF 		b	spiSelect
 194              	.LVL12:
 195              		.cfi_endproc
 196              	.LFE118:
 197              		.size	selectCC3000, .-selectCC3000
 198 0028 AFF30080 		.section	.text.SpiReadDataSynchronous,"ax",%progbits
 198      AFF30080 
 199              		.align	2
 200              		.p2align 4,,15
 201              		.thumb
 202              		.thumb_func
 203              		.type	SpiReadDataSynchronous, %function
 204              	SpiReadDataSynchronous:
 205              	.LFB123:
 206              		.loc 1 299 0
 207              		.cfi_startproc
 208              		@ args = 0, pretend = 0, frame = 0
 209              		@ frame_needed = 0, uses_anonymous_args = 0
 210              	.LVL13:
 211 0000 70B5     		push	{r4, r5, r6, lr}
 212              	.LCFI1:
 213              		.cfi_def_cfa_offset 16
 214              		.cfi_offset 4, -16
 215              		.cfi_offset 5, -12
 216              		.cfi_offset 6, -8
 217              		.cfi_offset 14, -4
 218              		.loc 1 300 0
 219 0002 40F20004 		movw	r4, #:lower16:.LANCHOR1
 220 0006 C0F20004 		movt	r4, #:upper16:.LANCHOR1
 221              		.loc 1 299 0
 222 000a 0646     		mov	r6, r0
 223              		.loc 1 300 0
ARM GAS  C:\Users\Vergil\AppData\Local\Temp\ccGHOEfT.s 			page 5


 224 000c 40F20002 		movw	r2, #:lower16:.LANCHOR3
 225              		.loc 1 299 0
 226 0010 0D46     		mov	r5, r1
 227              		.loc 1 300 0
 228 0012 3346     		mov	r3, r6
 229 0014 2068     		ldr	r0, [r4, #0]
 230              	.LVL14:
 231 0016 0321     		movs	r1, #3
 232              	.LVL15:
 233 0018 C0F20002 		movt	r2, #:upper16:.LANCHOR3
 234 001c FFF7FEFF 		bl	spiExchange
 235              	.LVL16:
 236              		.loc 1 304 0
 237 0020 2068     		ldr	r0, [r4, #0]
 238 0022 E91E     		subs	r1, r5, #3
 239 0024 F21C     		adds	r2, r6, #3
 240 0026 FFF7FEFF 		bl	spiReceive
 241              	.LVL17:
 242              		.loc 1 308 0
 243 002a 40F20003 		movw	r3, #:lower16:.LANCHOR4
 244 002e C0F20003 		movt	r3, #:upper16:.LANCHOR4
 245 0032 DA88     		ldrh	r2, [r3, #6]
 246 0034 15FA82F0 		uxtah	r0, r5, r2
 247 0038 85B2     		uxth	r5, r0
 248 003a DD80     		strh	r5, [r3, #6]	@ movhi
 249 003c 70BD     		pop	{r4, r5, r6, pc}
 250              		.cfi_endproc
 251              	.LFE123:
 252              		.size	SpiReadDataSynchronous, .-SpiReadDataSynchronous
 253 003e 00BF     		.section	.text.unselectCC3000,"ax",%progbits
 254              		.align	2
 255              		.p2align 4,,15
 256              		.thumb
 257              		.thumb_func
 258              		.type	unselectCC3000, %function
 259              	unselectCC3000:
 260              	.LFB119:
 261              		.loc 1 164 0
 262              		.cfi_startproc
 263              		@ args = 0, pretend = 0, frame = 0
 264              		@ frame_needed = 0, uses_anonymous_args = 0
 265 0000 10B5     		push	{r4, lr}
 266              	.LCFI2:
 267              		.cfi_def_cfa_offset 8
 268              		.cfi_offset 4, -8
 269              		.cfi_offset 14, -4
 270              		.loc 1 165 0
 271 0002 40F20004 		movw	r4, #:lower16:.LANCHOR1
 272 0006 C0F20004 		movt	r4, #:upper16:.LANCHOR1
 273 000a 2068     		ldr	r0, [r4, #0]
 274 000c FFF7FEFF 		bl	spiUnselect
 275              	.LVL18:
 276              		.loc 1 168 0
 277 0010 2068     		ldr	r0, [r4, #0]
 278 0012 FFF7FEFF 		bl	spiStop
 279              	.LVL19:
 280              		.loc 1 169 0
ARM GAS  C:\Users\Vergil\AppData\Local\Temp\ccGHOEfT.s 			page 6


 281 0016 2068     		ldr	r0, [r4, #0]
 282              		.loc 1 171 0
 283 0018 BDE81040 		pop	{r4, lr}
 284              		.loc 1 169 0
 285 001c FFF7FEBF 		b	spiReleaseBus
 286              	.LVL20:
 287              		.cfi_endproc
 288              	.LFE119:
 289              		.size	unselectCC3000, .-unselectCC3000
 290              		.section	.text.irqSignalHandlerThread,"ax",%progbits
 291              		.align	2
 292              		.p2align 4,,15
 293              		.thumb
 294              		.thumb_func
 295              		.type	irqSignalHandlerThread, %function
 296              	irqSignalHandlerThread:
 297              	.LFB128:
 298              		.loc 1 424 0
 299              		.cfi_startproc
 300              		@ args = 0, pretend = 0, frame = 0
 301              		@ frame_needed = 0, uses_anonymous_args = 0
 302              	.LVL21:
 303 0000 2DE9F047 		push	{r4, r5, r6, r7, r8, r9, sl, lr}
 304              	.LCFI3:
 305              		.cfi_def_cfa_offset 32
 306              		.cfi_offset 4, -32
 307              		.cfi_offset 5, -28
 308              		.cfi_offset 6, -24
 309              		.cfi_offset 7, -20
 310              		.cfi_offset 8, -16
 311              		.cfi_offset 9, -12
 312              		.cfi_offset 10, -8
 313              		.cfi_offset 14, -4
 314              		.loc 1 428 0
 315 0004 4B4E     		ldr	r6, .L69
 316 0006 4C4A     		ldr	r2, .L69+4
 317 0008 B369     		ldr	r3, [r6, #24]
 318 000a 4C4D     		ldr	r5, .L69+8
 319              		.loc 1 453 0
 320 000c 4C4C     		ldr	r4, .L69+12
 321              	.LBB60:
 322              	.LBB61:
 323              		.loc 1 315 0
 324 000e DFF83891 		ldr	r9, .L69+20
 325              		.loc 1 323 0
 326 0012 DFF83881 		ldr	r8, .L69+24
 327              	.LBE61:
 328              	.LBE60:
 329              		.loc 1 428 0
 330 0016 9A61     		str	r2, [r3, #24]
 331              		.loc 1 443 0
 332 0018 0527     		movs	r7, #5
 333              	.LVL22:
 334              	.L57:
 335              		.loc 1 437 0
 336 001a 4A48     		ldr	r0, .L69+16
 337 001c FFF7FEFF 		bl	chSemWait
ARM GAS  C:\Users\Vergil\AppData\Local\Temp\ccGHOEfT.s 			page 7


 338              	.LVL23:
 339              		.loc 1 441 0
 340 0020 2878     		ldrb	r0, [r5, #0]	@ zero_extendqisi2
 341 0022 28B1     		cbz	r0, .L17
 342              	.L48:
 343              		.loc 1 443 0
 344 0024 0520     		movs	r0, #5
 345 0026 FFF7FEFF 		bl	chThdSleep
 346              	.LVL24:
 347              		.loc 1 441 0
 348 002a 2978     		ldrb	r1, [r5, #0]	@ zero_extendqisi2
 349 002c 0029     		cmp	r1, #0
 350 002e F9D1     		bne	.L48
 351              	.L17:
 352              		.loc 1 446 0
 353 0030 B369     		ldr	r3, [r6, #24]
 354 0032 5A7F     		ldrb	r2, [r3, #29]	@ zero_extendqisi2
 355 0034 02F00400 		and	r0, r2, #4
 356 0038 C1B2     		uxtb	r1, r0
 357 003a 79BB     		cbnz	r1, .L64
 358              		.loc 1 453 0 discriminator 1
 359 003c 227A     		ldrb	r2, [r4, #8]	@ zero_extendqisi2
 360 003e 404B     		ldr	r3, .L69+12
 361 0040 92B1     		cbz	r2, .L21
 362              		.loc 1 454 0
 363 0042 187A     		ldrb	r0, [r3, #8]	@ zero_extendqisi2
 364              		.loc 1 453 0
 365 0044 0228     		cmp	r0, #2
 366 0046 0FD0     		beq	.L21
 367              		.loc 1 455 0
 368 0048 197A     		ldrb	r1, [r3, #8]	@ zero_extendqisi2
 369              		.loc 1 454 0
 370 004a 0329     		cmp	r1, #3
 371 004c 06D1     		bne	.L47
 372 004e 0BE0     		b	.L21
 373              	.L65:
 374              		.loc 1 454 0 is_stmt 0 discriminator 2
 375 0050 237A     		ldrb	r3, [r4, #8]	@ zero_extendqisi2
 376              		.loc 1 453 0 is_stmt 1 discriminator 2
 377 0052 022B     		cmp	r3, #2
 378 0054 08D0     		beq	.L21
 379              		.loc 1 455 0
 380 0056 207A     		ldrb	r0, [r4, #8]	@ zero_extendqisi2
 381              		.loc 1 454 0
 382 0058 0328     		cmp	r0, #3
 383 005a 05D0     		beq	.L21
 384              	.L47:
 385              		.loc 1 457 0
 386 005c 0520     		movs	r0, #5
 387 005e FFF7FEFF 		bl	chThdSleep
 388              	.LVL25:
 389              		.loc 1 453 0
 390 0062 227A     		ldrb	r2, [r4, #8]	@ zero_extendqisi2
 391 0064 002A     		cmp	r2, #0
 392 0066 F3D1     		bne	.L65
 393              	.L21:
 394              		.loc 1 462 0
ARM GAS  C:\Users\Vergil\AppData\Local\Temp\ccGHOEfT.s 			page 8


 395 0068 217A     		ldrb	r1, [r4, #8]	@ zero_extendqisi2
 396 006a 41B9     		cbnz	r1, .L66
 397              	.LVL26:
 398              	.LBB68:
 399              	.LBB69:
 400              	.LBB70:
 401              		.loc 1 256 0
 402 006c 2023     		movs	r3, #32
 403              	.LVL27:
 404              	@ 256 "C:\Users\Vergil\ChibiOS_CC3000_SPI/src/cc3000_spi.c" 1
 405 006e 83F31188 		msr     BASEPRI, r3
 406              	@ 0 "" 2
 407              	.LVL28:
 408              		.thumb
 409              	.LBE70:
 410              		.loc 1 257 0
 411 0072 0120     		movs	r0, #1
 412 0074 2072     		strb	r0, [r4, #8]
 413              	.LBB71:
 414              		.loc 1 258 0
 415 0076 0B46     		mov	r3, r1
 416              	.LVL29:
 417              	@ 258 "C:\Users\Vergil\ChibiOS_CC3000_SPI/src/cc3000_spi.c" 1
 418 0078 83F31188 		msr     BASEPRI, r3
 419              	@ 0 "" 2
 420              	.LVL30:
 421              		.thumb
 422 007c CDE7     		b	.L57
 423              	.LVL31:
 424              	.L66:
 425              	.LBE71:
 426              	.LBE69:
 427              	.LBE68:
 428              		.loc 1 468 0
 429 007e 227A     		ldrb	r2, [r4, #8]	@ zero_extendqisi2
 430 0080 022A     		cmp	r2, #2
 431 0082 0ED0     		beq	.L67
 432              		.loc 1 490 0
 433 0084 237A     		ldrb	r3, [r4, #8]	@ zero_extendqisi2
 434 0086 032B     		cmp	r3, #3
 435 0088 C7D1     		bne	.L57
 436              	.LVL32:
 437              	.LBB72:
 438              	.LBB73:
 439              	.LBB74:
 440              		.loc 1 256 0
 441 008a 2023     		movs	r3, #32
 442              	.LVL33:
 443              	@ 256 "C:\Users\Vergil\ChibiOS_CC3000_SPI/src/cc3000_spi.c" 1
 444 008c 83F31188 		msr     BASEPRI, r3
 445              	@ 0 "" 2
 446              	.LVL34:
 447              		.thumb
 448              	.LBE74:
 449              		.loc 1 257 0
 450 0090 0420     		movs	r0, #4
 451 0092 2072     		strb	r0, [r4, #8]
ARM GAS  C:\Users\Vergil\AppData\Local\Temp\ccGHOEfT.s 			page 9


 452              	.LBB75:
 453              		.loc 1 258 0
 454 0094 0023     		movs	r3, #0
 455              	.LVL35:
 456              	@ 258 "C:\Users\Vergil\ChibiOS_CC3000_SPI/src/cc3000_spi.c" 1
 457 0096 83F31188 		msr     BASEPRI, r3
 458              	@ 0 "" 2
 459              	.LVL36:
 460              		.thumb
 461 009a BEE7     		b	.L57
 462              	.LVL37:
 463              	.L64:
 464              	.LBE75:
 465              	.LBE73:
 466              	.LBE72:
 467              		.loc 1 498 0
 468 009c 0020     		movs	r0, #0
 469 009e BDE8F087 		pop	{r4, r5, r6, r7, r8, r9, sl, pc}
 470              	.L67:
 471              	.LVL38:
 472              	.LBB76:
 473              	.LBB77:
 474              	.LBB78:
 475              		.loc 1 256 0
 476 00a2 2023     		movs	r3, #32
 477              	.LVL39:
 478              	@ 256 "C:\Users\Vergil\ChibiOS_CC3000_SPI/src/cc3000_spi.c" 1
 479 00a4 83F31188 		msr     BASEPRI, r3
 480              	@ 0 "" 2
 481              	.LVL40:
 482              		.thumb
 483              	.LBE78:
 484              	.LBB79:
 485              		.loc 1 258 0
 486 00a8 0023     		movs	r3, #0
 487              	.LVL41:
 488              	.LBE79:
 489              		.loc 1 257 0
 490 00aa 2772     		strb	r7, [r4, #8]
 491              	.LBB80:
 492              		.loc 1 258 0
 493              	@ 258 "C:\Users\Vergil\ChibiOS_CC3000_SPI/src/cc3000_spi.c" 1
 494 00ac 83F31188 		msr     BASEPRI, r3
 495              	@ 0 "" 2
 496              	.LVL42:
 497              		.thumb
 498              	.LBE80:
 499              	.LBE77:
 500              	.LBE76:
 501              		.loc 1 473 0
 502 00b0 FFF7FEFF 		bl	selectCC3000
 503              	.LVL43:
 504              	.LBB81:
 505              	.LBB82:
 506              		.loc 1 343 0
 507 00b4 0A21     		movs	r1, #10
 508 00b6 2069     		ldr	r0, [r4, #16]
ARM GAS  C:\Users\Vergil\AppData\Local\Temp\ccGHOEfT.s 			page 10


 509 00b8 FFF7FEFF 		bl	SpiReadDataSynchronous
 510              	.LVL44:
 511              	.LBE82:
 512              	.LBE81:
 513              	.LBB83:
 514              	.LBB84:
 515              		.loc 1 355 0
 516 00bc D4F810A0 		ldr	sl, [r4, #16]
 517              	.LVL45:
 518              		.loc 1 359 0
 519 00c0 9AF80510 		ldrb	r1, [sl, #5]	@ zero_extendqisi2
 520 00c4 0229     		cmp	r1, #2
 521 00c6 0ED0     		beq	.L26
 522 00c8 0429     		cmp	r1, #4
 523 00ca 29D0     		beq	.L68
 524              	.LVL46:
 525              	.L25:
 526              	.LBE84:
 527              	.LBE83:
 528              		.loc 1 484 0
 529 00cc 6420     		movs	r0, #100
 530 00ce FFF7FEFF 		bl	chThdSleep
 531              	.LVL47:
 532              	.LBB87:
 533              	.LBB66:
 534              		.loc 1 315 0
 535 00d2 D9F82430 		ldr	r3, [r9, #36]
 536 00d6 9847     		blx	r3
 537              	.LVL48:
 538              		.loc 1 321 0
 539 00d8 FFF7FEFF 		bl	unselectCC3000
 540              	.LVL49:
 541              		.loc 1 323 0
 542 00dc 98F88200 		ldrb	r0, [r8, #130]	@ zero_extendqisi2
 543 00e0 DE28     		cmp	r0, #222
 544 00e2 0FD0     		beq	.L32
 545              	.L60:
 546 00e4 FEE7     		b	.L60
 547              	.LVL50:
 548              	.L26:
 549              	.LBE66:
 550              	.LBE87:
 551              	.LBB88:
 552              	.LBB85:
 553              		.loc 1 364 0
 554 00e6 0321     		movs	r1, #3
 555 00e8 0AF10500 		add	r0, sl, #5
 556 00ec FFF7FEFF 		bl	STREAM_TO_UINT16_f
 557              	.LVL51:
 558              		.loc 1 367 0
 559 00f0 C307     		lsls	r3, r0, #31
 560              		.loc 1 364 0
 561 00f2 0146     		mov	r1, r0
 562              	.LVL52:
 563              		.loc 1 367 0
 564 00f4 1BD4     		bmi	.L63
 565              		.loc 1 369 0
ARM GAS  C:\Users\Vergil\AppData\Local\Temp\ccGHOEfT.s 			page 11


 566 00f6 411C     		adds	r1, r0, #1
 567              	.LVL53:
 568              	.L61:
 569              		.loc 1 394 0
 570 00f8 0AF10A00 		add	r0, sl, #10
 571 00fc 89B2     		uxth	r1, r1
 572 00fe FFF7FEFF 		bl	SpiReadDataSynchronous
 573              	.LVL54:
 574 0102 E3E7     		b	.L25
 575              	.L32:
 576              	.LVL55:
 577              	.LBE85:
 578              	.LBE88:
 579              	.LBB89:
 580              	.LBB67:
 581              	.LBB62:
 582              	.LBB63:
 583              	.LBB64:
 584              		.loc 1 256 0
 585 0104 2023     		movs	r3, #32
 586              	.LVL56:
 587              	@ 256 "C:\Users\Vergil\ChibiOS_CC3000_SPI/src/cc3000_spi.c" 1
 588 0106 83F31188 		msr     BASEPRI, r3
 589              	@ 0 "" 2
 590              	.LVL57:
 591              		.thumb
 592              	.LBE64:
 593              		.loc 1 257 0
 594 010a 0222     		movs	r2, #2
 595 010c 2272     		strb	r2, [r4, #8]
 596              	.LBB65:
 597              		.loc 1 258 0
 598 010e 0023     		movs	r3, #0
 599              	.LVL58:
 600              	@ 258 "C:\Users\Vergil\ChibiOS_CC3000_SPI/src/cc3000_spi.c" 1
 601 0110 83F31188 		msr     BASEPRI, r3
 602              	@ 0 "" 2
 603              	.LVL59:
 604              		.thumb
 605              	.LBE65:
 606              	.LBE63:
 607              	.LBE62:
 608              		.loc 1 330 0
 609 0114 E380     		strh	r3, [r4, #6]	@ movhi
 610              		.loc 1 334 0
 611 0116 2168     		ldr	r1, [r4, #0]
 612 0118 2369     		ldr	r3, [r4, #16]
 613              	.LVL60:
 614 011a 581D     		adds	r0, r3, #5
 615 011c 8847     		blx	r1
 616              	.LVL61:
 617 011e 7CE7     		b	.L57
 618              	.LVL62:
 619              	.L68:
 620              	.LBE67:
 621              	.LBE89:
 622              	.LBB90:
ARM GAS  C:\Users\Vergil\AppData\Local\Temp\ccGHOEfT.s 			page 12


 623              	.LBB86:
 624              		.loc 1 382 0
 625 0120 9AF80820 		ldrb	r2, [sl, #8]	@ zero_extendqisi2
 626              	.LVL63:
 627              		.loc 1 384 0
 628 0124 511E     		subs	r1, r2, #1
 629              	.LVL64:
 630              		.loc 1 389 0
 631 0126 11F0010F 		tst	r1, #1
 632 012a 18BF     		it	ne
 633 012c 1146     		movne	r1, r2
 634              	.LVL65:
 635              	.L63:
 636              		.loc 1 392 0
 637 012e 0029     		cmp	r1, #0
 638 0130 CCD0     		beq	.L25
 639 0132 E1E7     		b	.L61
 640              	.L70:
 641              		.align	2
 642              	.L69:
 643 0134 00000000 		.word	rlist
 644 0138 00000000 		.word	.LANCHOR5
 645 013c 00000000 		.word	.LANCHOR0
 646 0140 00000000 		.word	.LANCHOR4
 647 0144 00000000 		.word	.LANCHOR6
 648 0148 00000000 		.word	tSLInformation
 649 014c 00000000 		.word	.LANCHOR7
 650              	.LBE86:
 651              	.LBE90:
 652              		.cfi_endproc
 653              	.LFE128:
 654              		.size	irqSignalHandlerThread, .-irqSignalHandlerThread
 655              		.section	.text.cc3000ExtCb,"ax",%progbits
 656              		.align	2
 657              		.p2align 4,,15
 658              		.thumb
 659              		.thumb_func
 660              		.type	cc3000ExtCb, %function
 661              	cc3000ExtCb:
 662              	.LFB127:
 663              		.loc 1 410 0
 664              		.cfi_startproc
 665              		@ args = 0, pretend = 0, frame = 0
 666              		@ frame_needed = 0, uses_anonymous_args = 0
 667              	.LVL66:
 668 0000 08B5     		push	{r3, lr}
 669              	.LCFI4:
 670              		.cfi_def_cfa_offset 8
 671              		.cfi_offset 3, -8
 672              		.cfi_offset 14, -4
 673              	.LBB91:
 674              		.loc 1 414 0
 675 0002 2023     		movs	r3, #32
 676              	.LVL67:
 677              	@ 414 "C:\Users\Vergil\ChibiOS_CC3000_SPI/src/cc3000_spi.c" 1
 678 0004 83F31188 		msr     BASEPRI, r3
 679              	@ 0 "" 2
ARM GAS  C:\Users\Vergil\AppData\Local\Temp\ccGHOEfT.s 			page 13


 680              	.LVL68:
 681              		.thumb
 682              	.LBE91:
 683              		.loc 1 415 0
 684 0008 40F20000 		movw	r0, #:lower16:.LANCHOR6
 685              	.LVL69:
 686 000c C0F20000 		movt	r0, #:upper16:.LANCHOR6
 687 0010 FFF7FEFF 		bl	chSemSignalI
 688              	.LVL70:
 689              	.LBB92:
 690              		.loc 1 416 0
 691 0014 0023     		movs	r3, #0
 692              	.LVL71:
 693              	@ 416 "C:\Users\Vergil\ChibiOS_CC3000_SPI/src/cc3000_spi.c" 1
 694 0016 83F31188 		msr     BASEPRI, r3
 695              	@ 0 "" 2
 696              	.LVL72:
 697              		.thumb
 698 001a 08BD     		pop	{r3, pc}
 699              	.LBE92:
 700              		.cfi_endproc
 701              	.LFE127:
 702              		.size	cc3000ExtCb, .-cc3000ExtCb
 703 001c AFF30080 		.section	.text.SpiOpen,"ax",%progbits
 704              		.align	2
 705              		.p2align 4,,15
 706              		.global	SpiOpen
 707              		.thumb
 708              		.thumb_func
 709              		.type	SpiOpen, %function
 710              	SpiOpen:
 711              	.LFB129:
 712              		.loc 1 506 0
 713              		.cfi_startproc
 714              		@ args = 0, pretend = 0, frame = 0
 715              		@ frame_needed = 0, uses_anonymous_args = 0
 716              	.LVL73:
 717 0000 F8B5     		push	{r3, r4, r5, r6, r7, lr}
 718              	.LCFI5:
 719              		.cfi_def_cfa_offset 24
 720              		.cfi_offset 3, -24
 721              		.cfi_offset 4, -20
 722              		.cfi_offset 5, -16
 723              		.cfi_offset 6, -12
 724              		.cfi_offset 7, -8
 725              		.cfi_offset 14, -4
 726              		.loc 1 507 0
 727 0002 40F20005 		movw	r5, #:lower16:.LANCHOR7
 728 0006 C0F20005 		movt	r5, #:upper16:.LANCHOR7
 729 000a 8327     		movs	r7, #131
 730              		.loc 1 508 0
 731 000c 40F20004 		movw	r4, #:lower16:.LANCHOR8
 732              		.loc 1 507 0
 733 0010 3A46     		mov	r2, r7
 734              		.loc 1 508 0
 735 0012 C0F20004 		movt	r4, #:upper16:.LANCHOR8
 736              		.loc 1 507 0
ARM GAS  C:\Users\Vergil\AppData\Local\Temp\ccGHOEfT.s 			page 14


 737 0016 0021     		movs	r1, #0
 738              		.loc 1 506 0
 739 0018 0646     		mov	r6, r0
 740              		.loc 1 507 0
 741 001a 2846     		mov	r0, r5
 742              	.LVL74:
 743 001c FFF7FEFF 		bl	memset
 744              	.LVL75:
 745              		.loc 1 508 0
 746 0020 0021     		movs	r1, #0
 747 0022 3A46     		mov	r2, r7
 748 0024 2046     		mov	r0, r4
 749 0026 FFF7FEFF 		bl	memset
 750              	.LVL76:
 751              		.loc 1 509 0
 752 002a 40F20003 		movw	r3, #:lower16:cc3000AsyncData
 753 002e C0F20003 		movt	r3, #:upper16:cc3000AsyncData
 754 0032 1946     		mov	r1, r3
 755 0034 0022     		movs	r2, #0
 756 0036 41F8042B 		str	r2, [r1], #4
 757 003a 081D     		adds	r0, r1, #4
 758 003c 5A60     		str	r2, [r3, #4]
 759 003e 40F8042B 		str	r2, [r0], #4
 760 0042 40F8042B 		str	r2, [r0], #4
 761 0046 40F8042B 		str	r2, [r0], #4
 762 004a 40F8042B 		str	r2, [r0], #4
 763 004e 40F8042B 		str	r2, [r0], #4
 764 0052 40F8042B 		str	r2, [r0], #4
 765 0056 40F8042B 		str	r2, [r0], #4
 766 005a 40F8042B 		str	r2, [r0], #4
 767 005e 40F8042B 		str	r2, [r0], #4
 768              		.loc 1 511 0
 769 0062 DE23     		movs	r3, #222
 770 0064 85F88230 		strb	r3, [r5, #130]
 771              		.loc 1 512 0
 772 0068 84F88230 		strb	r3, [r4, #130]
 773              	.LVL77:
 774              		.loc 1 509 0
 775 006c 0260     		str	r2, [r0, #0]
 776              	.LBB93:
 777              	.LBB94:
 778              	.LBB95:
 779              		.loc 1 256 0
 780 006e 2023     		movs	r3, #32
 781              	.LVL78:
 782              	@ 256 "C:\Users\Vergil\ChibiOS_CC3000_SPI/src/cc3000_spi.c" 1
 783 0070 83F31188 		msr     BASEPRI, r3
 784              	@ 0 "" 2
 785              	.LVL79:
 786              		.thumb
 787              	.LBE95:
 788              		.loc 1 257 0
 789 0074 40F20004 		movw	r4, #:lower16:.LANCHOR4
 790 0078 C0F20004 		movt	r4, #:upper16:.LANCHOR4
 791              	.LBB96:
 792              		.loc 1 258 0
 793 007c 1346     		mov	r3, r2
ARM GAS  C:\Users\Vergil\AppData\Local\Temp\ccGHOEfT.s 			page 15


 794              	.LVL80:
 795              	.LBE96:
 796              		.loc 1 257 0
 797 007e 2272     		strb	r2, [r4, #8]
 798              	.LBB97:
 799              		.loc 1 258 0
 800              	@ 258 "C:\Users\Vergil\ChibiOS_CC3000_SPI/src/cc3000_spi.c" 1
 801 0080 83F31188 		msr     BASEPRI, r3
 802              	@ 0 "" 2
 803              	.LVL81:
 804              		.thumb
 805              	.LBE97:
 806              	.LBE94:
 807              	.LBE93:
 808              		.loc 1 525 0
 809 0084 40F20002 		movw	r2, #:lower16:.LANCHOR9
 810 0088 C0F20002 		movt	r2, #:upper16:.LANCHOR9
 811 008c 0A21     		movs	r1, #10
 812 008e 1068     		ldr	r0, [r2, #0]
 813              		.loc 1 515 0
 814 0090 2660     		str	r6, [r4, #0]
 815              		.loc 1 516 0
 816 0092 A380     		strh	r3, [r4, #4]	@ movhi
 817              		.loc 1 517 0
 818 0094 E360     		str	r3, [r4, #12]
 819              		.loc 1 518 0
 820 0096 2561     		str	r5, [r4, #16]
 821              		.loc 1 519 0
 822 0098 E380     		strh	r3, [r4, #6]	@ movhi
 823              		.loc 1 525 0
 824 009a FFF7FEFF 		bl	extChannelEnable
 825              	.LVL82:
 826              		.loc 1 531 0
 827 009e 40F20001 		movw	r1, #:lower16:tSLInformation
 828 00a2 C0F20001 		movt	r1, #:upper16:tSLInformation
 829 00a6 086A     		ldr	r0, [r1, #32]
 830 00a8 8047     		blx	r0
 831              	.LVL83:
 832              		.loc 1 533 0
 833 00aa 6420     		movs	r0, #100
 834              		.loc 1 535 0
 835 00ac BDE8F840 		pop	{r3, r4, r5, r6, r7, lr}
 836              		.loc 1 533 0
 837 00b0 FFF7FEBF 		b	chThdSleep
 838              	.LVL84:
 839              		.cfi_endproc
 840              	.LFE129:
 841              		.size	SpiOpen, .-SpiOpen
 842 00b4 AFF30080 		.section	.text.SpiClose,"ax",%progbits
 842      AFF30080 
 842      AFF30080 
 843              		.align	2
 844              		.p2align 4,,15
 845              		.global	SpiClose
 846              		.thumb
 847              		.thumb_func
 848              		.type	SpiClose, %function
ARM GAS  C:\Users\Vergil\AppData\Local\Temp\ccGHOEfT.s 			page 16


 849              	SpiClose:
 850              	.LFB130:
 851              		.loc 1 541 0
 852              		.cfi_startproc
 853              		@ args = 0, pretend = 0, frame = 0
 854              		@ frame_needed = 0, uses_anonymous_args = 0
 855 0000 08B5     		push	{r3, lr}
 856              	.LCFI6:
 857              		.cfi_def_cfa_offset 8
 858              		.cfi_offset 3, -8
 859              		.cfi_offset 14, -4
 860              		.loc 1 542 0
 861 0002 40F20003 		movw	r3, #:lower16:tSLInformation
 862 0006 C0F20003 		movt	r3, #:upper16:tSLInformation
 863 000a 586A     		ldr	r0, [r3, #36]
 864 000c 8047     		blx	r0
 865              	.LVL85:
 866              		.loc 1 544 0
 867 000e 40F20002 		movw	r2, #:lower16:.LANCHOR9
 868 0012 C0F20002 		movt	r2, #:upper16:.LANCHOR9
 869 0016 0A21     		movs	r1, #10
 870 0018 1068     		ldr	r0, [r2, #0]
 871              		.loc 1 554 0
 872 001a BDE80840 		pop	{r3, lr}
 873              		.loc 1 544 0
 874 001e FFF7FEBF 		b	extChannelDisable
 875              	.LVL86:
 876              		.cfi_endproc
 877              	.LFE130:
 878              		.size	SpiClose, .-SpiClose
 879 0022 00BFAFF3 		.section	.text.SpiWrite,"ax",%progbits
 879      0080AFF3 
 879      0080AFF3 
 879      0080
 880              		.align	2
 881              		.p2align 4,,15
 882              		.global	SpiWrite
 883              		.thumb
 884              		.thumb_func
 885              		.type	SpiWrite, %function
 886              	SpiWrite:
 887              	.LFB131:
 888              		.loc 1 561 0
 889              		.cfi_startproc
 890              		@ args = 0, pretend = 0, frame = 0
 891              		@ frame_needed = 0, uses_anonymous_args = 0
 892              	.LVL87:
 893              		.loc 1 563 0
 894 0000 CB07     		lsls	r3, r1, #31
 895              		.loc 1 561 0
 896 0002 2DE9F041 		push	{r4, r5, r6, r7, r8, lr}
 897              	.LCFI7:
 898              		.cfi_def_cfa_offset 24
 899              		.cfi_offset 4, -24
 900              		.cfi_offset 5, -20
 901              		.cfi_offset 6, -16
 902              		.cfi_offset 7, -12
ARM GAS  C:\Users\Vergil\AppData\Local\Temp\ccGHOEfT.s 			page 17


 903              		.cfi_offset 8, -8
 904              		.cfi_offset 14, -4
 905              		.loc 1 561 0
 906 0006 0D46     		mov	r5, r1
 907 0008 0446     		mov	r4, r0
 908              		.loc 1 563 0
 909 000a 01D4     		bmi	.L75
 910              		.loc 1 565 0
 911 000c 4D1C     		adds	r5, r1, #1
 912 000e ADB2     		uxth	r5, r5
 913              	.LVL88:
 914              	.L75:
 915              		.loc 1 575 0
 916 0010 0023     		movs	r3, #0
 917              		.loc 1 573 0
 918 0012 2A0A     		lsrs	r2, r5, #8
 919              		.loc 1 572 0
 920 0014 0121     		movs	r1, #1
 921              		.loc 1 580 0
 922 0016 3948     		ldr	r0, .L95
 923              	.LVL89:
 924              		.loc 1 572 0
 925 0018 2170     		strb	r1, [r4, #0]
 926              		.loc 1 573 0
 927 001a 6270     		strb	r2, [r4, #1]
 928              		.loc 1 574 0
 929 001c A570     		strb	r5, [r4, #2]
 930              		.loc 1 575 0
 931 001e E370     		strb	r3, [r4, #3]
 932              		.loc 1 576 0
 933 0020 2371     		strb	r3, [r4, #4]
 934              	.LVL90:
 935              		.loc 1 580 0
 936 0022 90F88260 		ldrb	r6, [r0, #130]	@ zero_extendqisi2
 937 0026 DE2E     		cmp	r6, #222
 938 0028 00D0     		beq	.L76
 939              	.L91:
 940 002a FEE7     		b	.L91
 941              	.L76:
 942              		.loc 1 586 0
 943 002c 344E     		ldr	r6, .L95+4
 944 002e 377A     		ldrb	r7, [r6, #8]	@ zero_extendqisi2
 945 0030 002F     		cmp	r7, #0
 946 0032 35D0     		beq	.L86
 947              	.L78:
 948              		.loc 1 591 0
 949 0034 377A     		ldrb	r7, [r6, #8]	@ zero_extendqisi2
 950 0036 012F     		cmp	r7, #1
 951 0038 39D0     		beq	.L93
 952              		.loc 1 600 0
 953 003a 324F     		ldr	r7, .L95+8
 954 003c 7A6A     		ldr	r2, [r7, #36]
 955 003e 9047     		blx	r2
 956              	.LVL91:
 957              	.L82:
 958              		.loc 1 602 0 discriminator 1
 959 0040 317A     		ldrb	r1, [r6, #8]	@ zero_extendqisi2
ARM GAS  C:\Users\Vergil\AppData\Local\Temp\ccGHOEfT.s 			page 18


 960 0042 2F48     		ldr	r0, .L95+4
 961 0044 0229     		cmp	r1, #2
 962 0046 FBD1     		bne	.L82
 963              	.LVL92:
 964              	.LBB118:
 965              	.LBB119:
 966              	.LBB120:
 967              		.loc 1 256 0
 968 0048 2023     		movs	r3, #32
 969              	.LVL93:
 970              	@ 256 "C:\Users\Vergil\ChibiOS_CC3000_SPI/src/cc3000_spi.c" 1
 971 004a 83F31188 		msr     BASEPRI, r3
 972              	@ 0 "" 2
 973              	.LVL94:
 974              		.thumb
 975              	.LBE120:
 976              		.loc 1 257 0
 977 004e 0323     		movs	r3, #3
 978              	.LVL95:
 979 0050 0372     		strb	r3, [r0, #8]
 980              	.LBB121:
 981              		.loc 1 258 0
 982 0052 0023     		movs	r3, #0
 983              	.LVL96:
 984              	@ 258 "C:\Users\Vergil\ChibiOS_CC3000_SPI/src/cc3000_spi.c" 1
 985 0054 83F31188 		msr     BASEPRI, r3
 986              	@ 0 "" 2
 987              	.LVL97:
 988              		.thumb
 989              	.LBE121:
 990              	.LBE119:
 991              	.LBE118:
 992              		.loc 1 578 0
 993 0058 6A1D     		adds	r2, r5, #5
 994 005a 91B2     		uxth	r1, r2
 995              		.loc 1 605 0
 996 005c C460     		str	r4, [r0, #12]
 997              		.loc 1 606 0
 998 005e 8180     		strh	r1, [r0, #4]	@ movhi
 999              		.loc 1 610 0
 1000 0060 FFF7FEFF 		bl	selectCC3000
 1001              	.LVL98:
 1002              		.loc 1 613 0
 1003 0064 3C6A     		ldr	r4, [r7, #32]
 1004              	.LVL99:
 1005 0066 A047     		blx	r4
 1006              	.LVL100:
 1007              		.loc 1 614 0
 1008 0068 FFF7FEFF 		bl	chThdYield
 1009              	.LVL101:
 1010              	.L83:
 1011              		.loc 1 616 0 discriminator 1
 1012 006c 307A     		ldrb	r0, [r6, #8]	@ zero_extendqisi2
 1013 006e 244C     		ldr	r4, .L95+4
 1014 0070 0428     		cmp	r0, #4
 1015 0072 FBD1     		bne	.L83
 1016              		.loc 1 618 0
ARM GAS  C:\Users\Vergil\AppData\Local\Temp\ccGHOEfT.s 			page 19


 1017 0074 E268     		ldr	r2, [r4, #12]
 1018              	.LVL102:
 1019              	.LBB122:
 1020              	.LBB123:
 1021              		.loc 1 268 0
 1022 0076 244B     		ldr	r3, .L95+12
 1023              	.LBE123:
 1024              	.LBE122:
 1025              		.loc 1 618 0
 1026 0078 A188     		ldrh	r1, [r4, #4]
 1027              	.LVL103:
 1028              	.LBB125:
 1029              	.LBB124:
 1030              		.loc 1 268 0
 1031 007a 1868     		ldr	r0, [r3, #0]
 1032 007c 89B2     		uxth	r1, r1
 1033 007e FFF7FEFF 		bl	spiSend
 1034              	.LVL104:
 1035              	.LBE124:
 1036              	.LBE125:
 1037              	.LBB126:
 1038              	.LBB127:
 1039              	.LBB128:
 1040              		.loc 1 256 0
 1041 0082 2023     		movs	r3, #32
 1042              	.LVL105:
 1043              	@ 256 "C:\Users\Vergil\ChibiOS_CC3000_SPI/src/cc3000_spi.c" 1
 1044 0084 83F31188 		msr     BASEPRI, r3
 1045              	@ 0 "" 2
 1046              	.LVL106:
 1047              		.thumb
 1048              	.LBE128:
 1049              		.loc 1 257 0
 1050 0088 0222     		movs	r2, #2
 1051 008a 2272     		strb	r2, [r4, #8]
 1052              	.LBB129:
 1053              		.loc 1 258 0
 1054 008c 0023     		movs	r3, #0
 1055              	.LVL107:
 1056              	@ 258 "C:\Users\Vergil\ChibiOS_CC3000_SPI/src/cc3000_spi.c" 1
 1057 008e 83F31188 		msr     BASEPRI, r3
 1058              	@ 0 "" 2
 1059              	.LVL108:
 1060              		.thumb
 1061              	.LBE129:
 1062              	.LBE127:
 1063              	.LBE126:
 1064              		.loc 1 623 0
 1065 0092 FFF7FEFF 		bl	unselectCC3000
 1066              	.LVL109:
 1067              		.loc 1 628 0
 1068 0096 327A     		ldrb	r2, [r6, #8]	@ zero_extendqisi2
 1069 0098 022A     		cmp	r2, #2
 1070 009a 2AD1     		bne	.L85
 1071              	.LVL110:
 1072              	.L94:
 1073              		.loc 1 629 0
ARM GAS  C:\Users\Vergil\AppData\Local\Temp\ccGHOEfT.s 			page 20


 1074 009c BDE8F081 		pop	{r4, r5, r6, r7, r8, pc}
 1075              	.LVL111:
 1076              	.L86:
 1077              		.loc 1 588 0
 1078 00a0 337A     		ldrb	r3, [r6, #8]	@ zero_extendqisi2
 1079 00a2 012B     		cmp	r3, #1
 1080 00a4 C6D0     		beq	.L78
 1081 00a6 337A     		ldrb	r3, [r6, #8]	@ zero_extendqisi2
 1082 00a8 012B     		cmp	r3, #1
 1083 00aa F9D1     		bne	.L86
 1084 00ac C2E7     		b	.L78
 1085              	.L93:
 1086              	.LVL112:
 1087              	.LBB130:
 1088              	.LBB131:
 1089              	.LBB132:
 1090              	.LBB133:
 1091              		.loc 1 268 0
 1092 00ae DFF85880 		ldr	r8, .L95+12
 1093              	.LBE133:
 1094              	.LBE132:
 1095              		.loc 1 279 0
 1096 00b2 FFF7FEFF 		bl	selectCC3000
 1097              	.LVL113:
 1098              		.loc 1 281 0
 1099 00b6 3846     		mov	r0, r7
 1100 00b8 FFF7FEFF 		bl	chThdSleep
 1101              	.LVL114:
 1102              	.LBB135:
 1103              	.LBB134:
 1104              		.loc 1 268 0
 1105 00bc 2246     		mov	r2, r4
 1106 00be 0421     		movs	r1, #4
 1107 00c0 D8F80000 		ldr	r0, [r8, #0]
 1108 00c4 FFF7FEFF 		bl	spiSend
 1109              	.LVL115:
 1110              	.LBE134:
 1111              	.LBE135:
 1112              		.loc 1 285 0
 1113 00c8 3846     		mov	r0, r7
 1114 00ca FFF7FEFF 		bl	chThdSleep
 1115              	.LVL116:
 1116              		.loc 1 287 0
 1117 00ce 691C     		adds	r1, r5, #1
 1118              	.LBB136:
 1119              	.LBB137:
 1120              		.loc 1 268 0
 1121 00d0 D8F80000 		ldr	r0, [r8, #0]
 1122 00d4 89B2     		uxth	r1, r1
 1123 00d6 221D     		adds	r2, r4, #4
 1124              	.LVL117:
 1125 00d8 FFF7FEFF 		bl	spiSend
 1126              	.LVL118:
 1127              	.LBE137:
 1128              	.LBE136:
 1129              	.LBB138:
 1130              	.LBB139:
ARM GAS  C:\Users\Vergil\AppData\Local\Temp\ccGHOEfT.s 			page 21


 1131              	.LBB140:
 1132              		.loc 1 256 0
 1133 00dc 2023     		movs	r3, #32
 1134              	.LVL119:
 1135              	@ 256 "C:\Users\Vergil\ChibiOS_CC3000_SPI/src/cc3000_spi.c" 1
 1136 00de 83F31188 		msr     BASEPRI, r3
 1137              	@ 0 "" 2
 1138              	.LVL120:
 1139              		.thumb
 1140              	.LBE140:
 1141              		.loc 1 257 0
 1142 00e2 074B     		ldr	r3, .L95+4
 1143              	.LVL121:
 1144 00e4 0220     		movs	r0, #2
 1145 00e6 1872     		strb	r0, [r3, #8]
 1146              	.LBB141:
 1147              		.loc 1 258 0
 1148 00e8 0023     		movs	r3, #0
 1149              	.LVL122:
 1150              	@ 258 "C:\Users\Vergil\ChibiOS_CC3000_SPI/src/cc3000_spi.c" 1
 1151 00ea 83F31188 		msr     BASEPRI, r3
 1152              	@ 0 "" 2
 1153              	.LVL123:
 1154              		.thumb
 1155              	.LBE141:
 1156              	.LBE139:
 1157              	.LBE138:
 1158              		.loc 1 291 0
 1159 00ee FFF7FEFF 		bl	unselectCC3000
 1160              	.LVL124:
 1161              	.L85:
 1162              	.LBE131:
 1163              	.LBE130:
 1164              		.loc 1 628 0 discriminator 1
 1165 00f2 327A     		ldrb	r2, [r6, #8]	@ zero_extendqisi2
 1166 00f4 022A     		cmp	r2, #2
 1167 00f6 FCD1     		bne	.L85
 1168 00f8 D0E7     		b	.L94
 1169              	.L96:
 1170 00fa 00BF     		.align	2
 1171              	.L95:
 1172 00fc 00000000 		.word	.LANCHOR8
 1173 0100 00000000 		.word	.LANCHOR4
 1174 0104 00000000 		.word	tSLInformation
 1175 0108 00000000 		.word	.LANCHOR1
 1176              		.cfi_endproc
 1177              	.LFE131:
 1178              		.size	SpiWrite, .-SpiWrite
 1179 010c AFF30080 		.section	.text.cc3000ChibiosWlanInit,"ax",%progbits
 1180              		.align	2
 1181              		.p2align 4,,15
 1182              		.global	cc3000ChibiosWlanInit
 1183              		.thumb
 1184              		.thumb_func
 1185              		.type	cc3000ChibiosWlanInit, %function
 1186              	cc3000ChibiosWlanInit:
 1187              	.LFB136:
ARM GAS  C:\Users\Vergil\AppData\Local\Temp\ccGHOEfT.s 			page 22


 1188              		.loc 1 738 0
 1189              		.cfi_startproc
 1190              		@ args = 16, pretend = 0, frame = 0
 1191              		@ frame_needed = 0, uses_anonymous_args = 0
 1192              	.LVL125:
 1193 0000 2DE9F047 		push	{r4, r5, r6, r7, r8, r9, sl, lr}
 1194              	.LCFI8:
 1195              		.cfi_def_cfa_offset 32
 1196              		.cfi_offset 4, -32
 1197              		.cfi_offset 5, -28
 1198              		.cfi_offset 6, -24
 1199              		.cfi_offset 7, -20
 1200              		.cfi_offset 8, -16
 1201              		.cfi_offset 9, -12
 1202              		.cfi_offset 10, -8
 1203              		.cfi_offset 14, -4
 1204              		.loc 1 740 0
 1205 0004 40F20004 		movw	r4, #:lower16:.LANCHOR1
 1206 0008 C0F20004 		movt	r4, #:upper16:.LANCHOR1
 1207              		.loc 1 738 0
 1208 000c 0D46     		mov	r5, r1
 1209              		.loc 1 740 0
 1210 000e 2060     		str	r0, [r4, #0]
 1211              		.loc 1 755 0
 1212 0010 40F20007 		movw	r7, #:lower16:.LANCHOR10
 1213              		.loc 1 744 0
 1214 0014 40F20004 		movw	r4, #:lower16:.LANCHOR2
 1215              		.loc 1 738 0
 1216 0018 9646     		mov	lr, r2
 1217              		.loc 1 744 0
 1218 001a 0868     		ldr	r0, [r1, #0]	@ unaligned
 1219              	.LVL126:
 1220 001c AA68     		ldr	r2, [r5, #8]	@ unaligned
 1221              	.LVL127:
 1222 001e 4968     		ldr	r1, [r1, #4]	@ unaligned
 1223              	.LVL128:
 1224 0020 C0F20004 		movt	r4, #:upper16:.LANCHOR2
 1225              		.loc 1 755 0
 1226 0024 C0F20007 		movt	r7, #:upper16:.LANCHOR10
 1227              		.loc 1 747 0
 1228 0028 40F20006 		movw	r6, #:lower16:.LANCHOR9
 1229              		.loc 1 738 0
 1230 002c 82B0     		sub	sp, sp, #8
 1231              	.LCFI9:
 1232              		.cfi_def_cfa_offset 40
 1233              		.loc 1 747 0
 1234 002e C0F20006 		movt	r6, #:upper16:.LANCHOR9
 1235              		.loc 1 744 0
 1236 0032 2546     		mov	r5, r4
 1237              	.LVL129:
 1238              		.loc 1 751 0
 1239 0034 4FF4806C 		mov	ip, #1024
 1240              		.loc 1 744 0
 1241 0038 07C5     		stmia	r5!, {r0, r1, r2}
 1242              		.loc 1 751 0
 1243 003a C4F2020C 		movt	ip, 16386
 1244              		.loc 1 756 0
ARM GAS  C:\Users\Vergil\AppData\Local\Temp\ccGHOEfT.s 			page 23


 1245 003e 7046     		mov	r0, lr
 1246              		.loc 1 750 0
 1247 0040 0025     		movs	r5, #0
 1248              		.loc 1 755 0
 1249 0042 3B60     		str	r3, [r7, #0]
 1250              		.loc 1 752 0
 1251 0044 0623     		movs	r3, #6
 1252              	.LVL130:
 1253              		.loc 1 747 0
 1254 0046 C6F800E0 		str	lr, [r6, #0]
 1255              		.loc 1 751 0
 1256 004a 84E82010 		stmia	r4, {r5, ip}
 1257              		.loc 1 738 0
 1258 004e DDF828A0 		ldr	sl, [sp, #40]
 1259 0052 DDF82C90 		ldr	r9, [sp, #44]
 1260 0056 DDF83080 		ldr	r8, [sp, #48]
 1261              		.loc 1 752 0
 1262 005a 2381     		strh	r3, [r4, #8]	@ movhi
 1263              		.loc 1 756 0
 1264 005c FFF7FEFF 		bl	extStop
 1265              	.LVL131:
 1266              		.loc 1 757 0
 1267 0060 3B68     		ldr	r3, [r7, #0]
 1268              		.loc 1 761 0
 1269 0062 3068     		ldr	r0, [r6, #0]
 1270              		.loc 1 757 0
 1271 0064 0222     		movs	r2, #2
 1272 0066 1A65     		str	r2, [r3, #80]
 1273              		.loc 1 760 0
 1274 0068 40F20002 		movw	r2, #:lower16:cc3000ExtCb
 1275 006c C0F20002 		movt	r2, #:upper16:cc3000ExtCb
 1276              		.loc 1 761 0
 1277 0070 1946     		mov	r1, r3
 1278              		.loc 1 760 0
 1279 0072 5A65     		str	r2, [r3, #84]
 1280              		.loc 1 761 0
 1281 0074 FFF7FEFF 		bl	extStart
 1282              	.LVL132:
 1283              		.loc 1 769 0
 1284 0078 40F20000 		movw	r0, #:lower16:.LANCHOR6
 1285 007c 2946     		mov	r1, r5
 1286 007e C0F20000 		movt	r0, #:upper16:.LANCHOR6
 1287 0082 FFF7FEFF 		bl	chSemInit
 1288              	.LVL133:
 1289              		.loc 1 771 0
 1290 0086 40F20003 		movw	r3, #:lower16:irqSignalHandlerThread
 1291 008a 40F20000 		movw	r0, #:lower16:.LANCHOR11
 1292 008e 7F22     		movs	r2, #127
 1293 0090 4FF4EC71 		mov	r1, #472
 1294 0094 C0F20003 		movt	r3, #:upper16:irqSignalHandlerThread
 1295 0098 0095     		str	r5, [sp, #0]
 1296 009a C0F20000 		movt	r0, #:upper16:.LANCHOR11
 1297 009e FFF7FEFF 		bl	chThdCreateStatic
 1298              	.LVL134:
 1299              		.loc 1 777 0
 1300 00a2 2A46     		mov	r2, r5
 1301              		.loc 1 771 0
ARM GAS  C:\Users\Vergil\AppData\Local\Temp\ccGHOEfT.s 			page 24


 1302 00a4 40F20001 		movw	r1, #:lower16:.LANCHOR12
 1303 00a8 C0F20001 		movt	r1, #:upper16:.LANCHOR12
 1304              		.loc 1 777 0
 1305 00ac C4F20202 		movt	r2, 16386
 1306 00b0 4FF48073 		mov	r3, #256
 1307              		.loc 1 771 0
 1308 00b4 0860     		str	r0, [r1, #0]
 1309              		.loc 1 778 0
 1310 00b6 6420     		movs	r0, #100
 1311              		.loc 1 777 0
 1312 00b8 5383     		strh	r3, [r2, #26]	@ movhi
 1313              		.loc 1 778 0
 1314 00ba FFF7FEFF 		bl	chThdSleep
 1315              	.LVL135:
 1316              		.loc 1 780 0
 1317 00be 40F20000 		movw	r0, #:lower16:cbReadWlanInterruptPin
 1318 00c2 C0F20000 		movt	r0, #:upper16:cbReadWlanInterruptPin
 1319 00c6 40F20001 		movw	r1, #:lower16:SpiResumeSpi
 1320 00ca 40F20002 		movw	r2, #:lower16:SpiPauseSpi
 1321 00ce 40F20003 		movw	r3, #:lower16:cbWriteWlanPin
 1322 00d2 0A90     		str	r0, [sp, #40]
 1323 00d4 C0F20001 		movt	r1, #:upper16:SpiResumeSpi
 1324 00d8 C0F20002 		movt	r2, #:upper16:SpiPauseSpi
 1325 00dc C0F20003 		movt	r3, #:upper16:cbWriteWlanPin
 1326 00e0 40F20000 		movw	r0, #:lower16:chibiosCc3000AsyncCb
 1327 00e4 0B91     		str	r1, [sp, #44]
 1328 00e6 0C92     		str	r2, [sp, #48]
 1329 00e8 0D93     		str	r3, [sp, #52]
 1330 00ea C0F20000 		movt	r0, #:upper16:chibiosCc3000AsyncCb
 1331 00ee 5146     		mov	r1, sl
 1332 00f0 4A46     		mov	r2, r9
 1333 00f2 4346     		mov	r3, r8
 1334              		.loc 1 783 0
 1335 00f4 02B0     		add	sp, sp, #8
 1336 00f6 BDE8F047 		pop	{r4, r5, r6, r7, r8, r9, sl, lr}
 1337              		.loc 1 780 0
 1338 00fa FFF7FEBF 		b	wlan_init
 1339              	.LVL136:
 1340              		.cfi_endproc
 1341              	.LFE136:
 1342              		.size	cc3000ChibiosWlanInit, .-cc3000ChibiosWlanInit
 1343 00fe 00BF     		.section	.text.cc3000ChibiosShutdown,"ax",%progbits
 1344              		.align	2
 1345              		.p2align 4,,15
 1346              		.global	cc3000ChibiosShutdown
 1347              		.thumb
 1348              		.thumb_func
 1349              		.type	cc3000ChibiosShutdown, %function
 1350              	cc3000ChibiosShutdown:
 1351              	.LFB137:
 1352              		.loc 1 792 0
 1353              		.cfi_startproc
 1354              		@ args = 0, pretend = 0, frame = 0
 1355              		@ frame_needed = 0, uses_anonymous_args = 0
 1356 0000 70B5     		push	{r4, r5, r6, lr}
 1357              	.LCFI10:
 1358              		.cfi_def_cfa_offset 16
ARM GAS  C:\Users\Vergil\AppData\Local\Temp\ccGHOEfT.s 			page 25


 1359              		.cfi_offset 4, -16
 1360              		.cfi_offset 5, -12
 1361              		.cfi_offset 6, -8
 1362              		.cfi_offset 14, -4
 1363              		.loc 1 793 0
 1364 0002 40F20006 		movw	r6, #:lower16:.LANCHOR9
 1365 0006 C0F20006 		movt	r6, #:upper16:.LANCHOR9
 1366              		.loc 1 802 0
 1367 000a 40F20004 		movw	r4, #:lower16:.LANCHOR12
 1368              		.loc 1 793 0
 1369 000e 3068     		ldr	r0, [r6, #0]
 1370 0010 FFF7FEFF 		bl	extStop
 1371              	.LVL137:
 1372              		.loc 1 795 0
 1373 0014 40F20003 		movw	r3, #:lower16:.LANCHOR10
 1374 0018 C0F20003 		movt	r3, #:upper16:.LANCHOR10
 1375 001c 0025     		movs	r5, #0
 1376 001e 1A68     		ldr	r2, [r3, #0]
 1377              		.loc 1 799 0
 1378 0020 3068     		ldr	r0, [r6, #0]
 1379              		.loc 1 795 0
 1380 0022 1565     		str	r5, [r2, #80]
 1381              		.loc 1 802 0
 1382 0024 C0F20004 		movt	r4, #:upper16:.LANCHOR12
 1383              		.loc 1 799 0
 1384 0028 1146     		mov	r1, r2
 1385              		.loc 1 796 0
 1386 002a 5565     		str	r5, [r2, #84]
 1387              		.loc 1 799 0
 1388 002c FFF7FEFF 		bl	extStart
 1389              	.LVL138:
 1390              		.loc 1 802 0
 1391 0030 2068     		ldr	r0, [r4, #0]
 1392 0032 FFF7FEFF 		bl	chThdTerminate
 1393              	.LVL139:
 1394              		.loc 1 803 0
 1395 0036 40F20003 		movw	r3, #:lower16:.LANCHOR0
 1396 003a C0F20003 		movt	r3, #:upper16:.LANCHOR0
 1397              		.loc 1 804 0
 1398 003e 40F20000 		movw	r0, #:lower16:.LANCHOR6
 1399 0042 C0F20000 		movt	r0, #:upper16:.LANCHOR6
 1400 0046 0121     		movs	r1, #1
 1401              		.loc 1 803 0
 1402 0048 1D70     		strb	r5, [r3, #0]
 1403              		.loc 1 804 0
 1404 004a FFF7FEFF 		bl	chSemReset
 1405              	.LVL140:
 1406              		.loc 1 805 0
 1407 004e 2068     		ldr	r0, [r4, #0]
 1408 0050 FFF7FEFF 		bl	chThdWait
 1409              	.LVL141:
 1410              		.loc 1 807 0
 1411 0054 2560     		str	r5, [r4, #0]
 1412 0056 70BD     		pop	{r4, r5, r6, pc}
 1413              		.cfi_endproc
 1414              	.LFE137:
 1415              		.size	cc3000ChibiosShutdown, .-cc3000ChibiosShutdown
ARM GAS  C:\Users\Vergil\AppData\Local\Temp\ccGHOEfT.s 			page 26


 1416              		.global	wlan_tx_buffer
 1417 0058 AFF30080 		.section	.bss.irqSignalHandlerThreadWorkingArea,"aw",%nobits
 1417      AFF30080 
 1418              		.align	3
 1419              		.set	.LANCHOR11,. + 0
 1420              		.type	irqSignalHandlerThreadWorkingArea, %object
 1421              		.size	irqSignalHandlerThreadWorkingArea, 472
 1422              	irqSignalHandlerThreadWorkingArea:
 1423 0000 00000000 		.space	472
 1423      00000000 
 1423      00000000 
 1423      00000000 
 1423      00000000 
 1424              		.section	.rodata.spiReadCommand,"a",%progbits
 1425              		.align	2
 1426              		.set	.LANCHOR3,. + 0
 1427              		.type	spiReadCommand, %object
 1428              		.size	spiReadCommand, 3
 1429              	spiReadCommand:
 1430 0000 03       		.byte	3
 1431 0001 00       		.byte	0
 1432 0002 00       		.byte	0
 1433 0003 00       		.section	.bss.irqSem,"aw",%nobits
 1434              		.align	2
 1435              		.set	.LANCHOR6,. + 0
 1436              		.type	irqSem, %object
 1437              		.size	irqSem, 12
 1438              	irqSem:
 1439 0000 00000000 		.space	12
 1439      00000000 
 1439      00000000 
 1440              		.section	.rodata.__FUNCTION__.7964,"a",%progbits
 1441              		.align	2
 1442              		.set	.LANCHOR5,. + 0
 1443              		.type	__FUNCTION__.7964, %object
 1444              		.size	__FUNCTION__.7964, 23
 1445              	__FUNCTION__.7964:
 1446 0000 69727153 		.ascii	"irqSignalHandlerThread\000"
 1446      69676E61 
 1446      6C48616E 
 1446      646C6572 
 1446      54687265 
 1447 0017 00       		.section	.bss.chExtDriver,"aw",%nobits
 1448              		.align	2
 1449              		.set	.LANCHOR9,. + 0
 1450              		.type	chExtDriver, %object
 1451              		.size	chExtDriver, 4
 1452              	chExtDriver:
 1453 0000 00000000 		.space	4
 1454              		.section	.bss.pSignalHandlerThd,"aw",%nobits
 1455              		.align	2
 1456              		.set	.LANCHOR12,. + 0
 1457              		.type	pSignalHandlerThd, %object
 1458              		.size	pSignalHandlerThd, 4
 1459              	pSignalHandlerThd:
 1460 0000 00000000 		.space	4
 1461              		.section	.bss.spiInformation,"aw",%nobits
ARM GAS  C:\Users\Vergil\AppData\Local\Temp\ccGHOEfT.s 			page 27


 1462              		.align	2
 1463              		.set	.LANCHOR4,. + 0
 1464              		.type	spiInformation, %object
 1465              		.size	spiInformation, 20
 1466              	spiInformation:
 1467 0000 00000000 		.space	20
 1467      00000000 
 1467      00000000 
 1467      00000000 
 1467      00000000 
 1468              		.section	.bss.chSpiDriver,"aw",%nobits
 1469              		.align	2
 1470              		.set	.LANCHOR1,. + 0
 1471              		.type	chSpiDriver, %object
 1472              		.size	chSpiDriver, 4
 1473              	chSpiDriver:
 1474 0000 00000000 		.space	4
 1475              		.section	.data.spiPaused,"aw",%progbits
 1476              		.set	.LANCHOR0,. + 0
 1477              		.type	spiPaused, %object
 1478              		.size	spiPaused, 1
 1479              	spiPaused:
 1480 0000 01       		.byte	1
 1481              		.section	.bss.wlan_tx_buffer,"aw",%nobits
 1482              		.align	2
 1483              		.set	.LANCHOR8,. + 0
 1484              		.type	wlan_tx_buffer, %object
 1485              		.size	wlan_tx_buffer, 131
 1486              	wlan_tx_buffer:
 1487 0000 00000000 		.space	131
 1487      00000000 
 1487      00000000 
 1487      00000000 
 1487      00000000 
 1488 0083 00       		.section	.bss.chSpiConfig,"aw",%nobits
 1489              		.align	2
 1490              		.set	.LANCHOR2,. + 0
 1491              		.type	chSpiConfig, %object
 1492              		.size	chSpiConfig, 12
 1493              	chSpiConfig:
 1494 0000 00000000 		.space	12
 1494      00000000 
 1494      00000000 
 1495              		.section	.bss.chExtConfig,"aw",%nobits
 1496              		.align	2
 1497              		.set	.LANCHOR10,. + 0
 1498              		.type	chExtConfig, %object
 1499              		.size	chExtConfig, 4
 1500              	chExtConfig:
 1501 0000 00000000 		.space	4
 1502              		.section	.bss.spi_buffer,"aw",%nobits
 1503              		.align	2
 1504              		.set	.LANCHOR7,. + 0
 1505              		.type	spi_buffer, %object
 1506              		.size	spi_buffer, 131
 1507              	spi_buffer:
 1508 0000 00000000 		.space	131
ARM GAS  C:\Users\Vergil\AppData\Local\Temp\ccGHOEfT.s 			page 28


 1508      00000000 
 1508      00000000 
 1508      00000000 
 1508      00000000 
 1509 0083 00       		.text
 1510              	.Letext0:
 1511              		.file 2 "c:\\chibistudio\\tools\\gnu tools arm embedded\\4.7 2014q2\\bin\\../lib/gcc/arm-none-eabi
 1512              		.file 3 "c:\\chibistudio\\tools\\gnu tools arm embedded\\4.7 2014q2\\bin\\../lib/gcc/arm-none-eabi
 1513              		.file 4 "../../os/ports/GCC/ARMCMx/chtypes.h"
 1514              		.file 5 "../../os/kernel/include/chlists.h"
 1515              		.file 6 "../../os/kernel/include/chthreads.h"
 1516              		.file 7 "../../os/ports/GCC/ARMCMx/chcore_v7m.h"
 1517              		.file 8 "../../os/kernel/include/chschd.h"
 1518              		.file 9 "../../os/kernel/include/chsem.h"
 1519              		.file 10 "../../os/kernel/include/chmtx.h"
 1520              		.file 11 "../../os/hal/platforms/STM32F4xx/stm32f4xx.h"
 1521              		.file 12 "../../os/hal/platforms/STM32F4xx/stm32_dma.h"
 1522              		.file 13 "../../os/hal/platforms/STM32/GPIOv2/pal_lld.h"
 1523              		.file 14 "../../os/hal/include/ext.h"
 1524              		.file 15 "../../os/hal/platforms/STM32/ext_lld.h"
 1525              		.file 16 "../../os/hal/include/spi.h"
 1526              		.file 17 "../../os/hal/platforms/STM32/SPIv1/spi_lld.h"
 1527              		.file 18 "C:\\Users\\Vergil\\ChibiOS_CC3000_SPI/CC3000HostDriver/data_types.h"
 1528              		.file 19 "C:\\Users\\Vergil\\ChibiOS_CC3000_SPI/CC3000HostDriver/cc3000_common.h"
 1529              		.file 20 "C:\\Users\\Vergil\\ChibiOS_CC3000_SPI/CC3000HostDriver/netapp.h"
 1530              		.file 21 "C:\\Users\\Vergil\\ChibiOS_CC3000_SPI/api/cc3000_chibios_api.h"
 1531              		.file 22 "C:\\Users\\Vergil\\ChibiOS_CC3000_SPI/src/cc3000_spi.h"
 1532              		.file 23 "../../os/ports/common/ARMCMx/CMSIS/include/core_cm4.h"
 1533              		.file 24 "C:\\Users\\Vergil\\ChibiOS_CC3000_SPI/CC3000HostDriver/wlan.h"