ARM GAS  C:\Users\Vergil\AppData\Local\Temp\ccQeudZ4.s 			page 1


   1              		.syntax unified
   2              		.cpu cortex-m4
   3              		.eabi_attribute 27, 3
   4              		.eabi_attribute 28, 1
   5              		.fpu fpv4-sp-d16
   6              		.eabi_attribute 20, 1
   7              		.eabi_attribute 21, 1
   8              		.eabi_attribute 23, 3
   9              		.eabi_attribute 24, 1
  10              		.eabi_attribute 25, 1
  11              		.eabi_attribute 26, 1
  12              		.eabi_attribute 30, 2
  13              		.eabi_attribute 34, 1
  14              		.eabi_attribute 18, 4
  15              		.thumb
  16              		.file	"cc3000_common.c"
  17              		.text
  18              	.Ltext0:
  19              		.cfi_sections	.debug_frame
  20              		.section	.text.__error__,"ax",%progbits
  21              		.align	2
  22              		.p2align 4,,15
  23              		.global	__error__
  24              		.thumb
  25              		.thumb_func
  26              		.type	__error__, %function
  27              	__error__:
  28              	.LFB0:
  29              		.file 1 "C:\\Users\\Vergil\\ChibiOS_CC3000_SPI/CC3000HostDriver/cc3000_common.c"
  30              		.loc 1 64 0
  31              		.cfi_startproc
  32              		@ args = 0, pretend = 0, frame = 0
  33              		@ frame_needed = 0, uses_anonymous_args = 0
  34              		@ link register save eliminated.
  35              	.LVL0:
  36 0000 7047     		bx	lr
  37              		.cfi_endproc
  38              	.LFE0:
  39              		.size	__error__, .-__error__
  40 0002 00BFAFF3 		.section	.text.UINT32_TO_STREAM_f,"ax",%progbits
  40      0080AFF3 
  40      0080AFF3 
  40      0080
  41              		.align	2
  42              		.p2align 4,,15
  43              		.global	UINT32_TO_STREAM_f
  44              		.thumb
  45              		.thumb_func
  46              		.type	UINT32_TO_STREAM_f, %function
  47              	UINT32_TO_STREAM_f:
  48              	.LFB1:
  49              		.loc 1 85 0
  50              		.cfi_startproc
  51              		@ args = 0, pretend = 0, frame = 0
  52              		@ frame_needed = 0, uses_anonymous_args = 0
  53              		@ link register save eliminated.
  54              	.LVL1:
ARM GAS  C:\Users\Vergil\AppData\Local\Temp\ccQeudZ4.s 			page 2


  55              		.loc 1 85 0
  56 0000 10B4     		push	{r4}
  57              	.LCFI0:
  58              		.cfi_def_cfa_offset 4
  59              		.cfi_offset 4, -4
  60              		.loc 1 88 0
  61 0002 0A0C     		lsrs	r2, r1, #16
  62              		.loc 1 87 0
  63 0004 0C0A     		lsrs	r4, r1, #8
  64              		.loc 1 89 0
  65 0006 0B0E     		lsrs	r3, r1, #24
  66              		.loc 1 86 0
  67 0008 0170     		strb	r1, [r0, #0]
  68              	.LVL2:
  69              		.loc 1 87 0
  70 000a 4470     		strb	r4, [r0, #1]
  71              	.LVL3:
  72              		.loc 1 88 0
  73 000c 8270     		strb	r2, [r0, #2]
  74              	.LVL4:
  75              		.loc 1 89 0
  76 000e C370     		strb	r3, [r0, #3]
  77              	.LVL5:
  78              		.loc 1 91 0
  79 0010 0430     		adds	r0, r0, #4
  80              	.LVL6:
  81 0012 10BC     		pop	{r4}
  82 0014 7047     		bx	lr
  83              		.cfi_endproc
  84              	.LFE1:
  85              		.size	UINT32_TO_STREAM_f, .-UINT32_TO_STREAM_f
  86 0016 00BFAFF3 		.section	.text.UINT16_TO_STREAM_f,"ax",%progbits
  86      0080AFF3 
  86      0080
  87              		.align	2
  88              		.p2align 4,,15
  89              		.global	UINT16_TO_STREAM_f
  90              		.thumb
  91              		.thumb_func
  92              		.type	UINT16_TO_STREAM_f, %function
  93              	UINT16_TO_STREAM_f:
  94              	.LFB2:
  95              		.loc 1 108 0
  96              		.cfi_startproc
  97              		@ args = 0, pretend = 0, frame = 0
  98              		@ frame_needed = 0, uses_anonymous_args = 0
  99              		@ link register save eliminated.
 100              	.LVL7:
 101              		.loc 1 110 0
 102 0000 0B0A     		lsrs	r3, r1, #8
 103              		.loc 1 109 0
 104 0002 0170     		strb	r1, [r0, #0]
 105              	.LVL8:
 106              		.loc 1 110 0
 107 0004 4370     		strb	r3, [r0, #1]
 108              	.LVL9:
 109              		.loc 1 112 0
ARM GAS  C:\Users\Vergil\AppData\Local\Temp\ccQeudZ4.s 			page 3


 110 0006 0230     		adds	r0, r0, #2
 111              	.LVL10:
 112 0008 7047     		bx	lr
 113              		.cfi_endproc
 114              	.LFE2:
 115              		.size	UINT16_TO_STREAM_f, .-UINT16_TO_STREAM_f
 116 000a 00BFAFF3 		.section	.text.STREAM_TO_UINT16_f,"ax",%progbits
 116      0080
 117              		.align	2
 118              		.p2align 4,,15
 119              		.global	STREAM_TO_UINT16_f
 120              		.thumb
 121              		.thumb_func
 122              		.type	STREAM_TO_UINT16_f, %function
 123              	STREAM_TO_UINT16_f:
 124              	.LFB3:
 125              		.loc 1 129 0
 126              		.cfi_startproc
 127              		@ args = 0, pretend = 0, frame = 0
 128              		@ frame_needed = 0, uses_anonymous_args = 0
 129              		@ link register save eliminated.
 130              	.LVL11:
 131              		.loc 1 131 0
 132 0000 4218     		adds	r2, r0, r1
 133              		.loc 1 130 0
 134 0002 435C     		ldrb	r3, [r0, r1]	@ zero_extendqisi2
 135 0004 5078     		ldrb	r0, [r2, #1]	@ zero_extendqisi2
 136              	.LVL12:
 137 0006 03EB0021 		add	r1, r3, r0, lsl #8
 138              	.LVL13:
 139              		.loc 1 132 0
 140 000a 88B2     		uxth	r0, r1
 141 000c 7047     		bx	lr
 142              		.cfi_endproc
 143              	.LFE3:
 144              		.size	STREAM_TO_UINT16_f, .-STREAM_TO_UINT16_f
 145 000e 00BF     		.section	.text.STREAM_TO_UINT32_f,"ax",%progbits
 146              		.align	2
 147              		.p2align 4,,15
 148              		.global	STREAM_TO_UINT32_f
 149              		.thumb
 150              		.thumb_func
 151              		.type	STREAM_TO_UINT32_f, %function
 152              	STREAM_TO_UINT32_f:
 153              	.LFB4:
 154              		.loc 1 149 0
 155              		.cfi_startproc
 156              		@ args = 0, pretend = 0, frame = 0
 157              		@ frame_needed = 0, uses_anonymous_args = 0
 158              		@ link register save eliminated.
 159              	.LVL14:
 160 0000 10B4     		push	{r4}
 161              	.LCFI1:
 162              		.cfi_def_cfa_offset 4
 163              		.cfi_offset 4, -4
 164              		.loc 1 151 0
 165 0002 4318     		adds	r3, r0, r1
ARM GAS  C:\Users\Vergil\AppData\Local\Temp\ccQeudZ4.s 			page 4


 166              		.loc 1 153 0
 167 0004 425C     		ldrb	r2, [r0, r1]	@ zero_extendqisi2
 168              		.loc 1 151 0
 169 0006 9C78     		ldrb	r4, [r3, #2]	@ zero_extendqisi2
 170              		.loc 1 150 0
 171 0008 D978     		ldrb	r1, [r3, #3]	@ zero_extendqisi2
 172              	.LVL15:
 173              		.loc 1 152 0
 174 000a 5878     		ldrb	r0, [r3, #1]	@ zero_extendqisi2
 175              	.LVL16:
 176              		.loc 1 151 0
 177 000c 2304     		lsls	r3, r4, #16
 178 000e 03EB0161 		add	r1, r3, r1, lsl #24
 179              		.loc 1 152 0
 180 0012 8A18     		adds	r2, r1, r2
 181              		.loc 1 154 0
 182 0014 02EB0020 		add	r0, r2, r0, lsl #8
 183 0018 10BC     		pop	{r4}
 184 001a 7047     		bx	lr
 185              		.cfi_endproc
 186              	.LFE4:
 187              		.size	STREAM_TO_UINT32_f, .-STREAM_TO_UINT32_f
 188 001c AFF30080 		.text
 189              	.Letext0:
 190              		.file 2 "C:\\Users\\Vergil\\ChibiOS_CC3000_SPI/CC3000HostDriver/data_types.h"