ARM GAS  C:\Users\Vergil\AppData\Local\Temp\ccWZBsHj.s 			page 1


   1              		.syntax unified
   2              		.cpu cortex-m4
   3              		.eabi_attribute 27, 3
   4              		.eabi_attribute 28, 1
   5              		.fpu fpv4-sp-d16
   6              		.eabi_attribute 20, 1
   7              		.eabi_attribute 21, 1
   8              		.eabi_attribute 23, 3
   9              		.eabi_attribute 24, 1
  10              		.eabi_attribute 25, 1
  11              		.eabi_attribute 26, 1
  12              		.eabi_attribute 30, 2
  13              		.eabi_attribute 34, 1
  14              		.eabi_attribute 18, 4
  15              		.thumb
  16              		.file	"chcore_v7m.c"
  17              		.text
  18              	.Ltext0:
  19              		.cfi_sections	.debug_frame
  20              		.section	.text._port_switch_from_isr,"ax",%progbits
  21              		.align	2
  22              		.p2align 4,,15
  23              		.global	_port_switch_from_isr
  24              		.thumb
  25              		.thumb_func
  26              		.type	_port_switch_from_isr, %function
  27              	_port_switch_from_isr:
  28              	.LFB11:
  29              		.file 1 "../../os/ports/GCC/ARMCMx/chcore_v7m.c"
  30              		.loc 1 197 0
  31              		.cfi_startproc
  32              		@ Naked Function: prologue and epilogue provided by programmer.
  33              		@ args = 0, pretend = 0, frame = 0
  34              		@ frame_needed = 0, uses_anonymous_args = 0
  35              		.loc 1 200 0
  36 0000 FFF7FEFF 		bl	chSchDoReschedule
  37              	.LVL0:
  38              		.loc 1 202 0
  39              	@ 202 "../../os/ports/GCC/ARMCMx/chcore_v7m.c" 1
  40              		_port_exit_from_isr:
  41              	@ 0 "" 2
  42              		.loc 1 204 0
  43              	@ 204 "../../os/ports/GCC/ARMCMx/chcore_v7m.c" 1
  44 0004 00DF     		svc     #0
  45              	@ 0 "" 2
  46              		.loc 1 211 0
  47              		.thumb
  48              		.cfi_endproc
  49              	.LFE11:
  50              		.size	_port_switch_from_isr, .-_port_switch_from_isr
  51 0006 00BFAFF3 		.section	.text.SVCallVector,"ax",%progbits
  51      0080AFF3 
  51      0080
  52              		.align	2
  53              		.p2align 4,,15
  54              		.global	SVCallVector
  55              		.thumb
ARM GAS  C:\Users\Vergil\AppData\Local\Temp\ccWZBsHj.s 			page 2


  56              		.thumb_func
  57              		.type	SVCallVector, %function
  58              	SVCallVector:
  59              	.LFB8:
  60              		.loc 1 65 0
  61              		.cfi_startproc
  62              		@ args = 0, pretend = 0, frame = 0
  63              		@ frame_needed = 0, uses_anonymous_args = 0
  64              		@ link register save eliminated.
  65              		.loc 1 70 0
  66 0000 4EF63073 		movw	r3, #61232
  67 0004 CEF20003 		movt	r3, 57344
  68 0008 5A68     		ldr	r2, [r3, #4]
  69 000a 22F00100 		bic	r0, r2, #1
  70 000e 5860     		str	r0, [r3, #4]
  71              		.loc 1 74 0
  72              	@ 74 "../../os/ports/GCC/ARMCMx/chcore_v7m.c" 1
  73 0010 EFF30981 		mrs     r1, PSP
  74              	@ 0 "" 2
  75              	.LVL1:
  76              		.loc 1 78 0
  77              		.thumb
  78 0014 6831     		adds	r1, r1, #104
  79              	.LVL2:
  80              		.loc 1 81 0
  81              	@ 81 "../../os/ports/GCC/ARMCMx/chcore_v7m.c" 1
  82 0016 81F30988 		msr     PSP, r1
  83              	@ 0 "" 2
  84              		.thumb
  85              	.LBB2:
  86              		.loc 1 82 0
  87 001a 0023     		movs	r3, #0
  88              	.LVL3:
  89              	@ 82 "../../os/ports/GCC/ARMCMx/chcore_v7m.c" 1
  90 001c 83F31188 		msr     BASEPRI, r3
  91              	@ 0 "" 2
  92              	.LVL4:
  93              		.thumb
  94 0020 7047     		bx	lr
  95              	.LBE2:
  96              		.cfi_endproc
  97              	.LFE8:
  98              		.size	SVCallVector, .-SVCallVector
  99 0022 00BFAFF3 		.section	.text._port_init,"ax",%progbits
  99      0080AFF3 
  99      0080AFF3 
  99      0080
 100              		.align	2
 101              		.p2align 4,,15
 102              		.global	_port_init
 103              		.thumb
 104              		.thumb_func
 105              		.type	_port_init, %function
 106              	_port_init:
 107              	.LFB9:
 108              		.loc 1 120 0
 109              		.cfi_startproc
ARM GAS  C:\Users\Vergil\AppData\Local\Temp\ccWZBsHj.s 			page 3


 110              		@ args = 0, pretend = 0, frame = 0
 111              		@ frame_needed = 0, uses_anonymous_args = 0
 112 0000 08B5     		push	{r3, lr}
 113              	.LCFI0:
 114              		.cfi_def_cfa_offset 8
 115              		.cfi_offset 3, -8
 116              		.cfi_offset 14, -4
 117              		.loc 1 123 0
 118 0002 4FF46D43 		mov	r3, #60672
 119 0006 CEF20003 		movt	r3, 57344
 120              		.loc 1 124 0
 121 000a 4FF44072 		mov	r2, #768
 122 000e C0F2FA52 		movt	r2, 1530
 123              		.loc 1 123 0
 124 0012 0021     		movs	r1, #0
 125 0014 9960     		str	r1, [r3, #8]
 126              		.loc 1 127 0
 127 0016 0720     		movs	r0, #7
 128 0018 1021     		movs	r1, #16
 129              		.loc 1 124 0
 130 001a DA60     		str	r2, [r3, #12]
 131              		.loc 1 127 0
 132 001c FFF7FEFF 		bl	nvicSetSystemHandlerPriority
 133              	.LVL5:
 134              		.loc 1 129 0
 135 0020 0A20     		movs	r0, #10
 136 0022 2021     		movs	r1, #32
 137 0024 FFF7FEFF 		bl	nvicSetSystemHandlerPriority
 138              	.LVL6:
 139              		.loc 1 131 0
 140 0028 0B20     		movs	r0, #11
 141 002a 8021     		movs	r1, #128
 142              		.loc 1 133 0
 143 002c BDE80840 		pop	{r3, lr}
 144              		.loc 1 131 0
 145 0030 FFF7FEBF 		b	nvicSetSystemHandlerPriority
 146              	.LVL7:
 147              		.cfi_endproc
 148              	.LFE9:
 149              		.size	_port_init, .-_port_init
 150 0034 AFF30080 		.section	.text._port_irq_epilogue,"ax",%progbits
 150      AFF30080 
 150      AFF30080 
 151              		.align	2
 152              		.p2align 4,,15
 153              		.global	_port_irq_epilogue
 154              		.thumb
 155              		.thumb_func
 156              		.type	_port_irq_epilogue, %function
 157              	_port_irq_epilogue:
 158              	.LFB10:
 159              		.loc 1 150 0
 160              		.cfi_startproc
 161              		@ args = 0, pretend = 0, frame = 0
 162              		@ frame_needed = 0, uses_anonymous_args = 0
 163              		@ link register save eliminated.
 164              	.LBB3:
ARM GAS  C:\Users\Vergil\AppData\Local\Temp\ccWZBsHj.s 			page 4


 165              		.loc 1 152 0
 166 0000 2023     		movs	r3, #32
 167              	.LVL8:
 168              	@ 152 "../../os/ports/GCC/ARMCMx/chcore_v7m.c" 1
 169 0002 83F31188 		msr     BASEPRI, r3
 170              	@ 0 "" 2
 171              	.LVL9:
 172              		.thumb
 173              	.LBE3:
 174              		.loc 1 153 0
 175 0006 4FF46D43 		mov	r3, #60672
 176              	.LVL10:
 177 000a CEF20003 		movt	r3, 57344
 178 000e 5868     		ldr	r0, [r3, #4]
 179 0010 10F40063 		ands	r3, r0, #2048
 180 0014 1BD0     		beq	.L5
 181              	.LBB4:
 182              		.loc 1 159 0
 183              	@ 159 "../../os/ports/GCC/ARMCMx/chcore_v7m.c" 1
 184 0016 F1EE10FA 		vmrs    APSR_nzcv, FPSCR
 185              	@ 0 "" 2
 186              		.loc 1 163 0
 187              	@ 163 "../../os/ports/GCC/ARMCMx/chcore_v7m.c" 1
 188 001a EFF30983 		mrs     r3, PSP
 189              	@ 0 "" 2
 190              	.LVL11:
 191              		.loc 1 168 0
 192              		.thumb
 193 001e 4FF08072 		mov	r2, #16777216
 194 0022 43F84C2C 		str	r2, [r3, #-76]
 195              		.loc 1 167 0
 196 0026 A3F16801 		sub	r1, r3, #104
 197              	.LVL12:
 198              		.loc 1 169 0
 199              	@ 169 "../../os/ports/GCC/ARMCMx/chcore_v7m.c" 1
 200 002a 81F30988 		msr     PSP, r1
 201              	@ 0 "" 2
 202              		.loc 1 173 0
 203              		.thumb
 204 002e 0E49     		ldr	r1, .L12
 205              	.LVL13:
 206 0030 8A69     		ldr	r2, [r1, #24]
 207 0032 0968     		ldr	r1, [r1, #0]
 208 0034 D07F     		ldrb	r0, [r2, #31]	@ zero_extendqisi2
 209 0036 8968     		ldr	r1, [r1, #8]
 210 0038 9268     		ldr	r2, [r2, #8]
 211 003a 58B1     		cbz	r0, .L6
 212              		.loc 1 173 0 is_stmt 0 discriminator 1
 213 003c 9142     		cmp	r1, r2
 214 003e 94BF     		ite	ls
 215 0040 0022     		movls	r2, #0
 216 0042 0122     		movhi	r2, #1
 217 0044 62B1     		cbz	r2, .L8
 218              	.L11:
 219              		.loc 1 175 0 is_stmt 1
 220 0046 094A     		ldr	r2, .L12+4
 221 0048 43F8502C 		str	r2, [r3, #-80]
ARM GAS  C:\Users\Vergil\AppData\Local\Temp\ccWZBsHj.s 			page 5


 222 004c 7047     		bx	lr
 223              	.LVL14:
 224              	.L5:
 225              	.LBE4:
 226              	.LBB5:
 227              		.loc 1 187 0
 228              	@ 187 "../../os/ports/GCC/ARMCMx/chcore_v7m.c" 1
 229 004e 83F31188 		msr     BASEPRI, r3
 230              	@ 0 "" 2
 231              	.LVL15:
 232              		.thumb
 233 0052 7047     		bx	lr
 234              	.LVL16:
 235              	.L6:
 236              	.LBE5:
 237              	.LBB6:
 238              		.loc 1 173 0 discriminator 2
 239 0054 9142     		cmp	r1, r2
 240 0056 34BF     		ite	cc
 241 0058 0022     		movcc	r2, #0
 242 005a 0122     		movcs	r2, #1
 243 005c 002A     		cmp	r2, #0
 244 005e F2D1     		bne	.L11
 245              	.L8:
 246              		.loc 1 180 0
 247 0060 0348     		ldr	r0, .L12+8
 248 0062 43F8500C 		str	r0, [r3, #-80]
 249 0066 7047     		bx	lr
 250              	.L13:
 251              		.align	2
 252              	.L12:
 253 0068 00000000 		.word	rlist
 254 006c 00000000 		.word	_port_switch_from_isr
 255 0070 04000000 		.word	_port_exit_from_isr
 256              	.LBE6:
 257              		.cfi_endproc
 258              	.LFE10:
 259              		.size	_port_irq_epilogue, .-_port_irq_epilogue
 260 0074 AFF30080 		.section	.text.SysTickVector,"ax",%progbits
 260      AFF30080 
 260      AFF30080 
 261              		.align	2
 262              		.p2align 4,,15
 263              		.global	SysTickVector
 264              		.thumb
 265              		.thumb_func
 266              		.type	SysTickVector, %function
 267              	SysTickVector:
 268              	.LFB7:
 269              		.loc 1 47 0
 270              		.cfi_startproc
 271              		@ args = 0, pretend = 0, frame = 0
 272              		@ frame_needed = 0, uses_anonymous_args = 0
 273 0000 08B5     		push	{r3, lr}
 274              	.LCFI1:
 275              		.cfi_def_cfa_offset 8
 276              		.cfi_offset 3, -8
ARM GAS  C:\Users\Vergil\AppData\Local\Temp\ccWZBsHj.s 			page 6


 277              		.cfi_offset 14, -4
 278              	.LBB7:
 279              		.loc 1 51 0
 280 0002 2023     		movs	r3, #32
 281              	.LVL17:
 282              	@ 51 "../../os/ports/GCC/ARMCMx/chcore_v7m.c" 1
 283 0004 83F31188 		msr     BASEPRI, r3
 284              	@ 0 "" 2
 285              	.LVL18:
 286              		.thumb
 287              	.LBE7:
 288              		.loc 1 52 0
 289 0008 FFF7FEFF 		bl	chSysTimerHandlerI
 290              	.LVL19:
 291              	.LBB8:
 292              		.loc 1 53 0
 293 000c 0023     		movs	r3, #0
 294              	.LVL20:
 295              	@ 53 "../../os/ports/GCC/ARMCMx/chcore_v7m.c" 1
 296 000e 83F31188 		msr     BASEPRI, r3
 297              	@ 0 "" 2
 298              	.LVL21:
 299              		.thumb
 300              	.LBE8:
 301              		.loc 1 56 0
 302 0012 BDE80840 		pop	{r3, lr}
 303              		.loc 1 55 0
 304 0016 FFF7FEBF 		b	_port_irq_epilogue
 305              	.LVL22:
 306              		.cfi_endproc
 307              	.LFE7:
 308              		.size	SysTickVector, .-SysTickVector
 309              		.section	.text._port_switch,"ax",%progbits
 310              		.align	2
 311              		.p2align 4,,15
 312              		.global	_port_switch
 313              		.thumb
 314              		.thumb_func
 315              		.type	_port_switch, %function
 316              	_port_switch:
 317              	.LFB12:
 318              		.loc 1 226 0
 319              		.cfi_startproc
 320              		@ Naked Function: prologue and epilogue provided by programmer.
 321              		@ args = 0, pretend = 0, frame = 0
 322              		@ frame_needed = 0, uses_anonymous_args = 0
 323              	.LVL23:
 324              		.loc 1 228 0
 325              	@ 228 "../../os/ports/GCC/ARMCMx/chcore_v7m.c" 1
 326 0000 2DE9F04F 		push    {r4, r5, r6, r7, r8, r9, r10, r11, lr}
 327              	@ 0 "" 2
 328              		.loc 1 231 0
 329              	@ 231 "../../os/ports/GCC/ARMCMx/chcore_v7m.c" 1
 330 0004 2DED108A 		vpush   {s16-s31}
 331              	@ 0 "" 2
 332              		.loc 1 234 0
 333              	@ 234 "../../os/ports/GCC/ARMCMx/chcore_v7m.c" 1
ARM GAS  C:\Users\Vergil\AppData\Local\Temp\ccWZBsHj.s 			page 7


 334 0008 C1F80CD0 		str     sp, [r1, #12]                          
 335 000c D0F80CD0 		ldr     sp, [r0, #12]
 336              	@ 0 "" 2
 337              		.loc 1 238 0
 338              	@ 238 "../../os/ports/GCC/ARMCMx/chcore_v7m.c" 1
 339 0010 BDEC108A 		vpop    {s16-s31}
 340              	@ 0 "" 2
 341              		.loc 1 240 0
 342              	@ 240 "../../os/ports/GCC/ARMCMx/chcore_v7m.c" 1
 343 0014 BDE8F08F 		pop     {r4, r5, r6, r7, r8, r9, r10, r11, pc}
 344              	@ 0 "" 2
 345              		.loc 1 242 0
 346              		.thumb
 347              		.cfi_endproc
 348              	.LFE12:
 349              		.size	_port_switch, .-_port_switch
 350 0018 AFF30080 		.section	.text._port_thread_start,"ax",%progbits
 350      AFF30080 
 351              		.align	2
 352              		.p2align 4,,15
 353              		.global	_port_thread_start
 354              		.thumb
 355              		.thumb_func
 356              		.type	_port_thread_start, %function
 357              	_port_thread_start:
 358              	.LFB13:
 359              		.loc 1 249 0
 360              		.cfi_startproc
 361              		@ args = 0, pretend = 0, frame = 0
 362              		@ frame_needed = 0, uses_anonymous_args = 0
 363              		@ link register save eliminated.
 364              	.LBB9:
 365              		.loc 1 251 0
 366 0000 0023     		movs	r3, #0
 367              	.LVL24:
 368              	@ 251 "../../os/ports/GCC/ARMCMx/chcore_v7m.c" 1
 369 0002 83F31188 		msr     BASEPRI, r3
 370              	@ 0 "" 2
 371              	.LVL25:
 372              		.thumb
 373              	.LBE9:
 374              		.loc 1 252 0
 375              	@ 252 "../../os/ports/GCC/ARMCMx/chcore_v7m.c" 1
 376 0006 2846     		mov     r0, r5                                 
 377 0008 A047     		blx     r4                                     
 378 000a FFF7FEFF 		bl      chThdExit
 379              	@ 0 "" 2
 380              		.thumb
 381 000e 7047     		bx	lr
 382              		.cfi_endproc
 383              	.LFE13:
 384              		.size	_port_thread_start, .-_port_thread_start
 385              		.text
 386              	.Letext0:
 387              		.file 2 "c:\\chibistudio\\tools\\gnu tools arm embedded\\4.7 2014q2\\bin\\../lib/gcc/arm-none-eabi
 388              		.file 3 "../../os/ports/GCC/ARMCMx/chtypes.h"
 389              		.file 4 "../../os/kernel/include/chlists.h"
ARM GAS  C:\Users\Vergil\AppData\Local\Temp\ccWZBsHj.s 			page 8


 390              		.file 5 "../../os/kernel/include/chthreads.h"
 391              		.file 6 "../../os/ports/GCC/ARMCMx/chcore_v7m.h"
 392              		.file 7 "../../os/ports/common/ARMCMx/nvic.h"
 393              		.file 8 "../../os/kernel/include/chschd.h"
 394              		.file 9 "../../os/kernel/include/chmtx.h"
 395              		.file 10 "../../os/kernel/include/chsys.h"