ARM GAS  C:\Users\Vergil\AppData\Local\Temp\cc7p4uwA.s 			page 1


   1              		.syntax unified
   2              		.cpu cortex-m4
   3              		.eabi_attribute 27, 3
   4              		.eabi_attribute 28, 1
   5              		.fpu fpv4-sp-d16
   6              		.eabi_attribute 20, 1
   7              		.eabi_attribute 21, 1
   8              		.eabi_attribute 23, 3
   9              		.eabi_attribute 24, 1
  10              		.eabi_attribute 25, 1
  11              		.eabi_attribute 26, 1
  12              		.eabi_attribute 30, 2
  13              		.eabi_attribute 34, 1
  14              		.eabi_attribute 18, 4
  15              		.thumb
  16              		.file	"dht11.cpp"
  17              		.text
  18              	.Ltext0:
  19              		.cfi_sections	.debug_frame
  20              		.section	.text._ZN5DHT11C2EP12GPIO_TypeDefi,"ax",%progbits
  21              		.align	2
  22              		.p2align 4,,15
  23              		.global	_ZN5DHT11C2EP12GPIO_TypeDefi
  24              		.thumb
  25              		.thumb_func
  26              		.type	_ZN5DHT11C2EP12GPIO_TypeDefi, %function
  27              	_ZN5DHT11C2EP12GPIO_TypeDefi:
  28              	.LFB120:
  29              		.file 1 "C:/ChibiStudio/chibios/demos/ARMCM4-STM32F401RE-NUCLEO-CC3K/sensors/dht11.cpp"
  30              		.loc 1 14 0
  31              		.cfi_startproc
  32              		@ args = 0, pretend = 0, frame = 0
  33              		@ frame_needed = 0, uses_anonymous_args = 0
  34              	.LVL0:
  35 0000 38B5     		push	{r3, r4, r5, lr}
  36              	.LCFI0:
  37              		.cfi_def_cfa_offset 16
  38              		.cfi_offset 3, -16
  39              		.cfi_offset 4, -12
  40              		.cfi_offset 5, -8
  41              		.cfi_offset 14, -4
  42              		.loc 1 14 0
  43 0002 0446     		mov	r4, r0
  44              	.LBB5:
  45              		.loc 1 15 0
  46 0004 4161     		str	r1, [r0, #20]
  47 0006 8261     		str	r2, [r0, #24]
  48              		.loc 1 18 0
  49 0008 FFF7FEFF 		bl	tmObjectInit
  50              	.LVL1:
  51              		.loc 1 20 0
  52 000c A169     		ldr	r1, [r4, #24]
  53 000e 6069     		ldr	r0, [r4, #20]
  54 0010 0125     		movs	r5, #1
  55 0012 05FA01F1 		lsl	r1, r5, r1
  56 0016 2A46     		mov	r2, r5
  57 0018 FFF7FEFF 		bl	_pal_lld_setgroupmode
ARM GAS  C:\Users\Vergil\AppData\Local\Temp\cc7p4uwA.s 			page 2


  58              	.LVL2:
  59              		.loc 1 21 0
  60 001c A269     		ldr	r2, [r4, #24]
  61 001e 6369     		ldr	r3, [r4, #20]
  62 0020 05FA02F0 		lsl	r0, r5, r2
  63 0024 81B2     		uxth	r1, r0
  64 0026 1983     		strh	r1, [r3, #24]	@ movhi
  65              	.LBE5:
  66              		.loc 1 22 0
  67 0028 2046     		mov	r0, r4
  68 002a 38BD     		pop	{r3, r4, r5, pc}
  69              		.cfi_endproc
  70              	.LFE120:
  71              		.size	_ZN5DHT11C2EP12GPIO_TypeDefi, .-_ZN5DHT11C2EP12GPIO_TypeDefi
  72              		.global	_ZN5DHT11C1EP12GPIO_TypeDefi
  73              		.thumb_set _ZN5DHT11C1EP12GPIO_TypeDefi,_ZN5DHT11C2EP12GPIO_TypeDefi
  74 002c AFF30080 		.section	.text._ZN5DHT1110read_DHT11Ev,"ax",%progbits
  75              		.align	2
  76              		.p2align 4,,15
  77              		.global	_ZN5DHT1110read_DHT11Ev
  78              		.thumb
  79              		.thumb_func
  80              		.type	_ZN5DHT1110read_DHT11Ev, %function
  81              	_ZN5DHT1110read_DHT11Ev:
  82              	.LFB122:
  83              		.loc 1 25 0
  84              		.cfi_startproc
  85              		@ args = 0, pretend = 0, frame = 0
  86              		@ frame_needed = 0, uses_anonymous_args = 0
  87              	.LVL3:
  88 0000 2DE9F047 		push	{r4, r5, r6, r7, r8, r9, sl, lr}
  89              	.LCFI1:
  90              		.cfi_def_cfa_offset 32
  91              		.cfi_offset 4, -32
  92              		.cfi_offset 5, -28
  93              		.cfi_offset 6, -24
  94              		.cfi_offset 7, -20
  95              		.cfi_offset 8, -16
  96              		.cfi_offset 9, -12
  97              		.cfi_offset 10, -8
  98              		.cfi_offset 14, -4
  99              	.LBB6:
 100              		.loc 1 37 0
 101 0004 8169     		ldr	r1, [r0, #24]
 102              	.LBE6:
 103              		.loc 1 25 0
 104 0006 8146     		mov	r9, r0
 105              	.LBB7:
 106              		.loc 1 37 0
 107 0008 0124     		movs	r4, #1
 108              		.loc 1 33 0
 109 000a 0023     		movs	r3, #0
 110              		.loc 1 37 0
 111 000c 04FA01F1 		lsl	r1, r4, r1
 112 0010 2246     		mov	r2, r4
 113              		.loc 1 33 0
 114 0012 89F81C30 		strb	r3, [r9, #28]
ARM GAS  C:\Users\Vergil\AppData\Local\Temp\cc7p4uwA.s 			page 3


 115              	.LVL4:
 116 0016 89F81D30 		strb	r3, [r9, #29]
 117              	.LVL5:
 118 001a 89F81E30 		strb	r3, [r9, #30]
 119              	.LVL6:
 120 001e 89F81F30 		strb	r3, [r9, #31]
 121              	.LVL7:
 122 0022 89F82030 		strb	r3, [r9, #32]
 123              	.LVL8:
 124              		.loc 1 37 0
 125 0026 4069     		ldr	r0, [r0, #20]
 126              	.LVL9:
 127 0028 FFF7FEFF 		bl	_pal_lld_setgroupmode
 128              	.LVL10:
 129              		.loc 1 39 0
 130 002c D9F81820 		ldr	r2, [r9, #24]
 131 0030 D9F81450 		ldr	r5, [r9, #20]
 132 0034 04FA02F0 		lsl	r0, r4, r2
 133 0038 81B2     		uxth	r1, r0
 134 003a 6983     		strh	r1, [r5, #26]	@ movhi
 135              		.loc 1 40 0
 136 003c 1220     		movs	r0, #18
 137 003e FFF7FEFF 		bl	chThdSleep
 138              	.LVL11:
 139              		.loc 1 41 0
 140 0042 D9F81820 		ldr	r2, [r9, #24]
 141 0046 D9F81430 		ldr	r3, [r9, #20]
 142 004a 04FA02F5 		lsl	r5, r4, r2
 143 004e A9B2     		uxth	r1, r5
 144 0050 1983     		strh	r1, [r3, #24]	@ movhi
 145              		.loc 1 42 0
 146 0052 2046     		mov	r0, r4
 147 0054 FFF7FEFF 		bl	chThdSleep
 148              	.LVL12:
 149              		.loc 1 43 0
 150 0058 D9F81820 		ldr	r2, [r9, #24]
 151 005c D9F81400 		ldr	r0, [r9, #20]
 152 0060 04FA02F1 		lsl	r1, r4, r2
 153 0064 2022     		movs	r2, #32
 154 0066 FFF7FEFF 		bl	_pal_lld_setgroupmode
 155              	.LVL13:
 156 006a D9F81430 		ldr	r3, [r9, #20]
 157 006e D9F81810 		ldr	r1, [r9, #24]
 158              		.loc 1 47 0
 159 0072 1D69     		ldr	r5, [r3, #16]
 160 0074 48F2A160 		movw	r0, #34465
 161 0078 64F31F40 		bfi	r0, r4, #16, #16
 162 007c 04FA01F2 		lsl	r2, r4, r1
 163 0080 0138     		subs	r0, r0, #1
 164 0082 2A42     		tst	r2, r5
 165 0084 04EA0004 		and	r4, r4, r0
 166              	.LVL14:
 167 0088 0DD1     		bne	.L56
 168 008a 0028     		cmp	r0, #0
 169 008c 7DD0     		beq	.L16
 170 008e 14B1     		cbz	r4, .L3
 171 0090 06E0     		b	.L61
ARM GAS  C:\Users\Vergil\AppData\Local\Temp\cc7p4uwA.s 			page 4


 172              	.L63:
 173 0092 0138     		subs	r0, r0, #1
 174 0094 79D0     		beq	.L16
 175              	.L3:
 176              		.loc 1 47 0 is_stmt 0 discriminator 1
 177 0096 1C69     		ldr	r4, [r3, #16]
 178 0098 2242     		tst	r2, r4
 179 009a 00F1FF30 		add	r0, r0, #-1
 180 009e 02D1     		bne	.L56
 181              	.L61:
 182              		.loc 1 47 0
 183 00a0 1C69     		ldr	r4, [r3, #16]
 184 00a2 2242     		tst	r2, r4
 185 00a4 F5D0     		beq	.L63
 186              	.L56:
 187              		.loc 1 49 0 is_stmt 1
 188 00a6 1869     		ldr	r0, [r3, #16]
 189 00a8 1042     		tst	r0, r2
 190 00aa 0ED0     		beq	.L57
 191 00ac 48F2A060 		movw	r0, #34464
 192 00b0 C0F20100 		movt	r0, 1
 193 00b4 04E0     		b	.L6
 194              	.L7:
 195              		.loc 1 49 0 is_stmt 0 discriminator 2
 196 00b6 1C69     		ldr	r4, [r3, #16]
 197 00b8 1442     		tst	r4, r2
 198 00ba 06D0     		beq	.L57
 199              		.loc 1 49 0
 200 00bc 0138     		subs	r0, r0, #1
 201 00be 68D0     		beq	.L64
 202              	.L6:
 203              		.loc 1 49 0 discriminator 1
 204 00c0 1C69     		ldr	r4, [r3, #16]
 205 00c2 1442     		tst	r4, r2
 206 00c4 00F1FF30 		add	r0, r0, #-1
 207 00c8 F5D1     		bne	.L7
 208              	.L57:
 209 00ca CA46     		mov	sl, r9
 210              		.loc 1 24 0 is_stmt 1 discriminator 1
 211 00cc 09F12808 		add	r8, r9, #40
 212 00d0 0725     		movs	r5, #7
 213 00d2 0124     		movs	r4, #1
 214              		.loc 1 59 0 discriminator 1
 215 00d4 0026     		movs	r6, #0
 216              		.loc 1 70 0 discriminator 1
 217 00d6 40F67357 		movw	r7, #3443
 218              	.LVL15:
 219              	.L8:
 220              		.loc 1 57 0 discriminator 1
 221 00da 1869     		ldr	r0, [r3, #16]
 222 00dc 04FA01F1 		lsl	r1, r4, r1
 223 00e0 48F2A062 		movw	r2, #34464
 224 00e4 0142     		tst	r1, r0
 225 00e6 C0F20102 		movt	r2, 1
 226 00ea 05D0     		beq	.L9
 227 00ec 09E0     		b	.L58
 228              	.L10:
ARM GAS  C:\Users\Vergil\AppData\Local\Temp\cc7p4uwA.s 			page 5


 229              		.loc 1 57 0 is_stmt 0 discriminator 2
 230 00ee 1869     		ldr	r0, [r3, #16]
 231 00f0 0142     		tst	r1, r0
 232 00f2 06D1     		bne	.L58
 233              		.loc 1 57 0
 234 00f4 013A     		subs	r2, r2, #1
 235 00f6 40D0     		beq	.L65
 236              	.L9:
 237              		.loc 1 57 0 discriminator 1
 238 00f8 1869     		ldr	r0, [r3, #16]
 239 00fa 0142     		tst	r1, r0
 240 00fc 02F1FF32 		add	r2, r2, #-1
 241 0100 F5D0     		beq	.L10
 242              	.L58:
 243              		.loc 1 62 0 is_stmt 1
 244 0102 D9F80030 		ldr	r3, [r9, #0]
 245              		.loc 1 59 0
 246 0106 C9F80860 		str	r6, [r9, #8]
 247              		.loc 1 62 0
 248 010a 4846     		mov	r0, r9
 249 010c 9847     		blx	r3
 250              	.LVL16:
 251 010e D9F81420 		ldr	r2, [r9, #20]
 252 0112 D9F81810 		ldr	r1, [r9, #24]
 253              		.loc 1 65 0
 254 0116 1069     		ldr	r0, [r2, #16]
 255 0118 04FA01F1 		lsl	r1, r4, r1
 256 011c 48F2A063 		movw	r3, #34464
 257 0120 0142     		tst	r1, r0
 258 0122 C0F20103 		movt	r3, 1
 259              	.LVL17:
 260 0126 05D1     		bne	.L11
 261 0128 09E0     		b	.L59
 262              	.L12:
 263              		.loc 1 65 0 is_stmt 0 discriminator 2
 264 012a 1069     		ldr	r0, [r2, #16]
 265 012c 0142     		tst	r1, r0
 266 012e 06D0     		beq	.L59
 267              		.loc 1 65 0
 268 0130 013B     		subs	r3, r3, #1
 269 0132 26D0     		beq	.L66
 270              	.L11:
 271              		.loc 1 65 0 discriminator 1
 272 0134 1069     		ldr	r0, [r2, #16]
 273 0136 0142     		tst	r1, r0
 274 0138 03F1FF33 		add	r3, r3, #-1
 275 013c F5D1     		bne	.L12
 276              	.L59:
 277              		.loc 1 67 0 is_stmt 1
 278 013e D9F80420 		ldr	r2, [r9, #4]
 279 0142 4846     		mov	r0, r9
 280 0144 9047     		blx	r2
 281              	.LVL18:
 282              		.loc 1 70 0
 283 0146 D9F80810 		ldr	r1, [r9, #8]
 284 014a B942     		cmp	r1, r7
 285 014c 07D9     		bls	.L13
ARM GAS  C:\Users\Vergil\AppData\Local\Temp\cc7p4uwA.s 			page 6


 286              		.loc 1 71 0
 287 014e 9AF81C30 		ldrb	r3, [sl, #28]	@ zero_extendqisi2
 288 0152 04FA05F0 		lsl	r0, r4, r5
 289 0156 40EA0302 		orr	r2, r0, r3
 290 015a 8AF81C20 		strb	r2, [sl, #28]
 291              	.L13:
 292              		.loc 1 73 0
 293 015e 55B1     		cbz	r5, .L20
 294              		.loc 1 77 0
 295 0160 013D     		subs	r5, r5, #1
 296 0162 EDB2     		uxtb	r5, r5
 297              	.LVL19:
 298              	.L14:
 299 0164 0AF1010A 		add	sl, sl, #1
 300              		.loc 1 53 0
 301 0168 C245     		cmp	sl, r8
 302 016a 16D0     		beq	.L15
 303 016c D9F81430 		ldr	r3, [r9, #20]
 304 0170 D9F81810 		ldr	r1, [r9, #24]
 305 0174 B1E7     		b	.L8
 306              	.LVL20:
 307              	.L20:
 308              		.loc 1 75 0
 309 0176 0725     		movs	r5, #7
 310 0178 F4E7     		b	.L14
 311              	.L65:
 312              		.loc 1 57 0
 313 017a 6FF00200 		mvn	r0, #2
 314 017e BDE8F087 		pop	{r4, r5, r6, r7, r8, r9, sl, pc}
 315              	.L66:
 316              		.loc 1 65 0
 317 0182 6FF00300 		mvn	r0, #3
 318              	.LBE7:
 319              		.loc 1 88 0
 320 0186 BDE8F087 		pop	{r4, r5, r6, r7, r8, r9, sl, pc}
 321              	.LVL21:
 322              	.L16:
 323              	.LBB8:
 324              		.loc 1 47 0
 325 018a 4FF0FF30 		mov	r0, #-1
 326 018e BDE8F087 		pop	{r4, r5, r6, r7, r8, r9, sl, pc}
 327              	.L64:
 328              		.loc 1 49 0
 329 0192 6FF00100 		mvn	r0, #1
 330 0196 BDE8F087 		pop	{r4, r5, r6, r7, r8, r9, sl, pc}
 331              	.LVL22:
 332              	.L15:
 333              		.loc 1 84 0
 334 019a 99F81C40 		ldrb	r4, [r9, #28]	@ zero_extendqisi2
 335 019e 99F81D00 		ldrb	r0, [r9, #29]	@ zero_extendqisi2
 336 01a2 99F81E10 		ldrb	r1, [r9, #30]	@ zero_extendqisi2
 337 01a6 99F81F20 		ldrb	r2, [r9, #31]	@ zero_extendqisi2
 338 01aa 99F82030 		ldrb	r3, [r9, #32]	@ zero_extendqisi2
 339 01ae 2018     		adds	r0, r4, r0
 340 01b0 4118     		adds	r1, r0, r1
 341 01b2 8A18     		adds	r2, r1, r2
 342 01b4 D0B2     		uxtb	r0, r2
ARM GAS  C:\Users\Vergil\AppData\Local\Temp\cc7p4uwA.s 			page 7


 343 01b6 C01A     		subs	r0, r0, r3
 344 01b8 18BF     		it	ne
 345 01ba 0120     		movne	r0, #1
 346 01bc BDE8F087 		pop	{r4, r5, r6, r7, r8, r9, sl, pc}
 347              	.LBE8:
 348              		.cfi_endproc
 349              	.LFE122:
 350              		.size	_ZN5DHT1110read_DHT11Ev, .-_ZN5DHT1110read_DHT11Ev
 351              		.section	.text._ZN5DHT117getTempEi,"ax",%progbits
 352              		.align	2
 353              		.p2align 4,,15
 354              		.global	_ZN5DHT117getTempEi
 355              		.thumb
 356              		.thumb_func
 357              		.type	_ZN5DHT117getTempEi, %function
 358              	_ZN5DHT117getTempEi:
 359              	.LFB123:
 360              		.loc 1 91 0
 361              		.cfi_startproc
 362              		@ args = 0, pretend = 0, frame = 0
 363              		@ frame_needed = 0, uses_anonymous_args = 0
 364              		@ link register save eliminated.
 365              	.LVL23:
 366              	.LBB9:
 367              		.loc 1 96 0
 368 0000 C37F     		ldrb	r3, [r0, #31]	@ zero_extendqisi2
 369              		.loc 1 95 0
 370 0002 807F     		ldrb	r0, [r0, #30]	@ zero_extendqisi2
 371              	.LVL24:
 372              		.loc 1 96 0
 373 0004 00EE103A 		fmsr	s0, r3	@ int
 374 0008 DFED117A 		flds	s15, .L74
 375 000c F8EE400A 		fuitos	s1, s0
 376              		.loc 1 95 0
 377 0010 07EE100A 		fmsr	s14, r0	@ int
 378              		.loc 1 96 0
 379 0014 C0EEA71A 		fdivs	s3, s1, s15
 380              		.loc 1 95 0
 381 0018 B8EEC71A 		fsitos	s2, s14
 382 001c 9FED0D2A 		flds	s4, .L74+4
 383 0020 71EE022A 		fadds	s5, s2, s4
 384              	.LVL25:
 385              		.loc 1 96 0
 386 0024 31EEA20A 		fadds	s0, s3, s5
 387              	.LVL26:
 388              		.loc 1 98 0
 389 0028 81B1     		cbz	r1, .L69
 390 002a 0129     		cmp	r1, #1
 391 002c 02D0     		beq	.L70
 392              		.loc 1 105 0
 393 002e B0EE420A 		fcpys	s0, s4
 394              	.LVL27:
 395 0032 7047     		bx	lr
 396              	.LVL28:
 397              	.L70:
 398              	.LBB10:
 399              	.LBB11:
ARM GAS  C:\Users\Vergil\AppData\Local\Temp\cc7p4uwA.s 			page 8


 400              		.loc 1 124 0
 401 0034 B2EE023A 		fconsts	s6, #34
 402 0038 60EE033A 		fmuls	s7, s0, s6
 403 003c B1EE044A 		fconsts	s8, #20
 404 0040 C3EE844A 		fdivs	s9, s7, s8
 405 0044 9FED045A 		flds	s10, .L74+8
 406 0048 34EE850A 		fadds	s0, s9, s10
 407              	.LVL29:
 408              	.L69:
 409              	.LBE11:
 410              	.LBE10:
 411              	.LBE9:
 412              		.loc 1 109 0
 413 004c 7047     		bx	lr
 414              	.L75:
 415 004e 00BF     		.align	2
 416              	.L74:
 417 0050 0000C842 		.word	1120403456
 418 0054 00000000 		.word	0
 419 0058 00000042 		.word	1107296256
 420              		.cfi_endproc
 421              	.LFE123:
 422              		.size	_ZN5DHT117getTempEi, .-_ZN5DHT117getTempEi
 423 005c AFF30080 		.section	.text._ZN5DHT1111getHumidityEv,"ax",%progbits
 424              		.align	2
 425              		.p2align 4,,15
 426              		.global	_ZN5DHT1111getHumidityEv
 427              		.thumb
 428              		.thumb_func
 429              		.type	_ZN5DHT1111getHumidityEv, %function
 430              	_ZN5DHT1111getHumidityEv:
 431              	.LFB124:
 432              		.loc 1 112 0
 433              		.cfi_startproc
 434              		@ args = 0, pretend = 0, frame = 0
 435              		@ frame_needed = 0, uses_anonymous_args = 0
 436              		@ link register save eliminated.
 437              	.LVL30:
 438              	.LBB12:
 439              		.loc 1 117 0
 440 0000 437F     		ldrb	r3, [r0, #29]	@ zero_extendqisi2
 441              		.loc 1 116 0
 442 0002 007F     		ldrb	r0, [r0, #28]	@ zero_extendqisi2
 443              	.LVL31:
 444              		.loc 1 117 0
 445 0004 00EE103A 		fmsr	s0, r3	@ int
 446 0008 9FED087A 		flds	s14, .L77
 447 000c F8EE400A 		fuitos	s1, s0
 448              		.loc 1 116 0
 449 0010 07EE900A 		fmsr	s15, r0	@ int
 450              		.loc 1 117 0
 451 0014 C0EE871A 		fdivs	s3, s1, s14
 452              		.loc 1 116 0
 453 0018 B8EEE71A 		fsitos	s2, s15
 454 001c 9FED042A 		flds	s4, .L77+4
 455 0020 71EE022A 		fadds	s5, s2, s4
 456              	.LVL32:
ARM GAS  C:\Users\Vergil\AppData\Local\Temp\cc7p4uwA.s 			page 9


 457              	.LBE12:
 458              		.loc 1 120 0
 459 0024 31EEA20A 		fadds	s0, s3, s5
 460 0028 7047     		bx	lr
 461              	.L78:
 462 002a 00BF     		.align	2
 463              	.L77:
 464 002c 0000C842 		.word	1120403456
 465 0030 00000000 		.word	0
 466              		.cfi_endproc
 467              	.LFE124:
 468              		.size	_ZN5DHT1111getHumidityEv, .-_ZN5DHT1111getHumidityEv
 469 0034 AFF30080 		.section	.text._ZN5DHT1111convertCtoFEf,"ax",%progbits
 469      AFF30080 
 469      AFF30080 
 470              		.align	2
 471              		.p2align 4,,15
 472              		.global	_ZN5DHT1111convertCtoFEf
 473              		.thumb
 474              		.thumb_func
 475              		.type	_ZN5DHT1111convertCtoFEf, %function
 476              	_ZN5DHT1111convertCtoFEf:
 477              	.LFB125:
 478              		.loc 1 123 0
 479              		.cfi_startproc
 480              		@ args = 0, pretend = 0, frame = 0
 481              		@ frame_needed = 0, uses_anonymous_args = 0
 482              		@ link register save eliminated.
 483              	.LVL33:
 484              		.loc 1 124 0
 485 0000 F2EE027A 		fconsts	s15, #34
 486 0004 20EE270A 		fmuls	s0, s0, s15
 487              	.LVL34:
 488 0008 B1EE047A 		fconsts	s14, #20
 489 000c C0EE070A 		fdivs	s1, s0, s14
 490 0010 9FED021A 		flds	s2, .L80
 491              		.loc 1 125 0
 492 0014 30EE810A 		fadds	s0, s1, s2
 493 0018 7047     		bx	lr
 494              	.L81:
 495 001a 00BF     		.align	2
 496              	.L80:
 497 001c 00000042 		.word	1107296256
 498              		.cfi_endproc
 499              	.LFE125:
 500              		.size	_ZN5DHT1111convertCtoFEf, .-_ZN5DHT1111convertCtoFEf
 501              		.text
 502              	.Letext0:
 503              		.file 2 "c:\\chibistudio\\tools\\gnu tools arm embedded\\4.7 2014q2\\bin\\../lib/gcc/arm-none-eabi
 504              		.file 3 "../../os/ports/GCC/ARMCMx/chtypes.h"
 505              		.file 4 "../../os/hal/platforms/STM32F4xx/hal_lld.h"
 506              		.file 5 "../../os/hal/include/tm.h"
 507              		.file 6 "../../os/hal/platforms/STM32/GPIOv2/pal_lld.h"
 508              		.file 7 "C:/ChibiStudio/chibios/demos/ARMCM4-STM32F401RE-NUCLEO-CC3K/sensors/dht11.h"
 509              		.file 8 "../../os/ports/common/ARMCMx/CMSIS/include/core_cm4.h"
 510              		.file 9 "../../os/kernel/include/chthreads.h"