ARM GAS  C:\Users\Vergil\AppData\Local\Temp\ccSnTvXE.s 			page 1


   1              		.syntax unified
   2              		.cpu cortex-m4
   3              		.eabi_attribute 27, 3
   4              		.eabi_attribute 28, 1
   5              		.fpu fpv4-sp-d16
   6              		.eabi_attribute 20, 1
   7              		.eabi_attribute 21, 1
   8              		.eabi_attribute 23, 3
   9              		.eabi_attribute 24, 1
  10              		.eabi_attribute 25, 1
  11              		.eabi_attribute 26, 1
  12              		.eabi_attribute 30, 2
  13              		.eabi_attribute 34, 1
  14              		.eabi_attribute 18, 4
  15              		.thumb
  16              		.file	"DS1307.cpp"
  17              		.text
  18              	.Ltext0:
  19              		.cfi_sections	.debug_frame
  20              		.section	.text._ZN8RTC_TIME6to_strEv,"ax",%progbits
  21              		.align	2
  22              		.p2align 4,,15
  23              		.global	_ZN8RTC_TIME6to_strEv
  24              		.thumb
  25              		.thumb_func
  26              		.type	_ZN8RTC_TIME6to_strEv, %function
  27              	_ZN8RTC_TIME6to_strEv:
  28              	.LFB121:
  29              		.file 1 "C:/ChibiStudio/chibios/demos/ARMCM4-STM32F401RE-NUCLEO-CC3K/sensors/DS1307.cpp"
  30              		.loc 1 35 0
  31              		.cfi_startproc
  32              		@ args = 0, pretend = 0, frame = 0
  33              		@ frame_needed = 0, uses_anonymous_args = 0
  34              	.LVL0:
  35 0000 F0B5     		push	{r4, r5, r6, r7, lr}
  36              	.LCFI0:
  37              		.cfi_def_cfa_offset 20
  38              		.cfi_offset 4, -20
  39              		.cfi_offset 5, -16
  40              		.cfi_offset 6, -12
  41              		.cfi_offset 7, -8
  42              		.cfi_offset 14, -4
  43              		.loc 1 45 0
  44 0002 40F20003 		movw	r3, #:lower16:.LANCHOR1
  45 0006 C468     		ldr	r4, [r0, #12]
  46 0008 4169     		ldr	r1, [r0, #20]
  47 000a 8669     		ldr	r6, [r0, #24]
  48 000c C0F20003 		movt	r3, #:upper16:.LANCHOR1
  49 0010 40F20002 		movw	r2, #:lower16:.LANCHOR2
  50 0014 53F82430 		ldr	r3, [r3, r4, lsl #2]
  51 0018 0469     		ldr	r4, [r0, #16]
  52 001a C0F20002 		movt	r2, #:upper16:.LANCHOR2
  53 001e A1C8     		ldmia	r0, {r0, r5, r7}
  54              	.LVL1:
  55              		.loc 1 35 0
  56 0020 87B0     		sub	sp, sp, #28
  57              	.LCFI1:
ARM GAS  C:\Users\Vergil\AppData\Local\Temp\ccSnTvXE.s 			page 2


  58              		.cfi_def_cfa_offset 48
  59              		.loc 1 45 0
  60 0022 52F82120 		ldr	r2, [r2, r1, lsl #2]
  61 0026 0194     		str	r4, [sp, #4]
  62 0028 40F20004 		movw	r4, #:lower16:.LANCHOR0
  63 002c 0590     		str	r0, [sp, #20]
  64 002e C0F20004 		movt	r4, #:upper16:.LANCHOR0
  65 0032 06F26C70 		addw	r0, r6, #1900
  66 0036 0092     		str	r2, [sp, #0]
  67 0038 40F20002 		movw	r2, #:lower16:.LC0
  68 003c 0290     		str	r0, [sp, #8]
  69 003e 0397     		str	r7, [sp, #12]
  70 0040 0495     		str	r5, [sp, #16]
  71 0042 2046     		mov	r0, r4
  72 0044 3221     		movs	r1, #50
  73 0046 C0F20002 		movt	r2, #:upper16:.LC0
  74 004a FFF7FEFF 		bl	chsnprintf
  75              	.LVL2:
  76              		.loc 1 48 0
  77 004e 2046     		mov	r0, r4
  78 0050 07B0     		add	sp, sp, #28
  79 0052 F0BD     		pop	{r4, r5, r6, r7, pc}
  80              		.cfi_endproc
  81              	.LFE121:
  82              		.size	_ZN8RTC_TIME6to_strEv, .-_ZN8RTC_TIME6to_strEv
  83 0054 AFF30080 		.section	.text._ZN6DS1307C2EP9I2CDriver,"ax",%progbits
  83      AFF30080 
  83      AFF30080 
  84              		.align	2
  85              		.p2align 4,,15
  86              		.global	_ZN6DS1307C2EP9I2CDriver
  87              		.thumb
  88              		.thumb_func
  89              		.type	_ZN6DS1307C2EP9I2CDriver, %function
  90              	_ZN6DS1307C2EP9I2CDriver:
  91              	.LFB123:
  92              		.loc 1 50 0
  93              		.cfi_startproc
  94              		@ args = 0, pretend = 0, frame = 0
  95              		@ frame_needed = 0, uses_anonymous_args = 0
  96              		@ link register save eliminated.
  97              	.LVL3:
  98              	.LBB30:
  99              		.loc 1 51 0
 100 0000 0160     		str	r1, [r0, #0]
 101              	.LBE30:
 102              		.loc 1 55 0
 103 0002 7047     		bx	lr
 104              		.cfi_endproc
 105              	.LFE123:
 106              		.size	_ZN6DS1307C2EP9I2CDriver, .-_ZN6DS1307C2EP9I2CDriver
 107              		.global	_ZN6DS1307C1EP9I2CDriver
 108              		.thumb_set _ZN6DS1307C1EP9I2CDriver,_ZN6DS1307C2EP9I2CDriver
 109 0004 AFF30080 		.section	.text._ZN6DS13078get_timeER8RTC_TIME,"ax",%progbits
 109      AFF30080 
 109      AFF30080 
 110              		.align	2
ARM GAS  C:\Users\Vergil\AppData\Local\Temp\ccSnTvXE.s 			page 3


 111              		.p2align 4,,15
 112              		.global	_ZN6DS13078get_timeER8RTC_TIME
 113              		.thumb
 114              		.thumb_func
 115              		.type	_ZN6DS13078get_timeER8RTC_TIME, %function
 116              	_ZN6DS13078get_timeER8RTC_TIME:
 117              	.LFB125:
 118              		.loc 1 58 0
 119              		.cfi_startproc
 120              		@ args = 0, pretend = 0, frame = 48
 121              		@ frame_needed = 0, uses_anonymous_args = 0
 122              	.LVL4:
 123 0000 2DE9F04F 		push	{r4, r5, r6, r7, r8, r9, sl, fp, lr}
 124              	.LCFI2:
 125              		.cfi_def_cfa_offset 36
 126              		.cfi_offset 4, -36
 127              		.cfi_offset 5, -32
 128              		.cfi_offset 6, -28
 129              		.cfi_offset 7, -24
 130              		.cfi_offset 8, -20
 131              		.cfi_offset 9, -16
 132              		.cfi_offset 10, -12
 133              		.cfi_offset 11, -8
 134              		.cfi_offset 14, -4
 135 0004 91B0     		sub	sp, sp, #68
 136              	.LCFI3:
 137              		.cfi_def_cfa_offset 104
 138              	.LBB31:
 139              		.loc 1 60 0
 140 0006 10AE     		add	r6, sp, #64
 141 0008 0027     		movs	r7, #0
 142              	.LBE31:
 143              		.loc 1 58 0
 144 000a 0546     		mov	r5, r0
 145              	.LBB108:
 146              		.loc 1 60 0
 147 000c 06F8097D 		strb	r7, [r6, #-9]!
 148              	.LVL5:
 149              		.loc 1 63 0
 150 0010 0068     		ldr	r0, [r0, #0]
 151              	.LVL6:
 152              		.loc 1 64 0
 153 0012 4FF47A78 		mov	r8, #1000
 154              	.LBE108:
 155              		.loc 1 58 0
 156 0016 0C46     		mov	r4, r1
 157              	.LBB109:
 158              		.loc 1 63 0
 159 0018 FFF7FEFF 		bl	i2cAcquireBus
 160              	.LVL7:
 161              		.loc 1 64 0
 162 001c 2868     		ldr	r0, [r5, #0]
 163 001e 0097     		str	r7, [sp, #0]
 164 0020 3246     		mov	r2, r6
 165 0022 0197     		str	r7, [sp, #4]
 166 0024 CDF80880 		str	r8, [sp, #8]
 167 0028 6821     		movs	r1, #104
ARM GAS  C:\Users\Vergil\AppData\Local\Temp\ccSnTvXE.s 			page 4


 168 002a 0123     		movs	r3, #1
 169 002c FFF7FEFF 		bl	i2cMasterTransmitTimeout
 170              	.LVL8:
 171 0030 0646     		mov	r6, r0
 172              	.LVL9:
 173              		.loc 1 65 0
 174 0032 2868     		ldr	r0, [r5, #0]
 175              	.LVL10:
 176 0034 FFF7FEFF 		bl	i2cReleaseBus
 177              	.LVL11:
 178              		.loc 1 67 0
 179 0038 1EB1     		cbz	r6, .L4
 180              	.L6:
 181              	.LBE109:
 182 003a 0020     		movs	r0, #0
 183              	.LVL12:
 184              	.L5:
 185              		.loc 1 85 0
 186 003c 11B0     		add	sp, sp, #68
 187 003e BDE8F08F 		pop	{r4, r5, r6, r7, r8, r9, sl, fp, pc}
 188              	.LVL13:
 189              	.L4:
 190              	.LBB110:
 191              		.loc 1 69 0
 192 0042 2868     		ldr	r0, [r5, #0]
 193 0044 FFF7FEFF 		bl	i2cAcquireBus
 194              	.LVL14:
 195              		.loc 1 70 0
 196 0048 2868     		ldr	r0, [r5, #0]
 197 004a CDF80080 		str	r8, [sp, #0]
 198 004e 6821     		movs	r1, #104
 199 0050 0EAA     		add	r2, sp, #56
 200 0052 0723     		movs	r3, #7
 201 0054 FFF7FEFF 		bl	i2cMasterReceiveTimeout
 202              	.LVL15:
 203 0058 0646     		mov	r6, r0
 204              	.LVL16:
 205              		.loc 1 71 0
 206 005a 2868     		ldr	r0, [r5, #0]
 207              	.LVL17:
 208 005c FFF7FEFF 		bl	i2cReleaseBus
 209              	.LVL18:
 210              		.loc 1 72 0
 211 0060 002E     		cmp	r6, #0
 212 0062 EAD1     		bne	.L6
 213              		.loc 1 74 0
 214 0064 9DF83830 		ldrb	r3, [sp, #56]	@ zero_extendqisi2
 215 0068 1A06     		lsls	r2, r3, #24
 216 006a E6D4     		bmi	.L6
 217              		.loc 1 75 0
 218 006c 9DF83A20 		ldrb	r2, [sp, #58]	@ zero_extendqisi2
 219 0070 02F04001 		and	r1, r2, #64
 220 0074 C8B2     		uxtb	r0, r1
 221 0076 0028     		cmp	r0, #0
 222 0078 DFD1     		bne	.L6
 223              	.LVL19:
 224              		.loc 1 79 0
ARM GAS  C:\Users\Vergil\AppData\Local\Temp\ccSnTvXE.s 			page 5


 225 007a 9DF83BA0 		ldrb	sl, [sp, #59]	@ zero_extendqisi2
 226              		.loc 1 80 0
 227 007e 9DF83C50 		ldrb	r5, [sp, #60]	@ zero_extendqisi2
 228              	.LVL20:
 229              		.loc 1 81 0
 230 0082 9DF83D80 		ldrb	r8, [sp, #61]	@ zero_extendqisi2
 231              		.loc 1 82 0
 232 0086 9DF83E70 		ldrb	r7, [sp, #62]	@ zero_extendqisi2
 233              		.loc 1 80 0
 234 008a 0995     		str	r5, [sp, #36]
 235              	.LBB32:
 236              	.LBB33:
 237              		.file 2 "C:/ChibiStudio/chibios/demos/ARMCM4-STM32F401RE-NUCLEO-CC3K/sensors/DS1307.h"
 238              		.loc 2 43 0
 239 008c 4FEA1A1B 		lsr	fp, sl, #4
 240 0090 0BEB8B0E 		add	lr, fp, fp, lsl #2
 241 0094 0AF00F0A 		and	sl, sl, #15
 242              	.LBE33:
 243              	.LBE32:
 244              	.LBB38:
 245              	.LBB39:
 246 0098 4FEA1819 		lsr	r9, r8, #4
 247              	.LBE39:
 248              	.LBE38:
 249              	.LBB46:
 250              	.LBB47:
 251 009c 4FEA171C 		lsr	ip, r7, #4
 252              	.LBE47:
 253              	.LBE46:
 254              	.LBB54:
 255              	.LBB34:
 256 00a0 CDF828E0 		str	lr, [sp, #40]
 257              	.LBE34:
 258              	.LBE54:
 259              	.LBB55:
 260              	.LBB56:
 261 00a4 DDF824B0 		ldr	fp, [sp, #36]
 262              	.LBE56:
 263              	.LBE55:
 264              	.LBB62:
 265              	.LBB35:
 266 00a8 CDF820A0 		str	sl, [sp, #32]
 267              	.LBE35:
 268              	.LBE62:
 269              	.LBB63:
 270              	.LBB48:
 271 00ac 07F00F07 		and	r7, r7, #15
 272              	.LBE48:
 273              	.LBE63:
 274              	.LBB64:
 275              	.LBB40:
 276 00b0 09EB8909 		add	r9, r9, r9, lsl #2
 277              	.LBE40:
 278              	.LBE64:
 279              	.LBB65:
 280              	.LBB49:
 281 00b4 0597     		str	r7, [sp, #20]
ARM GAS  C:\Users\Vergil\AppData\Local\Temp\ccSnTvXE.s 			page 6


 282              	.LBE49:
 283              	.LBE65:
 284              	.LBB66:
 285              	.LBB36:
 286 00b6 DDF820A0 		ldr	sl, [sp, #32]
 287 00ba 0A9F     		ldr	r7, [sp, #40]
 288              	.LBE36:
 289              	.LBE66:
 290              	.LBB67:
 291              	.LBB41:
 292 00bc CDF82C90 		str	r9, [sp, #44]
 293              	.LBE41:
 294              	.LBE67:
 295              	.LBB68:
 296              	.LBB57:
 297 00c0 4FEA1B1E 		lsr	lr, fp, #4
 298              	.LBE57:
 299              	.LBE68:
 300              	.LBB69:
 301              	.LBB70:
 302 00c4 C3F30216 		ubfx	r6, r3, #4, #3
 303              	.LVL21:
 304              	.LBE70:
 305              	.LBE69:
 306              	.LBB75:
 307              	.LBB50:
 308 00c8 0CEB8C0C 		add	ip, ip, ip, lsl #2
 309              	.LBE50:
 310              	.LBE75:
 311              	.LBB76:
 312              	.LBB37:
 313 00cc 0AEB470B 		add	fp, sl, r7, lsl #1
 314              	.LBE37:
 315              	.LBE76:
 316              		.loc 1 77 0
 317 00d0 9DF83900 		ldrb	r0, [sp, #57]	@ zero_extendqisi2
 318              	.LVL22:
 319              	.LBB77:
 320              	.LBB51:
 321              		.loc 2 43 0
 322 00d4 CDF818C0 		str	ip, [sp, #24]
 323              	.LBE51:
 324              	.LBE77:
 325              	.LBB78:
 326              	.LBB71:
 327 00d8 06EB8606 		add	r6, r6, r6, lsl #2
 328              	.LBE71:
 329              	.LBE78:
 330              	.LBB79:
 331              	.LBB58:
 332 00dc 0EEB8E0A 		add	sl, lr, lr, lsl #2
 333              	.LBE58:
 334              	.LBE79:
 335              	.LBB80:
 336              	.LBB42:
 337 00e0 DDF82CE0 		ldr	lr, [sp, #44]
 338              	.LBE42:
ARM GAS  C:\Users\Vergil\AppData\Local\Temp\ccSnTvXE.s 			page 7


 339              	.LBE80:
 340              	.LBB81:
 341              	.LBB72:
 342 00e4 0496     		str	r6, [sp, #16]
 343              	.LBE72:
 344              	.LBE81:
 345              	.LBB82:
 346              	.LBB43:
 347 00e6 08F00F08 		and	r8, r8, #15
 348              	.LBE43:
 349              	.LBE82:
 350              	.LBB83:
 351              	.LBB59:
 352 00ea 099E     		ldr	r6, [sp, #36]
 353              	.LBE59:
 354              	.LBE83:
 355              	.LBB84:
 356              	.LBB52:
 357 00ec 059F     		ldr	r7, [sp, #20]
 358 00ee DDF818C0 		ldr	ip, [sp, #24]
 359              	.LBE52:
 360              	.LBE84:
 361              	.LBB85:
 362              	.LBB44:
 363 00f2 CDF81C80 		str	r8, [sp, #28]
 364              	.LBE44:
 365              	.LBE85:
 366              	.LBB86:
 367              	.LBB87:
 368 00f6 0509     		lsrs	r5, r0, #4
 369              	.LBE87:
 370              	.LBE86:
 371              	.LBB91:
 372              	.LBB92:
 373 00f8 C2F30111 		ubfx	r1, r2, #4, #2
 374              	.LBE92:
 375              	.LBE91:
 376              	.LBB96:
 377              	.LBB45:
 378 00fc 08EB4E08 		add	r8, r8, lr, lsl #1
 379              	.LBE45:
 380              	.LBE96:
 381              	.LBB97:
 382              	.LBB73:
 383 0100 DDF810E0 		ldr	lr, [sp, #16]
 384 0104 03F00F03 		and	r3, r3, #15
 385              	.LVL23:
 386              	.LBE73:
 387              	.LBE97:
 388              	.LBB98:
 389              	.LBB88:
 390 0108 00F00F00 		and	r0, r0, #15
 391              	.LVL24:
 392              	.LBE88:
 393              	.LBE98:
 394              	.LBB99:
 395              	.LBB93:
ARM GAS  C:\Users\Vergil\AppData\Local\Temp\ccSnTvXE.s 			page 8


 396 010c 02F00F02 		and	r2, r2, #15
 397              	.LBE93:
 398              	.LBE99:
 399              	.LBB100:
 400              	.LBB60:
 401 0110 06F00F09 		and	r9, r6, #15
 402              	.LBE60:
 403              	.LBE100:
 404              	.LBB101:
 405              	.LBB89:
 406 0114 05EB8505 		add	r5, r5, r5, lsl #2
 407              	.LBE89:
 408              	.LBE101:
 409              	.LBB102:
 410              	.LBB94:
 411 0118 01EB8101 		add	r1, r1, r1, lsl #2
 412              	.LBE94:
 413              	.LBE102:
 414              	.LBB103:
 415              	.LBB53:
 416 011c 07EB4C07 		add	r7, r7, ip, lsl #1
 417              	.LBE53:
 418              	.LBE103:
 419              	.LBB104:
 420              	.LBB74:
 421 0120 03EB4E06 		add	r6, r3, lr, lsl #1
 422              	.LBE74:
 423              	.LBE104:
 424              	.LBB105:
 425              	.LBB90:
 426 0124 00EB4505 		add	r5, r0, r5, lsl #1
 427              	.LBE90:
 428              	.LBE105:
 429              	.LBB106:
 430              	.LBB95:
 431 0128 02EB4101 		add	r1, r2, r1, lsl #1
 432              	.LBE95:
 433              	.LBE106:
 434              		.loc 1 79 0
 435 012c 0BF1FF30 		add	r0, fp, #-1
 436              	.LBB107:
 437              	.LBB61:
 438              		.loc 2 43 0
 439 0130 09EB4A02 		add	r2, r9, sl, lsl #1
 440              	.LBE61:
 441              	.LBE107:
 442              		.loc 1 81 0
 443 0134 08F1FF33 		add	r3, r8, #-1
 444              		.loc 1 82 0
 445 0138 6437     		adds	r7, r7, #100
 446              		.loc 1 79 0
 447 013a E060     		str	r0, [r4, #12]
 448              		.loc 1 76 0
 449 013c 2660     		str	r6, [r4, #0]
 450              		.loc 1 77 0
 451 013e 6560     		str	r5, [r4, #4]
 452              	.LVL25:
ARM GAS  C:\Users\Vergil\AppData\Local\Temp\ccSnTvXE.s 			page 9


 453              		.loc 1 78 0
 454 0140 A160     		str	r1, [r4, #8]
 455              		.loc 1 80 0
 456 0142 2261     		str	r2, [r4, #16]
 457              		.loc 1 81 0
 458 0144 6361     		str	r3, [r4, #20]
 459              		.loc 1 82 0
 460 0146 A761     		str	r7, [r4, #24]
 461              		.loc 1 84 0
 462 0148 0120     		movs	r0, #1
 463 014a 77E7     		b	.L5
 464              	.LBE110:
 465              		.cfi_endproc
 466              	.LFE125:
 467              		.size	_ZN6DS13078get_timeER8RTC_TIME, .-_ZN6DS13078get_timeER8RTC_TIME
 468 014c AFF30080 		.section	.text._ZN6DS13078set_timeE8RTC_TIME,"ax",%progbits
 469              		.align	2
 470              		.p2align 4,,15
 471              		.global	_ZN6DS13078set_timeE8RTC_TIME
 472              		.thumb
 473              		.thumb_func
 474              		.type	_ZN6DS13078set_timeE8RTC_TIME, %function
 475              	_ZN6DS13078set_timeE8RTC_TIME:
 476              	.LFB126:
 477              		.loc 1 88 0
 478              		.cfi_startproc
 479              		@ args = 32, pretend = 16, frame = 24
 480              		@ frame_needed = 0, uses_anonymous_args = 0
 481              	.LVL26:
 482 0000 84B0     		sub	sp, sp, #16
 483              	.LCFI4:
 484              		.cfi_def_cfa_offset 16
 485 0002 2DE9F04F 		push	{r4, r5, r6, r7, r8, r9, sl, fp, lr}
 486              	.LCFI5:
 487              		.cfi_def_cfa_offset 52
 488              		.cfi_offset 4, -52
 489              		.cfi_offset 5, -48
 490              		.cfi_offset 6, -44
 491              		.cfi_offset 7, -40
 492              		.cfi_offset 8, -36
 493              		.cfi_offset 9, -32
 494              		.cfi_offset 10, -28
 495              		.cfi_offset 11, -24
 496              		.cfi_offset 14, -20
 497 0006 8BB0     		sub	sp, sp, #44
 498              	.LCFI6:
 499              		.cfi_def_cfa_offset 96
 500              		.loc 1 88 0
 501 0008 15AC     		add	r4, sp, #84
 502 000a 84E80E00 		stmia	r4, {r1, r2, r3}
 503              	.LBB111:
 504              	.LBB112:
 505              	.LBB113:
 506              		.loc 2 47 0
 507 000e 46F26763 		movw	r3, #26215
 508              	.LBE113:
 509              	.LBE112:
ARM GAS  C:\Users\Vergil\AppData\Local\Temp\ccSnTvXE.s 			page 10


 510              	.LBB121:
 511              	.LBB122:
 512 0012 179D     		ldr	r5, [sp, #92]
 513              	.LBE122:
 514              	.LBE121:
 515              		.loc 1 100 0
 516 0014 1B9A     		ldr	r2, [sp, #108]
 517              		.loc 1 99 0
 518 0016 1A9E     		ldr	r6, [sp, #104]
 519              	.LBB129:
 520              	.LBB114:
 521              		.loc 2 47 0
 522 0018 C6F26663 		movt	r3, 26214
 523              	.LBE114:
 524              	.LBE129:
 525              	.LBB130:
 526              	.LBB123:
 527 001c 83FB0547 		smull	r4, r7, r3, r5
 528 0020 179C     		ldr	r4, [sp, #92]
 529              	.LBE123:
 530              	.LBE130:
 531              	.LBB131:
 532              	.LBB132:
 533 0022 169D     		ldr	r5, [sp, #88]
 534              	.LBE132:
 535              	.LBE131:
 536              		.loc 1 100 0
 537 0024 643A     		subs	r2, r2, #100
 538 0026 0592     		str	r2, [sp, #20]
 539              		.loc 1 94 0
 540 0028 8C46     		mov	ip, r1
 541              	.LVL27:
 542              	.LBB141:
 543              	.LBB115:
 544              		.loc 2 47 0
 545 002a 83FB012E 		smull	r2, lr, r3, r1
 546              	.LBE115:
 547              	.LBE141:
 548              	.LBB142:
 549              	.LBB124:
 550 002e E217     		asrs	r2, r4, #31
 551              	.LBE124:
 552              	.LBE142:
 553              	.LBB143:
 554              	.LBB116:
 555 0030 4FEAE171 		asr	r1, r1, #31
 556              	.LVL28:
 557              	.LBE116:
 558              	.LBE143:
 559              	.LBB144:
 560              	.LBB145:
 561 0034 199C     		ldr	r4, [sp, #100]
 562              	.LVL29:
 563              	.LBE145:
 564              	.LBE144:
 565              		.loc 1 99 0
 566 0036 0136     		adds	r6, r6, #1
ARM GAS  C:\Users\Vergil\AppData\Local\Temp\ccSnTvXE.s 			page 11


 567              	.LVL30:
 568              	.LBB154:
 569              	.LBB117:
 570              		.loc 2 47 0
 571 0038 C1EBAE0E 		rsb	lr, r1, lr, asr #2
 572              	.LBE117:
 573              	.LBE154:
 574              	.LBB155:
 575              	.LBB133:
 576 003c 1699     		ldr	r1, [sp, #88]
 577              	.LBE133:
 578              	.LBE155:
 579              	.LBB156:
 580              	.LBB125:
 581 003e C2EBA707 		rsb	r7, r2, r7, asr #2
 582              	.LBE125:
 583              	.LBE156:
 584              	.LBB157:
 585              	.LBB158:
 586 0042 83FB06B8 		smull	fp, r8, r3, r6
 587              	.LBE158:
 588              	.LBE157:
 589              	.LBB164:
 590              	.LBB146:
 591 0046 83FB0429 		smull	r2, r9, r3, r4
 592              	.LBE146:
 593              	.LBE164:
 594              	.LBB165:
 595              	.LBB166:
 596 004a DDF814B0 		ldr	fp, [sp, #20]
 597 004e 059C     		ldr	r4, [sp, #20]
 598              	.LBE166:
 599              	.LBE165:
 600              	.LBB174:
 601              	.LBB134:
 602 0050 83FB012A 		smull	r2, sl, r3, r1
 603              	.LBE134:
 604              	.LBE174:
 605              	.LBB175:
 606              	.LBB147:
 607 0054 199A     		ldr	r2, [sp, #100]
 608              	.LBE147:
 609              	.LBE175:
 610              	.LBB176:
 611              	.LBB167:
 612 0056 83FB0443 		smull	r4, r3, r3, r4
 613 005a 4FEAEB74 		asr	r4, fp, #31
 614 005e C4EBA303 		rsb	r3, r4, r3, asr #2
 615              	.LBE167:
 616              	.LBE176:
 617              	.LBB177:
 618              	.LBB148:
 619 0062 D117     		asrs	r1, r2, #31
 620              	.LBE148:
 621              	.LBE177:
 622              	.LBE111:
 623              		.loc 1 88 0
ARM GAS  C:\Users\Vergil\AppData\Local\Temp\ccSnTvXE.s 			page 12


 624 0064 0446     		mov	r4, r0
 625              	.LBB206:
 626              	.LBB178:
 627              	.LBB126:
 628              		.loc 2 47 0
 629 0066 1798     		ldr	r0, [sp, #92]
 630              	.LVL31:
 631              	.LBE126:
 632              	.LBE178:
 633              	.LBB179:
 634              	.LBB149:
 635 0068 C1EBA901 		rsb	r1, r1, r9, asr #2
 636              	.LBE149:
 637              	.LBE179:
 638              	.LBB180:
 639              	.LBB127:
 640 006c 07EB8709 		add	r9, r7, r7, lsl #2
 641 0070 A0EB4909 		sub	r9, r0, r9, lsl #1
 642              	.LBE127:
 643              	.LBE180:
 644              	.LBB181:
 645              	.LBB135:
 646 0074 ED17     		asrs	r5, r5, #31
 647              	.LVL32:
 648              	.LBE135:
 649              	.LBE181:
 650              	.LBB182:
 651              	.LBB168:
 652 0076 03EB8300 		add	r0, r3, r3, lsl #2
 653              	.LBE168:
 654              	.LBE182:
 655              	.LBB183:
 656              	.LBB136:
 657 007a C5EBAA05 		rsb	r5, r5, sl, asr #2
 658              	.LBE136:
 659              	.LBE183:
 660              	.LBB184:
 661              	.LBB169:
 662 007e 0490     		str	r0, [sp, #16]
 663              	.LBE169:
 664              	.LBE184:
 665              	.LBB185:
 666              	.LBB159:
 667 0080 F217     		asrs	r2, r6, #31
 668              	.LBE159:
 669              	.LBE185:
 670              	.LBB186:
 671              	.LBB137:
 672 0082 1698     		ldr	r0, [sp, #88]
 673              	.LBE137:
 674              	.LBE186:
 675              	.LBB187:
 676              	.LBB118:
 677 0084 0EEB8E0A 		add	sl, lr, lr, lsl #2
 678              	.LBE118:
 679              	.LBE187:
 680              	.LBB188:
ARM GAS  C:\Users\Vergil\AppData\Local\Temp\ccSnTvXE.s 			page 13


 681              	.LBB160:
 682 0088 C2EBA802 		rsb	r2, r2, r8, asr #2
 683              	.LBE160:
 684              	.LBE188:
 685              	.LBB189:
 686              	.LBB119:
 687 008c ACEB4A0B 		sub	fp, ip, sl, lsl #1
 688              	.LBE119:
 689              	.LBE189:
 690              	.LBB190:
 691              	.LBB138:
 692 0090 05EB850A 		add	sl, r5, r5, lsl #2
 693              	.LBE138:
 694              	.LBE190:
 695              	.LBB191:
 696              	.LBB161:
 697 0094 02EB820C 		add	ip, r2, r2, lsl #2
 698              	.LVL33:
 699              	.LBE161:
 700              	.LBE191:
 701              	.LBB192:
 702              	.LBB139:
 703 0098 A0EB4A0A 		sub	sl, r0, sl, lsl #1
 704              	.LBE139:
 705              	.LBE192:
 706              	.LBB193:
 707              	.LBB162:
 708 009c A6EB4C0C 		sub	ip, r6, ip, lsl #1
 709              	.LBE162:
 710              	.LBE193:
 711              	.LBB194:
 712              	.LBB150:
 713 00a0 1998     		ldr	r0, [sp, #100]
 714              	.LBE150:
 715              	.LBE194:
 716              	.LBB195:
 717              	.LBB170:
 718 00a2 059E     		ldr	r6, [sp, #20]
 719              	.LVL34:
 720              	.LBE170:
 721              	.LBE195:
 722              	.LBB196:
 723              	.LBB140:
 724 00a4 0AEB051A 		add	sl, sl, r5, lsl #4
 725              	.LBE140:
 726              	.LBE196:
 727              	.LBB197:
 728              	.LBB128:
 729 00a8 09EB0717 		add	r7, r9, r7, lsl #4
 730              	.LBE128:
 731              	.LBE197:
 732              		.loc 1 97 0
 733 00ac 189D     		ldr	r5, [sp, #96]
 734              	.LBB198:
 735              	.LBB171:
 736              		.loc 2 47 0
 737 00ae DDF81090 		ldr	r9, [sp, #16]
ARM GAS  C:\Users\Vergil\AppData\Local\Temp\ccSnTvXE.s 			page 14


 738              	.LBE171:
 739              	.LBE198:
 740              		.loc 1 95 0
 741 00b2 8DF81EA0 		strb	sl, [sp, #30]
 742              	.LBB199:
 743              	.LBB151:
 744              		.loc 2 47 0
 745 00b6 01EB8108 		add	r8, r1, r1, lsl #2
 746              	.LBE151:
 747              	.LBE199:
 748              		.loc 1 97 0
 749 00ba 0135     		adds	r5, r5, #1
 750              	.LBB200:
 751              	.LBB120:
 752              		.loc 2 47 0
 753 00bc 0BEB0E1E 		add	lr, fp, lr, lsl #4
 754              	.LBE120:
 755              	.LBE200:
 756              	.LBB201:
 757              	.LBB152:
 758 00c0 A0EB4808 		sub	r8, r0, r8, lsl #1
 759              	.LBE152:
 760              	.LBE201:
 761              	.LBB202:
 762              	.LBB172:
 763 00c4 A6EB4900 		sub	r0, r6, r9, lsl #1
 764              	.LBE172:
 765              	.LBE202:
 766              		.loc 1 94 0
 767 00c8 0EF07F0E 		and	lr, lr, #127
 768              		.loc 1 93 0
 769 00cc 0026     		movs	r6, #0
 770              	.LBB203:
 771              	.LBB153:
 772              		.loc 2 47 0
 773 00ce 08EB0118 		add	r8, r8, r1, lsl #4
 774              	.LBE153:
 775              	.LBE203:
 776              		.loc 1 97 0
 777 00d2 8DF82050 		strb	r5, [sp, #32]
 778              	.LBB204:
 779              	.LBB163:
 780              		.loc 2 47 0
 781 00d6 0CEB0211 		add	r1, ip, r2, lsl #4
 782              	.LBE163:
 783              	.LBE204:
 784              		.loc 1 96 0
 785 00da 07F03F07 		and	r7, r7, #63
 786              	.LBB205:
 787              	.LBB173:
 788              		.loc 2 47 0
 789 00de 00EB0312 		add	r2, r0, r3, lsl #4
 790              	.LBE173:
 791              	.LBE205:
 792              		.loc 1 104 0
 793 00e2 4FF47A75 		mov	r5, #1000
 794              		.loc 1 103 0
ARM GAS  C:\Users\Vergil\AppData\Local\Temp\ccSnTvXE.s 			page 15


 795 00e6 2068     		ldr	r0, [r4, #0]
 796              		.loc 1 94 0
 797 00e8 8DF81DE0 		strb	lr, [sp, #29]
 798              		.loc 1 99 0
 799 00ec 8DF82210 		strb	r1, [sp, #34]
 800              		.loc 1 100 0
 801 00f0 8DF82320 		strb	r2, [sp, #35]
 802              		.loc 1 93 0
 803 00f4 8DF81C60 		strb	r6, [sp, #28]
 804              		.loc 1 96 0
 805 00f8 8DF81F70 		strb	r7, [sp, #31]
 806              		.loc 1 98 0
 807 00fc 8DF82180 		strb	r8, [sp, #33]
 808              		.loc 1 101 0
 809 0100 8DF82460 		strb	r6, [sp, #36]
 810              		.loc 1 103 0
 811 0104 FFF7FEFF 		bl	i2cAcquireBus
 812              	.LVL35:
 813              		.loc 1 104 0
 814 0108 2068     		ldr	r0, [r4, #0]
 815 010a 0295     		str	r5, [sp, #8]
 816 010c 6821     		movs	r1, #104
 817 010e 07AA     		add	r2, sp, #28
 818 0110 0923     		movs	r3, #9
 819 0112 0096     		str	r6, [sp, #0]
 820 0114 0196     		str	r6, [sp, #4]
 821 0116 FFF7FEFF 		bl	i2cMasterTransmitTimeout
 822              	.LVL36:
 823 011a 0546     		mov	r5, r0
 824              	.LVL37:
 825              		.loc 1 105 0
 826 011c 2068     		ldr	r0, [r4, #0]
 827              	.LVL38:
 828 011e FFF7FEFF 		bl	i2cReleaseBus
 829              	.LVL39:
 830              	.LBE206:
 831              		.loc 1 110 0
 832 0122 AB1B     		subs	r3, r5, r6
 833 0124 5842     		rsbs	r0, r3, #0
 834 0126 5841     		adcs	r0, r0, r3
 835 0128 0BB0     		add	sp, sp, #44
 836 012a BDE8F04F 		pop	{r4, r5, r6, r7, r8, r9, sl, fp, lr}
 837 012e 04B0     		add	sp, sp, #16
 838 0130 7047     		bx	lr
 839              		.cfi_endproc
 840              	.LFE126:
 841              		.size	_ZN6DS13078set_timeE8RTC_TIME, .-_ZN6DS13078set_timeE8RTC_TIME
 842              		.global	_ZN8RTC_TIME7tmpbuffE
 843 0132 00BFAFF3 		.section	.rodata._ZL6months,"a",%progbits
 843      0080AFF3 
 843      0080AFF3 
 843      0080
 844              		.align	2
 845              		.set	.LANCHOR2,. + 0
 846              		.type	_ZL6months, %object
 847              		.size	_ZL6months, 48
 848              	_ZL6months:
ARM GAS  C:\Users\Vergil\AppData\Local\Temp\ccSnTvXE.s 			page 16


 849 0000 64000000 		.word	.LC8
 850 0004 6C000000 		.word	.LC9
 851 0008 78000000 		.word	.LC10
 852 000c 80000000 		.word	.LC11
 853 0010 88000000 		.word	.LC12
 854 0014 8C000000 		.word	.LC13
 855 0018 94000000 		.word	.LC14
 856 001c 9C000000 		.word	.LC15
 857 0020 A4000000 		.word	.LC16
 858 0024 B0000000 		.word	.LC17
 859 0028 B8000000 		.word	.LC18
 860 002c C4000000 		.word	.LC19
 861              		.section	.rodata.str1.4,"aMS",%progbits,1
 862              		.align	2
 863              	.LC0:
 864 0000 25732025 		.ascii	"%s %s %2d, %4d %02d:%02d:%02d\000"
 864      73202532 
 864      642C2025 
 864      34642025 
 864      3032643A 
 865 001e 0000     		.space	2
 866              	.LC1:
 867 0020 53617475 		.ascii	"Saturday\000"
 867      72646179 
 867      00
 868 0029 000000   		.space	3
 869              	.LC2:
 870 002c 53756E64 		.ascii	"Sunday\000"
 870      617900
 871 0033 00       		.space	1
 872              	.LC3:
 873 0034 4D6F6E64 		.ascii	"Monday\000"
 873      617900
 874 003b 00       		.space	1
 875              	.LC4:
 876 003c 54756573 		.ascii	"Tuesday\000"
 876      64617900 
 877              	.LC5:
 878 0044 5765646E 		.ascii	"Wednesday\000"
 878      65736461 
 878      7900
 879 004e 0000     		.space	2
 880              	.LC6:
 881 0050 54687572 		.ascii	"Thursday\000"
 881      73646179 
 881      00
 882 0059 000000   		.space	3
 883              	.LC7:
 884 005c 46726964 		.ascii	"Friday\000"
 884      617900
 885 0063 00       		.space	1
 886              	.LC8:
 887 0064 4A616E75 		.ascii	"January\000"
 887      61727900 
 888              	.LC9:
 889 006c 46656272 		.ascii	"February\000"
 889      75617279 
ARM GAS  C:\Users\Vergil\AppData\Local\Temp\ccSnTvXE.s 			page 17


 889      00
 890 0075 000000   		.space	3
 891              	.LC10:
 892 0078 4D617263 		.ascii	"March\000"
 892      6800
 893 007e 0000     		.space	2
 894              	.LC11:
 895 0080 41707269 		.ascii	"April\000"
 895      6C00
 896 0086 0000     		.space	2
 897              	.LC12:
 898 0088 4D617900 		.ascii	"May\000"
 899              	.LC13:
 900 008c 4A756E65 		.ascii	"June\000"
 900      00
 901 0091 000000   		.space	3
 902              	.LC14:
 903 0094 4A756C79 		.ascii	"July\000"
 903      00
 904 0099 000000   		.space	3
 905              	.LC15:
 906 009c 41756775 		.ascii	"August\000"
 906      737400
 907 00a3 00       		.space	1
 908              	.LC16:
 909 00a4 53657074 		.ascii	"September\000"
 909      656D6265 
 909      7200
 910 00ae 0000     		.space	2
 911              	.LC17:
 912 00b0 4F63746F 		.ascii	"October\000"
 912      62657200 
 913              	.LC18:
 914 00b8 4E6F7665 		.ascii	"November\000"
 914      6D626572 
 914      00
 915 00c1 000000   		.space	3
 916              	.LC19:
 917 00c4 44656365 		.ascii	"December\000"
 917      6D626572 
 917      00
 918 00cd 000000   		.section	.bss._ZN8RTC_TIME7tmpbuffE,"aw",%nobits
 919              		.align	2
 920              		.set	.LANCHOR0,. + 0
 921              		.type	_ZN8RTC_TIME7tmpbuffE, %object
 922              		.size	_ZN8RTC_TIME7tmpbuffE, 50
 923              	_ZN8RTC_TIME7tmpbuffE:
 924 0000 00000000 		.space	50
 924      00000000 
 924      00000000 
 924      00000000 
 924      00000000 
 925 0032 0000     		.section	.rodata._ZL8weekdays,"a",%progbits
 926              		.align	2
 927              		.set	.LANCHOR1,. + 0
 928              		.type	_ZL8weekdays, %object
 929              		.size	_ZL8weekdays, 28
ARM GAS  C:\Users\Vergil\AppData\Local\Temp\ccSnTvXE.s 			page 18


 930              	_ZL8weekdays:
 931 0000 20000000 		.word	.LC1
 932 0004 2C000000 		.word	.LC2
 933 0008 34000000 		.word	.LC3
 934 000c 3C000000 		.word	.LC4
 935 0010 44000000 		.word	.LC5
 936 0014 50000000 		.word	.LC6
 937 0018 5C000000 		.word	.LC7
 938              		.text
 939              	.Letext0:
 940              		.file 3 "c:\\chibistudio\\tools\\gnu tools arm embedded\\4.7 2014q2\\bin\\../lib/gcc/arm-none-eabi
 941              		.file 4 "c:\\chibistudio\\tools\\gnu tools arm embedded\\4.7 2014q2\\bin\\../lib/gcc/arm-none-eabi
 942              		.file 5 "../../os/ports/GCC/ARMCMx/chtypes.h"
 943              		.file 6 "../../os/kernel/include/chlists.h"
 944              		.file 7 "../../os/kernel/include/chthreads.h"
 945              		.file 8 "../../os/ports/GCC/ARMCMx/chcore_v7m.h"
 946              		.file 9 "../../os/kernel/include/chmtx.h"
 947              		.file 10 "../../os/hal/platforms/STM32F4xx/stm32f4xx.h"
 948              		.file 11 "../../os/hal/platforms/STM32F4xx/stm32_dma.h"
 949              		.file 12 "../../os/hal/include/i2c.h"
 950              		.file 13 "../../os/hal/platforms/STM32/I2Cv1/i2c_lld.h"
 951              		.file 14 "../../os/various/chprintf.h"
 952              		.file 15 "../../os/ports/common/ARMCMx/CMSIS/include/core_cm4.h"
 953              		.section	.debug_info,"",%progbits
 954              	.Ldebug_info0:
 955 0000 A70F0000 		.4byte	0xfa7
 956 0004 0200     		.2byte	0x2
 957 0006 00000000 		.4byte	.Ldebug_abbrev0
 958 000a 04       		.byte	0x4
 959 000b 01       		.uleb128 0x1
 960 000c DF010000 		.4byte	.LASF153
 961 0010 04       		.byte	0x4
 962 0011 0D060000 		.4byte	.LASF154
 963 0015 C3050000 		.4byte	.LASF155
 964 0019 50030000 		.4byte	.Ldebug_ranges0+0x350
 965 001d 00000000 		.4byte	0
 966 0021 00000000 		.4byte	0
 967 0025 00000000 		.4byte	.Ldebug_line0
 968 0029 02       		.uleb128 0x2
 969 002a 04       		.byte	0x4
 970 002b 05       		.byte	0x5
 971 002c 696E7400 		.ascii	"int\000"
 972 0030 03       		.uleb128 0x3
 973 0031 34000000 		.4byte	.LASF2
 974 0035 03       		.byte	0x3
 975 0036 D5       		.byte	0xd5
 976 0037 3B000000 		.4byte	0x3b
 977 003b 04       		.uleb128 0x4
 978 003c 04       		.byte	0x4
 979 003d 07       		.byte	0x7
 980 003e 5F020000 		.4byte	.LASF0
 981 0042 04       		.uleb128 0x4
 982 0043 01       		.byte	0x1
 983 0044 06       		.byte	0x6
 984 0045 2A010000 		.4byte	.LASF1
 985 0049 03       		.uleb128 0x3
 986 004a F3060000 		.4byte	.LASF3
ARM GAS  C:\Users\Vergil\AppData\Local\Temp\ccSnTvXE.s 			page 19


 987 004e 04       		.byte	0x4
 988 004f 2A       		.byte	0x2a
 989 0050 54000000 		.4byte	0x54
 990 0054 04       		.uleb128 0x4
 991 0055 01       		.byte	0x1
 992 0056 08       		.byte	0x8
 993 0057 95040000 		.4byte	.LASF4
 994 005b 04       		.uleb128 0x4
 995 005c 02       		.byte	0x2
 996 005d 05       		.byte	0x5
 997 005e 39030000 		.4byte	.LASF5
 998 0062 03       		.uleb128 0x3
 999 0063 6C020000 		.4byte	.LASF6
 1000 0067 04       		.byte	0x4
 1001 0068 36       		.byte	0x36
 1002 0069 6D000000 		.4byte	0x6d
 1003 006d 04       		.uleb128 0x4
 1004 006e 02       		.byte	0x2
 1005 006f 07       		.byte	0x7
 1006 0070 B1020000 		.4byte	.LASF7
 1007 0074 03       		.uleb128 0x3
 1008 0075 8D040000 		.4byte	.LASF8
 1009 0079 04       		.byte	0x4
 1010 007a 4F       		.byte	0x4f
 1011 007b 7F000000 		.4byte	0x7f
 1012 007f 04       		.uleb128 0x4
 1013 0080 04       		.byte	0x4
 1014 0081 05       		.byte	0x5
 1015 0082 94010000 		.4byte	.LASF9
 1016 0086 03       		.uleb128 0x3
 1017 0087 62050000 		.4byte	.LASF10
 1018 008b 04       		.byte	0x4
 1019 008c 50       		.byte	0x50
 1020 008d 91000000 		.4byte	0x91
 1021 0091 04       		.uleb128 0x4
 1022 0092 04       		.byte	0x4
 1023 0093 07       		.byte	0x7
 1024 0094 42010000 		.4byte	.LASF11
 1025 0098 04       		.uleb128 0x4
 1026 0099 08       		.byte	0x8
 1027 009a 05       		.byte	0x5
 1028 009b 1C010000 		.4byte	.LASF12
 1029 009f 04       		.uleb128 0x4
 1030 00a0 08       		.byte	0x8
 1031 00a1 07       		.byte	0x7
 1032 00a2 71000000 		.4byte	.LASF13
 1033 00a6 04       		.uleb128 0x4
 1034 00a7 01       		.byte	0x1
 1035 00a8 02       		.byte	0x2
 1036 00a9 1C030000 		.4byte	.LASF14
 1037 00ad 03       		.uleb128 0x3
 1038 00ae 14030000 		.4byte	.LASF15
 1039 00b2 05       		.byte	0x5
 1040 00b3 2C       		.byte	0x2c
 1041 00b4 49000000 		.4byte	0x49
 1042 00b8 03       		.uleb128 0x3
 1043 00b9 9D010000 		.4byte	.LASF16
ARM GAS  C:\Users\Vergil\AppData\Local\Temp\ccSnTvXE.s 			page 20


 1044 00bd 05       		.byte	0x5
 1045 00be 2D       		.byte	0x2d
 1046 00bf 49000000 		.4byte	0x49
 1047 00c3 03       		.uleb128 0x3
 1048 00c4 07040000 		.4byte	.LASF17
 1049 00c8 05       		.byte	0x5
 1050 00c9 2E       		.byte	0x2e
 1051 00ca 49000000 		.4byte	0x49
 1052 00ce 03       		.uleb128 0x3
 1053 00cf 75010000 		.4byte	.LASF18
 1054 00d3 05       		.byte	0x5
 1055 00d4 2F       		.byte	0x2f
 1056 00d5 49000000 		.4byte	0x49
 1057 00d9 03       		.uleb128 0x3
 1058 00da 66040000 		.4byte	.LASF19
 1059 00de 05       		.byte	0x5
 1060 00df 30       		.byte	0x30
 1061 00e0 86000000 		.4byte	0x86
 1062 00e4 03       		.uleb128 0x3
 1063 00e5 E0020000 		.4byte	.LASF20
 1064 00e9 05       		.byte	0x5
 1065 00ea 31       		.byte	0x31
 1066 00eb 74000000 		.4byte	0x74
 1067 00ef 03       		.uleb128 0x3
 1068 00f0 2D030000 		.4byte	.LASF21
 1069 00f4 05       		.byte	0x5
 1070 00f5 33       		.byte	0x33
 1071 00f6 86000000 		.4byte	0x86
 1072 00fa 03       		.uleb128 0x3
 1073 00fb B9050000 		.4byte	.LASF22
 1074 00ff 05       		.byte	0x5
 1075 0100 35       		.byte	0x35
 1076 0101 86000000 		.4byte	0x86
 1077 0105 03       		.uleb128 0x3
 1078 0106 36050000 		.4byte	.LASF23
 1079 010a 06       		.byte	0x6
 1080 010b 2A       		.byte	0x2a
 1081 010c 10010000 		.4byte	0x110
 1082 0110 05       		.uleb128 0x5
 1083 0111 36050000 		.4byte	.LASF23
 1084 0115 48       		.byte	0x48
 1085 0116 07       		.byte	0x7
 1086 0117 5E       		.byte	0x5e
 1087 0118 6A020000 		.4byte	0x26a
 1088 011c 06       		.uleb128 0x6
 1089 011d 04       		.byte	0x4
 1090 011e 07       		.byte	0x7
 1091 011f 96       		.byte	0x96
 1092 0120 51010000 		.4byte	0x151
 1093 0124 07       		.uleb128 0x7
 1094 0125 3B000000 		.4byte	.LASF24
 1095 0129 07       		.byte	0x7
 1096 012a 9D       		.byte	0x9d
 1097 012b E4000000 		.4byte	0xe4
 1098 012f 07       		.uleb128 0x7
 1099 0130 88000000 		.4byte	.LASF25
 1100 0134 07       		.byte	0x7
ARM GAS  C:\Users\Vergil\AppData\Local\Temp\ccSnTvXE.s 			page 21


 1101 0135 A4       		.byte	0xa4
 1102 0136 E4000000 		.4byte	0xe4
 1103 013a 07       		.uleb128 0x7
 1104 013b 1D070000 		.4byte	.LASF26
 1105 013f 07       		.byte	0x7
 1106 0140 AB       		.byte	0xab
 1107 0141 D5020000 		.4byte	0x2d5
 1108 0145 07       		.uleb128 0x7
 1109 0146 EB040000 		.4byte	.LASF27
 1110 014a 07       		.byte	0x7
 1111 014b B2       		.byte	0xb2
 1112 014c EF000000 		.4byte	0xef
 1113 0150 00       		.byte	0
 1114 0151 08       		.uleb128 0x8
 1115 0152 F2040000 		.4byte	.LASF28
 1116 0156 07       		.byte	0x7
 1117 0157 5F       		.byte	0x5f
 1118 0158 D1040000 		.4byte	0x4d1
 1119 015c 02       		.byte	0x2
 1120 015d 23       		.byte	0x23
 1121 015e 00       		.uleb128 0
 1122 015f 08       		.uleb128 0x8
 1123 0160 41040000 		.4byte	.LASF29
 1124 0164 07       		.byte	0x7
 1125 0165 61       		.byte	0x61
 1126 0166 D1040000 		.4byte	0x4d1
 1127 016a 02       		.byte	0x2
 1128 016b 23       		.byte	0x23
 1129 016c 04       		.uleb128 0x4
 1130 016d 08       		.uleb128 0x8
 1131 016e CE000000 		.4byte	.LASF30
 1132 0172 07       		.byte	0x7
 1133 0173 63       		.byte	0x63
 1134 0174 D9000000 		.4byte	0xd9
 1135 0178 02       		.byte	0x2
 1136 0179 23       		.byte	0x23
 1137 017a 08       		.uleb128 0x8
 1138 017b 08       		.uleb128 0x8
 1139 017c 5A070000 		.4byte	.LASF31
 1140 0180 07       		.byte	0x7
 1141 0181 64       		.byte	0x64
 1142 0182 55040000 		.4byte	0x455
 1143 0186 02       		.byte	0x2
 1144 0187 23       		.byte	0x23
 1145 0188 0C       		.uleb128 0xc
 1146 0189 08       		.uleb128 0x8
 1147 018a C0010000 		.4byte	.LASF32
 1148 018e 07       		.byte	0x7
 1149 018f 66       		.byte	0x66
 1150 0190 D1040000 		.4byte	0x4d1
 1151 0194 02       		.byte	0x2
 1152 0195 23       		.byte	0x23
 1153 0196 10       		.uleb128 0x10
 1154 0197 08       		.uleb128 0x8
 1155 0198 8A030000 		.4byte	.LASF33
 1156 019c 07       		.byte	0x7
 1157 019d 67       		.byte	0x67
ARM GAS  C:\Users\Vergil\AppData\Local\Temp\ccSnTvXE.s 			page 22


 1158 019e D1040000 		.4byte	0x4d1
 1159 01a2 02       		.byte	0x2
 1160 01a3 23       		.byte	0x23
 1161 01a4 14       		.uleb128 0x14
 1162 01a5 08       		.uleb128 0x8
 1163 01a6 D7060000 		.4byte	.LASF34
 1164 01aa 07       		.byte	0x7
 1165 01ab 6E       		.byte	0x6e
 1166 01ac D7040000 		.4byte	0x4d7
 1167 01b0 02       		.byte	0x2
 1168 01b1 23       		.byte	0x23
 1169 01b2 18       		.uleb128 0x18
 1170 01b3 08       		.uleb128 0x8
 1171 01b4 CB040000 		.4byte	.LASF35
 1172 01b8 07       		.byte	0x7
 1173 01b9 79       		.byte	0x79
 1174 01ba B8000000 		.4byte	0xb8
 1175 01be 02       		.byte	0x2
 1176 01bf 23       		.byte	0x23
 1177 01c0 1C       		.uleb128 0x1c
 1178 01c1 08       		.uleb128 0x8
 1179 01c2 F9040000 		.4byte	.LASF36
 1180 01c6 07       		.byte	0x7
 1181 01c7 7D       		.byte	0x7d
 1182 01c8 AD000000 		.4byte	0xad
 1183 01cc 02       		.byte	0x2
 1184 01cd 23       		.byte	0x23
 1185 01ce 1D       		.uleb128 0x1d
 1186 01cf 08       		.uleb128 0x8
 1187 01d0 BA030000 		.4byte	.LASF37
 1188 01d4 07       		.byte	0x7
 1189 01d5 82       		.byte	0x82
 1190 01d6 C3000000 		.4byte	0xc3
 1191 01da 02       		.byte	0x2
 1192 01db 23       		.byte	0x23
 1193 01dc 1E       		.uleb128 0x1e
 1194 01dd 08       		.uleb128 0x8
 1195 01de D3040000 		.4byte	.LASF38
 1196 01e2 07       		.byte	0x7
 1197 01e3 88       		.byte	0x88
 1198 01e4 CE000000 		.4byte	0xce
 1199 01e8 02       		.byte	0x2
 1200 01e9 23       		.byte	0x23
 1201 01ea 1F       		.uleb128 0x1f
 1202 01eb 08       		.uleb128 0x8
 1203 01ec 75020000 		.4byte	.LASF39
 1204 01f0 07       		.byte	0x7
 1205 01f1 8F       		.byte	0x8f
 1206 01f2 84040000 		.4byte	0x484
 1207 01f6 02       		.byte	0x2
 1208 01f7 23       		.byte	0x23
 1209 01f8 20       		.uleb128 0x20
 1210 01f9 09       		.uleb128 0x9
 1211 01fa 705F7500 		.ascii	"p_u\000"
 1212 01fe 07       		.byte	0x7
 1213 01ff B4       		.byte	0xb4
 1214 0200 1C010000 		.4byte	0x11c
ARM GAS  C:\Users\Vergil\AppData\Local\Temp\ccSnTvXE.s 			page 23


 1215 0204 02       		.byte	0x2
 1216 0205 23       		.byte	0x23
 1217 0206 24       		.uleb128 0x24
 1218 0207 08       		.uleb128 0x8
 1219 0208 60070000 		.4byte	.LASF40
 1220 020c 07       		.byte	0x7
 1221 020d B9       		.byte	0xb9
 1222 020e BF020000 		.4byte	0x2bf
 1223 0212 02       		.byte	0x2
 1224 0213 23       		.byte	0x23
 1225 0214 28       		.uleb128 0x28
 1226 0215 08       		.uleb128 0x8
 1227 0216 83020000 		.4byte	.LASF41
 1228 021a 07       		.byte	0x7
 1229 021b BF       		.byte	0xbf
 1230 021c 99020000 		.4byte	0x299
 1231 0220 02       		.byte	0x2
 1232 0221 23       		.byte	0x23
 1233 0222 2C       		.uleb128 0x2c
 1234 0223 08       		.uleb128 0x8
 1235 0224 34070000 		.4byte	.LASF42
 1236 0228 07       		.byte	0x7
 1237 0229 C3       		.byte	0xc3
 1238 022a E4000000 		.4byte	0xe4
 1239 022e 02       		.byte	0x2
 1240 022f 23       		.byte	0x23
 1241 0230 34       		.uleb128 0x34
 1242 0231 08       		.uleb128 0x8
 1243 0232 48050000 		.4byte	.LASF43
 1244 0236 07       		.byte	0x7
 1245 0237 C9       		.byte	0xc9
 1246 0238 EF000000 		.4byte	0xef
 1247 023c 02       		.byte	0x2
 1248 023d 23       		.byte	0x23
 1249 023e 38       		.uleb128 0x38
 1250 023f 08       		.uleb128 0x8
 1251 0240 B6040000 		.4byte	.LASF44
 1252 0244 07       		.byte	0x7
 1253 0245 D0       		.byte	0xd0
 1254 0246 E9040000 		.4byte	0x4e9
 1255 024a 02       		.byte	0x2
 1256 024b 23       		.byte	0x23
 1257 024c 3C       		.uleb128 0x3c
 1258 024d 08       		.uleb128 0x8
 1259 024e E6020000 		.4byte	.LASF45
 1260 0252 07       		.byte	0x7
 1261 0253 D4       		.byte	0xd4
 1262 0254 D9000000 		.4byte	0xd9
 1263 0258 02       		.byte	0x2
 1264 0259 23       		.byte	0x23
 1265 025a 40       		.uleb128 0x40
 1266 025b 08       		.uleb128 0x8
 1267 025c 54010000 		.4byte	.LASF46
 1268 0260 07       		.byte	0x7
 1269 0261 DA       		.byte	0xda
 1270 0262 D5020000 		.4byte	0x2d5
 1271 0266 02       		.byte	0x2
ARM GAS  C:\Users\Vergil\AppData\Local\Temp\ccSnTvXE.s 			page 24


 1272 0267 23       		.byte	0x23
 1273 0268 44       		.uleb128 0x44
 1274 0269 00       		.byte	0
 1275 026a 0A       		.uleb128 0xa
 1276 026b 08       		.byte	0x8
 1277 026c 06       		.byte	0x6
 1278 026d 61       		.byte	0x61
 1279 026e E6030000 		.4byte	.LASF48
 1280 0272 93020000 		.4byte	0x293
 1281 0276 08       		.uleb128 0x8
 1282 0277 F2040000 		.4byte	.LASF28
 1283 027b 06       		.byte	0x6
 1284 027c 62       		.byte	0x62
 1285 027d 93020000 		.4byte	0x293
 1286 0281 02       		.byte	0x2
 1287 0282 23       		.byte	0x23
 1288 0283 00       		.uleb128 0
 1289 0284 08       		.uleb128 0x8
 1290 0285 41040000 		.4byte	.LASF29
 1291 0289 06       		.byte	0x6
 1292 028a 64       		.byte	0x64
 1293 028b 93020000 		.4byte	0x293
 1294 028f 02       		.byte	0x2
 1295 0290 23       		.byte	0x23
 1296 0291 04       		.uleb128 0x4
 1297 0292 00       		.byte	0
 1298 0293 0B       		.uleb128 0xb
 1299 0294 04       		.byte	0x4
 1300 0295 05010000 		.4byte	0x105
 1301 0299 03       		.uleb128 0x3
 1302 029a 9C030000 		.4byte	.LASF47
 1303 029e 06       		.byte	0x6
 1304 029f 66       		.byte	0x66
 1305 02a0 6A020000 		.4byte	0x26a
 1306 02a4 0A       		.uleb128 0xa
 1307 02a5 04       		.byte	0x4
 1308 02a6 06       		.byte	0x6
 1309 02a7 6B       		.byte	0x6b
 1310 02a8 DD040000 		.4byte	.LASF49
 1311 02ac BF020000 		.4byte	0x2bf
 1312 02b0 08       		.uleb128 0x8
 1313 02b1 F2040000 		.4byte	.LASF28
 1314 02b5 06       		.byte	0x6
 1315 02b6 6D       		.byte	0x6d
 1316 02b7 93020000 		.4byte	0x293
 1317 02bb 02       		.byte	0x2
 1318 02bc 23       		.byte	0x23
 1319 02bd 00       		.uleb128 0
 1320 02be 00       		.byte	0
 1321 02bf 03       		.uleb128 0x3
 1322 02c0 21030000 		.4byte	.LASF50
 1323 02c4 06       		.byte	0x6
 1324 02c5 70       		.byte	0x70
 1325 02c6 A4020000 		.4byte	0x2a4
 1326 02ca 03       		.uleb128 0x3
 1327 02cb 44020000 		.4byte	.LASF51
 1328 02cf 08       		.byte	0x8
ARM GAS  C:\Users\Vergil\AppData\Local\Temp\ccSnTvXE.s 			page 25


 1329 02d0 E5       		.byte	0xe5
 1330 02d1 D5020000 		.4byte	0x2d5
 1331 02d5 0C       		.uleb128 0xc
 1332 02d6 04       		.byte	0x4
 1333 02d7 0D       		.uleb128 0xd
 1334 02d8 A8060000 		.4byte	.LASF52
 1335 02dc 64       		.byte	0x64
 1336 02dd 08       		.byte	0x8
 1337 02de 0C01     		.2byte	0x10c
 1338 02e0 55040000 		.4byte	0x455
 1339 02e4 0E       		.uleb128 0xe
 1340 02e5 73313600 		.ascii	"s16\000"
 1341 02e9 08       		.byte	0x8
 1342 02ea 0E01     		.2byte	0x10e
 1343 02ec CA020000 		.4byte	0x2ca
 1344 02f0 02       		.byte	0x2
 1345 02f1 23       		.byte	0x23
 1346 02f2 00       		.uleb128 0
 1347 02f3 0E       		.uleb128 0xe
 1348 02f4 73313700 		.ascii	"s17\000"
 1349 02f8 08       		.byte	0x8
 1350 02f9 0F01     		.2byte	0x10f
 1351 02fb CA020000 		.4byte	0x2ca
 1352 02ff 02       		.byte	0x2
 1353 0300 23       		.byte	0x23
 1354 0301 04       		.uleb128 0x4
 1355 0302 0E       		.uleb128 0xe
 1356 0303 73313800 		.ascii	"s18\000"
 1357 0307 08       		.byte	0x8
 1358 0308 1001     		.2byte	0x110
 1359 030a CA020000 		.4byte	0x2ca
 1360 030e 02       		.byte	0x2
 1361 030f 23       		.byte	0x23
 1362 0310 08       		.uleb128 0x8
 1363 0311 0E       		.uleb128 0xe
 1364 0312 73313900 		.ascii	"s19\000"
 1365 0316 08       		.byte	0x8
 1366 0317 1101     		.2byte	0x111
 1367 0319 CA020000 		.4byte	0x2ca
 1368 031d 02       		.byte	0x2
 1369 031e 23       		.byte	0x23
 1370 031f 0C       		.uleb128 0xc
 1371 0320 0E       		.uleb128 0xe
 1372 0321 73323000 		.ascii	"s20\000"
 1373 0325 08       		.byte	0x8
 1374 0326 1201     		.2byte	0x112
 1375 0328 CA020000 		.4byte	0x2ca
 1376 032c 02       		.byte	0x2
 1377 032d 23       		.byte	0x23
 1378 032e 10       		.uleb128 0x10
 1379 032f 0E       		.uleb128 0xe
 1380 0330 73323100 		.ascii	"s21\000"
 1381 0334 08       		.byte	0x8
 1382 0335 1301     		.2byte	0x113
 1383 0337 CA020000 		.4byte	0x2ca
 1384 033b 02       		.byte	0x2
 1385 033c 23       		.byte	0x23
ARM GAS  C:\Users\Vergil\AppData\Local\Temp\ccSnTvXE.s 			page 26


 1386 033d 14       		.uleb128 0x14
 1387 033e 0E       		.uleb128 0xe
 1388 033f 73323200 		.ascii	"s22\000"
 1389 0343 08       		.byte	0x8
 1390 0344 1401     		.2byte	0x114
 1391 0346 CA020000 		.4byte	0x2ca
 1392 034a 02       		.byte	0x2
 1393 034b 23       		.byte	0x23
 1394 034c 18       		.uleb128 0x18
 1395 034d 0E       		.uleb128 0xe
 1396 034e 73323300 		.ascii	"s23\000"
 1397 0352 08       		.byte	0x8
 1398 0353 1501     		.2byte	0x115
 1399 0355 CA020000 		.4byte	0x2ca
 1400 0359 02       		.byte	0x2
 1401 035a 23       		.byte	0x23
 1402 035b 1C       		.uleb128 0x1c
 1403 035c 0E       		.uleb128 0xe
 1404 035d 73323400 		.ascii	"s24\000"
 1405 0361 08       		.byte	0x8
 1406 0362 1601     		.2byte	0x116
 1407 0364 CA020000 		.4byte	0x2ca
 1408 0368 02       		.byte	0x2
 1409 0369 23       		.byte	0x23
 1410 036a 20       		.uleb128 0x20
 1411 036b 0E       		.uleb128 0xe
 1412 036c 73323500 		.ascii	"s25\000"
 1413 0370 08       		.byte	0x8
 1414 0371 1701     		.2byte	0x117
 1415 0373 CA020000 		.4byte	0x2ca
 1416 0377 02       		.byte	0x2
 1417 0378 23       		.byte	0x23
 1418 0379 24       		.uleb128 0x24
 1419 037a 0E       		.uleb128 0xe
 1420 037b 73323600 		.ascii	"s26\000"
 1421 037f 08       		.byte	0x8
 1422 0380 1801     		.2byte	0x118
 1423 0382 CA020000 		.4byte	0x2ca
 1424 0386 02       		.byte	0x2
 1425 0387 23       		.byte	0x23
 1426 0388 28       		.uleb128 0x28
 1427 0389 0E       		.uleb128 0xe
 1428 038a 73323700 		.ascii	"s27\000"
 1429 038e 08       		.byte	0x8
 1430 038f 1901     		.2byte	0x119
 1431 0391 CA020000 		.4byte	0x2ca
 1432 0395 02       		.byte	0x2
 1433 0396 23       		.byte	0x23
 1434 0397 2C       		.uleb128 0x2c
 1435 0398 0E       		.uleb128 0xe
 1436 0399 73323800 		.ascii	"s28\000"
 1437 039d 08       		.byte	0x8
 1438 039e 1A01     		.2byte	0x11a
 1439 03a0 CA020000 		.4byte	0x2ca
 1440 03a4 02       		.byte	0x2
 1441 03a5 23       		.byte	0x23
 1442 03a6 30       		.uleb128 0x30
ARM GAS  C:\Users\Vergil\AppData\Local\Temp\ccSnTvXE.s 			page 27


 1443 03a7 0E       		.uleb128 0xe
 1444 03a8 73323900 		.ascii	"s29\000"
 1445 03ac 08       		.byte	0x8
 1446 03ad 1B01     		.2byte	0x11b
 1447 03af CA020000 		.4byte	0x2ca
 1448 03b3 02       		.byte	0x2
 1449 03b4 23       		.byte	0x23
 1450 03b5 34       		.uleb128 0x34
 1451 03b6 0E       		.uleb128 0xe
 1452 03b7 73333000 		.ascii	"s30\000"
 1453 03bb 08       		.byte	0x8
 1454 03bc 1C01     		.2byte	0x11c
 1455 03be CA020000 		.4byte	0x2ca
 1456 03c2 02       		.byte	0x2
 1457 03c3 23       		.byte	0x23
 1458 03c4 38       		.uleb128 0x38
 1459 03c5 0E       		.uleb128 0xe
 1460 03c6 73333100 		.ascii	"s31\000"
 1461 03ca 08       		.byte	0x8
 1462 03cb 1D01     		.2byte	0x11d
 1463 03cd CA020000 		.4byte	0x2ca
 1464 03d1 02       		.byte	0x2
 1465 03d2 23       		.byte	0x23
 1466 03d3 3C       		.uleb128 0x3c
 1467 03d4 0E       		.uleb128 0xe
 1468 03d5 723400   		.ascii	"r4\000"
 1469 03d8 08       		.byte	0x8
 1470 03d9 1F01     		.2byte	0x11f
 1471 03db CA020000 		.4byte	0x2ca
 1472 03df 02       		.byte	0x2
 1473 03e0 23       		.byte	0x23
 1474 03e1 40       		.uleb128 0x40
 1475 03e2 0E       		.uleb128 0xe
 1476 03e3 723500   		.ascii	"r5\000"
 1477 03e6 08       		.byte	0x8
 1478 03e7 2001     		.2byte	0x120
 1479 03e9 CA020000 		.4byte	0x2ca
 1480 03ed 02       		.byte	0x2
 1481 03ee 23       		.byte	0x23
 1482 03ef 44       		.uleb128 0x44
 1483 03f0 0E       		.uleb128 0xe
 1484 03f1 723600   		.ascii	"r6\000"
 1485 03f4 08       		.byte	0x8
 1486 03f5 2101     		.2byte	0x121
 1487 03f7 CA020000 		.4byte	0x2ca
 1488 03fb 02       		.byte	0x2
 1489 03fc 23       		.byte	0x23
 1490 03fd 48       		.uleb128 0x48
 1491 03fe 0E       		.uleb128 0xe
 1492 03ff 723700   		.ascii	"r7\000"
 1493 0402 08       		.byte	0x8
 1494 0403 2201     		.2byte	0x122
 1495 0405 CA020000 		.4byte	0x2ca
 1496 0409 02       		.byte	0x2
 1497 040a 23       		.byte	0x23
 1498 040b 4C       		.uleb128 0x4c
 1499 040c 0E       		.uleb128 0xe
ARM GAS  C:\Users\Vergil\AppData\Local\Temp\ccSnTvXE.s 			page 28


 1500 040d 723800   		.ascii	"r8\000"
 1501 0410 08       		.byte	0x8
 1502 0411 2301     		.2byte	0x123
 1503 0413 CA020000 		.4byte	0x2ca
 1504 0417 02       		.byte	0x2
 1505 0418 23       		.byte	0x23
 1506 0419 50       		.uleb128 0x50
 1507 041a 0E       		.uleb128 0xe
 1508 041b 723900   		.ascii	"r9\000"
 1509 041e 08       		.byte	0x8
 1510 041f 2401     		.2byte	0x124
 1511 0421 CA020000 		.4byte	0x2ca
 1512 0425 02       		.byte	0x2
 1513 0426 23       		.byte	0x23
 1514 0427 54       		.uleb128 0x54
 1515 0428 0E       		.uleb128 0xe
 1516 0429 72313000 		.ascii	"r10\000"
 1517 042d 08       		.byte	0x8
 1518 042e 2501     		.2byte	0x125
 1519 0430 CA020000 		.4byte	0x2ca
 1520 0434 02       		.byte	0x2
 1521 0435 23       		.byte	0x23
 1522 0436 58       		.uleb128 0x58
 1523 0437 0E       		.uleb128 0xe
 1524 0438 72313100 		.ascii	"r11\000"
 1525 043c 08       		.byte	0x8
 1526 043d 2601     		.2byte	0x126
 1527 043f CA020000 		.4byte	0x2ca
 1528 0443 02       		.byte	0x2
 1529 0444 23       		.byte	0x23
 1530 0445 5C       		.uleb128 0x5c
 1531 0446 0E       		.uleb128 0xe
 1532 0447 6C7200   		.ascii	"lr\000"
 1533 044a 08       		.byte	0x8
 1534 044b 2701     		.2byte	0x127
 1535 044d CA020000 		.4byte	0x2ca
 1536 0451 02       		.byte	0x2
 1537 0452 23       		.byte	0x23
 1538 0453 60       		.uleb128 0x60
 1539 0454 00       		.byte	0
 1540 0455 0D       		.uleb128 0xd
 1541 0456 97060000 		.4byte	.LASF53
 1542 045a 04       		.byte	0x4
 1543 045b 08       		.byte	0x8
 1544 045c 3101     		.2byte	0x131
 1545 045e 72040000 		.4byte	0x472
 1546 0462 0E       		.uleb128 0xe
 1547 0463 72313300 		.ascii	"r13\000"
 1548 0467 08       		.byte	0x8
 1549 0468 3201     		.2byte	0x132
 1550 046a 72040000 		.4byte	0x472
 1551 046e 02       		.byte	0x2
 1552 046f 23       		.byte	0x23
 1553 0470 00       		.uleb128 0
 1554 0471 00       		.byte	0
 1555 0472 0B       		.uleb128 0xb
 1556 0473 04       		.byte	0x4
ARM GAS  C:\Users\Vergil\AppData\Local\Temp\ccSnTvXE.s 			page 29


 1557 0474 D7020000 		.4byte	0x2d7
 1558 0478 0F       		.uleb128 0xf
 1559 0479 86000000 		.4byte	0x86
 1560 047d 04       		.uleb128 0x4
 1561 047e 04       		.byte	0x4
 1562 047f 07       		.byte	0x7
 1563 0480 70030000 		.4byte	.LASF54
 1564 0484 0F       		.uleb128 0xf
 1565 0485 FA000000 		.4byte	0xfa
 1566 0489 05       		.uleb128 0x5
 1567 048a 79030000 		.4byte	.LASF55
 1568 048e 10       		.byte	0x10
 1569 048f 09       		.byte	0x9
 1570 0490 2C       		.byte	0x2c
 1571 0491 C0040000 		.4byte	0x4c0
 1572 0495 08       		.uleb128 0x8
 1573 0496 5C010000 		.4byte	.LASF56
 1574 049a 09       		.byte	0x9
 1575 049b 2D       		.byte	0x2d
 1576 049c 99020000 		.4byte	0x299
 1577 04a0 02       		.byte	0x2
 1578 04a1 23       		.byte	0x23
 1579 04a2 00       		.uleb128 0
 1580 04a3 08       		.uleb128 0x8
 1581 04a4 52070000 		.4byte	.LASF57
 1582 04a8 09       		.byte	0x9
 1583 04a9 2F       		.byte	0x2f
 1584 04aa 93020000 		.4byte	0x293
 1585 04ae 02       		.byte	0x2
 1586 04af 23       		.byte	0x23
 1587 04b0 08       		.uleb128 0x8
 1588 04b1 08       		.uleb128 0x8
 1589 04b2 B3030000 		.4byte	.LASF58
 1590 04b6 09       		.byte	0x9
 1591 04b7 31       		.byte	0x31
 1592 04b8 C0040000 		.4byte	0x4c0
 1593 04bc 02       		.byte	0x2
 1594 04bd 23       		.byte	0x23
 1595 04be 0C       		.uleb128 0xc
 1596 04bf 00       		.byte	0
 1597 04c0 0B       		.uleb128 0xb
 1598 04c1 04       		.byte	0x4
 1599 04c2 89040000 		.4byte	0x489
 1600 04c6 03       		.uleb128 0x3
 1601 04c7 79030000 		.4byte	.LASF55
 1602 04cb 09       		.byte	0x9
 1603 04cc 33       		.byte	0x33
 1604 04cd 89040000 		.4byte	0x489
 1605 04d1 0B       		.uleb128 0xb
 1606 04d2 04       		.byte	0x4
 1607 04d3 10010000 		.4byte	0x110
 1608 04d7 0B       		.uleb128 0xb
 1609 04d8 04       		.byte	0x4
 1610 04d9 DD040000 		.4byte	0x4dd
 1611 04dd 10       		.uleb128 0x10
 1612 04de E2040000 		.4byte	0x4e2
 1613 04e2 04       		.uleb128 0x4
ARM GAS  C:\Users\Vergil\AppData\Local\Temp\ccSnTvXE.s 			page 30


 1614 04e3 01       		.byte	0x1
 1615 04e4 08       		.byte	0x8
 1616 04e5 A4050000 		.4byte	.LASF59
 1617 04e9 0B       		.uleb128 0xb
 1618 04ea 04       		.byte	0x4
 1619 04eb C6040000 		.4byte	0x4c6
 1620 04ef 0B       		.uleb128 0xb
 1621 04f0 04       		.byte	0x4
 1622 04f1 49000000 		.4byte	0x49
 1623 04f5 0B       		.uleb128 0xb
 1624 04f6 04       		.byte	0x4
 1625 04f7 FB040000 		.4byte	0x4fb
 1626 04fb 10       		.uleb128 0x10
 1627 04fc 49000000 		.4byte	0x49
 1628 0500 0F       		.uleb128 0xf
 1629 0501 62000000 		.4byte	0x62
 1630 0505 0F       		.uleb128 0xf
 1631 0506 74000000 		.4byte	0x74
 1632 050a 11       		.uleb128 0x11
 1633 050b 18       		.byte	0x18
 1634 050c 0A       		.byte	0xa
 1635 050d B202     		.2byte	0x2b2
 1636 050f 07010000 		.4byte	.LASF64
 1637 0513 71050000 		.4byte	0x571
 1638 0517 0E       		.uleb128 0xe
 1639 0518 435200   		.ascii	"CR\000"
 1640 051b 0A       		.byte	0xa
 1641 051c B302     		.2byte	0x2b3
 1642 051e 78040000 		.4byte	0x478
 1643 0522 02       		.byte	0x2
 1644 0523 23       		.byte	0x23
 1645 0524 00       		.uleb128 0
 1646 0525 12       		.uleb128 0x12
 1647 0526 43030000 		.4byte	.LASF60
 1648 052a 0A       		.byte	0xa
 1649 052b B402     		.2byte	0x2b4
 1650 052d 78040000 		.4byte	0x478
 1651 0531 02       		.byte	0x2
 1652 0532 23       		.byte	0x23
 1653 0533 04       		.uleb128 0x4
 1654 0534 0E       		.uleb128 0xe
 1655 0535 50415200 		.ascii	"PAR\000"
 1656 0539 0A       		.byte	0xa
 1657 053a B502     		.2byte	0x2b5
 1658 053c 78040000 		.4byte	0x478
 1659 0540 02       		.byte	0x2
 1660 0541 23       		.byte	0x23
 1661 0542 08       		.uleb128 0x8
 1662 0543 12       		.uleb128 0x12
 1663 0544 2F000000 		.4byte	.LASF61
 1664 0548 0A       		.byte	0xa
 1665 0549 B602     		.2byte	0x2b6
 1666 054b 78040000 		.4byte	0x478
 1667 054f 02       		.byte	0x2
 1668 0550 23       		.byte	0x23
 1669 0551 0C       		.uleb128 0xc
 1670 0552 12       		.uleb128 0x12
ARM GAS  C:\Users\Vergil\AppData\Local\Temp\ccSnTvXE.s 			page 31


 1671 0553 B4060000 		.4byte	.LASF62
 1672 0557 0A       		.byte	0xa
 1673 0558 B702     		.2byte	0x2b7
 1674 055a 78040000 		.4byte	0x478
 1675 055e 02       		.byte	0x2
 1676 055f 23       		.byte	0x23
 1677 0560 10       		.uleb128 0x10
 1678 0561 0E       		.uleb128 0xe
 1679 0562 46435200 		.ascii	"FCR\000"
 1680 0566 0A       		.byte	0xa
 1681 0567 B802     		.2byte	0x2b8
 1682 0569 78040000 		.4byte	0x478
 1683 056d 02       		.byte	0x2
 1684 056e 23       		.byte	0x23
 1685 056f 14       		.uleb128 0x14
 1686 0570 00       		.byte	0
 1687 0571 13       		.uleb128 0x13
 1688 0572 66060000 		.4byte	.LASF63
 1689 0576 0A       		.byte	0xa
 1690 0577 B902     		.2byte	0x2b9
 1691 0579 0A050000 		.4byte	0x50a
 1692 057d 11       		.uleb128 0x11
 1693 057e 28       		.byte	0x28
 1694 057f 0A       		.byte	0xa
 1695 0580 F703     		.2byte	0x3f7
 1696 0582 08050000 		.4byte	.LASF65
 1697 0586 B6060000 		.4byte	0x6b6
 1698 058a 0E       		.uleb128 0xe
 1699 058b 43523100 		.ascii	"CR1\000"
 1700 058f 0A       		.byte	0xa
 1701 0590 F803     		.2byte	0x3f8
 1702 0592 00050000 		.4byte	0x500
 1703 0596 02       		.byte	0x2
 1704 0597 23       		.byte	0x23
 1705 0598 00       		.uleb128 0
 1706 0599 12       		.uleb128 0x12
 1707 059a 0F040000 		.4byte	.LASF66
 1708 059e 0A       		.byte	0xa
 1709 059f F903     		.2byte	0x3f9
 1710 05a1 62000000 		.4byte	0x62
 1711 05a5 02       		.byte	0x2
 1712 05a6 23       		.byte	0x23
 1713 05a7 02       		.uleb128 0x2
 1714 05a8 0E       		.uleb128 0xe
 1715 05a9 43523200 		.ascii	"CR2\000"
 1716 05ad 0A       		.byte	0xa
 1717 05ae FA03     		.2byte	0x3fa
 1718 05b0 00050000 		.4byte	0x500
 1719 05b4 02       		.byte	0x2
 1720 05b5 23       		.byte	0x23
 1721 05b6 04       		.uleb128 0x4
 1722 05b7 12       		.uleb128 0x12
 1723 05b8 19040000 		.4byte	.LASF67
 1724 05bc 0A       		.byte	0xa
 1725 05bd FB03     		.2byte	0x3fb
 1726 05bf 62000000 		.4byte	0x62
 1727 05c3 02       		.byte	0x2
ARM GAS  C:\Users\Vergil\AppData\Local\Temp\ccSnTvXE.s 			page 32


 1728 05c4 23       		.byte	0x23
 1729 05c5 06       		.uleb128 0x6
 1730 05c6 12       		.uleb128 0x12
 1731 05c7 FB060000 		.4byte	.LASF68
 1732 05cb 0A       		.byte	0xa
 1733 05cc FC03     		.2byte	0x3fc
 1734 05ce 00050000 		.4byte	0x500
 1735 05d2 02       		.byte	0x2
 1736 05d3 23       		.byte	0x23
 1737 05d4 08       		.uleb128 0x8
 1738 05d5 12       		.uleb128 0x12
 1739 05d6 23040000 		.4byte	.LASF69
 1740 05da 0A       		.byte	0xa
 1741 05db FD03     		.2byte	0x3fd
 1742 05dd 62000000 		.4byte	0x62
 1743 05e1 02       		.byte	0x2
 1744 05e2 23       		.byte	0x23
 1745 05e3 0A       		.uleb128 0xa
 1746 05e4 12       		.uleb128 0x12
 1747 05e5 00070000 		.4byte	.LASF70
 1748 05e9 0A       		.byte	0xa
 1749 05ea FE03     		.2byte	0x3fe
 1750 05ec 00050000 		.4byte	0x500
 1751 05f0 02       		.byte	0x2
 1752 05f1 23       		.byte	0x23
 1753 05f2 0C       		.uleb128 0xc
 1754 05f3 12       		.uleb128 0x12
 1755 05f4 2D040000 		.4byte	.LASF71
 1756 05f8 0A       		.byte	0xa
 1757 05f9 FF03     		.2byte	0x3ff
 1758 05fb 62000000 		.4byte	0x62
 1759 05ff 02       		.byte	0x2
 1760 0600 23       		.byte	0x23
 1761 0601 0E       		.uleb128 0xe
 1762 0602 0E       		.uleb128 0xe
 1763 0603 445200   		.ascii	"DR\000"
 1764 0606 0A       		.byte	0xa
 1765 0607 0004     		.2byte	0x400
 1766 0609 00050000 		.4byte	0x500
 1767 060d 02       		.byte	0x2
 1768 060e 23       		.byte	0x23
 1769 060f 10       		.uleb128 0x10
 1770 0610 12       		.uleb128 0x12
 1771 0611 37040000 		.4byte	.LASF72
 1772 0615 0A       		.byte	0xa
 1773 0616 0104     		.2byte	0x401
 1774 0618 62000000 		.4byte	0x62
 1775 061c 02       		.byte	0x2
 1776 061d 23       		.byte	0x23
 1777 061e 12       		.uleb128 0x12
 1778 061f 0E       		.uleb128 0xe
 1779 0620 53523100 		.ascii	"SR1\000"
 1780 0624 0A       		.byte	0xa
 1781 0625 0204     		.2byte	0x402
 1782 0627 00050000 		.4byte	0x500
 1783 062b 02       		.byte	0x2
 1784 062c 23       		.byte	0x23
ARM GAS  C:\Users\Vergil\AppData\Local\Temp\ccSnTvXE.s 			page 33


 1785 062d 14       		.uleb128 0x14
 1786 062e 12       		.uleb128 0x12
 1787 062f 58050000 		.4byte	.LASF73
 1788 0633 0A       		.byte	0xa
 1789 0634 0304     		.2byte	0x403
 1790 0636 62000000 		.4byte	0x62
 1791 063a 02       		.byte	0x2
 1792 063b 23       		.byte	0x23
 1793 063c 16       		.uleb128 0x16
 1794 063d 0E       		.uleb128 0xe
 1795 063e 53523200 		.ascii	"SR2\000"
 1796 0642 0A       		.byte	0xa
 1797 0643 0404     		.2byte	0x404
 1798 0645 00050000 		.4byte	0x500
 1799 0649 02       		.byte	0x2
 1800 064a 23       		.byte	0x23
 1801 064b 18       		.uleb128 0x18
 1802 064c 12       		.uleb128 0x12
 1803 064d 48040000 		.4byte	.LASF74
 1804 0651 0A       		.byte	0xa
 1805 0652 0504     		.2byte	0x405
 1806 0654 62000000 		.4byte	0x62
 1807 0658 02       		.byte	0x2
 1808 0659 23       		.byte	0x23
 1809 065a 1A       		.uleb128 0x1a
 1810 065b 0E       		.uleb128 0xe
 1811 065c 43435200 		.ascii	"CCR\000"
 1812 0660 0A       		.byte	0xa
 1813 0661 0604     		.2byte	0x406
 1814 0663 00050000 		.4byte	0x500
 1815 0667 02       		.byte	0x2
 1816 0668 23       		.byte	0x23
 1817 0669 1C       		.uleb128 0x1c
 1818 066a 12       		.uleb128 0x12
 1819 066b 52040000 		.4byte	.LASF75
 1820 066f 0A       		.byte	0xa
 1821 0670 0704     		.2byte	0x407
 1822 0672 62000000 		.4byte	0x62
 1823 0676 02       		.byte	0x2
 1824 0677 23       		.byte	0x23
 1825 0678 1E       		.uleb128 0x1e
 1826 0679 12       		.uleb128 0x12
 1827 067a 64000000 		.4byte	.LASF76
 1828 067e 0A       		.byte	0xa
 1829 067f 0804     		.2byte	0x408
 1830 0681 00050000 		.4byte	0x500
 1831 0685 02       		.byte	0x2
 1832 0686 23       		.byte	0x23
 1833 0687 20       		.uleb128 0x20
 1834 0688 12       		.uleb128 0x12
 1835 0689 5C040000 		.4byte	.LASF77
 1836 068d 0A       		.byte	0xa
 1837 068e 0904     		.2byte	0x409
 1838 0690 62000000 		.4byte	0x62
 1839 0694 02       		.byte	0x2
 1840 0695 23       		.byte	0x23
 1841 0696 22       		.uleb128 0x22
ARM GAS  C:\Users\Vergil\AppData\Local\Temp\ccSnTvXE.s 			page 34


 1842 0697 12       		.uleb128 0x12
 1843 0698 B1010000 		.4byte	.LASF78
 1844 069c 0A       		.byte	0xa
 1845 069d 0A04     		.2byte	0x40a
 1846 069f 00050000 		.4byte	0x500
 1847 06a3 02       		.byte	0x2
 1848 06a4 23       		.byte	0x23
 1849 06a5 24       		.uleb128 0x24
 1850 06a6 12       		.uleb128 0x12
 1851 06a7 81050000 		.4byte	.LASF79
 1852 06ab 0A       		.byte	0xa
 1853 06ac 0B04     		.2byte	0x40b
 1854 06ae 62000000 		.4byte	0x62
 1855 06b2 02       		.byte	0x2
 1856 06b3 23       		.byte	0x23
 1857 06b4 26       		.uleb128 0x26
 1858 06b5 00       		.byte	0
 1859 06b6 13       		.uleb128 0x13
 1860 06b7 3A070000 		.4byte	.LASF80
 1861 06bb 0A       		.byte	0xa
 1862 06bc 0C04     		.2byte	0x40c
 1863 06be 7D050000 		.4byte	0x57d
 1864 06c2 0A       		.uleb128 0xa
 1865 06c3 0C       		.byte	0xc
 1866 06c4 0B       		.byte	0xb
 1867 06c5 DA       		.byte	0xda
 1868 06c6 C2060000 		.4byte	.LASF81
 1869 06ca 15070000 		.4byte	0x715
 1870 06ce 08       		.uleb128 0x8
 1871 06cf 6A000000 		.4byte	.LASF82
 1872 06d3 0B       		.byte	0xb
 1873 06d4 DB       		.byte	0xdb
 1874 06d5 15070000 		.4byte	0x715
 1875 06d9 02       		.byte	0x2
 1876 06da 23       		.byte	0x23
 1877 06db 00       		.uleb128 0
 1878 06dc 08       		.uleb128 0x8
 1879 06dd 53050000 		.4byte	.LASF83
 1880 06e1 0B       		.byte	0xb
 1881 06e2 DC       		.byte	0xdc
 1882 06e3 1B070000 		.4byte	0x71b
 1883 06e7 02       		.byte	0x2
 1884 06e8 23       		.byte	0x23
 1885 06e9 04       		.uleb128 0x4
 1886 06ea 08       		.uleb128 0x8
 1887 06eb 96020000 		.4byte	.LASF84
 1888 06ef 0B       		.byte	0xb
 1889 06f0 DD       		.byte	0xdd
 1890 06f1 49000000 		.4byte	0x49
 1891 06f5 02       		.byte	0x2
 1892 06f6 23       		.byte	0x23
 1893 06f7 08       		.uleb128 0x8
 1894 06f8 08       		.uleb128 0x8
 1895 06f9 4D020000 		.4byte	.LASF85
 1896 06fd 0B       		.byte	0xb
 1897 06fe DF       		.byte	0xdf
 1898 06ff 49000000 		.4byte	0x49
ARM GAS  C:\Users\Vergil\AppData\Local\Temp\ccSnTvXE.s 			page 35


 1899 0703 02       		.byte	0x2
 1900 0704 23       		.byte	0x23
 1901 0705 09       		.uleb128 0x9
 1902 0706 08       		.uleb128 0x8
 1903 0707 42000000 		.4byte	.LASF86
 1904 070b 0B       		.byte	0xb
 1905 070c E0       		.byte	0xe0
 1906 070d 49000000 		.4byte	0x49
 1907 0711 02       		.byte	0x2
 1908 0712 23       		.byte	0x23
 1909 0713 0A       		.uleb128 0xa
 1910 0714 00       		.byte	0
 1911 0715 0B       		.uleb128 0xb
 1912 0716 04       		.byte	0x4
 1913 0717 71050000 		.4byte	0x571
 1914 071b 0B       		.uleb128 0xb
 1915 071c 04       		.byte	0x4
 1916 071d 78040000 		.4byte	0x478
 1917 0721 03       		.uleb128 0x3
 1918 0722 A3040000 		.4byte	.LASF87
 1919 0726 0B       		.byte	0xb
 1920 0727 E1       		.byte	0xe1
 1921 0728 C2060000 		.4byte	0x6c2
 1922 072c 14       		.uleb128 0x14
 1923 072d 01       		.byte	0x1
 1924 072e 0C       		.byte	0xc
 1925 072f 5A       		.byte	0x5a
 1926 0730 F5030000 		.4byte	.LASF156
 1927 0734 5D070000 		.4byte	0x75d
 1928 0738 15       		.uleb128 0x15
 1929 0739 C0040000 		.4byte	.LASF88
 1930 073d 00       		.sleb128 0
 1931 073e 15       		.uleb128 0x15
 1932 073f 67030000 		.4byte	.LASF89
 1933 0743 01       		.sleb128 1
 1934 0744 15       		.uleb128 0x15
 1935 0745 5C060000 		.4byte	.LASF90
 1936 0749 02       		.sleb128 2
 1937 074a 15       		.uleb128 0x15
 1938 074b 6E040000 		.4byte	.LASF91
 1939 074f 03       		.sleb128 3
 1940 0750 15       		.uleb128 0x15
 1941 0751 8B050000 		.4byte	.LASF92
 1942 0755 04       		.sleb128 4
 1943 0756 15       		.uleb128 0x15
 1944 0757 3D050000 		.4byte	.LASF93
 1945 075b 05       		.sleb128 5
 1946 075c 00       		.byte	0
 1947 075d 03       		.uleb128 0x3
 1948 075e 24000000 		.4byte	.LASF94
 1949 0762 0C       		.byte	0xc
 1950 0763 61       		.byte	0x61
 1951 0764 2C070000 		.4byte	0x72c
 1952 0768 13       		.uleb128 0x13
 1953 0769 84010000 		.4byte	.LASF95
 1954 076d 0D       		.byte	0xd
 1955 076e 3501     		.2byte	0x135
ARM GAS  C:\Users\Vergil\AppData\Local\Temp\ccSnTvXE.s 			page 36


 1956 0770 62000000 		.4byte	0x62
 1957 0774 13       		.uleb128 0x13
 1958 0775 7C040000 		.4byte	.LASF96
 1959 0779 0D       		.byte	0xd
 1960 077a 3A01     		.2byte	0x13a
 1961 077c 86000000 		.4byte	0x86
 1962 0780 16       		.uleb128 0x16
 1963 0781 01       		.byte	0x1
 1964 0782 0D       		.byte	0xd
 1965 0783 3F01     		.2byte	0x13f
 1966 0785 16050000 		.4byte	.LASF101
 1967 0789 A0070000 		.4byte	0x7a0
 1968 078d 15       		.uleb128 0x15
 1969 078e C1030000 		.4byte	.LASF97
 1970 0792 01       		.sleb128 1
 1971 0793 15       		.uleb128 0x15
 1972 0794 9D020000 		.4byte	.LASF98
 1973 0798 02       		.sleb128 2
 1974 0799 15       		.uleb128 0x15
 1975 079a 2A020000 		.4byte	.LASF99
 1976 079e 03       		.sleb128 3
 1977 079f 00       		.byte	0
 1978 07a0 13       		.uleb128 0x13
 1979 07a1 46070000 		.4byte	.LASF100
 1980 07a5 0D       		.byte	0xd
 1981 07a6 4301     		.2byte	0x143
 1982 07a8 80070000 		.4byte	0x780
 1983 07ac 16       		.uleb128 0x16
 1984 07ad 01       		.byte	0x1
 1985 07ae 0D       		.byte	0xd
 1986 07af 4801     		.2byte	0x148
 1987 07b1 64010000 		.4byte	.LASF102
 1988 07b5 CC070000 		.4byte	0x7cc
 1989 07b9 15       		.uleb128 0x15
 1990 07ba 00000000 		.4byte	.LASF103
 1991 07be 01       		.sleb128 1
 1992 07bf 15       		.uleb128 0x15
 1993 07c0 24050000 		.4byte	.LASF104
 1994 07c4 02       		.sleb128 2
 1995 07c5 15       		.uleb128 0x15
 1996 07c6 CC030000 		.4byte	.LASF105
 1997 07ca 03       		.sleb128 3
 1998 07cb 00       		.byte	0
 1999 07cc 13       		.uleb128 0x13
 2000 07cd 15000000 		.4byte	.LASF106
 2001 07d1 0D       		.byte	0xd
 2002 07d2 4C01     		.2byte	0x14c
 2003 07d4 AC070000 		.4byte	0x7ac
 2004 07d8 11       		.uleb128 0x11
 2005 07d9 0C       		.byte	0xc
 2006 07da 0D       		.byte	0xd
 2007 07db 5101     		.2byte	0x151
 2008 07dd A6010000 		.4byte	.LASF107
 2009 07e1 13080000 		.4byte	0x813
 2010 07e5 12       		.uleb128 0x12
 2011 07e6 57020000 		.4byte	.LASF108
 2012 07ea 0D       		.byte	0xd
ARM GAS  C:\Users\Vergil\AppData\Local\Temp\ccSnTvXE.s 			page 37


 2013 07eb 5201     		.2byte	0x152
 2014 07ed A0070000 		.4byte	0x7a0
 2015 07f1 02       		.byte	0x2
 2016 07f2 23       		.byte	0x23
 2017 07f3 00       		.uleb128 0
 2018 07f4 12       		.uleb128 0x12
 2019 07f5 36010000 		.4byte	.LASF109
 2020 07f9 0D       		.byte	0xd
 2021 07fa 5301     		.2byte	0x153
 2022 07fc 86000000 		.4byte	0x86
 2023 0800 02       		.byte	0x2
 2024 0801 23       		.byte	0x23
 2025 0802 04       		.uleb128 0x4
 2026 0803 12       		.uleb128 0x12
 2027 0804 7F030000 		.4byte	.LASF110
 2028 0808 0D       		.byte	0xd
 2029 0809 5601     		.2byte	0x156
 2030 080b CC070000 		.4byte	0x7cc
 2031 080f 02       		.byte	0x2
 2032 0810 23       		.byte	0x23
 2033 0811 08       		.uleb128 0x8
 2034 0812 00       		.byte	0
 2035 0813 13       		.uleb128 0x13
 2036 0814 92030000 		.4byte	.LASF111
 2037 0818 0D       		.byte	0xd
 2038 0819 5801     		.2byte	0x158
 2039 081b D8070000 		.4byte	0x7d8
 2040 081f 13       		.uleb128 0x13
 2041 0820 C9020000 		.4byte	.LASF112
 2042 0824 0D       		.byte	0xd
 2043 0825 5D01     		.2byte	0x15d
 2044 0827 2B080000 		.4byte	0x82b
 2045 082b 0D       		.uleb128 0xd
 2046 082c C9020000 		.4byte	.LASF112
 2047 0830 38       		.byte	0x38
 2048 0831 0D       		.byte	0xd
 2049 0832 6201     		.2byte	0x162
 2050 0834 DE080000 		.4byte	0x8de
 2051 0838 12       		.uleb128 0x12
 2052 0839 8E010000 		.4byte	.LASF113
 2053 083d 0D       		.byte	0xd
 2054 083e 6601     		.2byte	0x166
 2055 0840 5D070000 		.4byte	0x75d
 2056 0844 02       		.byte	0x2
 2057 0845 23       		.byte	0x23
 2058 0846 00       		.uleb128 0
 2059 0847 12       		.uleb128 0x12
 2060 0848 A9050000 		.4byte	.LASF114
 2061 084c 0D       		.byte	0xd
 2062 084d 6A01     		.2byte	0x16a
 2063 084f DE080000 		.4byte	0x8de
 2064 0853 02       		.byte	0x2
 2065 0854 23       		.byte	0x23
 2066 0855 04       		.uleb128 0x4
 2067 0856 12       		.uleb128 0x12
 2068 0857 7C020000 		.4byte	.LASF115
 2069 085b 0D       		.byte	0xd
ARM GAS  C:\Users\Vergil\AppData\Local\Temp\ccSnTvXE.s 			page 38


 2070 085c 6E01     		.2byte	0x16e
 2071 085e 74070000 		.4byte	0x774
 2072 0862 02       		.byte	0x2
 2073 0863 23       		.byte	0x23
 2074 0864 08       		.uleb128 0x8
 2075 0865 12       		.uleb128 0x12
 2076 0866 87040000 		.4byte	.LASF116
 2077 086a 0D       		.byte	0xd
 2078 086b 7401     		.2byte	0x174
 2079 086d C6040000 		.4byte	0x4c6
 2080 0871 02       		.byte	0x2
 2081 0872 23       		.byte	0x23
 2082 0873 0C       		.uleb128 0xc
 2083 0874 12       		.uleb128 0x12
 2084 0875 06060000 		.4byte	.LASF117
 2085 0879 0D       		.byte	0xd
 2086 087a 8001     		.2byte	0x180
 2087 087c 93020000 		.4byte	0x293
 2088 0880 02       		.byte	0x2
 2089 0881 23       		.byte	0x23
 2090 0882 1C       		.uleb128 0x1c
 2091 0883 12       		.uleb128 0x12
 2092 0884 B6010000 		.4byte	.LASF118
 2093 0888 0D       		.byte	0xd
 2094 0889 8401     		.2byte	0x184
 2095 088b 68070000 		.4byte	0x768
 2096 088f 02       		.byte	0x2
 2097 0890 23       		.byte	0x23
 2098 0891 20       		.uleb128 0x20
 2099 0892 12       		.uleb128 0x12
 2100 0893 C8010000 		.4byte	.LASF119
 2101 0897 0D       		.byte	0xd
 2102 0898 8801     		.2byte	0x188
 2103 089a 86000000 		.4byte	0x86
 2104 089e 02       		.byte	0x2
 2105 089f 23       		.byte	0x23
 2106 08a0 24       		.uleb128 0x24
 2107 08a1 12       		.uleb128 0x12
 2108 08a2 A9030000 		.4byte	.LASF120
 2109 08a6 0D       		.byte	0xd
 2110 08a7 8C01     		.2byte	0x18c
 2111 08a9 86000000 		.4byte	0x86
 2112 08ad 02       		.byte	0x2
 2113 08ae 23       		.byte	0x23
 2114 08af 28       		.uleb128 0x28
 2115 08b0 12       		.uleb128 0x12
 2116 08b1 0F000000 		.4byte	.LASF121
 2117 08b5 0D       		.byte	0xd
 2118 08b6 9001     		.2byte	0x190
 2119 08b8 E9080000 		.4byte	0x8e9
 2120 08bc 02       		.byte	0x2
 2121 08bd 23       		.byte	0x23
 2122 08be 2C       		.uleb128 0x2c
 2123 08bf 12       		.uleb128 0x12
 2124 08c0 D9010000 		.4byte	.LASF122
 2125 08c4 0D       		.byte	0xd
 2126 08c5 9401     		.2byte	0x194
ARM GAS  C:\Users\Vergil\AppData\Local\Temp\ccSnTvXE.s 			page 39


 2127 08c7 E9080000 		.4byte	0x8e9
 2128 08cb 02       		.byte	0x2
 2129 08cc 23       		.byte	0x23
 2130 08cd 30       		.uleb128 0x30
 2131 08ce 0E       		.uleb128 0xe
 2132 08cf 69326300 		.ascii	"i2c\000"
 2133 08d3 0D       		.byte	0xd
 2134 08d4 9801     		.2byte	0x198
 2135 08d6 F4080000 		.4byte	0x8f4
 2136 08da 02       		.byte	0x2
 2137 08db 23       		.byte	0x23
 2138 08dc 34       		.uleb128 0x34
 2139 08dd 00       		.byte	0
 2140 08de 0B       		.uleb128 0xb
 2141 08df 04       		.byte	0x4
 2142 08e0 E4080000 		.4byte	0x8e4
 2143 08e4 10       		.uleb128 0x10
 2144 08e5 13080000 		.4byte	0x813
 2145 08e9 0B       		.uleb128 0xb
 2146 08ea 04       		.byte	0x4
 2147 08eb EF080000 		.4byte	0x8ef
 2148 08ef 10       		.uleb128 0x10
 2149 08f0 21070000 		.4byte	0x721
 2150 08f4 0B       		.uleb128 0xb
 2151 08f5 04       		.byte	0x4
 2152 08f6 B6060000 		.4byte	0x6b6
 2153 08fa 05       		.uleb128 0x5
 2154 08fb B0050000 		.4byte	.LASF123
 2155 08ff 1C       		.byte	0x1c
 2156 0900 02       		.byte	0x2
 2157 0901 16       		.byte	0x16
 2158 0902 92090000 		.4byte	0x992
 2159 0906 09       		.uleb128 0x9
 2160 0907 73656300 		.ascii	"sec\000"
 2161 090b 02       		.byte	0x2
 2162 090c 17       		.byte	0x17
 2163 090d 29000000 		.4byte	0x29
 2164 0911 02       		.byte	0x2
 2165 0912 23       		.byte	0x23
 2166 0913 00       		.uleb128 0
 2167 0914 09       		.uleb128 0x9
 2168 0915 6D696E00 		.ascii	"min\000"
 2169 0919 02       		.byte	0x2
 2170 091a 18       		.byte	0x18
 2171 091b 29000000 		.4byte	0x29
 2172 091f 02       		.byte	0x2
 2173 0920 23       		.byte	0x23
 2174 0921 04       		.uleb128 0x4
 2175 0922 08       		.uleb128 0x8
 2176 0923 E1030000 		.4byte	.LASF124
 2177 0927 02       		.byte	0x2
 2178 0928 19       		.byte	0x19
 2179 0929 29000000 		.4byte	0x29
 2180 092d 02       		.byte	0x2
 2181 092e 23       		.byte	0x23
 2182 092f 08       		.uleb128 0x8
 2183 0930 08       		.uleb128 0x8
ARM GAS  C:\Users\Vergil\AppData\Local\Temp\ccSnTvXE.s 			page 40


 2184 0931 02040000 		.4byte	.LASF125
 2185 0935 02       		.byte	0x2
 2186 0936 1A       		.byte	0x1a
 2187 0937 29000000 		.4byte	0x29
 2188 093b 02       		.byte	0x2
 2189 093c 23       		.byte	0x23
 2190 093d 0C       		.uleb128 0xc
 2191 093e 08       		.uleb128 0x8
 2192 093f C4020000 		.4byte	.LASF126
 2193 0943 02       		.byte	0x2
 2194 0944 1B       		.byte	0x1b
 2195 0945 29000000 		.4byte	0x29
 2196 0949 02       		.byte	0x2
 2197 094a 23       		.byte	0x23
 2198 094b 10       		.uleb128 0x10
 2199 094c 09       		.uleb128 0x9
 2200 094d 6D6F6E00 		.ascii	"mon\000"
 2201 0951 02       		.byte	0x2
 2202 0952 1C       		.byte	0x1c
 2203 0953 29000000 		.4byte	0x29
 2204 0957 02       		.byte	0x2
 2205 0958 23       		.byte	0x23
 2206 0959 14       		.uleb128 0x14
 2207 095a 08       		.uleb128 0x8
 2208 095b 7F010000 		.4byte	.LASF127
 2209 095f 02       		.byte	0x2
 2210 0960 1D       		.byte	0x1d
 2211 0961 29000000 		.4byte	0x29
 2212 0965 02       		.byte	0x2
 2213 0966 23       		.byte	0x23
 2214 0967 18       		.uleb128 0x18
 2215 0968 17       		.uleb128 0x17
 2216 0969 3C020000 		.4byte	.LASF128
 2217 096d 02       		.byte	0x2
 2218 096e 20       		.byte	0x20
 2219 096f 92090000 		.4byte	0x992
 2220 0973 01       		.byte	0x1
 2221 0974 01       		.byte	0x1
 2222 0975 18       		.uleb128 0x18
 2223 0976 01       		.byte	0x1
 2224 0977 AC000000 		.4byte	.LASF130
 2225 097b 02       		.byte	0x2
 2226 097c 1F       		.byte	0x1f
 2227 097d FE020000 		.4byte	.LASF139
 2228 0981 D7040000 		.4byte	0x4d7
 2229 0985 01       		.byte	0x1
 2230 0986 8A090000 		.4byte	0x98a
 2231 098a 19       		.uleb128 0x19
 2232 098b A2090000 		.4byte	0x9a2
 2233 098f 01       		.byte	0x1
 2234 0990 00       		.byte	0
 2235 0991 00       		.byte	0
 2236 0992 1A       		.uleb128 0x1a
 2237 0993 E2040000 		.4byte	0x4e2
 2238 0997 A2090000 		.4byte	0x9a2
 2239 099b 1B       		.uleb128 0x1b
 2240 099c 7D040000 		.4byte	0x47d
ARM GAS  C:\Users\Vergil\AppData\Local\Temp\ccSnTvXE.s 			page 41


 2241 09a0 31       		.byte	0x31
 2242 09a1 00       		.byte	0
 2243 09a2 0B       		.uleb128 0xb
 2244 09a3 04       		.byte	0x4
 2245 09a4 FA080000 		.4byte	0x8fa
 2246 09a8 03       		.uleb128 0x3
 2247 09a9 B0050000 		.4byte	.LASF123
 2248 09ad 02       		.byte	0x2
 2249 09ae 21       		.byte	0x21
 2250 09af FA080000 		.4byte	0x8fa
 2251 09b3 1C       		.uleb128 0x1c
 2252 09b4 01050000 		.4byte	.LASF131
 2253 09b8 04       		.byte	0x4
 2254 09b9 02       		.byte	0x2
 2255 09ba 23       		.byte	0x23
 2256 09bb 6E0A0000 		.4byte	0xa6e
 2257 09bf 1D       		.uleb128 0x1d
 2258 09c0 8E020000 		.4byte	.LASF129
 2259 09c4 02       		.byte	0x2
 2260 09c5 32       		.byte	0x32
 2261 09c6 6E0A0000 		.4byte	0xa6e
 2262 09ca 02       		.byte	0x2
 2263 09cb 23       		.byte	0x23
 2264 09cc 00       		.uleb128 0
 2265 09cd 03       		.byte	0x3
 2266 09ce 1E       		.uleb128 0x1e
 2267 09cf 01       		.byte	0x1
 2268 09d0 01050000 		.4byte	.LASF131
 2269 09d4 02       		.byte	0x2
 2270 09d5 25       		.byte	0x25
 2271 09d6 740A0000 		.4byte	0xa74
 2272 09da 01       		.byte	0x1
 2273 09db E3090000 		.4byte	0x9e3
 2274 09df EF090000 		.4byte	0x9ef
 2275 09e3 19       		.uleb128 0x19
 2276 09e4 740A0000 		.4byte	0xa74
 2277 09e8 01       		.byte	0x1
 2278 09e9 1F       		.uleb128 0x1f
 2279 09ea 6E0A0000 		.4byte	0xa6e
 2280 09ee 00       		.byte	0
 2281 09ef 20       		.uleb128 0x20
 2282 09f0 01       		.byte	0x1
 2283 09f1 B9060000 		.4byte	.LASF132
 2284 09f5 02       		.byte	0x2
 2285 09f6 26       		.byte	0x26
 2286 09f7 48030000 		.4byte	.LASF134
 2287 09fb A6000000 		.4byte	0xa6
 2288 09ff 01       		.byte	0x1
 2289 0a00 080A0000 		.4byte	0xa08
 2290 0a04 140A0000 		.4byte	0xa14
 2291 0a08 19       		.uleb128 0x19
 2292 0a09 740A0000 		.4byte	0xa74
 2293 0a0d 01       		.byte	0x1
 2294 0a0e 1F       		.uleb128 0x1f
 2295 0a0f 7A0A0000 		.4byte	0xa7a
 2296 0a13 00       		.byte	0
 2297 0a14 20       		.uleb128 0x20
ARM GAS  C:\Users\Vergil\AppData\Local\Temp\ccSnTvXE.s 			page 42


 2298 0a15 01       		.byte	0x1
 2299 0a16 9F060000 		.4byte	.LASF133
 2300 0a1a 02       		.byte	0x2
 2301 0a1b 27       		.byte	0x27
 2302 0a1c 79060000 		.4byte	.LASF135
 2303 0a20 A6000000 		.4byte	0xa6
 2304 0a24 01       		.byte	0x1
 2305 0a25 2D0A0000 		.4byte	0xa2d
 2306 0a29 390A0000 		.4byte	0xa39
 2307 0a2d 19       		.uleb128 0x19
 2308 0a2e 740A0000 		.4byte	0xa74
 2309 0a32 01       		.byte	0x1
 2310 0a33 1F       		.uleb128 0x1f
 2311 0a34 A8090000 		.4byte	0x9a8
 2312 0a38 00       		.byte	0
 2313 0a39 21       		.uleb128 0x21
 2314 0a3a 01       		.byte	0x1
 2315 0a3b F1020000 		.4byte	.LASF136
 2316 0a3f 02       		.byte	0x2
 2317 0a40 2A       		.byte	0x2a
 2318 0a41 B3000000 		.4byte	.LASF137
 2319 0a45 29000000 		.4byte	0x29
 2320 0a49 03       		.byte	0x3
 2321 0a4a 01       		.byte	0x1
 2322 0a4b 550A0000 		.4byte	0xa55
 2323 0a4f 1F       		.uleb128 0x1f
 2324 0a50 29000000 		.4byte	0x29
 2325 0a54 00       		.byte	0
 2326 0a55 22       		.uleb128 0x22
 2327 0a56 01       		.byte	0x1
 2328 0a57 D3020000 		.4byte	.LASF138
 2329 0a5b 02       		.byte	0x2
 2330 0a5c 2E       		.byte	0x2e
 2331 0a5d 49000000 		.4byte	.LASF140
 2332 0a61 29000000 		.4byte	0x29
 2333 0a65 03       		.byte	0x3
 2334 0a66 01       		.byte	0x1
 2335 0a67 1F       		.uleb128 0x1f
 2336 0a68 29000000 		.4byte	0x29
 2337 0a6c 00       		.byte	0
 2338 0a6d 00       		.byte	0
 2339 0a6e 0B       		.uleb128 0xb
 2340 0a6f 04       		.byte	0x4
 2341 0a70 1F080000 		.4byte	0x81f
 2342 0a74 0B       		.uleb128 0xb
 2343 0a75 04       		.byte	0x4
 2344 0a76 B3090000 		.4byte	0x9b3
 2345 0a7a 23       		.uleb128 0x23
 2346 0a7b 04       		.byte	0x4
 2347 0a7c A8090000 		.4byte	0x9a8
 2348 0a80 24       		.uleb128 0x24
 2349 0a81 390A0000 		.4byte	0xa39
 2350 0a85 03       		.byte	0x3
 2351 0a86 960A0000 		.4byte	0xa96
 2352 0a8a 25       		.uleb128 0x25
 2353 0a8b 62636400 		.ascii	"bcd\000"
 2354 0a8f 02       		.byte	0x2
ARM GAS  C:\Users\Vergil\AppData\Local\Temp\ccSnTvXE.s 			page 43


 2355 0a90 2A       		.byte	0x2a
 2356 0a91 29000000 		.4byte	0x29
 2357 0a95 00       		.byte	0
 2358 0a96 24       		.uleb128 0x24
 2359 0a97 550A0000 		.4byte	0xa55
 2360 0a9b 03       		.byte	0x3
 2361 0a9c AC0A0000 		.4byte	0xaac
 2362 0aa0 25       		.uleb128 0x25
 2363 0aa1 64656300 		.ascii	"dec\000"
 2364 0aa5 02       		.byte	0x2
 2365 0aa6 2E       		.byte	0x2e
 2366 0aa7 29000000 		.4byte	0x29
 2367 0aab 00       		.byte	0
 2368 0aac 26       		.uleb128 0x26
 2369 0aad 75090000 		.4byte	0x975
 2370 0ab1 01       		.byte	0x1
 2371 0ab2 22       		.byte	0x22
 2372 0ab3 00000000 		.4byte	.LFB121
 2373 0ab7 54000000 		.4byte	.LFE121
 2374 0abb 00000000 		.4byte	.LLST0
 2375 0abf C80A0000 		.4byte	0xac8
 2376 0ac3 01       		.byte	0x1
 2377 0ac4 0C0B0000 		.4byte	0xb0c
 2378 0ac8 27       		.uleb128 0x27
 2379 0ac9 BB010000 		.4byte	.LASF141
 2380 0acd 0C0B0000 		.4byte	0xb0c
 2381 0ad1 01       		.byte	0x1
 2382 0ad2 2C000000 		.4byte	.LLST1
 2383 0ad6 28       		.uleb128 0x28
 2384 0ad7 4E000000 		.4byte	.LVL2
 2385 0adb 000F0000 		.4byte	0xf00
 2386 0adf 29       		.uleb128 0x29
 2387 0ae0 01       		.byte	0x1
 2388 0ae1 52       		.byte	0x52
 2389 0ae2 05       		.byte	0x5
 2390 0ae3 03       		.byte	0x3
 2391 0ae4 00000000 		.4byte	.LC0
 2392 0ae8 29       		.uleb128 0x29
 2393 0ae9 01       		.byte	0x1
 2394 0aea 51       		.byte	0x51
 2395 0aeb 02       		.byte	0x2
 2396 0aec 08       		.byte	0x8
 2397 0aed 32       		.byte	0x32
 2398 0aee 29       		.uleb128 0x29
 2399 0aef 01       		.byte	0x1
 2400 0af0 50       		.byte	0x50
 2401 0af1 02       		.byte	0x2
 2402 0af2 74       		.byte	0x74
 2403 0af3 00       		.sleb128 0
 2404 0af4 29       		.uleb128 0x29
 2405 0af5 02       		.byte	0x2
 2406 0af6 7D       		.byte	0x7d
 2407 0af7 10       		.sleb128 16
 2408 0af8 02       		.byte	0x2
 2409 0af9 75       		.byte	0x75
 2410 0afa 00       		.sleb128 0
 2411 0afb 29       		.uleb128 0x29
ARM GAS  C:\Users\Vergil\AppData\Local\Temp\ccSnTvXE.s 			page 44


 2412 0afc 02       		.byte	0x2
 2413 0afd 7D       		.byte	0x7d
 2414 0afe 0C       		.sleb128 12
 2415 0aff 02       		.byte	0x2
 2416 0b00 77       		.byte	0x77
 2417 0b01 00       		.sleb128 0
 2418 0b02 29       		.uleb128 0x29
 2419 0b03 02       		.byte	0x2
 2420 0b04 7D       		.byte	0x7d
 2421 0b05 08       		.sleb128 8
 2422 0b06 03       		.byte	0x3
 2423 0b07 76       		.byte	0x76
 2424 0b08 EC0E     		.sleb128 1900
 2425 0b0a 00       		.byte	0
 2426 0b0b 00       		.byte	0
 2427 0b0c 10       		.uleb128 0x10
 2428 0b0d A2090000 		.4byte	0x9a2
 2429 0b11 2A       		.uleb128 0x2a
 2430 0b12 CE090000 		.4byte	0x9ce
 2431 0b16 01       		.byte	0x1
 2432 0b17 32       		.byte	0x32
 2433 0b18 00       		.byte	0
 2434 0b19 210B0000 		.4byte	0xb21
 2435 0b1d 370B0000 		.4byte	0xb37
 2436 0b21 2B       		.uleb128 0x2b
 2437 0b22 BB010000 		.4byte	.LASF141
 2438 0b26 370B0000 		.4byte	0xb37
 2439 0b2a 01       		.byte	0x1
 2440 0b2b 2C       		.uleb128 0x2c
 2441 0b2c 24070000 		.4byte	.LASF142
 2442 0b30 01       		.byte	0x1
 2443 0b31 32       		.byte	0x32
 2444 0b32 6E0A0000 		.4byte	0xa6e
 2445 0b36 00       		.byte	0
 2446 0b37 10       		.uleb128 0x10
 2447 0b38 740A0000 		.4byte	0xa74
 2448 0b3c 2D       		.uleb128 0x2d
 2449 0b3d 110B0000 		.4byte	0xb11
 2450 0b41 EE000000 		.4byte	.LASF157
 2451 0b45 00000000 		.4byte	.LFB123
 2452 0b49 04000000 		.4byte	.LFE123
 2453 0b4d 02       		.byte	0x2
 2454 0b4e 7D       		.byte	0x7d
 2455 0b4f 00       		.sleb128 0
 2456 0b50 590B0000 		.4byte	0xb59
 2457 0b54 01       		.byte	0x1
 2458 0b55 680B0000 		.4byte	0xb68
 2459 0b59 2E       		.uleb128 0x2e
 2460 0b5a 210B0000 		.4byte	0xb21
 2461 0b5e 01       		.byte	0x1
 2462 0b5f 50       		.byte	0x50
 2463 0b60 2E       		.uleb128 0x2e
 2464 0b61 2B0B0000 		.4byte	0xb2b
 2465 0b65 01       		.byte	0x1
 2466 0b66 51       		.byte	0x51
 2467 0b67 00       		.byte	0
 2468 0b68 26       		.uleb128 0x26
ARM GAS  C:\Users\Vergil\AppData\Local\Temp\ccSnTvXE.s 			page 45


 2469 0b69 EF090000 		.4byte	0x9ef
 2470 0b6d 01       		.byte	0x1
 2471 0b6e 39       		.byte	0x39
 2472 0b6f 00000000 		.4byte	.LFB125
 2473 0b73 4C010000 		.4byte	.LFE125
 2474 0b77 4D000000 		.4byte	.LLST2
 2475 0b7b 840B0000 		.4byte	0xb84
 2476 0b7f 01       		.byte	0x1
 2477 0b80 1B0D0000 		.4byte	0xd1b
 2478 0b84 27       		.uleb128 0x27
 2479 0b85 BB010000 		.4byte	.LASF141
 2480 0b89 370B0000 		.4byte	0xb37
 2481 0b8d 01       		.byte	0x1
 2482 0b8e 7A000000 		.4byte	.LLST3
 2483 0b92 2F       		.uleb128 0x2f
 2484 0b93 AF060000 		.4byte	.LASF145
 2485 0b97 01       		.byte	0x1
 2486 0b98 39       		.byte	0x39
 2487 0b99 1B0D0000 		.4byte	0xd1b
 2488 0b9d BF000000 		.4byte	.LLST4
 2489 0ba1 30       		.uleb128 0x30
 2490 0ba2 00000000 		.4byte	.Ldebug_ranges0+0
 2491 0ba6 31       		.uleb128 0x31
 2492 0ba7 EC060000 		.4byte	.LASF143
 2493 0bab 01       		.byte	0x1
 2494 0bac 3B       		.byte	0x3b
 2495 0bad E4000000 		.4byte	0xe4
 2496 0bb1 DD000000 		.4byte	.LLST5
 2497 0bb5 32       		.uleb128 0x32
 2498 0bb6 B6010000 		.4byte	.LASF118
 2499 0bba 01       		.byte	0x1
 2500 0bbb 3C       		.byte	0x3c
 2501 0bbc 49000000 		.4byte	0x49
 2502 0bc0 02       		.byte	0x2
 2503 0bc1 76       		.byte	0x76
 2504 0bc2 77       		.sleb128 -9
 2505 0bc3 32       		.uleb128 0x32
 2506 0bc4 FF050000 		.4byte	.LASF144
 2507 0bc8 01       		.byte	0x1
 2508 0bc9 3D       		.byte	0x3d
 2509 0bca 200D0000 		.4byte	0xd20
 2510 0bce 02       		.byte	0x2
 2511 0bcf 91       		.byte	0x91
 2512 0bd0 50       		.sleb128 -48
 2513 0bd1 33       		.uleb128 0x33
 2514 0bd2 800A0000 		.4byte	0xa80
 2515 0bd6 8C000000 		.4byte	.LBB32
 2516 0bda 28000000 		.4byte	.Ldebug_ranges0+0x28
 2517 0bde 01       		.byte	0x1
 2518 0bdf 4F       		.byte	0x4f
 2519 0be0 EA0B0000 		.4byte	0xbea
 2520 0be4 34       		.uleb128 0x34
 2521 0be5 8A0A0000 		.4byte	0xa8a
 2522 0be9 00       		.byte	0
 2523 0bea 33       		.uleb128 0x33
 2524 0beb 800A0000 		.4byte	0xa80
 2525 0bef 98000000 		.4byte	.LBB38
ARM GAS  C:\Users\Vergil\AppData\Local\Temp\ccSnTvXE.s 			page 46


 2526 0bf3 58000000 		.4byte	.Ldebug_ranges0+0x58
 2527 0bf7 01       		.byte	0x1
 2528 0bf8 51       		.byte	0x51
 2529 0bf9 0C0C0000 		.4byte	0xc0c
 2530 0bfd 2E       		.uleb128 0x2e
 2531 0bfe 8A0A0000 		.4byte	0xa8a
 2532 0c02 08       		.byte	0x8
 2533 0c03 91       		.byte	0x91
 2534 0c04 55       		.sleb128 -43
 2535 0c05 94       		.byte	0x94
 2536 0c06 01       		.byte	0x1
 2537 0c07 08       		.byte	0x8
 2538 0c08 FF       		.byte	0xff
 2539 0c09 1A       		.byte	0x1a
 2540 0c0a 9F       		.byte	0x9f
 2541 0c0b 00       		.byte	0
 2542 0c0c 33       		.uleb128 0x33
 2543 0c0d 800A0000 		.4byte	0xa80
 2544 0c11 9C000000 		.4byte	.LBB46
 2545 0c15 98000000 		.4byte	.Ldebug_ranges0+0x98
 2546 0c19 01       		.byte	0x1
 2547 0c1a 52       		.byte	0x52
 2548 0c1b 250C0000 		.4byte	0xc25
 2549 0c1f 34       		.uleb128 0x34
 2550 0c20 8A0A0000 		.4byte	0xa8a
 2551 0c24 00       		.byte	0
 2552 0c25 33       		.uleb128 0x33
 2553 0c26 800A0000 		.4byte	0xa80
 2554 0c2a A4000000 		.4byte	.LBB55
 2555 0c2e D8000000 		.4byte	.Ldebug_ranges0+0xd8
 2556 0c32 01       		.byte	0x1
 2557 0c33 50       		.byte	0x50
 2558 0c34 480C0000 		.4byte	0xc48
 2559 0c38 2E       		.uleb128 0x2e
 2560 0c39 8A0A0000 		.4byte	0xa8a
 2561 0c3d 09       		.byte	0x9
 2562 0c3e 91       		.byte	0x91
 2563 0c3f BC7F     		.sleb128 -68
 2564 0c41 94       		.byte	0x94
 2565 0c42 01       		.byte	0x1
 2566 0c43 08       		.byte	0x8
 2567 0c44 FF       		.byte	0xff
 2568 0c45 1A       		.byte	0x1a
 2569 0c46 9F       		.byte	0x9f
 2570 0c47 00       		.byte	0
 2571 0c48 33       		.uleb128 0x33
 2572 0c49 800A0000 		.4byte	0xa80
 2573 0c4d C4000000 		.4byte	.LBB69
 2574 0c51 10010000 		.4byte	.Ldebug_ranges0+0x110
 2575 0c55 01       		.byte	0x1
 2576 0c56 4C       		.byte	0x4c
 2577 0c57 650C0000 		.4byte	0xc65
 2578 0c5b 35       		.uleb128 0x35
 2579 0c5c 8A0A0000 		.4byte	0xa8a
 2580 0c60 28010000 		.4byte	.LLST6
 2581 0c64 00       		.byte	0
 2582 0c65 33       		.uleb128 0x33
ARM GAS  C:\Users\Vergil\AppData\Local\Temp\ccSnTvXE.s 			page 47


 2583 0c66 800A0000 		.4byte	0xa80
 2584 0c6a F6000000 		.4byte	.LBB86
 2585 0c6e 40010000 		.4byte	.Ldebug_ranges0+0x140
 2586 0c72 01       		.byte	0x1
 2587 0c73 4D       		.byte	0x4d
 2588 0c74 820C0000 		.4byte	0xc82
 2589 0c78 35       		.uleb128 0x35
 2590 0c79 8A0A0000 		.4byte	0xa8a
 2591 0c7d 58010000 		.4byte	.LLST7
 2592 0c81 00       		.byte	0
 2593 0c82 33       		.uleb128 0x33
 2594 0c83 800A0000 		.4byte	0xa80
 2595 0c87 F8000000 		.4byte	.LBB91
 2596 0c8b 68010000 		.4byte	.Ldebug_ranges0+0x168
 2597 0c8f 01       		.byte	0x1
 2598 0c90 4E       		.byte	0x4e
 2599 0c91 9B0C0000 		.4byte	0xc9b
 2600 0c95 34       		.uleb128 0x34
 2601 0c96 8A0A0000 		.4byte	0xa8a
 2602 0c9a 00       		.byte	0
 2603 0c9b 36       		.uleb128 0x36
 2604 0c9c 1C000000 		.4byte	.LVL7
 2605 0ca0 280F0000 		.4byte	0xf28
 2606 0ca4 37       		.uleb128 0x37
 2607 0ca5 30000000 		.4byte	.LVL8
 2608 0ca9 3B0F0000 		.4byte	0xf3b
 2609 0cad D80C0000 		.4byte	0xcd8
 2610 0cb1 29       		.uleb128 0x29
 2611 0cb2 01       		.byte	0x1
 2612 0cb3 53       		.byte	0x53
 2613 0cb4 01       		.byte	0x1
 2614 0cb5 31       		.byte	0x31
 2615 0cb6 29       		.uleb128 0x29
 2616 0cb7 01       		.byte	0x1
 2617 0cb8 52       		.byte	0x52
 2618 0cb9 02       		.byte	0x2
 2619 0cba 76       		.byte	0x76
 2620 0cbb 00       		.sleb128 0
 2621 0cbc 29       		.uleb128 0x29
 2622 0cbd 01       		.byte	0x1
 2623 0cbe 51       		.byte	0x51
 2624 0cbf 02       		.byte	0x2
 2625 0cc0 08       		.byte	0x8
 2626 0cc1 68       		.byte	0x68
 2627 0cc2 29       		.uleb128 0x29
 2628 0cc3 02       		.byte	0x2
 2629 0cc4 7D       		.byte	0x7d
 2630 0cc5 08       		.sleb128 8
 2631 0cc6 02       		.byte	0x2
 2632 0cc7 78       		.byte	0x78
 2633 0cc8 00       		.sleb128 0
 2634 0cc9 29       		.uleb128 0x29
 2635 0cca 02       		.byte	0x2
 2636 0ccb 7D       		.byte	0x7d
 2637 0ccc 04       		.sleb128 4
 2638 0ccd 02       		.byte	0x2
 2639 0cce 77       		.byte	0x77
ARM GAS  C:\Users\Vergil\AppData\Local\Temp\ccSnTvXE.s 			page 48


 2640 0ccf 00       		.sleb128 0
 2641 0cd0 29       		.uleb128 0x29
 2642 0cd1 02       		.byte	0x2
 2643 0cd2 7D       		.byte	0x7d
 2644 0cd3 00       		.sleb128 0
 2645 0cd4 02       		.byte	0x2
 2646 0cd5 77       		.byte	0x77
 2647 0cd6 00       		.sleb128 0
 2648 0cd7 00       		.byte	0
 2649 0cd8 36       		.uleb128 0x36
 2650 0cd9 38000000 		.4byte	.LVL11
 2651 0cdd 700F0000 		.4byte	0xf70
 2652 0ce1 36       		.uleb128 0x36
 2653 0ce2 48000000 		.4byte	.LVL14
 2654 0ce6 280F0000 		.4byte	0xf28
 2655 0cea 37       		.uleb128 0x37
 2656 0ceb 58000000 		.4byte	.LVL15
 2657 0cef 830F0000 		.4byte	0xf83
 2658 0cf3 100D0000 		.4byte	0xd10
 2659 0cf7 29       		.uleb128 0x29
 2660 0cf8 01       		.byte	0x1
 2661 0cf9 53       		.byte	0x53
 2662 0cfa 01       		.byte	0x1
 2663 0cfb 37       		.byte	0x37
 2664 0cfc 29       		.uleb128 0x29
 2665 0cfd 01       		.byte	0x1
 2666 0cfe 52       		.byte	0x52
 2667 0cff 02       		.byte	0x2
 2668 0d00 91       		.byte	0x91
 2669 0d01 50       		.sleb128 -48
 2670 0d02 29       		.uleb128 0x29
 2671 0d03 01       		.byte	0x1
 2672 0d04 51       		.byte	0x51
 2673 0d05 02       		.byte	0x2
 2674 0d06 08       		.byte	0x8
 2675 0d07 68       		.byte	0x68
 2676 0d08 29       		.uleb128 0x29
 2677 0d09 02       		.byte	0x2
 2678 0d0a 7D       		.byte	0x7d
 2679 0d0b 00       		.sleb128 0
 2680 0d0c 02       		.byte	0x2
 2681 0d0d 78       		.byte	0x78
 2682 0d0e 00       		.sleb128 0
 2683 0d0f 00       		.byte	0
 2684 0d10 36       		.uleb128 0x36
 2685 0d11 60000000 		.4byte	.LVL18
 2686 0d15 700F0000 		.4byte	0xf70
 2687 0d19 00       		.byte	0
 2688 0d1a 00       		.byte	0
 2689 0d1b 10       		.uleb128 0x10
 2690 0d1c 7A0A0000 		.4byte	0xa7a
 2691 0d20 1A       		.uleb128 0x1a
 2692 0d21 54000000 		.4byte	0x54
 2693 0d25 300D0000 		.4byte	0xd30
 2694 0d29 1B       		.uleb128 0x1b
 2695 0d2a 7D040000 		.4byte	0x47d
 2696 0d2e 06       		.byte	0x6
ARM GAS  C:\Users\Vergil\AppData\Local\Temp\ccSnTvXE.s 			page 49


 2697 0d2f 00       		.byte	0
 2698 0d30 26       		.uleb128 0x26
 2699 0d31 140A0000 		.4byte	0xa14
 2700 0d35 01       		.byte	0x1
 2701 0d36 57       		.byte	0x57
 2702 0d37 00000000 		.4byte	.LFB126
 2703 0d3b 32010000 		.4byte	.LFE126
 2704 0d3f 82010000 		.4byte	.LLST8
 2705 0d43 4C0D0000 		.4byte	0xd4c
 2706 0d47 01       		.byte	0x1
 2707 0d48 810E0000 		.4byte	0xe81
 2708 0d4c 27       		.uleb128 0x27
 2709 0d4d BB010000 		.4byte	.LASF141
 2710 0d51 370B0000 		.4byte	0xb37
 2711 0d55 01       		.byte	0x1
 2712 0d56 BB010000 		.4byte	.LLST9
 2713 0d5a 38       		.uleb128 0x38
 2714 0d5b AF060000 		.4byte	.LASF145
 2715 0d5f 01       		.byte	0x1
 2716 0d60 57       		.byte	0x57
 2717 0d61 810E0000 		.4byte	0xe81
 2718 0d65 02       		.byte	0x2
 2719 0d66 91       		.byte	0x91
 2720 0d67 74       		.sleb128 -12
 2721 0d68 30       		.uleb128 0x30
 2722 0d69 90010000 		.4byte	.Ldebug_ranges0+0x190
 2723 0d6d 31       		.uleb128 0x31
 2724 0d6e EC060000 		.4byte	.LASF143
 2725 0d72 01       		.byte	0x1
 2726 0d73 59       		.byte	0x59
 2727 0d74 E4000000 		.4byte	0xe4
 2728 0d78 D9010000 		.4byte	.LLST10
 2729 0d7c 32       		.uleb128 0x32
 2730 0d7d FF050000 		.4byte	.LASF144
 2731 0d81 01       		.byte	0x1
 2732 0d82 5A       		.byte	0x5a
 2733 0d83 860E0000 		.4byte	0xe86
 2734 0d87 03       		.byte	0x3
 2735 0d88 91       		.byte	0x91
 2736 0d89 BC7F     		.sleb128 -68
 2737 0d8b 33       		.uleb128 0x33
 2738 0d8c 960A0000 		.4byte	0xa96
 2739 0d90 0E000000 		.4byte	.LBB112
 2740 0d94 A8010000 		.4byte	.Ldebug_ranges0+0x1a8
 2741 0d98 01       		.byte	0x1
 2742 0d99 5E       		.byte	0x5e
 2743 0d9a A80D0000 		.4byte	0xda8
 2744 0d9e 35       		.uleb128 0x35
 2745 0d9f A00A0000 		.4byte	0xaa0
 2746 0da3 03020000 		.4byte	.LLST11
 2747 0da7 00       		.byte	0
 2748 0da8 33       		.uleb128 0x33
 2749 0da9 960A0000 		.4byte	0xa96
 2750 0dad 12000000 		.4byte	.LBB121
 2751 0db1 F0010000 		.4byte	.Ldebug_ranges0+0x1f0
 2752 0db5 01       		.byte	0x1
 2753 0db6 60       		.byte	0x60
ARM GAS  C:\Users\Vergil\AppData\Local\Temp\ccSnTvXE.s 			page 50


 2754 0db7 C50D0000 		.4byte	0xdc5
 2755 0dbb 35       		.uleb128 0x35
 2756 0dbc A00A0000 		.4byte	0xaa0
 2757 0dc0 2D020000 		.4byte	.LLST12
 2758 0dc4 00       		.byte	0
 2759 0dc5 33       		.uleb128 0x33
 2760 0dc6 960A0000 		.4byte	0xa96
 2761 0dca 22000000 		.4byte	.LBB131
 2762 0dce 30020000 		.4byte	.Ldebug_ranges0+0x230
 2763 0dd2 01       		.byte	0x1
 2764 0dd3 5F       		.byte	0x5f
 2765 0dd4 E20D0000 		.4byte	0xde2
 2766 0dd8 35       		.uleb128 0x35
 2767 0dd9 A00A0000 		.4byte	0xaa0
 2768 0ddd 4C020000 		.4byte	.LLST13
 2769 0de1 00       		.byte	0
 2770 0de2 33       		.uleb128 0x33
 2771 0de3 960A0000 		.4byte	0xa96
 2772 0de7 34000000 		.4byte	.LBB144
 2773 0deb 80020000 		.4byte	.Ldebug_ranges0+0x280
 2774 0def 01       		.byte	0x1
 2775 0df0 62       		.byte	0x62
 2776 0df1 FE0D0000 		.4byte	0xdfe
 2777 0df5 2E       		.uleb128 0x2e
 2778 0df6 A00A0000 		.4byte	0xaa0
 2779 0dfa 02       		.byte	0x2
 2780 0dfb 91       		.byte	0x91
 2781 0dfc 64       		.sleb128 -28
 2782 0dfd 00       		.byte	0
 2783 0dfe 33       		.uleb128 0x33
 2784 0dff 960A0000 		.4byte	0xa96
 2785 0e03 42000000 		.4byte	.LBB157
 2786 0e07 D0020000 		.4byte	.Ldebug_ranges0+0x2d0
 2787 0e0b 01       		.byte	0x1
 2788 0e0c 63       		.byte	0x63
 2789 0e0d 1B0E0000 		.4byte	0xe1b
 2790 0e11 35       		.uleb128 0x35
 2791 0e12 A00A0000 		.4byte	0xaa0
 2792 0e16 6B020000 		.4byte	.LLST14
 2793 0e1a 00       		.byte	0
 2794 0e1b 33       		.uleb128 0x33
 2795 0e1c 960A0000 		.4byte	0xa96
 2796 0e20 4A000000 		.4byte	.LBB165
 2797 0e24 08030000 		.4byte	.Ldebug_ranges0+0x308
 2798 0e28 01       		.byte	0x1
 2799 0e29 64       		.byte	0x64
 2800 0e2a 380E0000 		.4byte	0xe38
 2801 0e2e 2E       		.uleb128 0x2e
 2802 0e2f A00A0000 		.4byte	0xaa0
 2803 0e33 03       		.byte	0x3
 2804 0e34 91       		.byte	0x91
 2805 0e35 947F     		.sleb128 -108
 2806 0e37 00       		.byte	0
 2807 0e38 36       		.uleb128 0x36
 2808 0e39 08010000 		.4byte	.LVL35
 2809 0e3d 280F0000 		.4byte	0xf28
 2810 0e41 37       		.uleb128 0x37
ARM GAS  C:\Users\Vergil\AppData\Local\Temp\ccSnTvXE.s 			page 51


 2811 0e42 1A010000 		.4byte	.LVL36
 2812 0e46 3B0F0000 		.4byte	0xf3b
 2813 0e4a 760E0000 		.4byte	0xe76
 2814 0e4e 29       		.uleb128 0x29
 2815 0e4f 01       		.byte	0x1
 2816 0e50 53       		.byte	0x53
 2817 0e51 01       		.byte	0x1
 2818 0e52 39       		.byte	0x39
 2819 0e53 29       		.uleb128 0x29
 2820 0e54 01       		.byte	0x1
 2821 0e55 52       		.byte	0x52
 2822 0e56 03       		.byte	0x3
 2823 0e57 91       		.byte	0x91
 2824 0e58 9C7F     		.sleb128 -100
 2825 0e5a 29       		.uleb128 0x29
 2826 0e5b 01       		.byte	0x1
 2827 0e5c 51       		.byte	0x51
 2828 0e5d 02       		.byte	0x2
 2829 0e5e 08       		.byte	0x8
 2830 0e5f 68       		.byte	0x68
 2831 0e60 29       		.uleb128 0x29
 2832 0e61 02       		.byte	0x2
 2833 0e62 7D       		.byte	0x7d
 2834 0e63 08       		.sleb128 8
 2835 0e64 02       		.byte	0x2
 2836 0e65 75       		.byte	0x75
 2837 0e66 00       		.sleb128 0
 2838 0e67 29       		.uleb128 0x29
 2839 0e68 02       		.byte	0x2
 2840 0e69 7D       		.byte	0x7d
 2841 0e6a 04       		.sleb128 4
 2842 0e6b 02       		.byte	0x2
 2843 0e6c 76       		.byte	0x76
 2844 0e6d 00       		.sleb128 0
 2845 0e6e 29       		.uleb128 0x29
 2846 0e6f 02       		.byte	0x2
 2847 0e70 7D       		.byte	0x7d
 2848 0e71 00       		.sleb128 0
 2849 0e72 02       		.byte	0x2
 2850 0e73 76       		.byte	0x76
 2851 0e74 00       		.sleb128 0
 2852 0e75 00       		.byte	0
 2853 0e76 36       		.uleb128 0x36
 2854 0e77 22010000 		.4byte	.LVL39
 2855 0e7b 700F0000 		.4byte	0xf70
 2856 0e7f 00       		.byte	0
 2857 0e80 00       		.byte	0
 2858 0e81 10       		.uleb128 0x10
 2859 0e82 A8090000 		.4byte	0x9a8
 2860 0e86 1A       		.uleb128 0x1a
 2861 0e87 54000000 		.4byte	0x54
 2862 0e8b 960E0000 		.4byte	0xe96
 2863 0e8f 1B       		.uleb128 0x1b
 2864 0e90 7D040000 		.4byte	0x47d
 2865 0e94 08       		.byte	0x8
 2866 0e95 00       		.byte	0
 2867 0e96 39       		.uleb128 0x39
ARM GAS  C:\Users\Vergil\AppData\Local\Temp\ccSnTvXE.s 			page 52


 2868 0e97 9F000000 		.4byte	.LASF158
 2869 0e9b 0F       		.byte	0xf
 2870 0e9c 9806     		.2byte	0x698
 2871 0e9e 05050000 		.4byte	0x505
 2872 0ea2 01       		.byte	0x1
 2873 0ea3 01       		.byte	0x1
 2874 0ea4 1A       		.uleb128 0x1a
 2875 0ea5 D7040000 		.4byte	0x4d7
 2876 0ea9 B40E0000 		.4byte	0xeb4
 2877 0ead 1B       		.uleb128 0x1b
 2878 0eae 7D040000 		.4byte	0x47d
 2879 0eb2 06       		.byte	0x6
 2880 0eb3 00       		.byte	0
 2881 0eb4 32       		.uleb128 0x32
 2882 0eb5 2B070000 		.4byte	.LASF146
 2883 0eb9 01       		.byte	0x1
 2884 0eba 0B       		.byte	0xb
 2885 0ebb C50E0000 		.4byte	0xec5
 2886 0ebf 05       		.byte	0x5
 2887 0ec0 03       		.byte	0x3
 2888 0ec1 00000000 		.4byte	_ZL8weekdays
 2889 0ec5 10       		.uleb128 0x10
 2890 0ec6 A40E0000 		.4byte	0xea4
 2891 0eca 1A       		.uleb128 0x1a
 2892 0ecb D7040000 		.4byte	0x4d7
 2893 0ecf DA0E0000 		.4byte	0xeda
 2894 0ed3 1B       		.uleb128 0x1b
 2895 0ed4 7D040000 		.4byte	0x47d
 2896 0ed8 0B       		.byte	0xb
 2897 0ed9 00       		.byte	0
 2898 0eda 32       		.uleb128 0x32
 2899 0edb D2010000 		.4byte	.LASF147
 2900 0edf 01       		.byte	0x1
 2901 0ee0 13       		.byte	0x13
 2902 0ee1 EB0E0000 		.4byte	0xeeb
 2903 0ee5 05       		.byte	0x5
 2904 0ee6 03       		.byte	0x3
 2905 0ee7 00000000 		.4byte	_ZL6months
 2906 0eeb 10       		.uleb128 0x10
 2907 0eec CA0E0000 		.4byte	0xeca
 2908 0ef0 3A       		.uleb128 0x3a
 2909 0ef1 68090000 		.4byte	0x968
 2910 0ef5 01       		.byte	0x1
 2911 0ef6 6B050000 		.4byte	.LASF159
 2912 0efa 05       		.byte	0x5
 2913 0efb 03       		.byte	0x3
 2914 0efc 00000000 		.4byte	_ZN8RTC_TIME7tmpbuffE
 2915 0f00 3B       		.uleb128 0x3b
 2916 0f01 01       		.byte	0x1
 2917 0f02 99050000 		.4byte	.LASF148
 2918 0f06 0E       		.byte	0xe
 2919 0f07 29       		.byte	0x29
 2920 0f08 29000000 		.4byte	0x29
 2921 0f0c 01       		.byte	0x1
 2922 0f0d 220F0000 		.4byte	0xf22
 2923 0f11 1F       		.uleb128 0x1f
 2924 0f12 220F0000 		.4byte	0xf22
ARM GAS  C:\Users\Vergil\AppData\Local\Temp\ccSnTvXE.s 			page 53


 2925 0f16 1F       		.uleb128 0x1f
 2926 0f17 30000000 		.4byte	0x30
 2927 0f1b 1F       		.uleb128 0x1f
 2928 0f1c D7040000 		.4byte	0x4d7
 2929 0f20 3C       		.uleb128 0x3c
 2930 0f21 00       		.byte	0
 2931 0f22 0B       		.uleb128 0xb
 2932 0f23 04       		.byte	0x4
 2933 0f24 E2040000 		.4byte	0x4e2
 2934 0f28 3D       		.uleb128 0x3d
 2935 0f29 01       		.byte	0x1
 2936 0f2a DE060000 		.4byte	.LASF150
 2937 0f2e 0C       		.byte	0xc
 2938 0f2f 8E       		.byte	0x8e
 2939 0f30 01       		.byte	0x1
 2940 0f31 3B0F0000 		.4byte	0xf3b
 2941 0f35 1F       		.uleb128 0x1f
 2942 0f36 6E0A0000 		.4byte	0xa6e
 2943 0f3a 00       		.byte	0
 2944 0f3b 3B       		.uleb128 0x3b
 2945 0f3c 01       		.byte	0x1
 2946 0f3d D5000000 		.4byte	.LASF149
 2947 0f41 0C       		.byte	0xc
 2948 0f42 84       		.byte	0x84
 2949 0f43 E4000000 		.4byte	0xe4
 2950 0f47 01       		.byte	0x1
 2951 0f48 700F0000 		.4byte	0xf70
 2952 0f4c 1F       		.uleb128 0x1f
 2953 0f4d 6E0A0000 		.4byte	0xa6e
 2954 0f51 1F       		.uleb128 0x1f
 2955 0f52 68070000 		.4byte	0x768
 2956 0f56 1F       		.uleb128 0x1f
 2957 0f57 F5040000 		.4byte	0x4f5
 2958 0f5b 1F       		.uleb128 0x1f
 2959 0f5c 30000000 		.4byte	0x30
 2960 0f60 1F       		.uleb128 0x1f
 2961 0f61 EF040000 		.4byte	0x4ef
 2962 0f65 1F       		.uleb128 0x1f
 2963 0f66 30000000 		.4byte	0x30
 2964 0f6a 1F       		.uleb128 0x1f
 2965 0f6b FA000000 		.4byte	0xfa
 2966 0f6f 00       		.byte	0
 2967 0f70 3D       		.uleb128 0x3d
 2968 0f71 01       		.byte	0x1
 2969 0f72 91000000 		.4byte	.LASF151
 2970 0f76 0C       		.byte	0xc
 2971 0f77 8F       		.byte	0x8f
 2972 0f78 01       		.byte	0x1
 2973 0f79 830F0000 		.4byte	0xf83
 2974 0f7d 1F       		.uleb128 0x1f
 2975 0f7e 6E0A0000 		.4byte	0xa6e
 2976 0f82 00       		.byte	0
 2977 0f83 3E       		.uleb128 0x3e
 2978 0f84 01       		.byte	0x1
 2979 0f85 05070000 		.4byte	.LASF152
 2980 0f89 0C       		.byte	0xc
 2981 0f8a 89       		.byte	0x89
ARM GAS  C:\Users\Vergil\AppData\Local\Temp\ccSnTvXE.s 			page 54


 2982 0f8b E4000000 		.4byte	0xe4
 2983 0f8f 01       		.byte	0x1
 2984 0f90 1F       		.uleb128 0x1f
 2985 0f91 6E0A0000 		.4byte	0xa6e
 2986 0f95 1F       		.uleb128 0x1f
 2987 0f96 68070000 		.4byte	0x768
 2988 0f9a 1F       		.uleb128 0x1f
 2989 0f9b EF040000 		.4byte	0x4ef
 2990 0f9f 1F       		.uleb128 0x1f
 2991 0fa0 30000000 		.4byte	0x30
 2992 0fa4 1F       		.uleb128 0x1f
 2993 0fa5 FA000000 		.4byte	0xfa
 2994 0fa9 00       		.byte	0
 2995 0faa 00       		.byte	0
 2996              		.section	.debug_abbrev,"",%progbits
 2997              	.Ldebug_abbrev0:
 2998 0000 01       		.uleb128 0x1
 2999 0001 11       		.uleb128 0x11
 3000 0002 01       		.byte	0x1
 3001 0003 25       		.uleb128 0x25
 3002 0004 0E       		.uleb128 0xe
 3003 0005 13       		.uleb128 0x13
 3004 0006 0B       		.uleb128 0xb
 3005 0007 03       		.uleb128 0x3
 3006 0008 0E       		.uleb128 0xe
 3007 0009 1B       		.uleb128 0x1b
 3008 000a 0E       		.uleb128 0xe
 3009 000b 55       		.uleb128 0x55
 3010 000c 06       		.uleb128 0x6
 3011 000d 11       		.uleb128 0x11
 3012 000e 01       		.uleb128 0x1
 3013 000f 52       		.uleb128 0x52
 3014 0010 01       		.uleb128 0x1
 3015 0011 10       		.uleb128 0x10
 3016 0012 06       		.uleb128 0x6
 3017 0013 00       		.byte	0
 3018 0014 00       		.byte	0
 3019 0015 02       		.uleb128 0x2
 3020 0016 24       		.uleb128 0x24
 3021 0017 00       		.byte	0
 3022 0018 0B       		.uleb128 0xb
 3023 0019 0B       		.uleb128 0xb
 3024 001a 3E       		.uleb128 0x3e
 3025 001b 0B       		.uleb128 0xb
 3026 001c 03       		.uleb128 0x3
 3027 001d 08       		.uleb128 0x8
 3028 001e 00       		.byte	0
 3029 001f 00       		.byte	0
 3030 0020 03       		.uleb128 0x3
 3031 0021 16       		.uleb128 0x16
 3032 0022 00       		.byte	0
 3033 0023 03       		.uleb128 0x3
 3034 0024 0E       		.uleb128 0xe
 3035 0025 3A       		.uleb128 0x3a
 3036 0026 0B       		.uleb128 0xb
 3037 0027 3B       		.uleb128 0x3b
 3038 0028 0B       		.uleb128 0xb
ARM GAS  C:\Users\Vergil\AppData\Local\Temp\ccSnTvXE.s 			page 55


 3039 0029 49       		.uleb128 0x49
 3040 002a 13       		.uleb128 0x13
 3041 002b 00       		.byte	0
 3042 002c 00       		.byte	0
 3043 002d 04       		.uleb128 0x4
 3044 002e 24       		.uleb128 0x24
 3045 002f 00       		.byte	0
 3046 0030 0B       		.uleb128 0xb
 3047 0031 0B       		.uleb128 0xb
 3048 0032 3E       		.uleb128 0x3e
 3049 0033 0B       		.uleb128 0xb
 3050 0034 03       		.uleb128 0x3
 3051 0035 0E       		.uleb128 0xe
 3052 0036 00       		.byte	0
 3053 0037 00       		.byte	0
 3054 0038 05       		.uleb128 0x5
 3055 0039 13       		.uleb128 0x13
 3056 003a 01       		.byte	0x1
 3057 003b 03       		.uleb128 0x3
 3058 003c 0E       		.uleb128 0xe
 3059 003d 0B       		.uleb128 0xb
 3060 003e 0B       		.uleb128 0xb
 3061 003f 3A       		.uleb128 0x3a
 3062 0040 0B       		.uleb128 0xb
 3063 0041 3B       		.uleb128 0x3b
 3064 0042 0B       		.uleb128 0xb
 3065 0043 01       		.uleb128 0x1
 3066 0044 13       		.uleb128 0x13
 3067 0045 00       		.byte	0
 3068 0046 00       		.byte	0
 3069 0047 06       		.uleb128 0x6
 3070 0048 17       		.uleb128 0x17
 3071 0049 01       		.byte	0x1
 3072 004a 0B       		.uleb128 0xb
 3073 004b 0B       		.uleb128 0xb
 3074 004c 3A       		.uleb128 0x3a
 3075 004d 0B       		.uleb128 0xb
 3076 004e 3B       		.uleb128 0x3b
 3077 004f 0B       		.uleb128 0xb
 3078 0050 01       		.uleb128 0x1
 3079 0051 13       		.uleb128 0x13
 3080 0052 00       		.byte	0
 3081 0053 00       		.byte	0
 3082 0054 07       		.uleb128 0x7
 3083 0055 0D       		.uleb128 0xd
 3084 0056 00       		.byte	0
 3085 0057 03       		.uleb128 0x3
 3086 0058 0E       		.uleb128 0xe
 3087 0059 3A       		.uleb128 0x3a
 3088 005a 0B       		.uleb128 0xb
 3089 005b 3B       		.uleb128 0x3b
 3090 005c 0B       		.uleb128 0xb
 3091 005d 49       		.uleb128 0x49
 3092 005e 13       		.uleb128 0x13
 3093 005f 00       		.byte	0
 3094 0060 00       		.byte	0
 3095 0061 08       		.uleb128 0x8
ARM GAS  C:\Users\Vergil\AppData\Local\Temp\ccSnTvXE.s 			page 56


 3096 0062 0D       		.uleb128 0xd
 3097 0063 00       		.byte	0
 3098 0064 03       		.uleb128 0x3
 3099 0065 0E       		.uleb128 0xe
 3100 0066 3A       		.uleb128 0x3a
 3101 0067 0B       		.uleb128 0xb
 3102 0068 3B       		.uleb128 0x3b
 3103 0069 0B       		.uleb128 0xb
 3104 006a 49       		.uleb128 0x49
 3105 006b 13       		.uleb128 0x13
 3106 006c 38       		.uleb128 0x38
 3107 006d 0A       		.uleb128 0xa
 3108 006e 00       		.byte	0
 3109 006f 00       		.byte	0
 3110 0070 09       		.uleb128 0x9
 3111 0071 0D       		.uleb128 0xd
 3112 0072 00       		.byte	0
 3113 0073 03       		.uleb128 0x3
 3114 0074 08       		.uleb128 0x8
 3115 0075 3A       		.uleb128 0x3a
 3116 0076 0B       		.uleb128 0xb
 3117 0077 3B       		.uleb128 0x3b
 3118 0078 0B       		.uleb128 0xb
 3119 0079 49       		.uleb128 0x49
 3120 007a 13       		.uleb128 0x13
 3121 007b 38       		.uleb128 0x38
 3122 007c 0A       		.uleb128 0xa
 3123 007d 00       		.byte	0
 3124 007e 00       		.byte	0
 3125 007f 0A       		.uleb128 0xa
 3126 0080 13       		.uleb128 0x13
 3127 0081 01       		.byte	0x1
 3128 0082 0B       		.uleb128 0xb
 3129 0083 0B       		.uleb128 0xb
 3130 0084 3A       		.uleb128 0x3a
 3131 0085 0B       		.uleb128 0xb
 3132 0086 3B       		.uleb128 0x3b
 3133 0087 0B       		.uleb128 0xb
 3134 0088 8740     		.uleb128 0x2007
 3135 008a 0E       		.uleb128 0xe
 3136 008b 01       		.uleb128 0x1
 3137 008c 13       		.uleb128 0x13
 3138 008d 00       		.byte	0
 3139 008e 00       		.byte	0
 3140 008f 0B       		.uleb128 0xb
 3141 0090 0F       		.uleb128 0xf
 3142 0091 00       		.byte	0
 3143 0092 0B       		.uleb128 0xb
 3144 0093 0B       		.uleb128 0xb
 3145 0094 49       		.uleb128 0x49
 3146 0095 13       		.uleb128 0x13
 3147 0096 00       		.byte	0
 3148 0097 00       		.byte	0
 3149 0098 0C       		.uleb128 0xc
 3150 0099 0F       		.uleb128 0xf
 3151 009a 00       		.byte	0
 3152 009b 0B       		.uleb128 0xb
ARM GAS  C:\Users\Vergil\AppData\Local\Temp\ccSnTvXE.s 			page 57


 3153 009c 0B       		.uleb128 0xb
 3154 009d 00       		.byte	0
 3155 009e 00       		.byte	0
 3156 009f 0D       		.uleb128 0xd
 3157 00a0 13       		.uleb128 0x13
 3158 00a1 01       		.byte	0x1
 3159 00a2 03       		.uleb128 0x3
 3160 00a3 0E       		.uleb128 0xe
 3161 00a4 0B       		.uleb128 0xb
 3162 00a5 0B       		.uleb128 0xb
 3163 00a6 3A       		.uleb128 0x3a
 3164 00a7 0B       		.uleb128 0xb
 3165 00a8 3B       		.uleb128 0x3b
 3166 00a9 05       		.uleb128 0x5
 3167 00aa 01       		.uleb128 0x1
 3168 00ab 13       		.uleb128 0x13
 3169 00ac 00       		.byte	0
 3170 00ad 00       		.byte	0
 3171 00ae 0E       		.uleb128 0xe
 3172 00af 0D       		.uleb128 0xd
 3173 00b0 00       		.byte	0
 3174 00b1 03       		.uleb128 0x3
 3175 00b2 08       		.uleb128 0x8
 3176 00b3 3A       		.uleb128 0x3a
 3177 00b4 0B       		.uleb128 0xb
 3178 00b5 3B       		.uleb128 0x3b
 3179 00b6 05       		.uleb128 0x5
 3180 00b7 49       		.uleb128 0x49
 3181 00b8 13       		.uleb128 0x13
 3182 00b9 38       		.uleb128 0x38
 3183 00ba 0A       		.uleb128 0xa
 3184 00bb 00       		.byte	0
 3185 00bc 00       		.byte	0
 3186 00bd 0F       		.uleb128 0xf
 3187 00be 35       		.uleb128 0x35
 3188 00bf 00       		.byte	0
 3189 00c0 49       		.uleb128 0x49
 3190 00c1 13       		.uleb128 0x13
 3191 00c2 00       		.byte	0
 3192 00c3 00       		.byte	0
 3193 00c4 10       		.uleb128 0x10
 3194 00c5 26       		.uleb128 0x26
 3195 00c6 00       		.byte	0
 3196 00c7 49       		.uleb128 0x49
 3197 00c8 13       		.uleb128 0x13
 3198 00c9 00       		.byte	0
 3199 00ca 00       		.byte	0
 3200 00cb 11       		.uleb128 0x11
 3201 00cc 13       		.uleb128 0x13
 3202 00cd 01       		.byte	0x1
 3203 00ce 0B       		.uleb128 0xb
 3204 00cf 0B       		.uleb128 0xb
 3205 00d0 3A       		.uleb128 0x3a
 3206 00d1 0B       		.uleb128 0xb
 3207 00d2 3B       		.uleb128 0x3b
 3208 00d3 05       		.uleb128 0x5
 3209 00d4 8740     		.uleb128 0x2007
ARM GAS  C:\Users\Vergil\AppData\Local\Temp\ccSnTvXE.s 			page 58


 3210 00d6 0E       		.uleb128 0xe
 3211 00d7 01       		.uleb128 0x1
 3212 00d8 13       		.uleb128 0x13
 3213 00d9 00       		.byte	0
 3214 00da 00       		.byte	0
 3215 00db 12       		.uleb128 0x12
 3216 00dc 0D       		.uleb128 0xd
 3217 00dd 00       		.byte	0
 3218 00de 03       		.uleb128 0x3
 3219 00df 0E       		.uleb128 0xe
 3220 00e0 3A       		.uleb128 0x3a
 3221 00e1 0B       		.uleb128 0xb
 3222 00e2 3B       		.uleb128 0x3b
 3223 00e3 05       		.uleb128 0x5
 3224 00e4 49       		.uleb128 0x49
 3225 00e5 13       		.uleb128 0x13
 3226 00e6 38       		.uleb128 0x38
 3227 00e7 0A       		.uleb128 0xa
 3228 00e8 00       		.byte	0
 3229 00e9 00       		.byte	0
 3230 00ea 13       		.uleb128 0x13
 3231 00eb 16       		.uleb128 0x16
 3232 00ec 00       		.byte	0
 3233 00ed 03       		.uleb128 0x3
 3234 00ee 0E       		.uleb128 0xe
 3235 00ef 3A       		.uleb128 0x3a
 3236 00f0 0B       		.uleb128 0xb
 3237 00f1 3B       		.uleb128 0x3b
 3238 00f2 05       		.uleb128 0x5
 3239 00f3 49       		.uleb128 0x49
 3240 00f4 13       		.uleb128 0x13
 3241 00f5 00       		.byte	0
 3242 00f6 00       		.byte	0
 3243 00f7 14       		.uleb128 0x14
 3244 00f8 04       		.uleb128 0x4
 3245 00f9 01       		.byte	0x1
 3246 00fa 0B       		.uleb128 0xb
 3247 00fb 0B       		.uleb128 0xb
 3248 00fc 3A       		.uleb128 0x3a
 3249 00fd 0B       		.uleb128 0xb
 3250 00fe 3B       		.uleb128 0x3b
 3251 00ff 0B       		.uleb128 0xb
 3252 0100 8740     		.uleb128 0x2007
 3253 0102 0E       		.uleb128 0xe
 3254 0103 01       		.uleb128 0x1
 3255 0104 13       		.uleb128 0x13
 3256 0105 00       		.byte	0
 3257 0106 00       		.byte	0
 3258 0107 15       		.uleb128 0x15
 3259 0108 28       		.uleb128 0x28
 3260 0109 00       		.byte	0
 3261 010a 03       		.uleb128 0x3
 3262 010b 0E       		.uleb128 0xe
 3263 010c 1C       		.uleb128 0x1c
 3264 010d 0D       		.uleb128 0xd
 3265 010e 00       		.byte	0
 3266 010f 00       		.byte	0
ARM GAS  C:\Users\Vergil\AppData\Local\Temp\ccSnTvXE.s 			page 59


 3267 0110 16       		.uleb128 0x16
 3268 0111 04       		.uleb128 0x4
 3269 0112 01       		.byte	0x1
 3270 0113 0B       		.uleb128 0xb
 3271 0114 0B       		.uleb128 0xb
 3272 0115 3A       		.uleb128 0x3a
 3273 0116 0B       		.uleb128 0xb
 3274 0117 3B       		.uleb128 0x3b
 3275 0118 05       		.uleb128 0x5
 3276 0119 8740     		.uleb128 0x2007
 3277 011b 0E       		.uleb128 0xe
 3278 011c 01       		.uleb128 0x1
 3279 011d 13       		.uleb128 0x13
 3280 011e 00       		.byte	0
 3281 011f 00       		.byte	0
 3282 0120 17       		.uleb128 0x17
 3283 0121 0D       		.uleb128 0xd
 3284 0122 00       		.byte	0
 3285 0123 03       		.uleb128 0x3
 3286 0124 0E       		.uleb128 0xe
 3287 0125 3A       		.uleb128 0x3a
 3288 0126 0B       		.uleb128 0xb
 3289 0127 3B       		.uleb128 0x3b
 3290 0128 0B       		.uleb128 0xb
 3291 0129 49       		.uleb128 0x49
 3292 012a 13       		.uleb128 0x13
 3293 012b 3F       		.uleb128 0x3f
 3294 012c 0C       		.uleb128 0xc
 3295 012d 3C       		.uleb128 0x3c
 3296 012e 0C       		.uleb128 0xc
 3297 012f 00       		.byte	0
 3298 0130 00       		.byte	0
 3299 0131 18       		.uleb128 0x18
 3300 0132 2E       		.uleb128 0x2e
 3301 0133 01       		.byte	0x1
 3302 0134 3F       		.uleb128 0x3f
 3303 0135 0C       		.uleb128 0xc
 3304 0136 03       		.uleb128 0x3
 3305 0137 0E       		.uleb128 0xe
 3306 0138 3A       		.uleb128 0x3a
 3307 0139 0B       		.uleb128 0xb
 3308 013a 3B       		.uleb128 0x3b
 3309 013b 0B       		.uleb128 0xb
 3310 013c 8740     		.uleb128 0x2007
 3311 013e 0E       		.uleb128 0xe
 3312 013f 49       		.uleb128 0x49
 3313 0140 13       		.uleb128 0x13
 3314 0141 3C       		.uleb128 0x3c
 3315 0142 0C       		.uleb128 0xc
 3316 0143 64       		.uleb128 0x64
 3317 0144 13       		.uleb128 0x13
 3318 0145 00       		.byte	0
 3319 0146 00       		.byte	0
 3320 0147 19       		.uleb128 0x19
 3321 0148 05       		.uleb128 0x5
 3322 0149 00       		.byte	0
 3323 014a 49       		.uleb128 0x49
ARM GAS  C:\Users\Vergil\AppData\Local\Temp\ccSnTvXE.s 			page 60


 3324 014b 13       		.uleb128 0x13
 3325 014c 34       		.uleb128 0x34
 3326 014d 0C       		.uleb128 0xc
 3327 014e 00       		.byte	0
 3328 014f 00       		.byte	0
 3329 0150 1A       		.uleb128 0x1a
 3330 0151 01       		.uleb128 0x1
 3331 0152 01       		.byte	0x1
 3332 0153 49       		.uleb128 0x49
 3333 0154 13       		.uleb128 0x13
 3334 0155 01       		.uleb128 0x1
 3335 0156 13       		.uleb128 0x13
 3336 0157 00       		.byte	0
 3337 0158 00       		.byte	0
 3338 0159 1B       		.uleb128 0x1b
 3339 015a 21       		.uleb128 0x21
 3340 015b 00       		.byte	0
 3341 015c 49       		.uleb128 0x49
 3342 015d 13       		.uleb128 0x13
 3343 015e 2F       		.uleb128 0x2f
 3344 015f 0B       		.uleb128 0xb
 3345 0160 00       		.byte	0
 3346 0161 00       		.byte	0
 3347 0162 1C       		.uleb128 0x1c
 3348 0163 02       		.uleb128 0x2
 3349 0164 01       		.byte	0x1
 3350 0165 03       		.uleb128 0x3
 3351 0166 0E       		.uleb128 0xe
 3352 0167 0B       		.uleb128 0xb
 3353 0168 0B       		.uleb128 0xb
 3354 0169 3A       		.uleb128 0x3a
 3355 016a 0B       		.uleb128 0xb
 3356 016b 3B       		.uleb128 0x3b
 3357 016c 0B       		.uleb128 0xb
 3358 016d 01       		.uleb128 0x1
 3359 016e 13       		.uleb128 0x13
 3360 016f 00       		.byte	0
 3361 0170 00       		.byte	0
 3362 0171 1D       		.uleb128 0x1d
 3363 0172 0D       		.uleb128 0xd
 3364 0173 00       		.byte	0
 3365 0174 03       		.uleb128 0x3
 3366 0175 0E       		.uleb128 0xe
 3367 0176 3A       		.uleb128 0x3a
 3368 0177 0B       		.uleb128 0xb
 3369 0178 3B       		.uleb128 0x3b
 3370 0179 0B       		.uleb128 0xb
 3371 017a 49       		.uleb128 0x49
 3372 017b 13       		.uleb128 0x13
 3373 017c 38       		.uleb128 0x38
 3374 017d 0A       		.uleb128 0xa
 3375 017e 32       		.uleb128 0x32
 3376 017f 0B       		.uleb128 0xb
 3377 0180 00       		.byte	0
 3378 0181 00       		.byte	0
 3379 0182 1E       		.uleb128 0x1e
 3380 0183 2E       		.uleb128 0x2e
ARM GAS  C:\Users\Vergil\AppData\Local\Temp\ccSnTvXE.s 			page 61


 3381 0184 01       		.byte	0x1
 3382 0185 3F       		.uleb128 0x3f
 3383 0186 0C       		.uleb128 0xc
 3384 0187 03       		.uleb128 0x3
 3385 0188 0E       		.uleb128 0xe
 3386 0189 3A       		.uleb128 0x3a
 3387 018a 0B       		.uleb128 0xb
 3388 018b 3B       		.uleb128 0x3b
 3389 018c 0B       		.uleb128 0xb
 3390 018d 49       		.uleb128 0x49
 3391 018e 13       		.uleb128 0x13
 3392 018f 3C       		.uleb128 0x3c
 3393 0190 0C       		.uleb128 0xc
 3394 0191 64       		.uleb128 0x64
 3395 0192 13       		.uleb128 0x13
 3396 0193 01       		.uleb128 0x1
 3397 0194 13       		.uleb128 0x13
 3398 0195 00       		.byte	0
 3399 0196 00       		.byte	0
 3400 0197 1F       		.uleb128 0x1f
 3401 0198 05       		.uleb128 0x5
 3402 0199 00       		.byte	0
 3403 019a 49       		.uleb128 0x49
 3404 019b 13       		.uleb128 0x13
 3405 019c 00       		.byte	0
 3406 019d 00       		.byte	0
 3407 019e 20       		.uleb128 0x20
 3408 019f 2E       		.uleb128 0x2e
 3409 01a0 01       		.byte	0x1
 3410 01a1 3F       		.uleb128 0x3f
 3411 01a2 0C       		.uleb128 0xc
 3412 01a3 03       		.uleb128 0x3
 3413 01a4 0E       		.uleb128 0xe
 3414 01a5 3A       		.uleb128 0x3a
 3415 01a6 0B       		.uleb128 0xb
 3416 01a7 3B       		.uleb128 0x3b
 3417 01a8 0B       		.uleb128 0xb
 3418 01a9 8740     		.uleb128 0x2007
 3419 01ab 0E       		.uleb128 0xe
 3420 01ac 49       		.uleb128 0x49
 3421 01ad 13       		.uleb128 0x13
 3422 01ae 3C       		.uleb128 0x3c
 3423 01af 0C       		.uleb128 0xc
 3424 01b0 64       		.uleb128 0x64
 3425 01b1 13       		.uleb128 0x13
 3426 01b2 01       		.uleb128 0x1
 3427 01b3 13       		.uleb128 0x13
 3428 01b4 00       		.byte	0
 3429 01b5 00       		.byte	0
 3430 01b6 21       		.uleb128 0x21
 3431 01b7 2E       		.uleb128 0x2e
 3432 01b8 01       		.byte	0x1
 3433 01b9 3F       		.uleb128 0x3f
 3434 01ba 0C       		.uleb128 0xc
 3435 01bb 03       		.uleb128 0x3
 3436 01bc 0E       		.uleb128 0xe
 3437 01bd 3A       		.uleb128 0x3a
ARM GAS  C:\Users\Vergil\AppData\Local\Temp\ccSnTvXE.s 			page 62


 3438 01be 0B       		.uleb128 0xb
 3439 01bf 3B       		.uleb128 0x3b
 3440 01c0 0B       		.uleb128 0xb
 3441 01c1 8740     		.uleb128 0x2007
 3442 01c3 0E       		.uleb128 0xe
 3443 01c4 49       		.uleb128 0x49
 3444 01c5 13       		.uleb128 0x13
 3445 01c6 32       		.uleb128 0x32
 3446 01c7 0B       		.uleb128 0xb
 3447 01c8 3C       		.uleb128 0x3c
 3448 01c9 0C       		.uleb128 0xc
 3449 01ca 01       		.uleb128 0x1
 3450 01cb 13       		.uleb128 0x13
 3451 01cc 00       		.byte	0
 3452 01cd 00       		.byte	0
 3453 01ce 22       		.uleb128 0x22
 3454 01cf 2E       		.uleb128 0x2e
 3455 01d0 01       		.byte	0x1
 3456 01d1 3F       		.uleb128 0x3f
 3457 01d2 0C       		.uleb128 0xc
 3458 01d3 03       		.uleb128 0x3
 3459 01d4 0E       		.uleb128 0xe
 3460 01d5 3A       		.uleb128 0x3a
 3461 01d6 0B       		.uleb128 0xb
 3462 01d7 3B       		.uleb128 0x3b
 3463 01d8 0B       		.uleb128 0xb
 3464 01d9 8740     		.uleb128 0x2007
 3465 01db 0E       		.uleb128 0xe
 3466 01dc 49       		.uleb128 0x49
 3467 01dd 13       		.uleb128 0x13
 3468 01de 32       		.uleb128 0x32
 3469 01df 0B       		.uleb128 0xb
 3470 01e0 3C       		.uleb128 0x3c
 3471 01e1 0C       		.uleb128 0xc
 3472 01e2 00       		.byte	0
 3473 01e3 00       		.byte	0
 3474 01e4 23       		.uleb128 0x23
 3475 01e5 10       		.uleb128 0x10
 3476 01e6 00       		.byte	0
 3477 01e7 0B       		.uleb128 0xb
 3478 01e8 0B       		.uleb128 0xb
 3479 01e9 49       		.uleb128 0x49
 3480 01ea 13       		.uleb128 0x13
 3481 01eb 00       		.byte	0
 3482 01ec 00       		.byte	0
 3483 01ed 24       		.uleb128 0x24
 3484 01ee 2E       		.uleb128 0x2e
 3485 01ef 01       		.byte	0x1
 3486 01f0 47       		.uleb128 0x47
 3487 01f1 13       		.uleb128 0x13
 3488 01f2 20       		.uleb128 0x20
 3489 01f3 0B       		.uleb128 0xb
 3490 01f4 01       		.uleb128 0x1
 3491 01f5 13       		.uleb128 0x13
 3492 01f6 00       		.byte	0
 3493 01f7 00       		.byte	0
 3494 01f8 25       		.uleb128 0x25
ARM GAS  C:\Users\Vergil\AppData\Local\Temp\ccSnTvXE.s 			page 63


 3495 01f9 05       		.uleb128 0x5
 3496 01fa 00       		.byte	0
 3497 01fb 03       		.uleb128 0x3
 3498 01fc 08       		.uleb128 0x8
 3499 01fd 3A       		.uleb128 0x3a
 3500 01fe 0B       		.uleb128 0xb
 3501 01ff 3B       		.uleb128 0x3b
 3502 0200 0B       		.uleb128 0xb
 3503 0201 49       		.uleb128 0x49
 3504 0202 13       		.uleb128 0x13
 3505 0203 00       		.byte	0
 3506 0204 00       		.byte	0
 3507 0205 26       		.uleb128 0x26
 3508 0206 2E       		.uleb128 0x2e
 3509 0207 01       		.byte	0x1
 3510 0208 47       		.uleb128 0x47
 3511 0209 13       		.uleb128 0x13
 3512 020a 3A       		.uleb128 0x3a
 3513 020b 0B       		.uleb128 0xb
 3514 020c 3B       		.uleb128 0x3b
 3515 020d 0B       		.uleb128 0xb
 3516 020e 11       		.uleb128 0x11
 3517 020f 01       		.uleb128 0x1
 3518 0210 12       		.uleb128 0x12
 3519 0211 01       		.uleb128 0x1
 3520 0212 40       		.uleb128 0x40
 3521 0213 06       		.uleb128 0x6
 3522 0214 64       		.uleb128 0x64
 3523 0215 13       		.uleb128 0x13
 3524 0216 9742     		.uleb128 0x2117
 3525 0218 0C       		.uleb128 0xc
 3526 0219 01       		.uleb128 0x1
 3527 021a 13       		.uleb128 0x13
 3528 021b 00       		.byte	0
 3529 021c 00       		.byte	0
 3530 021d 27       		.uleb128 0x27
 3531 021e 05       		.uleb128 0x5
 3532 021f 00       		.byte	0
 3533 0220 03       		.uleb128 0x3
 3534 0221 0E       		.uleb128 0xe
 3535 0222 49       		.uleb128 0x49
 3536 0223 13       		.uleb128 0x13
 3537 0224 34       		.uleb128 0x34
 3538 0225 0C       		.uleb128 0xc
 3539 0226 02       		.uleb128 0x2
 3540 0227 06       		.uleb128 0x6
 3541 0228 00       		.byte	0
 3542 0229 00       		.byte	0
 3543 022a 28       		.uleb128 0x28
 3544 022b 898201   		.uleb128 0x4109
 3545 022e 01       		.byte	0x1
 3546 022f 11       		.uleb128 0x11
 3547 0230 01       		.uleb128 0x1
 3548 0231 31       		.uleb128 0x31
 3549 0232 13       		.uleb128 0x13
 3550 0233 00       		.byte	0
 3551 0234 00       		.byte	0
ARM GAS  C:\Users\Vergil\AppData\Local\Temp\ccSnTvXE.s 			page 64


 3552 0235 29       		.uleb128 0x29
 3553 0236 8A8201   		.uleb128 0x410a
 3554 0239 00       		.byte	0
 3555 023a 02       		.uleb128 0x2
 3556 023b 0A       		.uleb128 0xa
 3557 023c 9142     		.uleb128 0x2111
 3558 023e 0A       		.uleb128 0xa
 3559 023f 00       		.byte	0
 3560 0240 00       		.byte	0
 3561 0241 2A       		.uleb128 0x2a
 3562 0242 2E       		.uleb128 0x2e
 3563 0243 01       		.byte	0x1
 3564 0244 47       		.uleb128 0x47
 3565 0245 13       		.uleb128 0x13
 3566 0246 3A       		.uleb128 0x3a
 3567 0247 0B       		.uleb128 0xb
 3568 0248 3B       		.uleb128 0x3b
 3569 0249 0B       		.uleb128 0xb
 3570 024a 20       		.uleb128 0x20
 3571 024b 0B       		.uleb128 0xb
 3572 024c 64       		.uleb128 0x64
 3573 024d 13       		.uleb128 0x13
 3574 024e 01       		.uleb128 0x1
 3575 024f 13       		.uleb128 0x13
 3576 0250 00       		.byte	0
 3577 0251 00       		.byte	0
 3578 0252 2B       		.uleb128 0x2b
 3579 0253 05       		.uleb128 0x5
 3580 0254 00       		.byte	0
 3581 0255 03       		.uleb128 0x3
 3582 0256 0E       		.uleb128 0xe
 3583 0257 49       		.uleb128 0x49
 3584 0258 13       		.uleb128 0x13
 3585 0259 34       		.uleb128 0x34
 3586 025a 0C       		.uleb128 0xc
 3587 025b 00       		.byte	0
 3588 025c 00       		.byte	0
 3589 025d 2C       		.uleb128 0x2c
 3590 025e 05       		.uleb128 0x5
 3591 025f 00       		.byte	0
 3592 0260 03       		.uleb128 0x3
 3593 0261 0E       		.uleb128 0xe
 3594 0262 3A       		.uleb128 0x3a
 3595 0263 0B       		.uleb128 0xb
 3596 0264 3B       		.uleb128 0x3b
 3597 0265 0B       		.uleb128 0xb
 3598 0266 49       		.uleb128 0x49
 3599 0267 13       		.uleb128 0x13
 3600 0268 00       		.byte	0
 3601 0269 00       		.byte	0
 3602 026a 2D       		.uleb128 0x2d
 3603 026b 2E       		.uleb128 0x2e
 3604 026c 01       		.byte	0x1
 3605 026d 31       		.uleb128 0x31
 3606 026e 13       		.uleb128 0x13
 3607 026f 8740     		.uleb128 0x2007
 3608 0271 0E       		.uleb128 0xe
ARM GAS  C:\Users\Vergil\AppData\Local\Temp\ccSnTvXE.s 			page 65


 3609 0272 11       		.uleb128 0x11
 3610 0273 01       		.uleb128 0x1
 3611 0274 12       		.uleb128 0x12
 3612 0275 01       		.uleb128 0x1
 3613 0276 40       		.uleb128 0x40
 3614 0277 0A       		.uleb128 0xa
 3615 0278 64       		.uleb128 0x64
 3616 0279 13       		.uleb128 0x13
 3617 027a 9742     		.uleb128 0x2117
 3618 027c 0C       		.uleb128 0xc
 3619 027d 01       		.uleb128 0x1
 3620 027e 13       		.uleb128 0x13
 3621 027f 00       		.byte	0
 3622 0280 00       		.byte	0
 3623 0281 2E       		.uleb128 0x2e
 3624 0282 05       		.uleb128 0x5
 3625 0283 00       		.byte	0
 3626 0284 31       		.uleb128 0x31
 3627 0285 13       		.uleb128 0x13
 3628 0286 02       		.uleb128 0x2
 3629 0287 0A       		.uleb128 0xa
 3630 0288 00       		.byte	0
 3631 0289 00       		.byte	0
 3632 028a 2F       		.uleb128 0x2f
 3633 028b 05       		.uleb128 0x5
 3634 028c 00       		.byte	0
 3635 028d 03       		.uleb128 0x3
 3636 028e 0E       		.uleb128 0xe
 3637 028f 3A       		.uleb128 0x3a
 3638 0290 0B       		.uleb128 0xb
 3639 0291 3B       		.uleb128 0x3b
 3640 0292 0B       		.uleb128 0xb
 3641 0293 49       		.uleb128 0x49
 3642 0294 13       		.uleb128 0x13
 3643 0295 02       		.uleb128 0x2
 3644 0296 06       		.uleb128 0x6
 3645 0297 00       		.byte	0
 3646 0298 00       		.byte	0
 3647 0299 30       		.uleb128 0x30
 3648 029a 0B       		.uleb128 0xb
 3649 029b 01       		.byte	0x1
 3650 029c 55       		.uleb128 0x55
 3651 029d 06       		.uleb128 0x6
 3652 029e 00       		.byte	0
 3653 029f 00       		.byte	0
 3654 02a0 31       		.uleb128 0x31
 3655 02a1 34       		.uleb128 0x34
 3656 02a2 00       		.byte	0
 3657 02a3 03       		.uleb128 0x3
 3658 02a4 0E       		.uleb128 0xe
 3659 02a5 3A       		.uleb128 0x3a
 3660 02a6 0B       		.uleb128 0xb
 3661 02a7 3B       		.uleb128 0x3b
 3662 02a8 0B       		.uleb128 0xb
 3663 02a9 49       		.uleb128 0x49
 3664 02aa 13       		.uleb128 0x13
 3665 02ab 02       		.uleb128 0x2
ARM GAS  C:\Users\Vergil\AppData\Local\Temp\ccSnTvXE.s 			page 66


 3666 02ac 06       		.uleb128 0x6
 3667 02ad 00       		.byte	0
 3668 02ae 00       		.byte	0
 3669 02af 32       		.uleb128 0x32
 3670 02b0 34       		.uleb128 0x34
 3671 02b1 00       		.byte	0
 3672 02b2 03       		.uleb128 0x3
 3673 02b3 0E       		.uleb128 0xe
 3674 02b4 3A       		.uleb128 0x3a
 3675 02b5 0B       		.uleb128 0xb
 3676 02b6 3B       		.uleb128 0x3b
 3677 02b7 0B       		.uleb128 0xb
 3678 02b8 49       		.uleb128 0x49
 3679 02b9 13       		.uleb128 0x13
 3680 02ba 02       		.uleb128 0x2
 3681 02bb 0A       		.uleb128 0xa
 3682 02bc 00       		.byte	0
 3683 02bd 00       		.byte	0
 3684 02be 33       		.uleb128 0x33
 3685 02bf 1D       		.uleb128 0x1d
 3686 02c0 01       		.byte	0x1
 3687 02c1 31       		.uleb128 0x31
 3688 02c2 13       		.uleb128 0x13
 3689 02c3 52       		.uleb128 0x52
 3690 02c4 01       		.uleb128 0x1
 3691 02c5 55       		.uleb128 0x55
 3692 02c6 06       		.uleb128 0x6
 3693 02c7 58       		.uleb128 0x58
 3694 02c8 0B       		.uleb128 0xb
 3695 02c9 59       		.uleb128 0x59
 3696 02ca 0B       		.uleb128 0xb
 3697 02cb 01       		.uleb128 0x1
 3698 02cc 13       		.uleb128 0x13
 3699 02cd 00       		.byte	0
 3700 02ce 00       		.byte	0
 3701 02cf 34       		.uleb128 0x34
 3702 02d0 05       		.uleb128 0x5
 3703 02d1 00       		.byte	0
 3704 02d2 31       		.uleb128 0x31
 3705 02d3 13       		.uleb128 0x13
 3706 02d4 00       		.byte	0
 3707 02d5 00       		.byte	0
 3708 02d6 35       		.uleb128 0x35
 3709 02d7 05       		.uleb128 0x5
 3710 02d8 00       		.byte	0
 3711 02d9 31       		.uleb128 0x31
 3712 02da 13       		.uleb128 0x13
 3713 02db 02       		.uleb128 0x2
 3714 02dc 06       		.uleb128 0x6
 3715 02dd 00       		.byte	0
 3716 02de 00       		.byte	0
 3717 02df 36       		.uleb128 0x36
 3718 02e0 898201   		.uleb128 0x4109
 3719 02e3 00       		.byte	0
 3720 02e4 11       		.uleb128 0x11
 3721 02e5 01       		.uleb128 0x1
 3722 02e6 31       		.uleb128 0x31
ARM GAS  C:\Users\Vergil\AppData\Local\Temp\ccSnTvXE.s 			page 67


 3723 02e7 13       		.uleb128 0x13
 3724 02e8 00       		.byte	0
 3725 02e9 00       		.byte	0
 3726 02ea 37       		.uleb128 0x37
 3727 02eb 898201   		.uleb128 0x4109
 3728 02ee 01       		.byte	0x1
 3729 02ef 11       		.uleb128 0x11
 3730 02f0 01       		.uleb128 0x1
 3731 02f1 31       		.uleb128 0x31
 3732 02f2 13       		.uleb128 0x13
 3733 02f3 01       		.uleb128 0x1
 3734 02f4 13       		.uleb128 0x13
 3735 02f5 00       		.byte	0
 3736 02f6 00       		.byte	0
 3737 02f7 38       		.uleb128 0x38
 3738 02f8 05       		.uleb128 0x5
 3739 02f9 00       		.byte	0
 3740 02fa 03       		.uleb128 0x3
 3741 02fb 0E       		.uleb128 0xe
 3742 02fc 3A       		.uleb128 0x3a
 3743 02fd 0B       		.uleb128 0xb
 3744 02fe 3B       		.uleb128 0x3b
 3745 02ff 0B       		.uleb128 0xb
 3746 0300 49       		.uleb128 0x49
 3747 0301 13       		.uleb128 0x13
 3748 0302 02       		.uleb128 0x2
 3749 0303 0A       		.uleb128 0xa
 3750 0304 00       		.byte	0
 3751 0305 00       		.byte	0
 3752 0306 39       		.uleb128 0x39
 3753 0307 34       		.uleb128 0x34
 3754 0308 00       		.byte	0
 3755 0309 03       		.uleb128 0x3
 3756 030a 0E       		.uleb128 0xe
 3757 030b 3A       		.uleb128 0x3a
 3758 030c 0B       		.uleb128 0xb
 3759 030d 3B       		.uleb128 0x3b
 3760 030e 05       		.uleb128 0x5
 3761 030f 49       		.uleb128 0x49
 3762 0310 13       		.uleb128 0x13
 3763 0311 3F       		.uleb128 0x3f
 3764 0312 0C       		.uleb128 0xc
 3765 0313 3C       		.uleb128 0x3c
 3766 0314 0C       		.uleb128 0xc
 3767 0315 00       		.byte	0
 3768 0316 00       		.byte	0
 3769 0317 3A       		.uleb128 0x3a
 3770 0318 34       		.uleb128 0x34
 3771 0319 00       		.byte	0
 3772 031a 47       		.uleb128 0x47
 3773 031b 13       		.uleb128 0x13
 3774 031c 3A       		.uleb128 0x3a
 3775 031d 0B       		.uleb128 0xb
 3776 031e 8740     		.uleb128 0x2007
 3777 0320 0E       		.uleb128 0xe
 3778 0321 02       		.uleb128 0x2
 3779 0322 0A       		.uleb128 0xa
ARM GAS  C:\Users\Vergil\AppData\Local\Temp\ccSnTvXE.s 			page 68


 3780 0323 00       		.byte	0
 3781 0324 00       		.byte	0
 3782 0325 3B       		.uleb128 0x3b
 3783 0326 2E       		.uleb128 0x2e
 3784 0327 01       		.byte	0x1
 3785 0328 3F       		.uleb128 0x3f
 3786 0329 0C       		.uleb128 0xc
 3787 032a 03       		.uleb128 0x3
 3788 032b 0E       		.uleb128 0xe
 3789 032c 3A       		.uleb128 0x3a
 3790 032d 0B       		.uleb128 0xb
 3791 032e 3B       		.uleb128 0x3b
 3792 032f 0B       		.uleb128 0xb
 3793 0330 49       		.uleb128 0x49
 3794 0331 13       		.uleb128 0x13
 3795 0332 3C       		.uleb128 0x3c
 3796 0333 0C       		.uleb128 0xc
 3797 0334 01       		.uleb128 0x1
 3798 0335 13       		.uleb128 0x13
 3799 0336 00       		.byte	0
 3800 0337 00       		.byte	0
 3801 0338 3C       		.uleb128 0x3c
 3802 0339 18       		.uleb128 0x18
 3803 033a 00       		.byte	0
 3804 033b 00       		.byte	0
 3805 033c 00       		.byte	0
 3806 033d 3D       		.uleb128 0x3d
 3807 033e 2E       		.uleb128 0x2e
 3808 033f 01       		.byte	0x1
 3809 0340 3F       		.uleb128 0x3f
 3810 0341 0C       		.uleb128 0xc
 3811 0342 03       		.uleb128 0x3
 3812 0343 0E       		.uleb128 0xe
 3813 0344 3A       		.uleb128 0x3a
 3814 0345 0B       		.uleb128 0xb
 3815 0346 3B       		.uleb128 0x3b
 3816 0347 0B       		.uleb128 0xb
 3817 0348 3C       		.uleb128 0x3c
 3818 0349 0C       		.uleb128 0xc
 3819 034a 01       		.uleb128 0x1
 3820 034b 13       		.uleb128 0x13
 3821 034c 00       		.byte	0
 3822 034d 00       		.byte	0
 3823 034e 3E       		.uleb128 0x3e
 3824 034f 2E       		.uleb128 0x2e
 3825 0350 01       		.byte	0x1
 3826 0351 3F       		.uleb128 0x3f
 3827 0352 0C       		.uleb128 0xc
 3828 0353 03       		.uleb128 0x3
 3829 0354 0E       		.uleb128 0xe
 3830 0355 3A       		.uleb128 0x3a
 3831 0356 0B       		.uleb128 0xb
 3832 0357 3B       		.uleb128 0x3b
 3833 0358 0B       		.uleb128 0xb
 3834 0359 49       		.uleb128 0x49
 3835 035a 13       		.uleb128 0x13
 3836 035b 3C       		.uleb128 0x3c
ARM GAS  C:\Users\Vergil\AppData\Local\Temp\ccSnTvXE.s 			page 69


 3837 035c 0C       		.uleb128 0xc
 3838 035d 00       		.byte	0
 3839 035e 00       		.byte	0
 3840 035f 00       		.byte	0
 3841              		.section	.debug_loc,"",%progbits
 3842              	.Ldebug_loc0:
 3843              	.LLST0:
 3844 0000 00000000 		.4byte	.LFB121
 3845 0004 02000000 		.4byte	.LCFI0
 3846 0008 0200     		.2byte	0x2
 3847 000a 7D       		.byte	0x7d
 3848 000b 00       		.sleb128 0
 3849 000c 02000000 		.4byte	.LCFI0
 3850 0010 22000000 		.4byte	.LCFI1
 3851 0014 0200     		.2byte	0x2
 3852 0016 7D       		.byte	0x7d
 3853 0017 14       		.sleb128 20
 3854 0018 22000000 		.4byte	.LCFI1
 3855 001c 54000000 		.4byte	.LFE121
 3856 0020 0200     		.2byte	0x2
 3857 0022 7D       		.byte	0x7d
 3858 0023 30       		.sleb128 48
 3859 0024 00000000 		.4byte	0
 3860 0028 00000000 		.4byte	0
 3861              	.LLST1:
 3862 002c 00000000 		.4byte	.LVL0
 3863 0030 20000000 		.4byte	.LVL1
 3864 0034 0100     		.2byte	0x1
 3865 0036 50       		.byte	0x50
 3866 0037 20000000 		.4byte	.LVL1
 3867 003b 54000000 		.4byte	.LFE121
 3868 003f 0400     		.2byte	0x4
 3869 0041 F3       		.byte	0xf3
 3870 0042 01       		.uleb128 0x1
 3871 0043 50       		.byte	0x50
 3872 0044 9F       		.byte	0x9f
 3873 0045 00000000 		.4byte	0
 3874 0049 00000000 		.4byte	0
 3875              	.LLST2:
 3876 004d 00000000 		.4byte	.LFB125
 3877 0051 04000000 		.4byte	.LCFI2
 3878 0055 0200     		.2byte	0x2
 3879 0057 7D       		.byte	0x7d
 3880 0058 00       		.sleb128 0
 3881 0059 04000000 		.4byte	.LCFI2
 3882 005d 06000000 		.4byte	.LCFI3
 3883 0061 0200     		.2byte	0x2
 3884 0063 7D       		.byte	0x7d
 3885 0064 24       		.sleb128 36
 3886 0065 06000000 		.4byte	.LCFI3
 3887 0069 4C010000 		.4byte	.LFE125
 3888 006d 0300     		.2byte	0x3
 3889 006f 7D       		.byte	0x7d
 3890 0070 E800     		.sleb128 104
 3891 0072 00000000 		.4byte	0
 3892 0076 00000000 		.4byte	0
 3893              	.LLST3:
ARM GAS  C:\Users\Vergil\AppData\Local\Temp\ccSnTvXE.s 			page 70


 3894 007a 00000000 		.4byte	.LVL4
 3895 007e 12000000 		.4byte	.LVL6
 3896 0082 0100     		.2byte	0x1
 3897 0084 50       		.byte	0x50
 3898 0085 12000000 		.4byte	.LVL6
 3899 0089 3C000000 		.4byte	.LVL12
 3900 008d 0100     		.2byte	0x1
 3901 008f 55       		.byte	0x55
 3902 0090 3C000000 		.4byte	.LVL12
 3903 0094 42000000 		.4byte	.LVL13
 3904 0098 0400     		.2byte	0x4
 3905 009a F3       		.byte	0xf3
 3906 009b 01       		.uleb128 0x1
 3907 009c 50       		.byte	0x50
 3908 009d 9F       		.byte	0x9f
 3909 009e 42000000 		.4byte	.LVL13
 3910 00a2 82000000 		.4byte	.LVL20
 3911 00a6 0100     		.2byte	0x1
 3912 00a8 55       		.byte	0x55
 3913 00a9 82000000 		.4byte	.LVL20
 3914 00ad 4C010000 		.4byte	.LFE125
 3915 00b1 0400     		.2byte	0x4
 3916 00b3 F3       		.byte	0xf3
 3917 00b4 01       		.uleb128 0x1
 3918 00b5 50       		.byte	0x50
 3919 00b6 9F       		.byte	0x9f
 3920 00b7 00000000 		.4byte	0
 3921 00bb 00000000 		.4byte	0
 3922              	.LLST4:
 3923 00bf 00000000 		.4byte	.LVL4
 3924 00c3 1B000000 		.4byte	.LVL7-1
 3925 00c7 0100     		.2byte	0x1
 3926 00c9 51       		.byte	0x51
 3927 00ca 1B000000 		.4byte	.LVL7-1
 3928 00ce 4C010000 		.4byte	.LFE125
 3929 00d2 0100     		.2byte	0x1
 3930 00d4 54       		.byte	0x54
 3931 00d5 00000000 		.4byte	0
 3932 00d9 00000000 		.4byte	0
 3933              	.LLST5:
 3934 00dd 00000000 		.4byte	.LVL4
 3935 00e1 32000000 		.4byte	.LVL9
 3936 00e5 0200     		.2byte	0x2
 3937 00e7 30       		.byte	0x30
 3938 00e8 9F       		.byte	0x9f
 3939 00e9 32000000 		.4byte	.LVL9
 3940 00ed 34000000 		.4byte	.LVL10
 3941 00f1 0100     		.2byte	0x1
 3942 00f3 50       		.byte	0x50
 3943 00f4 34000000 		.4byte	.LVL10
 3944 00f8 3C000000 		.4byte	.LVL12
 3945 00fc 0100     		.2byte	0x1
 3946 00fe 56       		.byte	0x56
 3947 00ff 42000000 		.4byte	.LVL13
 3948 0103 5A000000 		.4byte	.LVL16
 3949 0107 0100     		.2byte	0x1
 3950 0109 56       		.byte	0x56
ARM GAS  C:\Users\Vergil\AppData\Local\Temp\ccSnTvXE.s 			page 71


 3951 010a 5A000000 		.4byte	.LVL16
 3952 010e 5C000000 		.4byte	.LVL17
 3953 0112 0100     		.2byte	0x1
 3954 0114 50       		.byte	0x50
 3955 0115 5C000000 		.4byte	.LVL17
 3956 0119 C8000000 		.4byte	.LVL21
 3957 011d 0100     		.2byte	0x1
 3958 011f 56       		.byte	0x56
 3959 0120 00000000 		.4byte	0
 3960 0124 00000000 		.4byte	0
 3961              	.LLST6:
 3962 0128 7A000000 		.4byte	.LVL19
 3963 012c 08010000 		.4byte	.LVL23
 3964 0130 0900     		.2byte	0x9
 3965 0132 73       		.byte	0x73
 3966 0133 00       		.sleb128 0
 3967 0134 08       		.byte	0x8
 3968 0135 7F       		.byte	0x7f
 3969 0136 1A       		.byte	0x1a
 3970 0137 08       		.byte	0x8
 3971 0138 FF       		.byte	0xff
 3972 0139 1A       		.byte	0x1a
 3973 013a 9F       		.byte	0x9f
 3974 013b 08010000 		.4byte	.LVL23
 3975 013f 4C010000 		.4byte	.LFE125
 3976 0143 0B00     		.2byte	0xb
 3977 0145 91       		.byte	0x91
 3978 0146 50       		.sleb128 -48
 3979 0147 94       		.byte	0x94
 3980 0148 01       		.byte	0x1
 3981 0149 08       		.byte	0x8
 3982 014a 7F       		.byte	0x7f
 3983 014b 1A       		.byte	0x1a
 3984 014c 08       		.byte	0x8
 3985 014d FF       		.byte	0xff
 3986 014e 1A       		.byte	0x1a
 3987 014f 9F       		.byte	0x9f
 3988 0150 00000000 		.4byte	0
 3989 0154 00000000 		.4byte	0
 3990              	.LLST7:
 3991 0158 D4000000 		.4byte	.LVL22
 3992 015c 0C010000 		.4byte	.LVL24
 3993 0160 0600     		.2byte	0x6
 3994 0162 70       		.byte	0x70
 3995 0163 00       		.sleb128 0
 3996 0164 08       		.byte	0x8
 3997 0165 FF       		.byte	0xff
 3998 0166 1A       		.byte	0x1a
 3999 0167 9F       		.byte	0x9f
 4000 0168 0C010000 		.4byte	.LVL24
 4001 016c 4C010000 		.4byte	.LFE125
 4002 0170 0800     		.2byte	0x8
 4003 0172 91       		.byte	0x91
 4004 0173 51       		.sleb128 -47
 4005 0174 94       		.byte	0x94
 4006 0175 01       		.byte	0x1
 4007 0176 08       		.byte	0x8
ARM GAS  C:\Users\Vergil\AppData\Local\Temp\ccSnTvXE.s 			page 72


 4008 0177 FF       		.byte	0xff
 4009 0178 1A       		.byte	0x1a
 4010 0179 9F       		.byte	0x9f
 4011 017a 00000000 		.4byte	0
 4012 017e 00000000 		.4byte	0
 4013              	.LLST8:
 4014 0182 00000000 		.4byte	.LFB126
 4015 0186 02000000 		.4byte	.LCFI4
 4016 018a 0200     		.2byte	0x2
 4017 018c 7D       		.byte	0x7d
 4018 018d 00       		.sleb128 0
 4019 018e 02000000 		.4byte	.LCFI4
 4020 0192 06000000 		.4byte	.LCFI5
 4021 0196 0200     		.2byte	0x2
 4022 0198 7D       		.byte	0x7d
 4023 0199 10       		.sleb128 16
 4024 019a 06000000 		.4byte	.LCFI5
 4025 019e 08000000 		.4byte	.LCFI6
 4026 01a2 0200     		.2byte	0x2
 4027 01a4 7D       		.byte	0x7d
 4028 01a5 34       		.sleb128 52
 4029 01a6 08000000 		.4byte	.LCFI6
 4030 01aa 32010000 		.4byte	.LFE126
 4031 01ae 0300     		.2byte	0x3
 4032 01b0 7D       		.byte	0x7d
 4033 01b1 E000     		.sleb128 96
 4034 01b3 00000000 		.4byte	0
 4035 01b7 00000000 		.4byte	0
 4036              	.LLST9:
 4037 01bb 00000000 		.4byte	.LVL26
 4038 01bf 68000000 		.4byte	.LVL31
 4039 01c3 0100     		.2byte	0x1
 4040 01c5 50       		.byte	0x50
 4041 01c6 68000000 		.4byte	.LVL31
 4042 01ca 32010000 		.4byte	.LFE126
 4043 01ce 0100     		.2byte	0x1
 4044 01d0 54       		.byte	0x54
 4045 01d1 00000000 		.4byte	0
 4046 01d5 00000000 		.4byte	0
 4047              	.LLST10:
 4048 01d9 00000000 		.4byte	.LVL26
 4049 01dd 1C010000 		.4byte	.LVL37
 4050 01e1 0200     		.2byte	0x2
 4051 01e3 30       		.byte	0x30
 4052 01e4 9F       		.byte	0x9f
 4053 01e5 1C010000 		.4byte	.LVL37
 4054 01e9 1E010000 		.4byte	.LVL38
 4055 01ed 0100     		.2byte	0x1
 4056 01ef 50       		.byte	0x50
 4057 01f0 1E010000 		.4byte	.LVL38
 4058 01f4 32010000 		.4byte	.LFE126
 4059 01f8 0100     		.2byte	0x1
 4060 01fa 55       		.byte	0x55
 4061 01fb 00000000 		.4byte	0
 4062 01ff 00000000 		.4byte	0
 4063              	.LLST11:
 4064 0203 2A000000 		.4byte	.LVL27
ARM GAS  C:\Users\Vergil\AppData\Local\Temp\ccSnTvXE.s 			page 73


 4065 0207 34000000 		.4byte	.LVL28
 4066 020b 0100     		.2byte	0x1
 4067 020d 51       		.byte	0x51
 4068 020e 34000000 		.4byte	.LVL28
 4069 0212 98000000 		.4byte	.LVL33
 4070 0216 0100     		.2byte	0x1
 4071 0218 5C       		.byte	0x5c
 4072 0219 98000000 		.4byte	.LVL33
 4073 021d 32010000 		.4byte	.LFE126
 4074 0221 0200     		.2byte	0x2
 4075 0223 91       		.byte	0x91
 4076 0224 54       		.sleb128 -44
 4077 0225 00000000 		.4byte	0
 4078 0229 00000000 		.4byte	0
 4079              	.LLST12:
 4080 022d 2A000000 		.4byte	.LVL27
 4081 0231 36000000 		.4byte	.LVL29
 4082 0235 0100     		.2byte	0x1
 4083 0237 54       		.byte	0x54
 4084 0238 36000000 		.4byte	.LVL29
 4085 023c 32010000 		.4byte	.LFE126
 4086 0240 0200     		.2byte	0x2
 4087 0242 91       		.byte	0x91
 4088 0243 5C       		.sleb128 -36
 4089 0244 00000000 		.4byte	0
 4090 0248 00000000 		.4byte	0
 4091              	.LLST13:
 4092 024c 2A000000 		.4byte	.LVL27
 4093 0250 76000000 		.4byte	.LVL32
 4094 0254 0100     		.2byte	0x1
 4095 0256 55       		.byte	0x55
 4096 0257 76000000 		.4byte	.LVL32
 4097 025b 32010000 		.4byte	.LFE126
 4098 025f 0200     		.2byte	0x2
 4099 0261 91       		.byte	0x91
 4100 0262 58       		.sleb128 -40
 4101 0263 00000000 		.4byte	0
 4102 0267 00000000 		.4byte	0
 4103              	.LLST14:
 4104 026b 38000000 		.4byte	.LVL30
 4105 026f A4000000 		.4byte	.LVL34
 4106 0273 0100     		.2byte	0x1
 4107 0275 56       		.byte	0x56
 4108 0276 A4000000 		.4byte	.LVL34
 4109 027a 32010000 		.4byte	.LFE126
 4110 027e 0600     		.2byte	0x6
 4111 0280 91       		.byte	0x91
 4112 0281 68       		.sleb128 -24
 4113 0282 06       		.byte	0x6
 4114 0283 23       		.byte	0x23
 4115 0284 01       		.uleb128 0x1
 4116 0285 9F       		.byte	0x9f
 4117 0286 00000000 		.4byte	0
 4118 028a 00000000 		.4byte	0
 4119              		.section	.debug_aranges,"",%progbits
 4120 0000 34000000 		.4byte	0x34
 4121 0004 0200     		.2byte	0x2
ARM GAS  C:\Users\Vergil\AppData\Local\Temp\ccSnTvXE.s 			page 74


 4122 0006 00000000 		.4byte	.Ldebug_info0
 4123 000a 04       		.byte	0x4
 4124 000b 00       		.byte	0
 4125 000c 0000     		.2byte	0
 4126 000e 0000     		.2byte	0
 4127 0010 00000000 		.4byte	.LFB121
 4128 0014 54000000 		.4byte	.LFE121-.LFB121
 4129 0018 00000000 		.4byte	.LFB123
 4130 001c 04000000 		.4byte	.LFE123-.LFB123
 4131 0020 00000000 		.4byte	.LFB125
 4132 0024 4C010000 		.4byte	.LFE125-.LFB125
 4133 0028 00000000 		.4byte	.LFB126
 4134 002c 32010000 		.4byte	.LFE126-.LFB126
 4135 0030 00000000 		.4byte	0
 4136 0034 00000000 		.4byte	0
 4137              		.section	.debug_ranges,"",%progbits
 4138              	.Ldebug_ranges0:
 4139 0000 06000000 		.4byte	.LBB31
 4140 0004 0A000000 		.4byte	.LBE31
 4141 0008 0C000000 		.4byte	.LBB108
 4142 000c 16000000 		.4byte	.LBE108
 4143 0010 18000000 		.4byte	.LBB109
 4144 0014 3A000000 		.4byte	.LBE109
 4145 0018 42000000 		.4byte	.LBB110
 4146 001c 4C010000 		.4byte	.LBE110
 4147 0020 00000000 		.4byte	0
 4148 0024 00000000 		.4byte	0
 4149 0028 8C000000 		.4byte	.LBB32
 4150 002c 98000000 		.4byte	.LBE32
 4151 0030 A0000000 		.4byte	.LBB54
 4152 0034 A4000000 		.4byte	.LBE54
 4153 0038 A8000000 		.4byte	.LBB62
 4154 003c AC000000 		.4byte	.LBE62
 4155 0040 B6000000 		.4byte	.LBB66
 4156 0044 BC000000 		.4byte	.LBE66
 4157 0048 CC000000 		.4byte	.LBB76
 4158 004c D0000000 		.4byte	.LBE76
 4159 0050 00000000 		.4byte	0
 4160 0054 00000000 		.4byte	0
 4161 0058 98000000 		.4byte	.LBB38
 4162 005c 9C000000 		.4byte	.LBE38
 4163 0060 B0000000 		.4byte	.LBB64
 4164 0064 B4000000 		.4byte	.LBE64
 4165 0068 BC000000 		.4byte	.LBB67
 4166 006c C0000000 		.4byte	.LBE67
 4167 0070 E0000000 		.4byte	.LBB80
 4168 0074 E4000000 		.4byte	.LBE80
 4169 0078 E6000000 		.4byte	.LBB82
 4170 007c EA000000 		.4byte	.LBE82
 4171 0080 F2000000 		.4byte	.LBB85
 4172 0084 F6000000 		.4byte	.LBE85
 4173 0088 FC000000 		.4byte	.LBB96
 4174 008c 00010000 		.4byte	.LBE96
 4175 0090 00000000 		.4byte	0
 4176 0094 00000000 		.4byte	0
 4177 0098 9C000000 		.4byte	.LBB46
 4178 009c A0000000 		.4byte	.LBE46
ARM GAS  C:\Users\Vergil\AppData\Local\Temp\ccSnTvXE.s 			page 75


 4179 00a0 AC000000 		.4byte	.LBB63
 4180 00a4 B0000000 		.4byte	.LBE63
 4181 00a8 B4000000 		.4byte	.LBB65
 4182 00ac B6000000 		.4byte	.LBE65
 4183 00b0 C8000000 		.4byte	.LBB75
 4184 00b4 CC000000 		.4byte	.LBE75
 4185 00b8 D4000000 		.4byte	.LBB77
 4186 00bc D8000000 		.4byte	.LBE77
 4187 00c0 EC000000 		.4byte	.LBB84
 4188 00c4 F2000000 		.4byte	.LBE84
 4189 00c8 1C010000 		.4byte	.LBB103
 4190 00cc 20010000 		.4byte	.LBE103
 4191 00d0 00000000 		.4byte	0
 4192 00d4 00000000 		.4byte	0
 4193 00d8 A4000000 		.4byte	.LBB55
 4194 00dc A8000000 		.4byte	.LBE55
 4195 00e0 C0000000 		.4byte	.LBB68
 4196 00e4 C4000000 		.4byte	.LBE68
 4197 00e8 DC000000 		.4byte	.LBB79
 4198 00ec E0000000 		.4byte	.LBE79
 4199 00f0 EA000000 		.4byte	.LBB83
 4200 00f4 EC000000 		.4byte	.LBE83
 4201 00f8 10010000 		.4byte	.LBB100
 4202 00fc 14010000 		.4byte	.LBE100
 4203 0100 30010000 		.4byte	.LBB107
 4204 0104 34010000 		.4byte	.LBE107
 4205 0108 00000000 		.4byte	0
 4206 010c 00000000 		.4byte	0
 4207 0110 C4000000 		.4byte	.LBB69
 4208 0114 C8000000 		.4byte	.LBE69
 4209 0118 D8000000 		.4byte	.LBB78
 4210 011c DC000000 		.4byte	.LBE78
 4211 0120 E4000000 		.4byte	.LBB81
 4212 0124 E6000000 		.4byte	.LBE81
 4213 0128 00010000 		.4byte	.LBB97
 4214 012c 08010000 		.4byte	.LBE97
 4215 0130 20010000 		.4byte	.LBB104
 4216 0134 24010000 		.4byte	.LBE104
 4217 0138 00000000 		.4byte	0
 4218 013c 00000000 		.4byte	0
 4219 0140 F6000000 		.4byte	.LBB86
 4220 0144 F8000000 		.4byte	.LBE86
 4221 0148 08010000 		.4byte	.LBB98
 4222 014c 0C010000 		.4byte	.LBE98
 4223 0150 14010000 		.4byte	.LBB101
 4224 0154 18010000 		.4byte	.LBE101
 4225 0158 24010000 		.4byte	.LBB105
 4226 015c 28010000 		.4byte	.LBE105
 4227 0160 00000000 		.4byte	0
 4228 0164 00000000 		.4byte	0
 4229 0168 F8000000 		.4byte	.LBB91
 4230 016c FC000000 		.4byte	.LBE91
 4231 0170 0C010000 		.4byte	.LBB99
 4232 0174 10010000 		.4byte	.LBE99
 4233 0178 18010000 		.4byte	.LBB102
 4234 017c 1C010000 		.4byte	.LBE102
 4235 0180 28010000 		.4byte	.LBB106
ARM GAS  C:\Users\Vergil\AppData\Local\Temp\ccSnTvXE.s 			page 76


 4236 0184 2C010000 		.4byte	.LBE106
 4237 0188 00000000 		.4byte	0
 4238 018c 00000000 		.4byte	0
 4239 0190 0E000000 		.4byte	.LBB111
 4240 0194 64000000 		.4byte	.LBE111
 4241 0198 66000000 		.4byte	.LBB206
 4242 019c 22010000 		.4byte	.LBE206
 4243 01a0 00000000 		.4byte	0
 4244 01a4 00000000 		.4byte	0
 4245 01a8 0E000000 		.4byte	.LBB112
 4246 01ac 12000000 		.4byte	.LBE112
 4247 01b0 18000000 		.4byte	.LBB129
 4248 01b4 1C000000 		.4byte	.LBE129
 4249 01b8 2A000000 		.4byte	.LBB141
 4250 01bc 2E000000 		.4byte	.LBE141
 4251 01c0 30000000 		.4byte	.LBB143
 4252 01c4 34000000 		.4byte	.LBE143
 4253 01c8 38000000 		.4byte	.LBB154
 4254 01cc 3C000000 		.4byte	.LBE154
 4255 01d0 84000000 		.4byte	.LBB187
 4256 01d4 88000000 		.4byte	.LBE187
 4257 01d8 8C000000 		.4byte	.LBB189
 4258 01dc 90000000 		.4byte	.LBE189
 4259 01e0 BC000000 		.4byte	.LBB200
 4260 01e4 C0000000 		.4byte	.LBE200
 4261 01e8 00000000 		.4byte	0
 4262 01ec 00000000 		.4byte	0
 4263 01f0 12000000 		.4byte	.LBB121
 4264 01f4 14000000 		.4byte	.LBE121
 4265 01f8 1C000000 		.4byte	.LBB130
 4266 01fc 22000000 		.4byte	.LBE130
 4267 0200 2E000000 		.4byte	.LBB142
 4268 0204 30000000 		.4byte	.LBE142
 4269 0208 3E000000 		.4byte	.LBB156
 4270 020c 42000000 		.4byte	.LBE156
 4271 0210 66000000 		.4byte	.LBB178
 4272 0214 68000000 		.4byte	.LBE178
 4273 0218 6C000000 		.4byte	.LBB180
 4274 021c 74000000 		.4byte	.LBE180
 4275 0220 A8000000 		.4byte	.LBB197
 4276 0224 AC000000 		.4byte	.LBE197
 4277 0228 00000000 		.4byte	0
 4278 022c 00000000 		.4byte	0
 4279 0230 22000000 		.4byte	.LBB131
 4280 0234 24000000 		.4byte	.LBE131
 4281 0238 3C000000 		.4byte	.LBB155
 4282 023c 3E000000 		.4byte	.LBE155
 4283 0240 50000000 		.4byte	.LBB174
 4284 0244 54000000 		.4byte	.LBE174
 4285 0248 74000000 		.4byte	.LBB181
 4286 024c 76000000 		.4byte	.LBE181
 4287 0250 7A000000 		.4byte	.LBB183
 4288 0254 7E000000 		.4byte	.LBE183
 4289 0258 82000000 		.4byte	.LBB186
 4290 025c 84000000 		.4byte	.LBE186
 4291 0260 90000000 		.4byte	.LBB190
 4292 0264 94000000 		.4byte	.LBE190
ARM GAS  C:\Users\Vergil\AppData\Local\Temp\ccSnTvXE.s 			page 77


 4293 0268 98000000 		.4byte	.LBB192
 4294 026c 9C000000 		.4byte	.LBE192
 4295 0270 A4000000 		.4byte	.LBB196
 4296 0274 A8000000 		.4byte	.LBE196
 4297 0278 00000000 		.4byte	0
 4298 027c 00000000 		.4byte	0
 4299 0280 34000000 		.4byte	.LBB144
 4300 0284 36000000 		.4byte	.LBE144
 4301 0288 46000000 		.4byte	.LBB164
 4302 028c 4A000000 		.4byte	.LBE164
 4303 0290 54000000 		.4byte	.LBB175
 4304 0294 56000000 		.4byte	.LBE175
 4305 0298 62000000 		.4byte	.LBB177
 4306 029c 64000000 		.4byte	.LBE177
 4307 02a0 68000000 		.4byte	.LBB179
 4308 02a4 6C000000 		.4byte	.LBE179
 4309 02a8 A0000000 		.4byte	.LBB194
 4310 02ac A2000000 		.4byte	.LBE194
 4311 02b0 B6000000 		.4byte	.LBB199
 4312 02b4 BA000000 		.4byte	.LBE199
 4313 02b8 C0000000 		.4byte	.LBB201
 4314 02bc C4000000 		.4byte	.LBE201
 4315 02c0 CE000000 		.4byte	.LBB203
 4316 02c4 D2000000 		.4byte	.LBE203
 4317 02c8 00000000 		.4byte	0
 4318 02cc 00000000 		.4byte	0
 4319 02d0 42000000 		.4byte	.LBB157
 4320 02d4 46000000 		.4byte	.LBE157
 4321 02d8 80000000 		.4byte	.LBB185
 4322 02dc 82000000 		.4byte	.LBE185
 4323 02e0 88000000 		.4byte	.LBB188
 4324 02e4 8C000000 		.4byte	.LBE188
 4325 02e8 94000000 		.4byte	.LBB191
 4326 02ec 98000000 		.4byte	.LBE191
 4327 02f0 9C000000 		.4byte	.LBB193
 4328 02f4 A0000000 		.4byte	.LBE193
 4329 02f8 D6000000 		.4byte	.LBB204
 4330 02fc DA000000 		.4byte	.LBE204
 4331 0300 00000000 		.4byte	0
 4332 0304 00000000 		.4byte	0
 4333 0308 4A000000 		.4byte	.LBB165
 4334 030c 50000000 		.4byte	.LBE165
 4335 0310 56000000 		.4byte	.LBB176
 4336 0314 62000000 		.4byte	.LBE176
 4337 0318 76000000 		.4byte	.LBB182
 4338 031c 7A000000 		.4byte	.LBE182
 4339 0320 7E000000 		.4byte	.LBB184
 4340 0324 80000000 		.4byte	.LBE184
 4341 0328 A2000000 		.4byte	.LBB195
 4342 032c A4000000 		.4byte	.LBE195
 4343 0330 AE000000 		.4byte	.LBB198
 4344 0334 B2000000 		.4byte	.LBE198
 4345 0338 C4000000 		.4byte	.LBB202
 4346 033c C8000000 		.4byte	.LBE202
 4347 0340 DE000000 		.4byte	.LBB205
 4348 0344 E2000000 		.4byte	.LBE205
 4349 0348 00000000 		.4byte	0
ARM GAS  C:\Users\Vergil\AppData\Local\Temp\ccSnTvXE.s 			page 78


 4350 034c 00000000 		.4byte	0
 4351 0350 00000000 		.4byte	.LFB121
 4352 0354 54000000 		.4byte	.LFE121
 4353 0358 00000000 		.4byte	.LFB123
 4354 035c 04000000 		.4byte	.LFE123
 4355 0360 00000000 		.4byte	.LFB125
 4356 0364 4C010000 		.4byte	.LFE125
 4357 0368 00000000 		.4byte	.LFB126
 4358 036c 32010000 		.4byte	.LFE126
 4359 0370 00000000 		.4byte	0
 4360 0374 00000000 		.4byte	0
 4361              		.section	.debug_line,"",%progbits
 4362              	.Ldebug_line0:
 4363 0000 E0030000 		.section	.debug_str,"MS",%progbits,1
 4363      0200C202 
 4363      00000201 
 4363      FB0E0D00 
 4363      01010101 
 4364              	.LASF103:
 4365 0000 5354445F 		.ascii	"STD_DUTY_CYCLE\000"
 4365      44555459 
 4365      5F435943 
 4365      4C4500
 4366              	.LASF121:
 4367 000f 646D6172 		.ascii	"dmarx\000"
 4367      7800
 4368              	.LASF106:
 4369 0015 69326364 		.ascii	"i2cdutycycle_t\000"
 4369      75747963 
 4369      79636C65 
 4369      5F7400
 4370              	.LASF94:
 4371 0024 69326373 		.ascii	"i2cstate_t\000"
 4371      74617465 
 4371      5F7400
 4372              	.LASF61:
 4373 002f 4D304152 		.ascii	"M0AR\000"
 4373      00
 4374              	.LASF2:
 4375 0034 73697A65 		.ascii	"size_t\000"
 4375      5F7400
 4376              	.LASF24:
 4377 003b 7264796D 		.ascii	"rdymsg\000"
 4377      736700
 4378              	.LASF86:
 4379 0042 76656374 		.ascii	"vector\000"
 4379      6F7200
 4380              	.LASF140:
 4381 0049 5F5A4E36 		.ascii	"_ZN6DS130712decimalToBcdEi\000"
 4381      44533133 
 4381      30373132 
 4381      64656369 
 4381      6D616C54 
 4382              	.LASF76:
 4383 0064 54524953 		.ascii	"TRISE\000"
 4383      4500
 4384              	.LASF82:
ARM GAS  C:\Users\Vergil\AppData\Local\Temp\ccSnTvXE.s 			page 79


 4385 006a 73747265 		.ascii	"stream\000"
 4385      616D00
 4386              	.LASF13:
 4387 0071 6C6F6E67 		.ascii	"long long unsigned int\000"
 4387      206C6F6E 
 4387      6720756E 
 4387      7369676E 
 4387      65642069 
 4388              	.LASF25:
 4389 0088 65786974 		.ascii	"exitcode\000"
 4389      636F6465 
 4389      00
 4390              	.LASF151:
 4391 0091 69326352 		.ascii	"i2cReleaseBus\000"
 4391      656C6561 
 4391      73654275 
 4391      7300
 4392              	.LASF158:
 4393 009f 49544D5F 		.ascii	"ITM_RxBuffer\000"
 4393      52784275 
 4393      66666572 
 4393      00
 4394              	.LASF130:
 4395 00ac 746F5F73 		.ascii	"to_str\000"
 4395      747200
 4396              	.LASF137:
 4397 00b3 5F5A4E36 		.ascii	"_ZN6DS130712bcdToDecimalEi\000"
 4397      44533133 
 4397      30373132 
 4397      62636454 
 4397      6F446563 
 4398              	.LASF30:
 4399 00ce 705F7072 		.ascii	"p_prio\000"
 4399      696F00
 4400              	.LASF149:
 4401 00d5 6932634D 		.ascii	"i2cMasterTransmitTimeout\000"
 4401      61737465 
 4401      72547261 
 4401      6E736D69 
 4401      7454696D 
 4402              	.LASF157:
 4403 00ee 5F5A4E36 		.ascii	"_ZN6DS1307C2EP9I2CDriver\000"
 4403      44533133 
 4403      30374332 
 4403      45503949 
 4403      32434472 
 4404              	.LASF64:
 4405 0107 3138444D 		.ascii	"18DMA_Stream_TypeDef\000"
 4405      415F5374 
 4405      7265616D 
 4405      5F547970 
 4405      65446566 
 4406              	.LASF12:
 4407 011c 6C6F6E67 		.ascii	"long long int\000"
 4407      206C6F6E 
 4407      6720696E 
 4407      7400
ARM GAS  C:\Users\Vergil\AppData\Local\Temp\ccSnTvXE.s 			page 80


 4408              	.LASF1:
 4409 012a 7369676E 		.ascii	"signed char\000"
 4409      65642063 
 4409      68617200 
 4410              	.LASF109:
 4411 0136 636C6F63 		.ascii	"clock_speed\000"
 4411      6B5F7370 
 4411      65656400 
 4412              	.LASF11:
 4413 0142 6C6F6E67 		.ascii	"long unsigned int\000"
 4413      20756E73 
 4413      69676E65 
 4413      6420696E 
 4413      7400
 4414              	.LASF46:
 4415 0154 705F6D70 		.ascii	"p_mpool\000"
 4415      6F6F6C00 
 4416              	.LASF56:
 4417 015c 6D5F7175 		.ascii	"m_queue\000"
 4417      65756500 
 4418              	.LASF102:
 4419 0164 31346932 		.ascii	"14i2cdutycycle_t\000"
 4419      63647574 
 4419      79637963 
 4419      6C655F74 
 4419      00
 4420              	.LASF18:
 4421 0175 74736C69 		.ascii	"tslices_t\000"
 4421      6365735F 
 4421      7400
 4422              	.LASF127:
 4423 017f 79656172 		.ascii	"year\000"
 4423      00
 4424              	.LASF95:
 4425 0184 69326361 		.ascii	"i2caddr_t\000"
 4425      6464725F 
 4425      7400
 4426              	.LASF113:
 4427 018e 73746174 		.ascii	"state\000"
 4427      6500
 4428              	.LASF9:
 4429 0194 6C6F6E67 		.ascii	"long int\000"
 4429      20696E74 
 4429      00
 4430              	.LASF16:
 4431 019d 74737461 		.ascii	"tstate_t\000"
 4431      74655F74 
 4431      00
 4432              	.LASF107:
 4433 01a6 39493243 		.ascii	"9I2CConfig\000"
 4433      436F6E66 
 4433      696700
 4434              	.LASF78:
 4435 01b1 464C5452 		.ascii	"FLTR\000"
 4435      00
 4436              	.LASF118:
 4437 01b6 61646472 		.ascii	"addr\000"
ARM GAS  C:\Users\Vergil\AppData\Local\Temp\ccSnTvXE.s 			page 81


 4437      00
 4438              	.LASF141:
 4439 01bb 74686973 		.ascii	"this\000"
 4439      00
 4440              	.LASF32:
 4441 01c0 705F6E65 		.ascii	"p_newer\000"
 4441      77657200 
 4442              	.LASF119:
 4443 01c8 7278646D 		.ascii	"rxdmamode\000"
 4443      616D6F64 
 4443      6500
 4444              	.LASF147:
 4445 01d2 6D6F6E74 		.ascii	"months\000"
 4445      687300
 4446              	.LASF122:
 4447 01d9 646D6174 		.ascii	"dmatx\000"
 4447      7800
 4448              	.LASF153:
 4449 01df 474E5520 		.ascii	"GNU C++ 4.7.4 20140401 (release) [ARM/embedded-4_7-"
 4449      432B2B20 
 4449      342E372E 
 4449      34203230 
 4449      31343034 
 4450 0212 6272616E 		.ascii	"branch revision 209195]\000"
 4450      63682072 
 4450      65766973 
 4450      696F6E20 
 4450      32303931 
 4451              	.LASF99:
 4452 022a 4F504D4F 		.ascii	"OPMODE_SMBUS_HOST\000"
 4452      44455F53 
 4452      4D425553 
 4452      5F484F53 
 4452      5400
 4453              	.LASF128:
 4454 023c 746D7062 		.ascii	"tmpbuff\000"
 4454      75666600 
 4455              	.LASF51:
 4456 0244 72656761 		.ascii	"regarm_t\000"
 4456      726D5F74 
 4456      00
 4457              	.LASF85:
 4458 024d 73656C66 		.ascii	"selfindex\000"
 4458      696E6465 
 4458      7800
 4459              	.LASF108:
 4460 0257 6F705F6D 		.ascii	"op_mode\000"
 4460      6F646500 
 4461              	.LASF0:
 4462 025f 756E7369 		.ascii	"unsigned int\000"
 4462      676E6564 
 4462      20696E74 
 4462      00
 4463              	.LASF6:
 4464 026c 75696E74 		.ascii	"uint16_t\000"
 4464      31365F74 
 4464      00
ARM GAS  C:\Users\Vergil\AppData\Local\Temp\ccSnTvXE.s 			page 82


 4465              	.LASF39:
 4466 0275 705F7469 		.ascii	"p_time\000"
 4466      6D6500
 4467              	.LASF115:
 4468 027c 6572726F 		.ascii	"errors\000"
 4468      727300
 4469              	.LASF41:
 4470 0283 705F6D73 		.ascii	"p_msgqueue\000"
 4470      67717565 
 4470      756500
 4471              	.LASF129:
 4472 028e 5F647269 		.ascii	"_driver\000"
 4472      76657200 
 4473              	.LASF84:
 4474 0296 69736869 		.ascii	"ishift\000"
 4474      667400
 4475              	.LASF98:
 4476 029d 4F504D4F 		.ascii	"OPMODE_SMBUS_DEVICE\000"
 4476      44455F53 
 4476      4D425553 
 4476      5F444556 
 4476      49434500 
 4477              	.LASF7:
 4478 02b1 73686F72 		.ascii	"short unsigned int\000"
 4478      7420756E 
 4478      7369676E 
 4478      65642069 
 4478      6E7400
 4479              	.LASF126:
 4480 02c4 64617465 		.ascii	"date\000"
 4480      00
 4481              	.LASF112:
 4482 02c9 49324344 		.ascii	"I2CDriver\000"
 4482      72697665 
 4482      7200
 4483              	.LASF138:
 4484 02d3 64656369 		.ascii	"decimalToBcd\000"
 4484      6D616C54 
 4484      6F426364 
 4484      00
 4485              	.LASF20:
 4486 02e0 6D73675F 		.ascii	"msg_t\000"
 4486      7400
 4487              	.LASF45:
 4488 02e6 705F7265 		.ascii	"p_realprio\000"
 4488      616C7072 
 4488      696F00
 4489              	.LASF136:
 4490 02f1 62636454 		.ascii	"bcdToDecimal\000"
 4490      6F446563 
 4490      696D616C 
 4490      00
 4491              	.LASF139:
 4492 02fe 5F5A4E38 		.ascii	"_ZN8RTC_TIME6to_strEv\000"
 4492      5254435F 
 4492      54494D45 
 4492      36746F5F 
ARM GAS  C:\Users\Vergil\AppData\Local\Temp\ccSnTvXE.s 			page 83


 4492      73747245 
 4493              	.LASF15:
 4494 0314 746D6F64 		.ascii	"tmode_t\000"
 4494      655F7400 
 4495              	.LASF14:
 4496 031c 626F6F6C 		.ascii	"bool\000"
 4496      00
 4497              	.LASF50:
 4498 0321 54687265 		.ascii	"ThreadsList\000"
 4498      6164734C 
 4498      69737400 
 4499              	.LASF21:
 4500 032d 6576656E 		.ascii	"eventmask_t\000"
 4500      746D6173 
 4500      6B5F7400 
 4501              	.LASF5:
 4502 0339 73686F72 		.ascii	"short int\000"
 4502      7420696E 
 4502      7400
 4503              	.LASF60:
 4504 0343 4E445452 		.ascii	"NDTR\000"
 4504      00
 4505              	.LASF134:
 4506 0348 5F5A4E36 		.ascii	"_ZN6DS13078get_timeER8RTC_TIME\000"
 4506      44533133 
 4506      30373867 
 4506      65745F74 
 4506      696D6545 
 4507              	.LASF89:
 4508 0367 4932435F 		.ascii	"I2C_STOP\000"
 4508      53544F50 
 4508      00
 4509              	.LASF54:
 4510 0370 73697A65 		.ascii	"sizetype\000"
 4510      74797065 
 4510      00
 4511              	.LASF55:
 4512 0379 4D757465 		.ascii	"Mutex\000"
 4512      7800
 4513              	.LASF110:
 4514 037f 64757479 		.ascii	"duty_cycle\000"
 4514      5F637963 
 4514      6C6500
 4515              	.LASF33:
 4516 038a 705F6F6C 		.ascii	"p_older\000"
 4516      64657200 
 4517              	.LASF111:
 4518 0392 49324343 		.ascii	"I2CConfig\000"
 4518      6F6E6669 
 4518      6700
 4519              	.LASF47:
 4520 039c 54687265 		.ascii	"ThreadsQueue\000"
 4520      61647351 
 4520      75657565 
 4520      00
 4521              	.LASF120:
 4522 03a9 7478646D 		.ascii	"txdmamode\000"
ARM GAS  C:\Users\Vergil\AppData\Local\Temp\ccSnTvXE.s 			page 84


 4522      616D6F64 
 4522      6500
 4523              	.LASF58:
 4524 03b3 6D5F6E65 		.ascii	"m_next\000"
 4524      787400
 4525              	.LASF37:
 4526 03ba 705F7265 		.ascii	"p_refs\000"
 4526      667300
 4527              	.LASF97:
 4528 03c1 4F504D4F 		.ascii	"OPMODE_I2C\000"
 4528      44455F49 
 4528      324300
 4529              	.LASF105:
 4530 03cc 46415354 		.ascii	"FAST_DUTY_CYCLE_16_9\000"
 4530      5F445554 
 4530      595F4359 
 4530      434C455F 
 4530      31365F39 
 4531              	.LASF124:
 4532 03e1 686F7572 		.ascii	"hour\000"
 4532      00
 4533              	.LASF48:
 4534 03e6 31325468 		.ascii	"12ThreadsQueue\000"
 4534      72656164 
 4534      73517565 
 4534      756500
 4535              	.LASF156:
 4536 03f5 31306932 		.ascii	"10i2cstate_t\000"
 4536      63737461 
 4536      74655F74 
 4536      00
 4537              	.LASF125:
 4538 0402 77646179 		.ascii	"wday\000"
 4538      00
 4539              	.LASF17:
 4540 0407 74726566 		.ascii	"trefs_t\000"
 4540      735F7400 
 4541              	.LASF66:
 4542 040f 52455345 		.ascii	"RESERVED0\000"
 4542      52564544 
 4542      3000
 4543              	.LASF67:
 4544 0419 52455345 		.ascii	"RESERVED1\000"
 4544      52564544 
 4544      3100
 4545              	.LASF69:
 4546 0423 52455345 		.ascii	"RESERVED2\000"
 4546      52564544 
 4546      3200
 4547              	.LASF71:
 4548 042d 52455345 		.ascii	"RESERVED3\000"
 4548      52564544 
 4548      3300
 4549              	.LASF72:
 4550 0437 52455345 		.ascii	"RESERVED4\000"
 4550      52564544 
 4550      3400
ARM GAS  C:\Users\Vergil\AppData\Local\Temp\ccSnTvXE.s 			page 85


 4551              	.LASF29:
 4552 0441 705F7072 		.ascii	"p_prev\000"
 4552      657600
 4553              	.LASF74:
 4554 0448 52455345 		.ascii	"RESERVED6\000"
 4554      52564544 
 4554      3600
 4555              	.LASF75:
 4556 0452 52455345 		.ascii	"RESERVED7\000"
 4556      52564544 
 4556      3700
 4557              	.LASF77:
 4558 045c 52455345 		.ascii	"RESERVED8\000"
 4558      52564544 
 4558      3800
 4559              	.LASF19:
 4560 0466 74707269 		.ascii	"tprio_t\000"
 4560      6F5F7400 
 4561              	.LASF91:
 4562 046e 4932435F 		.ascii	"I2C_ACTIVE_TX\000"
 4562      41435449 
 4562      56455F54 
 4562      5800
 4563              	.LASF96:
 4564 047c 69326366 		.ascii	"i2cflags_t\000"
 4564      6C616773 
 4564      5F7400
 4565              	.LASF116:
 4566 0487 6D757465 		.ascii	"mutex\000"
 4566      7800
 4567              	.LASF8:
 4568 048d 696E7433 		.ascii	"int32_t\000"
 4568      325F7400 
 4569              	.LASF4:
 4570 0495 756E7369 		.ascii	"unsigned char\000"
 4570      676E6564 
 4570      20636861 
 4570      7200
 4571              	.LASF87:
 4572 04a3 73746D33 		.ascii	"stm32_dma_stream_t\000"
 4572      325F646D 
 4572      615F7374 
 4572      7265616D 
 4572      5F7400
 4573              	.LASF44:
 4574 04b6 705F6D74 		.ascii	"p_mtxlist\000"
 4574      786C6973 
 4574      7400
 4575              	.LASF88:
 4576 04c0 4932435F 		.ascii	"I2C_UNINIT\000"
 4576      554E494E 
 4576      495400
 4577              	.LASF35:
 4578 04cb 705F7374 		.ascii	"p_state\000"
 4578      61746500 
 4579              	.LASF38:
 4580 04d3 705F7072 		.ascii	"p_preempt\000"
ARM GAS  C:\Users\Vergil\AppData\Local\Temp\ccSnTvXE.s 			page 86


 4580      65656D70 
 4580      7400
 4581              	.LASF49:
 4582 04dd 31315468 		.ascii	"11ThreadsList\000"
 4582      72656164 
 4582      734C6973 
 4582      7400
 4583              	.LASF27:
 4584 04eb 65776D61 		.ascii	"ewmask\000"
 4584      736B00
 4585              	.LASF28:
 4586 04f2 705F6E65 		.ascii	"p_next\000"
 4586      787400
 4587              	.LASF36:
 4588 04f9 705F666C 		.ascii	"p_flags\000"
 4588      61677300 
 4589              	.LASF131:
 4590 0501 44533133 		.ascii	"DS1307\000"
 4590      303700
 4591              	.LASF65:
 4592 0508 31314932 		.ascii	"11I2C_TypeDef\000"
 4592      435F5479 
 4592      70654465 
 4592      6600
 4593              	.LASF101:
 4594 0516 31316932 		.ascii	"11i2copmode_t\000"
 4594      636F706D 
 4594      6F64655F 
 4594      7400
 4595              	.LASF104:
 4596 0524 46415354 		.ascii	"FAST_DUTY_CYCLE_2\000"
 4596      5F445554 
 4596      595F4359 
 4596      434C455F 
 4596      3200
 4597              	.LASF23:
 4598 0536 54687265 		.ascii	"Thread\000"
 4598      616400
 4599              	.LASF93:
 4600 053d 4932435F 		.ascii	"I2C_LOCKED\000"
 4600      4C4F434B 
 4600      454400
 4601              	.LASF43:
 4602 0548 705F6570 		.ascii	"p_epending\000"
 4602      656E6469 
 4602      6E6700
 4603              	.LASF83:
 4604 0553 69666372 		.ascii	"ifcr\000"
 4604      00
 4605              	.LASF73:
 4606 0558 52455345 		.ascii	"RESERVED5\000"
 4606      52564544 
 4606      3500
 4607              	.LASF10:
 4608 0562 75696E74 		.ascii	"uint32_t\000"
 4608      33325F74 
 4608      00
ARM GAS  C:\Users\Vergil\AppData\Local\Temp\ccSnTvXE.s 			page 87


 4609              	.LASF159:
 4610 056b 5F5A4E38 		.ascii	"_ZN8RTC_TIME7tmpbuffE\000"
 4610      5254435F 
 4610      54494D45 
 4610      37746D70 
 4610      62756666 
 4611              	.LASF79:
 4612 0581 52455345 		.ascii	"RESERVED9\000"
 4612      52564544 
 4612      3900
 4613              	.LASF92:
 4614 058b 4932435F 		.ascii	"I2C_ACTIVE_RX\000"
 4614      41435449 
 4614      56455F52 
 4614      5800
 4615              	.LASF148:
 4616 0599 6368736E 		.ascii	"chsnprintf\000"
 4616      7072696E 
 4616      746600
 4617              	.LASF59:
 4618 05a4 63686172 		.ascii	"char\000"
 4618      00
 4619              	.LASF114:
 4620 05a9 636F6E66 		.ascii	"config\000"
 4620      696700
 4621              	.LASF123:
 4622 05b0 5254435F 		.ascii	"RTC_TIME\000"
 4622      54494D45 
 4622      00
 4623              	.LASF22:
 4624 05b9 73797374 		.ascii	"systime_t\000"
 4624      696D655F 
 4624      7400
 4625              	.LASF155:
 4626 05c3 433A5C43 		.ascii	"C:\\ChibiStudio\\chibios\\demos\\ARMCM4-STM32F401RE"
 4626      68696269 
 4626      53747564 
 4626      696F5C63 
 4626      68696269 
 4627 05f2 2D4E5543 		.ascii	"-NUCLEO-CC3K\000"
 4627      4C454F2D 
 4627      4343334B 
 4627      00
 4628              	.LASF144:
 4629 05ff 62756666 		.ascii	"buffer\000"
 4629      657200
 4630              	.LASF117:
 4631 0606 74687265 		.ascii	"thread\000"
 4631      616400
 4632              	.LASF154:
 4633 060d 433A2F43 		.ascii	"C:/ChibiStudio/chibios/demos/ARMCM4-STM32F401RE-NUC"
 4633      68696269 
 4633      53747564 
 4633      696F2F63 
 4633      68696269 
 4634 0640 4C454F2D 		.ascii	"LEO-CC3K/sensors/DS1307.cpp\000"
 4634      4343334B 
ARM GAS  C:\Users\Vergil\AppData\Local\Temp\ccSnTvXE.s 			page 88


 4634      2F73656E 
 4634      736F7273 
 4634      2F445331 
 4635              	.LASF90:
 4636 065c 4932435F 		.ascii	"I2C_READY\000"
 4636      52454144 
 4636      5900
 4637              	.LASF63:
 4638 0666 444D415F 		.ascii	"DMA_Stream_TypeDef\000"
 4638      53747265 
 4638      616D5F54 
 4638      79706544 
 4638      656600
 4639              	.LASF135:
 4640 0679 5F5A4E36 		.ascii	"_ZN6DS13078set_timeE8RTC_TIME\000"
 4640      44533133 
 4640      30373873 
 4640      65745F74 
 4640      696D6545 
 4641              	.LASF53:
 4642 0697 636F6E74 		.ascii	"context\000"
 4642      65787400 
 4643              	.LASF133:
 4644 069f 7365745F 		.ascii	"set_time\000"
 4644      74696D65 
 4644      00
 4645              	.LASF52:
 4646 06a8 696E7463 		.ascii	"intctx\000"
 4646      747800
 4647              	.LASF145:
 4648 06af 74696D65 		.ascii	"time\000"
 4648      00
 4649              	.LASF62:
 4650 06b4 4D314152 		.ascii	"M1AR\000"
 4650      00
 4651              	.LASF132:
 4652 06b9 6765745F 		.ascii	"get_time\000"
 4652      74696D65 
 4652      00
 4653              	.LASF81:
 4654 06c2 31387374 		.ascii	"18stm32_dma_stream_t\000"
 4654      6D33325F 
 4654      646D615F 
 4654      73747265 
 4654      616D5F74 
 4655              	.LASF34:
 4656 06d7 705F6E61 		.ascii	"p_name\000"
 4656      6D6500
 4657              	.LASF150:
 4658 06de 69326341 		.ascii	"i2cAcquireBus\000"
 4658      63717569 
 4658      72654275 
 4658      7300
 4659              	.LASF143:
 4660 06ec 73746174 		.ascii	"status\000"
 4660      757300
 4661              	.LASF3:
ARM GAS  C:\Users\Vergil\AppData\Local\Temp\ccSnTvXE.s 			page 89


 4662 06f3 75696E74 		.ascii	"uint8_t\000"
 4662      385F7400 
 4663              	.LASF68:
 4664 06fb 4F415231 		.ascii	"OAR1\000"
 4664      00
 4665              	.LASF70:
 4666 0700 4F415232 		.ascii	"OAR2\000"
 4666      00
 4667              	.LASF152:
 4668 0705 6932634D 		.ascii	"i2cMasterReceiveTimeout\000"
 4668      61737465 
 4668      72526563 
 4668      65697665 
 4668      54696D65 
 4669              	.LASF26:
 4670 071d 77746F62 		.ascii	"wtobjp\000"
 4670      6A7000
 4671              	.LASF142:
 4672 0724 64726976 		.ascii	"driver\000"
 4672      657200
 4673              	.LASF146:
 4674 072b 7765656B 		.ascii	"weekdays\000"
 4674      64617973 
 4674      00
 4675              	.LASF42:
 4676 0734 705F6D73 		.ascii	"p_msg\000"
 4676      6700
 4677              	.LASF80:
 4678 073a 4932435F 		.ascii	"I2C_TypeDef\000"
 4678      54797065 
 4678      44656600 
 4679              	.LASF100:
 4680 0746 6932636F 		.ascii	"i2copmode_t\000"
 4680      706D6F64 
 4680      655F7400 
 4681              	.LASF57:
 4682 0752 6D5F6F77 		.ascii	"m_owner\000"
 4682      6E657200 
 4683              	.LASF31:
 4684 075a 705F6374 		.ascii	"p_ctx\000"
 4684      7800
 4685              	.LASF40:
 4686 0760 705F7761 		.ascii	"p_waiting\000"
 4686      6974696E 
 4686      6700
 4687              		.ident	"GCC: (GNU Tools for ARM Embedded Processors) 4.7.4 20140401 (release) [ARM/embedded-4_7-br
ARM GAS  C:\Users\Vergil\AppData\Local\Temp\ccSnTvXE.s 			page 90


DEFINED SYMBOLS
                            *ABS*:00000000 DS1307.cpp
C:\Users\Vergil\AppData\Local\Temp\ccSnTvXE.s:21     .text._ZN8RTC_TIME6to_strEv:00000000 $t
C:\Users\Vergil\AppData\Local\Temp\ccSnTvXE.s:27     .text._ZN8RTC_TIME6to_strEv:00000000 _ZN8RTC_TIME6to_strEv
C:\Users\Vergil\AppData\Local\Temp\ccSnTvXE.s:927    .rodata._ZL8weekdays:00000000 .LANCHOR1
C:\Users\Vergil\AppData\Local\Temp\ccSnTvXE.s:845    .rodata._ZL6months:00000000 .LANCHOR2
C:\Users\Vergil\AppData\Local\Temp\ccSnTvXE.s:920    .bss._ZN8RTC_TIME7tmpbuffE:00000000 .LANCHOR0
C:\Users\Vergil\AppData\Local\Temp\ccSnTvXE.s:863    .rodata.str1.4:00000000 .LC0
C:\Users\Vergil\AppData\Local\Temp\ccSnTvXE.s:84     .text._ZN6DS1307C2EP9I2CDriver:00000000 $t
C:\Users\Vergil\AppData\Local\Temp\ccSnTvXE.s:90     .text._ZN6DS1307C2EP9I2CDriver:00000000 _ZN6DS1307C2EP9I2CDriver
C:\Users\Vergil\AppData\Local\Temp\ccSnTvXE.s:90     .text._ZN6DS1307C2EP9I2CDriver:00000000 _ZN6DS1307C1EP9I2CDriver
C:\Users\Vergil\AppData\Local\Temp\ccSnTvXE.s:110    .text._ZN6DS13078get_timeER8RTC_TIME:00000000 $t
C:\Users\Vergil\AppData\Local\Temp\ccSnTvXE.s:116    .text._ZN6DS13078get_timeER8RTC_TIME:00000000 _ZN6DS13078get_timeER8RTC_TIME
C:\Users\Vergil\AppData\Local\Temp\ccSnTvXE.s:469    .text._ZN6DS13078set_timeE8RTC_TIME:00000000 $t
C:\Users\Vergil\AppData\Local\Temp\ccSnTvXE.s:475    .text._ZN6DS13078set_timeE8RTC_TIME:00000000 _ZN6DS13078set_timeE8RTC_TIME
C:\Users\Vergil\AppData\Local\Temp\ccSnTvXE.s:923    .bss._ZN8RTC_TIME7tmpbuffE:00000000 _ZN8RTC_TIME7tmpbuffE
C:\Users\Vergil\AppData\Local\Temp\ccSnTvXE.s:844    .rodata._ZL6months:00000000 $d
C:\Users\Vergil\AppData\Local\Temp\ccSnTvXE.s:848    .rodata._ZL6months:00000000 _ZL6months
C:\Users\Vergil\AppData\Local\Temp\ccSnTvXE.s:862    .rodata.str1.4:00000000 $d
C:\Users\Vergil\AppData\Local\Temp\ccSnTvXE.s:919    .bss._ZN8RTC_TIME7tmpbuffE:00000000 $d
C:\Users\Vergil\AppData\Local\Temp\ccSnTvXE.s:926    .rodata._ZL8weekdays:00000000 $d
C:\Users\Vergil\AppData\Local\Temp\ccSnTvXE.s:930    .rodata._ZL8weekdays:00000000 _ZL8weekdays
                     .debug_frame:00000010 $d

UNDEFINED SYMBOLS
chsnprintf
i2cAcquireBus
i2cMasterTransmitTimeout
i2cReleaseBus
i2cMasterReceiveTimeout
