ARM GAS  C:\Users\Vergil\AppData\Local\Temp\ccSnTvXE.s 			page 1


   1              		.syntax unified
   2              		.cpu cortex-m4
   3              		.eabi_attribute 27, 3
   4              		.eabi_attribute 28, 1
   5              		.fpu fpv4-sp-d16
   6              		.eabi_attribute 20, 1
   7              		.eabi_attribute 21, 1
   8              		.eabi_attribute 23, 3
   9              		.eabi_attribute 24, 1
  10              		.eabi_attribute 25, 1
  11              		.eabi_attribute 26, 1
  12              		.eabi_attribute 30, 2
  13              		.eabi_attribute 34, 1
  14              		.eabi_attribute 18, 4
  15              		.thumb
  16              		.file	"DS1307.cpp"
  17              		.text
  18              	.Ltext0:
  19              		.cfi_sections	.debug_frame
  20              		.section	.text._ZN8RTC_TIME6to_strEv,"ax",%progbits
  21              		.align	2
  22              		.p2align 4,,15
  23              		.global	_ZN8RTC_TIME6to_strEv
  24              		.thumb
  25              		.thumb_func
  26              		.type	_ZN8RTC_TIME6to_strEv, %function
  27              	_ZN8RTC_TIME6to_strEv:
  28              	.LFB121:
  29              		.file 1 "C:/ChibiStudio/chibios/demos/ARMCM4-STM32F401RE-NUCLEO-CC3K/sensors/DS1307.cpp"
  30              		.loc 1 35 0
  31              		.cfi_startproc
  32              		@ args = 0, pretend = 0, frame = 0
  33              		@ frame_needed = 0, uses_anonymous_args = 0
  34              	.LVL0:
  35 0000 F0B5     		push	{r4, r5, r6, r7, lr}
  36              	.LCFI0:
  37              		.cfi_def_cfa_offset 20
  38              		.cfi_offset 4, -20
  39              		.cfi_offset 5, -16
  40              		.cfi_offset 6, -12
  41              		.cfi_offset 7, -8
  42              		.cfi_offset 14, -4
  43              		.loc 1 45 0
  44 0002 40F20003 		movw	r3, #:lower16:.LANCHOR1
  45 0006 C468     		ldr	r4, [r0, #12]
  46 0008 4169     		ldr	r1, [r0, #20]
  47 000a 8669     		ldr	r6, [r0, #24]
  48 000c C0F20003 		movt	r3, #:upper16:.LANCHOR1
  49 0010 40F20002 		movw	r2, #:lower16:.LANCHOR2
  50 0014 53F82430 		ldr	r3, [r3, r4, lsl #2]
  51 0018 0469     		ldr	r4, [r0, #16]
  52 001a C0F20002 		movt	r2, #:upper16:.LANCHOR2
  53 001e A1C8     		ldmia	r0, {r0, r5, r7}
  54              	.LVL1:
  55              		.loc 1 35 0
  56 0020 87B0     		sub	sp, sp, #28
  57              	.LCFI1:
ARM GAS  C:\Users\Vergil\AppData\Local\Temp\ccSnTvXE.s 			page 2


  58              		.cfi_def_cfa_offset 48
  59              		.loc 1 45 0
  60 0022 52F82120 		ldr	r2, [r2, r1, lsl #2]
  61 0026 0194     		str	r4, [sp, #4]
  62 0028 40F20004 		movw	r4, #:lower16:.LANCHOR0
  63 002c 0590     		str	r0, [sp, #20]
  64 002e C0F20004 		movt	r4, #:upper16:.LANCHOR0
  65 0032 06F26C70 		addw	r0, r6, #1900
  66 0036 0092     		str	r2, [sp, #0]
  67 0038 40F20002 		movw	r2, #:lower16:.LC0
  68 003c 0290     		str	r0, [sp, #8]
  69 003e 0397     		str	r7, [sp, #12]
  70 0040 0495     		str	r5, [sp, #16]
  71 0042 2046     		mov	r0, r4
  72 0044 3221     		movs	r1, #50
  73 0046 C0F20002 		movt	r2, #:upper16:.LC0
  74 004a FFF7FEFF 		bl	chsnprintf
  75              	.LVL2:
  76              		.loc 1 48 0
  77 004e 2046     		mov	r0, r4
  78 0050 07B0     		add	sp, sp, #28
  79 0052 F0BD     		pop	{r4, r5, r6, r7, pc}
  80              		.cfi_endproc
  81              	.LFE121:
  82              		.size	_ZN8RTC_TIME6to_strEv, .-_ZN8RTC_TIME6to_strEv
  83 0054 AFF30080 		.section	.text._ZN6DS1307C2EP9I2CDriver,"ax",%progbits
  83      AFF30080 
  83      AFF30080 
  84              		.align	2
  85              		.p2align 4,,15
  86              		.global	_ZN6DS1307C2EP9I2CDriver
  87              		.thumb
  88              		.thumb_func
  89              		.type	_ZN6DS1307C2EP9I2CDriver, %function
  90              	_ZN6DS1307C2EP9I2CDriver:
  91              	.LFB123:
  92              		.loc 1 50 0
  93              		.cfi_startproc
  94              		@ args = 0, pretend = 0, frame = 0
  95              		@ frame_needed = 0, uses_anonymous_args = 0
  96              		@ link register save eliminated.
  97              	.LVL3:
  98              	.LBB30:
  99              		.loc 1 51 0
 100 0000 0160     		str	r1, [r0, #0]
 101              	.LBE30:
 102              		.loc 1 55 0
 103 0002 7047     		bx	lr
 104              		.cfi_endproc
 105              	.LFE123:
 106              		.size	_ZN6DS1307C2EP9I2CDriver, .-_ZN6DS1307C2EP9I2CDriver
 107              		.global	_ZN6DS1307C1EP9I2CDriver
 108              		.thumb_set _ZN6DS1307C1EP9I2CDriver,_ZN6DS1307C2EP9I2CDriver
 109 0004 AFF30080 		.section	.text._ZN6DS13078get_timeER8RTC_TIME,"ax",%progbits
 109      AFF30080 
 109      AFF30080 
 110              		.align	2
ARM GAS  C:\Users\Vergil\AppData\Local\Temp\ccSnTvXE.s 			page 3


 111              		.p2align 4,,15
 112              		.global	_ZN6DS13078get_timeER8RTC_TIME
 113              		.thumb
 114              		.thumb_func
 115              		.type	_ZN6DS13078get_timeER8RTC_TIME, %function
 116              	_ZN6DS13078get_timeER8RTC_TIME:
 117              	.LFB125:
 118              		.loc 1 58 0
 119              		.cfi_startproc
 120              		@ args = 0, pretend = 0, frame = 48
 121              		@ frame_needed = 0, uses_anonymous_args = 0
 122              	.LVL4:
 123 0000 2DE9F04F 		push	{r4, r5, r6, r7, r8, r9, sl, fp, lr}
 124              	.LCFI2:
 125              		.cfi_def_cfa_offset 36
 126              		.cfi_offset 4, -36
 127              		.cfi_offset 5, -32
 128              		.cfi_offset 6, -28
 129              		.cfi_offset 7, -24
 130              		.cfi_offset 8, -20
 131              		.cfi_offset 9, -16
 132              		.cfi_offset 10, -12
 133              		.cfi_offset 11, -8
 134              		.cfi_offset 14, -4
 135 0004 91B0     		sub	sp, sp, #68
 136              	.LCFI3:
 137              		.cfi_def_cfa_offset 104
 138              	.LBB31:
 139              		.loc 1 60 0
 140 0006 10AE     		add	r6, sp, #64
 141 0008 0027     		movs	r7, #0
 142              	.LBE31:
 143              		.loc 1 58 0
 144 000a 0546     		mov	r5, r0
 145              	.LBB108:
 146              		.loc 1 60 0
 147 000c 06F8097D 		strb	r7, [r6, #-9]!
 148              	.LVL5:
 149              		.loc 1 63 0
 150 0010 0068     		ldr	r0, [r0, #0]
 151              	.LVL6:
 152              		.loc 1 64 0
 153 0012 4FF47A78 		mov	r8, #1000
 154              	.LBE108:
 155              		.loc 1 58 0
 156 0016 0C46     		mov	r4, r1
 157              	.LBB109:
 158              		.loc 1 63 0
 159 0018 FFF7FEFF 		bl	i2cAcquireBus
 160              	.LVL7:
 161              		.loc 1 64 0
 162 001c 2868     		ldr	r0, [r5, #0]
 163 001e 0097     		str	r7, [sp, #0]
 164 0020 3246     		mov	r2, r6
 165 0022 0197     		str	r7, [sp, #4]
 166 0024 CDF80880 		str	r8, [sp, #8]
 167 0028 6821     		movs	r1, #104
ARM GAS  C:\Users\Vergil\AppData\Local\Temp\ccSnTvXE.s 			page 4


 168 002a 0123     		movs	r3, #1
 169 002c FFF7FEFF 		bl	i2cMasterTransmitTimeout
 170              	.LVL8:
 171 0030 0646     		mov	r6, r0
 172              	.LVL9:
 173              		.loc 1 65 0
 174 0032 2868     		ldr	r0, [r5, #0]
 175              	.LVL10:
 176 0034 FFF7FEFF 		bl	i2cReleaseBus
 177              	.LVL11:
 178              		.loc 1 67 0
 179 0038 1EB1     		cbz	r6, .L4
 180              	.L6:
 181              	.LBE109:
 182 003a 0020     		movs	r0, #0
 183              	.LVL12:
 184              	.L5:
 185              		.loc 1 85 0
 186 003c 11B0     		add	sp, sp, #68
 187 003e BDE8F08F 		pop	{r4, r5, r6, r7, r8, r9, sl, fp, pc}
 188              	.LVL13:
 189              	.L4:
 190              	.LBB110:
 191              		.loc 1 69 0
 192 0042 2868     		ldr	r0, [r5, #0]
 193 0044 FFF7FEFF 		bl	i2cAcquireBus
 194              	.LVL14:
 195              		.loc 1 70 0
 196 0048 2868     		ldr	r0, [r5, #0]
 197 004a CDF80080 		str	r8, [sp, #0]
 198 004e 6821     		movs	r1, #104
 199 0050 0EAA     		add	r2, sp, #56
 200 0052 0723     		movs	r3, #7
 201 0054 FFF7FEFF 		bl	i2cMasterReceiveTimeout
 202              	.LVL15:
 203 0058 0646     		mov	r6, r0
 204              	.LVL16:
 205              		.loc 1 71 0
 206 005a 2868     		ldr	r0, [r5, #0]
 207              	.LVL17:
 208 005c FFF7FEFF 		bl	i2cReleaseBus
 209              	.LVL18:
 210              		.loc 1 72 0
 211 0060 002E     		cmp	r6, #0
 212 0062 EAD1     		bne	.L6
 213              		.loc 1 74 0
 214 0064 9DF83830 		ldrb	r3, [sp, #56]	@ zero_extendqisi2
 215 0068 1A06     		lsls	r2, r3, #24
 216 006a E6D4     		bmi	.L6
 217              		.loc 1 75 0
 218 006c 9DF83A20 		ldrb	r2, [sp, #58]	@ zero_extendqisi2
 219 0070 02F04001 		and	r1, r2, #64
 220 0074 C8B2     		uxtb	r0, r1
 221 0076 0028     		cmp	r0, #0
 222 0078 DFD1     		bne	.L6
 223              	.LVL19:
 224              		.loc 1 79 0
ARM GAS  C:\Users\Vergil\AppData\Local\Temp\ccSnTvXE.s 			page 5


 225 007a 9DF83BA0 		ldrb	sl, [sp, #59]	@ zero_extendqisi2
 226              		.loc 1 80 0
 227 007e 9DF83C50 		ldrb	r5, [sp, #60]	@ zero_extendqisi2
 228              	.LVL20:
 229              		.loc 1 81 0
 230 0082 9DF83D80 		ldrb	r8, [sp, #61]	@ zero_extendqisi2
 231              		.loc 1 82 0
 232 0086 9DF83E70 		ldrb	r7, [sp, #62]	@ zero_extendqisi2
 233              		.loc 1 80 0
 234 008a 0995     		str	r5, [sp, #36]
 235              	.LBB32:
 236              	.LBB33:
 237              		.file 2 "C:/ChibiStudio/chibios/demos/ARMCM4-STM32F401RE-NUCLEO-CC3K/sensors/DS1307.h"
 238              		.loc 2 43 0
 239 008c 4FEA1A1B 		lsr	fp, sl, #4
 240 0090 0BEB8B0E 		add	lr, fp, fp, lsl #2
 241 0094 0AF00F0A 		and	sl, sl, #15
 242              	.LBE33:
 243              	.LBE32:
 244              	.LBB38:
 245              	.LBB39:
 246 0098 4FEA1819 		lsr	r9, r8, #4
 247              	.LBE39:
 248              	.LBE38:
 249              	.LBB46:
 250              	.LBB47:
 251 009c 4FEA171C 		lsr	ip, r7, #4
 252              	.LBE47:
 253              	.LBE46:
 254              	.LBB54:
 255              	.LBB34:
 256 00a0 CDF828E0 		str	lr, [sp, #40]
 257              	.LBE34:
 258              	.LBE54:
 259              	.LBB55:
 260              	.LBB56:
 261 00a4 DDF824B0 		ldr	fp, [sp, #36]
 262              	.LBE56:
 263              	.LBE55:
 264              	.LBB62:
 265              	.LBB35:
 266 00a8 CDF820A0 		str	sl, [sp, #32]
 267              	.LBE35:
 268              	.LBE62:
 269              	.LBB63:
 270              	.LBB48:
 271 00ac 07F00F07 		and	r7, r7, #15
 272              	.LBE48:
 273              	.LBE63:
 274              	.LBB64:
 275              	.LBB40:
 276 00b0 09EB8909 		add	r9, r9, r9, lsl #2
 277              	.LBE40:
 278              	.LBE64:
 279              	.LBB65:
 280              	.LBB49:
 281 00b4 0597     		str	r7, [sp, #20]
ARM GAS  C:\Users\Vergil\AppData\Local\Temp\ccSnTvXE.s 			page 6


 282              	.LBE49:
 283              	.LBE65:
 284              	.LBB66:
 285              	.LBB36:
 286 00b6 DDF820A0 		ldr	sl, [sp, #32]
 287 00ba 0A9F     		ldr	r7, [sp, #40]
 288              	.LBE36:
 289              	.LBE66:
 290              	.LBB67:
 291              	.LBB41:
 292 00bc CDF82C90 		str	r9, [sp, #44]
 293              	.LBE41:
 294              	.LBE67:
 295              	.LBB68:
 296              	.LBB57:
 297 00c0 4FEA1B1E 		lsr	lr, fp, #4
 298              	.LBE57:
 299              	.LBE68:
 300              	.LBB69:
 301              	.LBB70:
 302 00c4 C3F30216 		ubfx	r6, r3, #4, #3
 303              	.LVL21:
 304              	.LBE70:
 305              	.LBE69:
 306              	.LBB75:
 307              	.LBB50:
 308 00c8 0CEB8C0C 		add	ip, ip, ip, lsl #2
 309              	.LBE50:
 310              	.LBE75:
 311              	.LBB76:
 312              	.LBB37:
 313 00cc 0AEB470B 		add	fp, sl, r7, lsl #1
 314              	.LBE37:
 315              	.LBE76:
 316              		.loc 1 77 0
 317 00d0 9DF83900 		ldrb	r0, [sp, #57]	@ zero_extendqisi2
 318              	.LVL22:
 319              	.LBB77:
 320              	.LBB51:
 321              		.loc 2 43 0
 322 00d4 CDF818C0 		str	ip, [sp, #24]
 323              	.LBE51:
 324              	.LBE77:
 325              	.LBB78:
 326              	.LBB71:
 327 00d8 06EB8606 		add	r6, r6, r6, lsl #2
 328              	.LBE71:
 329              	.LBE78:
 330              	.LBB79:
 331              	.LBB58:
 332 00dc 0EEB8E0A 		add	sl, lr, lr, lsl #2
 333              	.LBE58:
 334              	.LBE79:
 335              	.LBB80:
 336              	.LBB42:
 337 00e0 DDF82CE0 		ldr	lr, [sp, #44]
 338              	.LBE42:
ARM GAS  C:\Users\Vergil\AppData\Local\Temp\ccSnTvXE.s 			page 7


 339              	.LBE80:
 340              	.LBB81:
 341              	.LBB72:
 342 00e4 0496     		str	r6, [sp, #16]
 343              	.LBE72:
 344              	.LBE81:
 345              	.LBB82:
 346              	.LBB43:
 347 00e6 08F00F08 		and	r8, r8, #15
 348              	.LBE43:
 349              	.LBE82:
 350              	.LBB83:
 351              	.LBB59:
 352 00ea 099E     		ldr	r6, [sp, #36]
 353              	.LBE59:
 354              	.LBE83:
 355              	.LBB84:
 356              	.LBB52:
 357 00ec 059F     		ldr	r7, [sp, #20]
 358 00ee DDF818C0 		ldr	ip, [sp, #24]
 359              	.LBE52:
 360              	.LBE84:
 361              	.LBB85:
 362              	.LBB44:
 363 00f2 CDF81C80 		str	r8, [sp, #28]
 364              	.LBE44:
 365              	.LBE85:
 366              	.LBB86:
 367              	.LBB87:
 368 00f6 0509     		lsrs	r5, r0, #4
 369              	.LBE87:
 370              	.LBE86:
 371              	.LBB91:
 372              	.LBB92:
 373 00f8 C2F30111 		ubfx	r1, r2, #4, #2
 374              	.LBE92:
 375              	.LBE91:
 376              	.LBB96:
 377              	.LBB45:
 378 00fc 08EB4E08 		add	r8, r8, lr, lsl #1
 379              	.LBE45:
 380              	.LBE96:
 381              	.LBB97:
 382              	.LBB73:
 383 0100 DDF810E0 		ldr	lr, [sp, #16]
 384 0104 03F00F03 		and	r3, r3, #15
 385              	.LVL23:
 386              	.LBE73:
 387              	.LBE97:
 388              	.LBB98:
 389              	.LBB88:
 390 0108 00F00F00 		and	r0, r0, #15
 391              	.LVL24:
 392              	.LBE88:
 393              	.LBE98:
 394              	.LBB99:
 395              	.LBB93:
ARM GAS  C:\Users\Vergil\AppData\Local\Temp\ccSnTvXE.s 			page 8


 396 010c 02F00F02 		and	r2, r2, #15
 397              	.LBE93:
 398              	.LBE99:
 399              	.LBB100:
 400              	.LBB60:
 401 0110 06F00F09 		and	r9, r6, #15
 402              	.LBE60:
 403              	.LBE100:
 404              	.LBB101:
 405              	.LBB89:
 406 0114 05EB8505 		add	r5, r5, r5, lsl #2
 407              	.LBE89:
 408              	.LBE101:
 409              	.LBB102:
 410              	.LBB94:
 411 0118 01EB8101 		add	r1, r1, r1, lsl #2
 412              	.LBE94:
 413              	.LBE102:
 414              	.LBB103:
 415              	.LBB53:
 416 011c 07EB4C07 		add	r7, r7, ip, lsl #1
 417              	.LBE53:
 418              	.LBE103:
 419              	.LBB104:
 420              	.LBB74:
 421 0120 03EB4E06 		add	r6, r3, lr, lsl #1
 422              	.LBE74:
 423              	.LBE104:
 424              	.LBB105:
 425              	.LBB90:
 426 0124 00EB4505 		add	r5, r0, r5, lsl #1
 427              	.LBE90:
 428              	.LBE105:
 429              	.LBB106:
 430              	.LBB95:
 431 0128 02EB4101 		add	r1, r2, r1, lsl #1
 432              	.LBE95:
 433              	.LBE106:
 434              		.loc 1 79 0
 435 012c 0BF1FF30 		add	r0, fp, #-1
 436              	.LBB107:
 437              	.LBB61:
 438              		.loc 2 43 0
 439 0130 09EB4A02 		add	r2, r9, sl, lsl #1
 440              	.LBE61:
 441              	.LBE107:
 442              		.loc 1 81 0
 443 0134 08F1FF33 		add	r3, r8, #-1
 444              		.loc 1 82 0
 445 0138 6437     		adds	r7, r7, #100
 446              		.loc 1 79 0
 447 013a E060     		str	r0, [r4, #12]
 448              		.loc 1 76 0
 449 013c 2660     		str	r6, [r4, #0]
 450              		.loc 1 77 0
 451 013e 6560     		str	r5, [r4, #4]
 452              	.LVL25:
ARM GAS  C:\Users\Vergil\AppData\Local\Temp\ccSnTvXE.s 			page 9


 453              		.loc 1 78 0
 454 0140 A160     		str	r1, [r4, #8]
 455              		.loc 1 80 0
 456 0142 2261     		str	r2, [r4, #16]
 457              		.loc 1 81 0
 458 0144 6361     		str	r3, [r4, #20]
 459              		.loc 1 82 0
 460 0146 A761     		str	r7, [r4, #24]
 461              		.loc 1 84 0
 462 0148 0120     		movs	r0, #1
 463 014a 77E7     		b	.L5
 464              	.LBE110:
 465              		.cfi_endproc
 466              	.LFE125:
 467              		.size	_ZN6DS13078get_timeER8RTC_TIME, .-_ZN6DS13078get_timeER8RTC_TIME
 468 014c AFF30080 		.section	.text._ZN6DS13078set_timeE8RTC_TIME,"ax",%progbits
 469              		.align	2
 470              		.p2align 4,,15
 471              		.global	_ZN6DS13078set_timeE8RTC_TIME
 472              		.thumb
 473              		.thumb_func
 474              		.type	_ZN6DS13078set_timeE8RTC_TIME, %function
 475              	_ZN6DS13078set_timeE8RTC_TIME:
 476              	.LFB126:
 477              		.loc 1 88 0
 478              		.cfi_startproc
 479              		@ args = 32, pretend = 16, frame = 24
 480              		@ frame_needed = 0, uses_anonymous_args = 0
 481              	.LVL26:
 482 0000 84B0     		sub	sp, sp, #16
 483              	.LCFI4:
 484              		.cfi_def_cfa_offset 16
 485 0002 2DE9F04F 		push	{r4, r5, r6, r7, r8, r9, sl, fp, lr}
 486              	.LCFI5:
 487              		.cfi_def_cfa_offset 52
 488              		.cfi_offset 4, -52
 489              		.cfi_offset 5, -48
 490              		.cfi_offset 6, -44
 491              		.cfi_offset 7, -40
 492              		.cfi_offset 8, -36
 493              		.cfi_offset 9, -32
 494              		.cfi_offset 10, -28
 495              		.cfi_offset 11, -24
 496              		.cfi_offset 14, -20
 497 0006 8BB0     		sub	sp, sp, #44
 498              	.LCFI6:
 499              		.cfi_def_cfa_offset 96
 500              		.loc 1 88 0
 501 0008 15AC     		add	r4, sp, #84
 502 000a 84E80E00 		stmia	r4, {r1, r2, r3}
 503              	.LBB111:
 504              	.LBB112:
 505              	.LBB113:
 506              		.loc 2 47 0
 507 000e 46F26763 		movw	r3, #26215
 508              	.LBE113:
 509              	.LBE112:
ARM GAS  C:\Users\Vergil\AppData\Local\Temp\ccSnTvXE.s 			page 10


 510              	.LBB121:
 511              	.LBB122:
 512 0012 179D     		ldr	r5, [sp, #92]
 513              	.LBE122:
 514              	.LBE121:
 515              		.loc 1 100 0
 516 0014 1B9A     		ldr	r2, [sp, #108]
 517              		.loc 1 99 0
 518 0016 1A9E     		ldr	r6, [sp, #104]
 519              	.LBB129:
 520              	.LBB114:
 521              		.loc 2 47 0
 522 0018 C6F26663 		movt	r3, 26214
 523              	.LBE114:
 524              	.LBE129:
 525              	.LBB130:
 526              	.LBB123:
 527 001c 83FB0547 		smull	r4, r7, r3, r5
 528 0020 179C     		ldr	r4, [sp, #92]
 529              	.LBE123:
 530              	.LBE130:
 531              	.LBB131:
 532              	.LBB132:
 533 0022 169D     		ldr	r5, [sp, #88]
 534              	.LBE132:
 535              	.LBE131:
 536              		.loc 1 100 0
 537 0024 643A     		subs	r2, r2, #100
 538 0026 0592     		str	r2, [sp, #20]
 539              		.loc 1 94 0
 540 0028 8C46     		mov	ip, r1
 541              	.LVL27:
 542              	.LBB141:
 543              	.LBB115:
 544              		.loc 2 47 0
 545 002a 83FB012E 		smull	r2, lr, r3, r1
 546              	.LBE115:
 547              	.LBE141:
 548              	.LBB142:
 549              	.LBB124:
 550 002e E217     		asrs	r2, r4, #31
 551              	.LBE124:
 552              	.LBE142:
 553              	.LBB143:
 554              	.LBB116:
 555 0030 4FEAE171 		asr	r1, r1, #31
 556              	.LVL28:
 557              	.LBE116:
 558              	.LBE143:
 559              	.LBB144:
 560              	.LBB145:
 561 0034 199C     		ldr	r4, [sp, #100]
 562              	.LVL29:
 563              	.LBE145:
 564              	.LBE144:
 565              		.loc 1 99 0
 566 0036 0136     		adds	r6, r6, #1
ARM GAS  C:\Users\Vergil\AppData\Local\Temp\ccSnTvXE.s 			page 11


 567              	.LVL30:
 568              	.LBB154:
 569              	.LBB117:
 570              		.loc 2 47 0
 571 0038 C1EBAE0E 		rsb	lr, r1, lr, asr #2
 572              	.LBE117:
 573              	.LBE154:
 574              	.LBB155:
 575              	.LBB133:
 576 003c 1699     		ldr	r1, [sp, #88]
 577              	.LBE133:
 578              	.LBE155:
 579              	.LBB156:
 580              	.LBB125:
 581 003e C2EBA707 		rsb	r7, r2, r7, asr #2
 582              	.LBE125:
 583              	.LBE156:
 584              	.LBB157:
 585              	.LBB158:
 586 0042 83FB06B8 		smull	fp, r8, r3, r6
 587              	.LBE158:
 588              	.LBE157:
 589              	.LBB164:
 590              	.LBB146:
 591 0046 83FB0429 		smull	r2, r9, r3, r4
 592              	.LBE146:
 593              	.LBE164:
 594              	.LBB165:
 595              	.LBB166:
 596 004a DDF814B0 		ldr	fp, [sp, #20]
 597 004e 059C     		ldr	r4, [sp, #20]
 598              	.LBE166:
 599              	.LBE165:
 600              	.LBB174:
 601              	.LBB134:
 602 0050 83FB012A 		smull	r2, sl, r3, r1
 603              	.LBE134:
 604              	.LBE174:
 605              	.LBB175:
 606              	.LBB147:
 607 0054 199A     		ldr	r2, [sp, #100]
 608              	.LBE147:
 609              	.LBE175:
 610              	.LBB176:
 611              	.LBB167:
 612 0056 83FB0443 		smull	r4, r3, r3, r4
 613 005a 4FEAEB74 		asr	r4, fp, #31
 614 005e C4EBA303 		rsb	r3, r4, r3, asr #2
 615              	.LBE167:
 616              	.LBE176:
 617              	.LBB177:
 618              	.LBB148:
 619 0062 D117     		asrs	r1, r2, #31
 620              	.LBE148:
 621              	.LBE177:
 622              	.LBE111:
 623              		.loc 1 88 0
ARM GAS  C:\Users\Vergil\AppData\Local\Temp\ccSnTvXE.s 			page 12


 624 0064 0446     		mov	r4, r0
 625              	.LBB206:
 626              	.LBB178:
 627              	.LBB126:
 628              		.loc 2 47 0
 629 0066 1798     		ldr	r0, [sp, #92]
 630              	.LVL31:
 631              	.LBE126:
 632              	.LBE178:
 633              	.LBB179:
 634              	.LBB149:
 635 0068 C1EBA901 		rsb	r1, r1, r9, asr #2
 636              	.LBE149:
 637              	.LBE179:
 638              	.LBB180:
 639              	.LBB127:
 640 006c 07EB8709 		add	r9, r7, r7, lsl #2
 641 0070 A0EB4909 		sub	r9, r0, r9, lsl #1
 642              	.LBE127:
 643              	.LBE180:
 644              	.LBB181:
 645              	.LBB135:
 646 0074 ED17     		asrs	r5, r5, #31
 647              	.LVL32:
 648              	.LBE135:
 649              	.LBE181:
 650              	.LBB182:
 651              	.LBB168:
 652 0076 03EB8300 		add	r0, r3, r3, lsl #2
 653              	.LBE168:
 654              	.LBE182:
 655              	.LBB183:
 656              	.LBB136:
 657 007a C5EBAA05 		rsb	r5, r5, sl, asr #2
 658              	.LBE136:
 659              	.LBE183:
 660              	.LBB184:
 661              	.LBB169:
 662 007e 0490     		str	r0, [sp, #16]
 663              	.LBE169:
 664              	.LBE184:
 665              	.LBB185:
 666              	.LBB159:
 667 0080 F217     		asrs	r2, r6, #31
 668              	.LBE159:
 669              	.LBE185:
 670              	.LBB186:
 671              	.LBB137:
 672 0082 1698     		ldr	r0, [sp, #88]
 673              	.LBE137:
 674              	.LBE186:
 675              	.LBB187:
 676              	.LBB118:
 677 0084 0EEB8E0A 		add	sl, lr, lr, lsl #2
 678              	.LBE118:
 679              	.LBE187:
 680              	.LBB188:
ARM GAS  C:\Users\Vergil\AppData\Local\Temp\ccSnTvXE.s 			page 13


 681              	.LBB160:
 682 0088 C2EBA802 		rsb	r2, r2, r8, asr #2
 683              	.LBE160:
 684              	.LBE188:
 685              	.LBB189:
 686              	.LBB119:
 687 008c ACEB4A0B 		sub	fp, ip, sl, lsl #1
 688              	.LBE119:
 689              	.LBE189:
 690              	.LBB190:
 691              	.LBB138:
 692 0090 05EB850A 		add	sl, r5, r5, lsl #2
 693              	.LBE138:
 694              	.LBE190:
 695              	.LBB191:
 696              	.LBB161:
 697 0094 02EB820C 		add	ip, r2, r2, lsl #2
 698              	.LVL33:
 699              	.LBE161:
 700              	.LBE191:
 701              	.LBB192:
 702              	.LBB139:
 703 0098 A0EB4A0A 		sub	sl, r0, sl, lsl #1
 704              	.LBE139:
 705              	.LBE192:
 706              	.LBB193:
 707              	.LBB162:
 708 009c A6EB4C0C 		sub	ip, r6, ip, lsl #1
 709              	.LBE162:
 710              	.LBE193:
 711              	.LBB194:
 712              	.LBB150:
 713 00a0 1998     		ldr	r0, [sp, #100]
 714              	.LBE150:
 715              	.LBE194:
 716              	.LBB195:
 717              	.LBB170:
 718 00a2 059E     		ldr	r6, [sp, #20]
 719              	.LVL34:
 720              	.LBE170:
 721              	.LBE195:
 722              	.LBB196:
 723              	.LBB140:
 724 00a4 0AEB051A 		add	sl, sl, r5, lsl #4
 725              	.LBE140:
 726              	.LBE196:
 727              	.LBB197:
 728              	.LBB128:
 729 00a8 09EB0717 		add	r7, r9, r7, lsl #4
 730              	.LBE128:
 731              	.LBE197:
 732              		.loc 1 97 0
 733 00ac 189D     		ldr	r5, [sp, #96]
 734              	.LBB198:
 735              	.LBB171:
 736              		.loc 2 47 0
 737 00ae DDF81090 		ldr	r9, [sp, #16]
ARM GAS  C:\Users\Vergil\AppData\Local\Temp\ccSnTvXE.s 			page 14


 738              	.LBE171:
 739              	.LBE198:
 740              		.loc 1 95 0
 741 00b2 8DF81EA0 		strb	sl, [sp, #30]
 742              	.LBB199:
 743              	.LBB151:
 744              		.loc 2 47 0
 745 00b6 01EB8108 		add	r8, r1, r1, lsl #2
 746              	.LBE151:
 747              	.LBE199:
 748              		.loc 1 97 0
 749 00ba 0135     		adds	r5, r5, #1
 750              	.LBB200:
 751              	.LBB120:
 752              		.loc 2 47 0
 753 00bc 0BEB0E1E 		add	lr, fp, lr, lsl #4
 754              	.LBE120:
 755              	.LBE200:
 756              	.LBB201:
 757              	.LBB152:
 758 00c0 A0EB4808 		sub	r8, r0, r8, lsl #1
 759              	.LBE152:
 760              	.LBE201:
 761              	.LBB202:
 762              	.LBB172:
 763 00c4 A6EB4900 		sub	r0, r6, r9, lsl #1
 764              	.LBE172:
 765              	.LBE202:
 766              		.loc 1 94 0
 767 00c8 0EF07F0E 		and	lr, lr, #127
 768              		.loc 1 93 0
 769 00cc 0026     		movs	r6, #0
 770              	.LBB203:
 771              	.LBB153:
 772              		.loc 2 47 0
 773 00ce 08EB0118 		add	r8, r8, r1, lsl #4
 774              	.LBE153:
 775              	.LBE203:
 776              		.loc 1 97 0
 777 00d2 8DF82050 		strb	r5, [sp, #32]
 778              	.LBB204:
 779              	.LBB163:
 780              		.loc 2 47 0
 781 00d6 0CEB0211 		add	r1, ip, r2, lsl #4
 782              	.LBE163:
 783              	.LBE204:
 784              		.loc 1 96 0
 785 00da 07F03F07 		and	r7, r7, #63
 786              	.LBB205:
 787              	.LBB173:
 788              		.loc 2 47 0
 789 00de 00EB0312 		add	r2, r0, r3, lsl #4
 790              	.LBE173:
 791              	.LBE205:
 792              		.loc 1 104 0
 793 00e2 4FF47A75 		mov	r5, #1000
 794              		.loc 1 103 0
ARM GAS  C:\Users\Vergil\AppData\Local\Temp\ccSnTvXE.s 			page 15


 795 00e6 2068     		ldr	r0, [r4, #0]
 796              		.loc 1 94 0
 797 00e8 8DF81DE0 		strb	lr, [sp, #29]
 798              		.loc 1 99 0
 799 00ec 8DF82210 		strb	r1, [sp, #34]
 800              		.loc 1 100 0
 801 00f0 8DF82320 		strb	r2, [sp, #35]
 802              		.loc 1 93 0
 803 00f4 8DF81C60 		strb	r6, [sp, #28]
 804              		.loc 1 96 0
 805 00f8 8DF81F70 		strb	r7, [sp, #31]
 806              		.loc 1 98 0
 807 00fc 8DF82180 		strb	r8, [sp, #33]
 808              		.loc 1 101 0
 809 0100 8DF82460 		strb	r6, [sp, #36]
 810              		.loc 1 103 0
 811 0104 FFF7FEFF 		bl	i2cAcquireBus
 812              	.LVL35:
 813              		.loc 1 104 0
 814 0108 2068     		ldr	r0, [r4, #0]
 815 010a 0295     		str	r5, [sp, #8]
 816 010c 6821     		movs	r1, #104
 817 010e 07AA     		add	r2, sp, #28
 818 0110 0923     		movs	r3, #9
 819 0112 0096     		str	r6, [sp, #0]
 820 0114 0196     		str	r6, [sp, #4]
 821 0116 FFF7FEFF 		bl	i2cMasterTransmitTimeout
 822              	.LVL36:
 823 011a 0546     		mov	r5, r0
 824              	.LVL37:
 825              		.loc 1 105 0
 826 011c 2068     		ldr	r0, [r4, #0]
 827              	.LVL38:
 828 011e FFF7FEFF 		bl	i2cReleaseBus
 829              	.LVL39:
 830              	.LBE206:
 831              		.loc 1 110 0
 832 0122 AB1B     		subs	r3, r5, r6
 833 0124 5842     		rsbs	r0, r3, #0
 834 0126 5841     		adcs	r0, r0, r3
 835 0128 0BB0     		add	sp, sp, #44
 836 012a BDE8F04F 		pop	{r4, r5, r6, r7, r8, r9, sl, fp, lr}
 837 012e 04B0     		add	sp, sp, #16
 838 0130 7047     		bx	lr
 839              		.cfi_endproc
 840              	.LFE126:
 841              		.size	_ZN6DS13078set_timeE8RTC_TIME, .-_ZN6DS13078set_timeE8RTC_TIME
 842              		.global	_ZN8RTC_TIME7tmpbuffE
 843 0132 00BFAFF3 		.section	.rodata._ZL6months,"a",%progbits
 843      0080AFF3 
 843      0080AFF3 
 843      0080
 844              		.align	2
 845              		.set	.LANCHOR2,. + 0
 846              		.type	_ZL6months, %object
 847              		.size	_ZL6months, 48
 848              	_ZL6months:
ARM GAS  C:\Users\Vergil\AppData\Local\Temp\ccSnTvXE.s 			page 16


 849 0000 64000000 		.word	.LC8
 850 0004 6C000000 		.word	.LC9
 851 0008 78000000 		.word	.LC10
 852 000c 80000000 		.word	.LC11
 853 0010 88000000 		.word	.LC12
 854 0014 8C000000 		.word	.LC13
 855 0018 94000000 		.word	.LC14
 856 001c 9C000000 		.word	.LC15
 857 0020 A4000000 		.word	.LC16
 858 0024 B0000000 		.word	.LC17
 859 0028 B8000000 		.word	.LC18
 860 002c C4000000 		.word	.LC19
 861              		.section	.rodata.str1.4,"aMS",%progbits,1
 862              		.align	2
 863              	.LC0:
 864 0000 25732025 		.ascii	"%s %s %2d, %4d %02d:%02d:%02d\000"
 864      73202532 
 864      642C2025 
 864      34642025 
 864      3032643A 
 865 001e 0000     		.space	2
 866              	.LC1:
 867 0020 53617475 		.ascii	"Saturday\000"
 867      72646179 
 867      00
 868 0029 000000   		.space	3
 869              	.LC2:
 870 002c 53756E64 		.ascii	"Sunday\000"
 870      617900
 871 0033 00       		.space	1
 872              	.LC3:
 873 0034 4D6F6E64 		.ascii	"Monday\000"
 873      617900
 874 003b 00       		.space	1
 875              	.LC4:
 876 003c 54756573 		.ascii	"Tuesday\000"
 876      64617900 
 877              	.LC5:
 878 0044 5765646E 		.ascii	"Wednesday\000"
 878      65736461 
 878      7900
 879 004e 0000     		.space	2
 880              	.LC6:
 881 0050 54687572 		.ascii	"Thursday\000"
 881      73646179 
 881      00
 882 0059 000000   		.space	3
 883              	.LC7:
 884 005c 46726964 		.ascii	"Friday\000"
 884      617900
 885 0063 00       		.space	1
 886              	.LC8:
 887 0064 4A616E75 		.ascii	"January\000"
 887      61727900 
 888              	.LC9:
 889 006c 46656272 		.ascii	"February\000"
 889      75617279 
ARM GAS  C:\Users\Vergil\AppData\Local\Temp\ccSnTvXE.s 			page 17


 889      00
 890 0075 000000   		.space	3
 891              	.LC10:
 892 0078 4D617263 		.ascii	"March\000"
 892      6800
 893 007e 0000     		.space	2
 894              	.LC11:
 895 0080 41707269 		.ascii	"April\000"
 895      6C00
 896 0086 0000     		.space	2
 897              	.LC12:
 898 0088 4D617900 		.ascii	"May\000"
 899              	.LC13:
 900 008c 4A756E65 		.ascii	"June\000"
 900      00
 901 0091 000000   		.space	3
 902              	.LC14:
 903 0094 4A756C79 		.ascii	"July\000"
 903      00
 904 0099 000000   		.space	3
 905              	.LC15:
 906 009c 41756775 		.ascii	"August\000"
 906      737400
 907 00a3 00       		.space	1
 908              	.LC16:
 909 00a4 53657074 		.ascii	"September\000"
 909      656D6265 
 909      7200
 910 00ae 0000     		.space	2
 911              	.LC17:
 912 00b0 4F63746F 		.ascii	"October\000"
 912      62657200 
 913              	.LC18:
 914 00b8 4E6F7665 		.ascii	"November\000"
 914      6D626572 
 914      00
 915 00c1 000000   		.space	3
 916              	.LC19:
 917 00c4 44656365 		.ascii	"December\000"
 917      6D626572 
 917      00
 918 00cd 000000   		.section	.bss._ZN8RTC_TIME7tmpbuffE,"aw",%nobits
 919              		.align	2
 920              		.set	.LANCHOR0,. + 0
 921              		.type	_ZN8RTC_TIME7tmpbuffE, %object
 922              		.size	_ZN8RTC_TIME7tmpbuffE, 50
 923              	_ZN8RTC_TIME7tmpbuffE:
 924 0000 00000000 		.space	50
 924      00000000 
 924      00000000 
 924      00000000 
 924      00000000 
 925 0032 0000     		.section	.rodata._ZL8weekdays,"a",%progbits
 926              		.align	2
 927              		.set	.LANCHOR1,. + 0
 928              		.type	_ZL8weekdays, %object
 929              		.size	_ZL8weekdays, 28
ARM GAS  C:\Users\Vergil\AppData\Local\Temp\ccSnTvXE.s 			page 18


 930              	_ZL8weekdays:
 931 0000 20000000 		.word	.LC1
 932 0004 2C000000 		.word	.LC2
 933 0008 34000000 		.word	.LC3
 934 000c 3C000000 		.word	.LC4
 935 0010 44000000 		.word	.LC5
 936 0014 50000000 		.word	.LC6
 937 0018 5C000000 		.word	.LC7
 938              		.text
 939              	.Letext0:
 940              		.file 3 "c:\\chibistudio\\tools\\gnu tools arm embedded\\4.7 2014q2\\bin\\../lib/gcc/arm-none-eabi
 941              		.file 4 "c:\\chibistudio\\tools\\gnu tools arm embedded\\4.7 2014q2\\bin\\../lib/gcc/arm-none-eabi
 942              		.file 5 "../../os/ports/GCC/ARMCMx/chtypes.h"
 943              		.file 6 "../../os/kernel/include/chlists.h"
 944              		.file 7 "../../os/kernel/include/chthreads.h"
 945              		.file 8 "../../os/ports/GCC/ARMCMx/chcore_v7m.h"
 946              		.file 9 "../../os/kernel/include/chmtx.h"
 947              		.file 10 "../../os/hal/platforms/STM32F4xx/stm32f4xx.h"
 948              		.file 11 "../../os/hal/platforms/STM32F4xx/stm32_dma.h"
 949              		.file 12 "../../os/hal/include/i2c.h"
 950              		.file 13 "../../os/hal/platforms/STM32/I2Cv1/i2c_lld.h"
 951              		.file 14 "../../os/various/chprintf.h"
 952              		.file 15 "../../os/ports/common/ARMCMx/CMSIS/include/core_cm4.h"