ARM GAS  C:\Users\Vergil\AppData\Local\Temp\ccxsbUzg.s 			page 1


   1              		.syntax unified
   2              		.cpu cortex-m4
   3              		.eabi_attribute 27, 3
   4              		.eabi_attribute 28, 1
   5              		.fpu fpv4-sp-d16
   6              		.eabi_attribute 20, 1
   7              		.eabi_attribute 21, 1
   8              		.eabi_attribute 23, 3
   9              		.eabi_attribute 24, 1
  10              		.eabi_attribute 25, 1
  11              		.eabi_attribute 26, 1
  12              		.eabi_attribute 30, 2
  13              		.eabi_attribute 34, 1
  14              		.eabi_attribute 18, 4
  15              		.thumb
  16              		.file	"evnt_handler.c"
  17              		.text
  18              	.Ltext0:
  19              		.cfi_sections	.debug_frame
  20              		.section	.text.hci_unsol_handle_patch_request,"ax",%progbits
  21              		.align	2
  22              		.p2align 4,,15
  23              		.global	hci_unsol_handle_patch_request
  24              		.thumb
  25              		.thumb_func
  26              		.type	hci_unsol_handle_patch_request, %function
  27              	hci_unsol_handle_patch_request:
  28              	.LFB0:
  29              		.file 1 "C:\\Users\\Vergil\\ChibiOS_CC3000_SPI/CC3000HostDriver/evnt_handler.c"
  30              		.loc 1 142 0
  31              		.cfi_startproc
  32              		@ args = 0, pretend = 0, frame = 8
  33              		@ frame_needed = 0, uses_anonymous_args = 0
  34              	.LVL0:
  35 0000 30B5     		push	{r4, r5, lr}
  36              	.LCFI0:
  37              		.cfi_def_cfa_offset 12
  38              		.cfi_offset 4, -12
  39              		.cfi_offset 5, -8
  40              		.cfi_offset 14, -4
  41              		.loc 1 147 0
  42 0002 4479     		ldrb	r4, [r0, #5]	@ zero_extendqisi2
  43              		.loc 1 142 0
  44 0004 83B0     		sub	sp, sp, #12
  45              	.LCFI1:
  46              		.cfi_def_cfa_offset 24
  47              		.loc 1 144 0
  48 0006 0023     		movs	r3, #0
  49              		.loc 1 147 0
  50 0008 022C     		cmp	r4, #2
  51              		.loc 1 144 0
  52 000a 0193     		str	r3, [sp, #4]
  53              	.LVL1:
  54              		.loc 1 147 0
  55 000c 25D0     		beq	.L4
  56 000e 032C     		cmp	r4, #3
  57 0010 13D0     		beq	.L5
ARM GAS  C:\Users\Vergil\AppData\Local\Temp\ccxsbUzg.s 			page 2


  58 0012 012C     		cmp	r4, #1
  59 0014 01D0     		beq	.L32
  60              	.LVL2:
  61              	.L1:
  62              		.loc 1 207 0
  63 0016 03B0     		add	sp, sp, #12
  64 0018 30BD     		pop	{r4, r5, pc}
  65              	.LVL3:
  66              	.L32:
  67              		.loc 1 151 0
  68 001a 1B4D     		ldr	r5, .L33
  69 001c 2869     		ldr	r0, [r5, #16]
  70              	.LVL4:
  71 001e 0028     		cmp	r0, #0
  72 0020 2BD0     		beq	.L6
  73              		.loc 1 153 0
  74 0022 2969     		ldr	r1, [r5, #16]
  75 0024 01A8     		add	r0, sp, #4
  76 0026 8847     		blx	r1
  77              	.LVL5:
  78              		.loc 1 155 0
  79 0028 0246     		mov	r2, r0
  80 002a 30B3     		cbz	r0, .L6
  81              	.L30:
  82              		.loc 1 196 0
  83 002c A968     		ldr	r1, [r5, #8]
  84 002e BDF80430 		ldrh	r3, [sp, #4]
  85 0032 2046     		mov	r0, r4
  86              	.LVL6:
  87 0034 FFF7FEFF 		bl	hci_patch_send
  88              	.LVL7:
  89 0038 EDE7     		b	.L1
  90              	.LVL8:
  91              	.L5:
  92              		.loc 1 190 0
  93 003a 134D     		ldr	r5, .L33
  94 003c 6A69     		ldr	r2, [r5, #20]
  95 003e 2AB1     		cbz	r2, .L9
  96              		.loc 1 192 0
  97 0040 6B69     		ldr	r3, [r5, #20]
  98 0042 01A8     		add	r0, sp, #4
  99              	.LVL9:
 100 0044 9847     		blx	r3
 101              	.LVL10:
 102              		.loc 1 194 0
 103 0046 0246     		mov	r2, r0
 104 0048 0028     		cmp	r0, #0
 105 004a EFD1     		bne	.L30
 106              	.LVL11:
 107              	.L9:
 108              		.loc 1 203 0
 109 004c 0022     		movs	r2, #0
 110 004e A968     		ldr	r1, [r5, #8]
 111 0050 0320     		movs	r0, #3
 112 0052 1346     		mov	r3, r2
 113 0054 FFF7FEFF 		bl	hci_patch_send
 114              	.LVL12:
ARM GAS  C:\Users\Vergil\AppData\Local\Temp\ccxsbUzg.s 			page 3


 115              		.loc 1 205 0
 116 0058 DDE7     		b	.L1
 117              	.LVL13:
 118              	.L4:
 119              		.loc 1 170 0
 120 005a 0B4D     		ldr	r5, .L33
 121 005c E868     		ldr	r0, [r5, #12]
 122              	.LVL14:
 123 005e 28B1     		cbz	r0, .L8
 124              		.loc 1 172 0
 125 0060 E968     		ldr	r1, [r5, #12]
 126 0062 01A8     		add	r0, sp, #4
 127 0064 8847     		blx	r1
 128              	.LVL15:
 129              		.loc 1 175 0
 130 0066 0246     		mov	r2, r0
 131 0068 0028     		cmp	r0, #0
 132 006a DFD1     		bne	.L30
 133              	.LVL16:
 134              	.L8:
 135              		.loc 1 184 0
 136 006c 0022     		movs	r2, #0
 137 006e A968     		ldr	r1, [r5, #8]
 138 0070 0220     		movs	r0, #2
 139 0072 1346     		mov	r3, r2
 140 0074 FFF7FEFF 		bl	hci_patch_send
 141              	.LVL17:
 142              		.loc 1 186 0
 143 0078 CDE7     		b	.L1
 144              	.L6:
 145              		.loc 1 164 0
 146 007a 0022     		movs	r2, #0
 147 007c A968     		ldr	r1, [r5, #8]
 148 007e 0120     		movs	r0, #1
 149 0080 1346     		mov	r3, r2
 150 0082 FFF7FEFF 		bl	hci_patch_send
 151              	.LVL18:
 152              		.loc 1 166 0
 153 0086 C6E7     		b	.L1
 154              	.L34:
 155              		.align	2
 156              	.L33:
 157 0088 00000000 		.word	tSLInformation
 158              		.cfi_endproc
 159              	.LFE0:
 160              		.size	hci_unsol_handle_patch_request, .-hci_unsol_handle_patch_request
 161 008c AFF30080 		.section	.text.set_socket_active_status,"ax",%progbits
 162              		.align	2
 163              		.p2align 4,,15
 164              		.global	set_socket_active_status
 165              		.thumb
 166              		.thumb_func
 167              		.type	set_socket_active_status, %function
 168              	set_socket_active_status:
 169              	.LFB4:
 170              		.loc 1 706 0
 171              		.cfi_startproc
ARM GAS  C:\Users\Vergil\AppData\Local\Temp\ccxsbUzg.s 			page 4


 172              		@ args = 0, pretend = 0, frame = 0
 173              		@ frame_needed = 0, uses_anonymous_args = 0
 174              		@ link register save eliminated.
 175              	.LVL19:
 176              		.loc 1 707 0
 177 0000 0728     		cmp	r0, #7
 178              		.loc 1 706 0
 179 0002 10B4     		push	{r4}
 180              	.LCFI2:
 181              		.cfi_def_cfa_offset 4
 182              		.cfi_offset 4, -4
 183              		.loc 1 707 0
 184 0004 01D8     		bhi	.L35
 185              		.loc 1 707 0 is_stmt 0 discriminator 1
 186 0006 0129     		cmp	r1, #1
 187 0008 01D9     		bls	.L37
 188              	.LVL20:
 189              	.L35:
 190              		.loc 1 712 0 is_stmt 1
 191 000a 10BC     		pop	{r4}
 192 000c 7047     		bx	lr
 193              	.LVL21:
 194              	.L37:
 195              	.LBB4:
 196              	.LBB5:
 197              		.loc 1 710 0
 198 000e 064B     		ldr	r3, .L38
 199              		.loc 1 709 0
 200 0010 0124     		movs	r4, #1
 201 0012 1A68     		ldr	r2, [r3, #0]
 202 0014 04FA00F4 		lsl	r4, r4, r0
 203 0018 22EA0402 		bic	r2, r2, r4
 204              		.loc 1 710 0
 205 001c 01FA00F0 		lsl	r0, r1, r0
 206              	.LVL22:
 207 0020 0243     		orrs	r2, r2, r0
 208 0022 1A60     		str	r2, [r3, #0]
 209 0024 F1E7     		b	.L35
 210              	.L39:
 211 0026 00BF     		.align	2
 212              	.L38:
 213 0028 00000000 		.word	.LANCHOR0
 214              	.LBE5:
 215              	.LBE4:
 216              		.cfi_endproc
 217              	.LFE4:
 218              		.size	set_socket_active_status, .-set_socket_active_status
 219 002c AFF30080 		.section	.text.hci_unsol_event_handler,"ax",%progbits
 220              		.align	2
 221              		.p2align 4,,15
 222              		.global	hci_unsol_event_handler
 223              		.thumb
 224              		.thumb_func
 225              		.type	hci_unsol_event_handler, %function
 226              	hci_unsol_event_handler:
 227              	.LFB2:
 228              		.loc 1 503 0
ARM GAS  C:\Users\Vergil\AppData\Local\Temp\ccxsbUzg.s 			page 5


 229              		.cfi_startproc
 230              		@ args = 0, pretend = 0, frame = 56
 231              		@ frame_needed = 0, uses_anonymous_args = 0
 232              	.LVL23:
 233 0000 2DE9F04F 		push	{r4, r5, r6, r7, r8, r9, sl, fp, lr}
 234              	.LCFI3:
 235              		.cfi_def_cfa_offset 36
 236              		.cfi_offset 4, -36
 237              		.cfi_offset 5, -32
 238              		.cfi_offset 6, -28
 239              		.cfi_offset 7, -24
 240              		.cfi_offset 8, -20
 241              		.cfi_offset 9, -16
 242              		.cfi_offset 10, -12
 243              		.cfi_offset 11, -8
 244              		.cfi_offset 14, -4
 245              		.loc 1 509 0
 246 0004 0121     		movs	r1, #1
 247              		.loc 1 503 0
 248 0006 8FB0     		sub	sp, sp, #60
 249              	.LCFI4:
 250              		.cfi_def_cfa_offset 96
 251              		.loc 1 503 0
 252 0008 8046     		mov	r8, r0
 253              		.loc 1 509 0
 254 000a FFF7FEFF 		bl	STREAM_TO_UINT16_f
 255              	.LVL24:
 256              		.loc 1 511 0
 257 000e 00F48043 		and	r3, r0, #16384
 258              		.loc 1 509 0
 259 0012 0546     		mov	r5, r0
 260              	.LVL25:
 261              		.loc 1 511 0
 262 0014 98B2     		uxth	r0, r3
 263              	.LVL26:
 264 0016 10B1     		cbz	r0, .L41
 265              		.loc 1 513 0
 266 0018 B5F5824F 		cmp	r5, #16640
 267 001c 5ED0     		beq	.L95
 268              	.L41:
 269              		.loc 1 536 0
 270 001e 25F4FF41 		bic	r1, r5, #32640
 271 0022 21F07F02 		bic	r2, r1, #127
 272 0026 90B2     		uxth	r0, r2
 273 0028 98B9     		cbnz	r0, .L96
 274              		.loc 1 620 0
 275 002a 41F20303 		movw	r3, #4099
 276 002e 9D42     		cmp	r5, r3
 277 0030 24D0     		beq	.L57
 278              		.loc 1 620 0 is_stmt 0 discriminator 1
 279 0032 0C33     		adds	r3, r3, #12
 280 0034 9D42     		cmp	r5, r3
 281 0036 21D0     		beq	.L57
 282              		.loc 1 621 0 is_stmt 1
 283 0038 591E     		subs	r1, r3, #1
 284 003a 8D42     		cmp	r5, r1
 285 003c 1ED0     		beq	.L57
ARM GAS  C:\Users\Vergil\AppData\Local\Temp\ccxsbUzg.s 			page 6


 286              		.loc 1 644 0
 287 003e A94A     		ldr	r2, .L100
 288 0040 1388     		ldrh	r3, [r2, #0]
 289 0042 99B2     		uxth	r1, r3
 290 0044 A942     		cmp	r1, r5
 291 0046 16D0     		beq	.L46
 292              		.loc 1 644 0 is_stmt 0 discriminator 1
 293 0048 B5F5805F 		cmp	r5, #4096
 294 004c 13D0     		beq	.L46
 295              	.LVL27:
 296              	.L94:
 297              	.LBB18:
 298              	.LBB19:
 299              	.LBB20:
 300              		.loc 1 637 0 is_stmt 1
 301 004e 0120     		movs	r0, #1
 302 0050 11E0     		b	.L46
 303              	.LVL28:
 304              	.L96:
 305              	.LBE20:
 306              	.LBE19:
 307              	.LBE18:
 308              		.loc 1 538 0
 309 0052 48F21000 		movw	r0, #32784
 310 0056 8542     		cmp	r5, r0
 311 0058 00F0B580 		beq	.L50
 312 005c 2BD9     		bls	.L97
 313 005e 48F28002 		movw	r2, #32896
 314 0062 9542     		cmp	r5, r2
 315 0064 2FD0     		beq	.L49
 316 0066 00F22081 		bhi	.L54
 317 006a 48F24000 		movw	r0, #32832
 318 006e 8542     		cmp	r5, r0
 319 0070 00F08280 		beq	.L98
 320              	.L61:
 321              	.LBB29:
 322              		.loc 1 640 0
 323 0074 0020     		movs	r0, #0
 324              	.LVL29:
 325              	.L46:
 326              	.LBE29:
 327              		.loc 1 650 0
 328 0076 0FB0     		add	sp, sp, #60
 329 0078 BDE8F08F 		pop	{r4, r5, r6, r7, r8, r9, sl, fp, pc}
 330              	.LVL30:
 331              	.L57:
 332              	.LBB30:
 333              		.loc 1 626 0
 334 007c 08F10504 		add	r4, r8, #5
 335              	.LVL31:
 336              		.loc 1 627 0
 337 0080 0421     		movs	r1, #4
 338 0082 2046     		mov	r0, r4
 339 0084 FFF7FEFF 		bl	STREAM_TO_UINT32_f
 340              	.LVL32:
 341              		.loc 1 629 0
 342 0088 3930     		adds	r0, r0, #57
ARM GAS  C:\Users\Vergil\AppData\Local\Temp\ccxsbUzg.s 			page 7


 343              	.LVL33:
 344 008a F3D1     		bne	.L61
 345              		.loc 1 634 0
 346 008c 98F80450 		ldrb	r5, [r8, #4]	@ zero_extendqisi2
 347              	.LVL34:
 348 0090 944A     		ldr	r2, .L100
 349              	.LBB25:
 350              	.LBB21:
 351              		.loc 1 788 0
 352 0092 0021     		movs	r1, #0
 353 0094 2046     		mov	r0, r4
 354              	.LVL35:
 355              	.LBE21:
 356              	.LBE25:
 357              		.loc 1 634 0
 358 0096 D562     		str	r5, [r2, #44]
 359              	.LVL36:
 360              	.LBB26:
 361              	.LBB22:
 362              		.loc 1 788 0
 363 0098 FFF7FEFF 		bl	STREAM_TO_UINT32_f
 364              	.LVL37:
 365              		.loc 1 789 0
 366 009c 0421     		movs	r1, #4
 367              		.loc 1 788 0
 368 009e 0546     		mov	r5, r0
 369              	.LVL38:
 370              		.loc 1 789 0
 371 00a0 2046     		mov	r0, r4
 372              	.LVL39:
 373 00a2 FFF7FEFF 		bl	STREAM_TO_UINT32_f
 374              	.LVL40:
 375              		.loc 1 791 0
 376 00a6 3930     		adds	r0, r0, #57
 377              	.LVL41:
 378 00a8 D1D1     		bne	.L94
 379              		.loc 1 793 0
 380 00aa 2846     		mov	r0, r5
 381              	.LVL42:
 382 00ac 0121     		movs	r1, #1
 383 00ae FFF7FEFF 		bl	set_socket_active_status
 384              	.LVL43:
 385              		.loc 1 637 0
 386 00b2 0120     		movs	r0, #1
 387 00b4 DFE7     		b	.L46
 388              	.LVL44:
 389              	.L97:
 390              	.LBE22:
 391              	.LBE26:
 392              	.LBE30:
 393              		.loc 1 538 0
 394 00b6 B5F5004F 		cmp	r5, #32768
 395 00ba DBD9     		bls	.L61
 396 00bc 48F20203 		movw	r3, #32770
 397 00c0 9D42     		cmp	r5, r3
 398 00c2 00F20781 		bhi	.L99
 399              	.L49:
ARM GAS  C:\Users\Vergil\AppData\Local\Temp\ccxsbUzg.s 			page 8


 400              		.loc 1 546 0
 401 00c6 8748     		ldr	r0, .L100
 402 00c8 8169     		ldr	r1, [r0, #24]
 403 00ca 0029     		cmp	r1, #0
 404 00cc BFD0     		beq	.L94
 405              		.loc 1 548 0
 406 00ce 0021     		movs	r1, #0
 407 00d0 8369     		ldr	r3, [r0, #24]
 408 00d2 0A46     		mov	r2, r1
 409 00d4 2846     		mov	r0, r5
 410 00d6 9847     		blx	r3
 411              	.LVL45:
 412              		.loc 1 617 0
 413 00d8 0120     		movs	r0, #1
 414 00da CCE7     		b	.L46
 415              	.L95:
 416              	.LVL46:
 417              	.LBB31:
 418              	.LBB32:
 419              		.loc 1 736 0
 420 00dc 4046     		mov	r0, r8
 421 00de 0521     		movs	r1, #5
 422 00e0 FFF7FEFF 		bl	STREAM_TO_UINT16_f
 423              	.LVL47:
 424              		.loc 1 737 0
 425 00e4 08F10705 		add	r5, r8, #7
 426              	.LVL48:
 427              		.loc 1 741 0
 428 00e8 0028     		cmp	r0, #0
 429 00ea 00F0F880 		beq	.L59
 430              		.loc 1 502 0
 431 00ee 461E     		subs	r6, r0, #1
 432 00f0 B4B2     		uxth	r4, r6
 433 00f2 08EB8406 		add	r6, r8, r4, lsl #2
 434 00f6 0B36     		adds	r6, r6, #11
 435 00f8 771B     		subs	r7, r6, r5
 436 00fa 3A1F     		subs	r2, r7, #4
 437              		.loc 1 743 0
 438 00fc 2846     		mov	r0, r5
 439              	.LVL49:
 440 00fe 0221     		movs	r1, #2
 441 0100 C2F38007 		ubfx	r7, r2, #2, #1
 442 0104 FFF7FEFF 		bl	STREAM_TO_UINT16_f
 443              	.LVL50:
 444              		.loc 1 745 0
 445 0108 08F10B04 		add	r4, r8, #11
 446              		.loc 1 741 0
 447 010c B442     		cmp	r4, r6
 448              		.loc 1 743 0
 449 010e 0546     		mov	r5, r0
 450              	.LVL51:
 451              		.loc 1 741 0
 452 0110 17D0     		beq	.L91
 453 0112 47B1     		cbz	r7, .L44
 454              		.loc 1 743 0
 455 0114 2046     		mov	r0, r4
 456              	.LVL52:
ARM GAS  C:\Users\Vergil\AppData\Local\Temp\ccxsbUzg.s 			page 9


 457 0116 0221     		movs	r1, #2
 458 0118 FFF7FEFF 		bl	STREAM_TO_UINT16_f
 459              	.LVL53:
 460              		.loc 1 745 0
 461 011c 08F10F04 		add	r4, r8, #15
 462              		.loc 1 741 0
 463 0120 B442     		cmp	r4, r6
 464              		.loc 1 744 0
 465 0122 0544     		add	r5, r5, r0
 466              	.LVL54:
 467              		.loc 1 741 0
 468 0124 0DD0     		beq	.L91
 469              	.L44:
 470              		.loc 1 743 0
 471 0126 0221     		movs	r1, #2
 472 0128 2046     		mov	r0, r4
 473 012a FFF7FEFF 		bl	STREAM_TO_UINT16_f
 474              	.LVL55:
 475              		.loc 1 745 0
 476 012e 0434     		adds	r4, r4, #4
 477              		.loc 1 744 0
 478 0130 2D18     		adds	r5, r5, r0
 479              		.loc 1 743 0
 480 0132 0221     		movs	r1, #2
 481 0134 2046     		mov	r0, r4
 482 0136 FFF7FEFF 		bl	STREAM_TO_UINT16_f
 483              	.LVL56:
 484              		.loc 1 745 0
 485 013a 0434     		adds	r4, r4, #4
 486              		.loc 1 741 0
 487 013c B442     		cmp	r4, r6
 488              		.loc 1 744 0
 489 013e 0544     		add	r5, r5, r0
 490              		.loc 1 741 0
 491 0140 F1D1     		bne	.L44
 492              	.L91:
 493 0142 A8B2     		uxth	r0, r5
 494              	.L43:
 495              		.loc 1 748 0
 496 0144 674B     		ldr	r3, .L100
 497 0146 198E     		ldrh	r1, [r3, #48]
 498 0148 10FA81F0 		uxtah	r0, r0, r1
 499 014c 82B2     		uxth	r2, r0
 500 014e 1A86     		strh	r2, [r3, #48]	@ movhi
 501              		.loc 1 749 0
 502 0150 D96B     		ldr	r1, [r3, #60]
 503 0152 6D18     		adds	r5, r5, r1
 504 0154 DD63     		str	r5, [r3, #60]
 505              	.LBE32:
 506              	.LBE31:
 507              		.loc 1 520 0
 508 0156 D86B     		ldr	r0, [r3, #60]
 509              	.LVL57:
 510              		.loc 1 521 0
 511 0158 9A6B     		ldr	r2, [r3, #56]
 512              	.LVL58:
 513              		.loc 1 523 0
ARM GAS  C:\Users\Vergil\AppData\Local\Temp\ccxsbUzg.s 			page 10


 514 015a 9042     		cmp	r0, r2
 515 015c 7FF477AF 		bne	.L94
 516              		.loc 1 525 0
 517 0160 93F84010 		ldrb	r1, [r3, #64]	@ zero_extendqisi2
 518 0164 0029     		cmp	r1, #0
 519 0166 3FF472AF 		beq	.L94
 520              		.loc 1 527 0
 521 016a 0021     		movs	r1, #0
 522 016c 9920     		movs	r0, #153
 523              	.LVL59:
 524 016e 9B69     		ldr	r3, [r3, #24]
 525 0170 0A46     		mov	r2, r1
 526              	.LVL60:
 527 0172 9847     		blx	r3
 528              	.LVL61:
 529              		.loc 1 530 0
 530 0174 0120     		movs	r0, #1
 531 0176 7EE7     		b	.L46
 532              	.LVL62:
 533              	.L98:
 534              	.LBB34:
 535              		.loc 1 587 0
 536 0178 08F10504 		add	r4, r8, #5
 537              	.LVL63:
 538              		.loc 1 588 0
 539 017c 0021     		movs	r1, #0
 540 017e 2046     		mov	r0, r4
 541 0180 FFF7FEFF 		bl	STREAM_TO_UINT32_f
 542              	.LVL64:
 543              		.loc 1 589 0
 544 0184 0421     		movs	r1, #4
 545              		.loc 1 588 0
 546 0186 0890     		str	r0, [sp, #32]
 547              		.loc 1 589 0
 548 0188 2046     		mov	r0, r4
 549 018a FFF7FEFF 		bl	STREAM_TO_UINT32_f
 550              	.LVL65:
 551              		.loc 1 590 0
 552 018e 0821     		movs	r1, #8
 553              		.loc 1 589 0
 554 0190 0990     		str	r0, [sp, #36]
 555              		.loc 1 590 0
 556 0192 2046     		mov	r0, r4
 557 0194 FFF7FEFF 		bl	STREAM_TO_UINT32_f
 558              	.LVL66:
 559              		.loc 1 591 0
 560 0198 0C21     		movs	r1, #12
 561              		.loc 1 590 0
 562 019a 0A90     		str	r0, [sp, #40]
 563              		.loc 1 591 0
 564 019c 2046     		mov	r0, r4
 565 019e FFF7FEFF 		bl	STREAM_TO_UINT32_f
 566              	.LVL67:
 567              		.loc 1 592 0
 568 01a2 1021     		movs	r1, #16
 569              		.loc 1 591 0
 570 01a4 0B90     		str	r0, [sp, #44]
ARM GAS  C:\Users\Vergil\AppData\Local\Temp\ccxsbUzg.s 			page 11


 571              		.loc 1 592 0
 572 01a6 2046     		mov	r0, r4
 573 01a8 FFF7FEFF 		bl	STREAM_TO_UINT32_f
 574              	.LVL68:
 575              		.loc 1 594 0
 576 01ac 4D4B     		ldr	r3, .L100
 577              		.loc 1 592 0
 578 01ae 0C90     		str	r0, [sp, #48]
 579              		.loc 1 594 0
 580 01b0 9969     		ldr	r1, [r3, #24]
 581 01b2 0029     		cmp	r1, #0
 582 01b4 3FF44BAF 		beq	.L94
 583              		.loc 1 596 0
 584 01b8 2846     		mov	r0, r5
 585 01ba 9B69     		ldr	r3, [r3, #24]
 586 01bc 08A9     		add	r1, sp, #32
 587 01be 1422     		movs	r2, #20
 588 01c0 9847     		blx	r3
 589              	.LVL69:
 590              	.LBE34:
 591              	.LBB35:
 592              	.LBB27:
 593              	.LBB23:
 594              		.loc 1 637 0
 595 01c2 0120     		movs	r0, #1
 596 01c4 57E7     		b	.L46
 597              	.LVL70:
 598              	.L50:
 599              	.LBE23:
 600              	.LBE27:
 601              	.LBE35:
 602              	.LBB36:
 603              	.LBB37:
 604              		.loc 1 560 0
 605 01c6 98F80840 		ldrb	r4, [r8, #8]	@ zero_extendqisi2
 606              	.LBE37:
 607              	.LBB38:
 608              		.loc 1 563 0
 609 01ca 98F80B60 		ldrb	r6, [r8, #11]	@ zero_extendqisi2
 610 01ce 98F80C20 		ldrb	r2, [r8, #12]	@ zero_extendqisi2
 611              	.LBE38:
 612              	.LBB39:
 613              		.loc 1 560 0
 614 01d2 98F80790 		ldrb	r9, [r8, #7]	@ zero_extendqisi2
 615              	.LBE39:
 616              	.LBB40:
 617              		.loc 1 563 0
 618 01d6 98F80A70 		ldrb	r7, [r8, #10]	@ zero_extendqisi2
 619              	.LBE40:
 620              	.LBB41:
 621              		.loc 1 560 0
 622 01da 0194     		str	r4, [sp, #4]
 623              	.LBE41:
 624              	.LBB42:
 625              		.loc 1 563 0
 626 01dc 0296     		str	r6, [sp, #8]
 627 01de 0392     		str	r2, [sp, #12]
ARM GAS  C:\Users\Vergil\AppData\Local\Temp\ccxsbUzg.s 			page 12


 628 01e0 98F809C0 		ldrb	ip, [r8, #9]	@ zero_extendqisi2
 629              	.LBE42:
 630              	.LBB43:
 631              		.loc 1 566 0
 632 01e4 98F80D00 		ldrb	r0, [r8, #13]	@ zero_extendqisi2
 633 01e8 98F80E10 		ldrb	r1, [r8, #14]	@ zero_extendqisi2
 634 01ec 98F80F30 		ldrb	r3, [r8, #15]	@ zero_extendqisi2
 635 01f0 98F81040 		ldrb	r4, [r8, #16]	@ zero_extendqisi2
 636              	.LBE43:
 637              	.LBB44:
 638              		.loc 1 560 0
 639 01f4 98F805B0 		ldrb	fp, [r8, #5]	@ zero_extendqisi2
 640 01f8 98F806A0 		ldrb	sl, [r8, #6]	@ zero_extendqisi2
 641 01fc 8DF82290 		strb	r9, [sp, #34]
 642 0200 DDF804E0 		ldr	lr, [sp, #4]
 643              	.LBE44:
 644              	.LBB45:
 645              		.loc 1 563 0
 646 0204 8DF82570 		strb	r7, [sp, #37]
 647 0208 DDF80C90 		ldr	r9, [sp, #12]
 648 020c 029F     		ldr	r7, [sp, #8]
 649              	.LBE45:
 650              	.LBB46:
 651              		.loc 1 569 0
 652 020e 98F81420 		ldrb	r2, [r8, #20]	@ zero_extendqisi2
 653              	.LBE46:
 654              	.LBB47:
 655              		.loc 1 566 0
 656 0212 0490     		str	r0, [sp, #16]
 657 0214 0591     		str	r1, [sp, #20]
 658              	.LBE47:
 659              	.LBB48:
 660              		.loc 1 569 0
 661 0216 98F81200 		ldrb	r0, [r8, #18]	@ zero_extendqisi2
 662 021a 98F81310 		ldrb	r1, [r8, #19]	@ zero_extendqisi2
 663              	.LBE48:
 664              	.LBB49:
 665              		.loc 1 566 0
 666 021e 0693     		str	r3, [sp, #24]
 667 0220 0794     		str	r4, [sp, #28]
 668              	.LBE49:
 669              	.LBB50:
 670              		.loc 1 572 0
 671 0222 98F81530 		ldrb	r3, [r8, #21]	@ zero_extendqisi2
 672              	.LBE50:
 673              	.LBB51:
 674              		.loc 1 569 0
 675 0226 98F81140 		ldrb	r4, [r8, #17]	@ zero_extendqisi2
 676              	.LBE51:
 677              	.LBB52:
 678              		.loc 1 563 0
 679 022a 8DF824C0 		strb	ip, [sp, #36]
 680 022e 8DF82670 		strb	r7, [sp, #38]
 681              	.LBE52:
 682              		.loc 1 577 0
 683 0232 2C4E     		ldr	r6, .L100
 684              	.LBB53:
ARM GAS  C:\Users\Vergil\AppData\Local\Temp\ccxsbUzg.s 			page 13


 685              		.loc 1 560 0
 686 0234 8DF820B0 		strb	fp, [sp, #32]
 687              	.LVL71:
 688 0238 8DF821A0 		strb	sl, [sp, #33]
 689              	.LVL72:
 690 023c 8DF823E0 		strb	lr, [sp, #35]
 691              	.LVL73:
 692              	.LBE53:
 693              	.LBB54:
 694              		.loc 1 563 0
 695 0240 8DF82790 		strb	r9, [sp, #39]
 696              	.LVL74:
 697              	.LBE54:
 698              	.LBB55:
 699              		.loc 1 566 0
 700 0244 049F     		ldr	r7, [sp, #16]
 701 0246 DDF814C0 		ldr	ip, [sp, #20]
 702 024a 8DF82870 		strb	r7, [sp, #40]
 703              	.LVL75:
 704 024e DDF81C90 		ldr	r9, [sp, #28]
 705 0252 069F     		ldr	r7, [sp, #24]
 706              	.LBE55:
 707              	.LBB56:
 708              		.loc 1 569 0
 709 0254 8DF82C40 		strb	r4, [sp, #44]
 710 0258 8DF82D00 		strb	r0, [sp, #45]
 711 025c 8DF82E10 		strb	r1, [sp, #46]
 712 0260 8DF82F20 		strb	r2, [sp, #47]
 713              	.LBE56:
 714              	.LBB57:
 715              		.loc 1 572 0
 716 0264 8DF83030 		strb	r3, [sp, #48]
 717 0268 98F81640 		ldrb	r4, [r8, #22]	@ zero_extendqisi2
 718 026c 98F81700 		ldrb	r0, [r8, #23]	@ zero_extendqisi2
 719 0270 98F81810 		ldrb	r1, [r8, #24]	@ zero_extendqisi2
 720              	.LBE57:
 721              		.loc 1 574 0
 722 0274 98F80420 		ldrb	r2, [r8, #4]	@ zero_extendqisi2
 723              		.loc 1 577 0
 724 0278 B369     		ldr	r3, [r6, #24]
 725              	.LBB58:
 726              		.loc 1 566 0
 727 027a 8DF829C0 		strb	ip, [sp, #41]
 728              	.LVL76:
 729 027e 8DF82A70 		strb	r7, [sp, #42]
 730              	.LVL77:
 731 0282 8DF82B90 		strb	r9, [sp, #43]
 732              	.LVL78:
 733              	.LBE58:
 734              	.LBB59:
 735              		.loc 1 572 0
 736 0286 8DF83140 		strb	r4, [sp, #49]
 737              	.LVL79:
 738 028a 8DF83200 		strb	r0, [sp, #50]
 739              	.LVL80:
 740 028e 8DF83310 		strb	r1, [sp, #51]
 741              	.LVL81:
ARM GAS  C:\Users\Vergil\AppData\Local\Temp\ccxsbUzg.s 			page 14


 742              	.LBE59:
 743              		.loc 1 574 0
 744 0292 8DF83420 		strb	r2, [sp, #52]
 745              		.loc 1 577 0
 746 0296 002B     		cmp	r3, #0
 747 0298 3FF4D9AE 		beq	.L94
 748              		.loc 1 579 0
 749 029c 2846     		mov	r0, r5
 750 029e B369     		ldr	r3, [r6, #24]
 751 02a0 08A9     		add	r1, sp, #32
 752 02a2 1522     		movs	r2, #21
 753 02a4 9847     		blx	r3
 754              	.LVL82:
 755              	.LBE36:
 756              	.LBB60:
 757              	.LBB28:
 758              	.LBB24:
 759              		.loc 1 637 0
 760 02a6 0120     		movs	r0, #1
 761 02a8 E5E6     		b	.L46
 762              	.LVL83:
 763              	.L54:
 764              	.LBE24:
 765              	.LBE28:
 766              	.LBE60:
 767              		.loc 1 538 0
 768 02aa B5F5024F 		cmp	r5, #33280
 769 02ae 3FF40AAF 		beq	.L49
 770 02b2 B5F5084F 		cmp	r5, #34816
 771 02b6 7FF4DDAE 		bne	.L61
 772              	.LVL84:
 773              		.loc 1 603 0
 774 02ba 0A48     		ldr	r0, .L100
 775 02bc 8269     		ldr	r2, [r0, #24]
 776 02be 002A     		cmp	r2, #0
 777 02c0 3FF4C5AE 		beq	.L94
 778              		.loc 1 608 0
 779 02c4 8369     		ldr	r3, [r0, #24]
 780 02c6 08F10501 		add	r1, r8, #5
 781              	.LVL85:
 782 02ca 2846     		mov	r0, r5
 783 02cc 0122     		movs	r2, #1
 784 02ce 9847     		blx	r3
 785              	.LVL86:
 786              		.loc 1 617 0
 787 02d0 0120     		movs	r0, #1
 788 02d2 D0E6     		b	.L46
 789              	.LVL87:
 790              	.L99:
 791              		.loc 1 538 0
 792 02d4 991C     		adds	r1, r3, #2
 793 02d6 8D42     		cmp	r5, r1
 794 02d8 7FF4CCAE 		bne	.L61
 795 02dc F3E6     		b	.L49
 796              	.LVL88:
 797              	.L59:
 798              	.LBB61:
ARM GAS  C:\Users\Vergil\AppData\Local\Temp\ccxsbUzg.s 			page 15


 799              	.LBB33:
 800              		.loc 1 741 0
 801 02de 0546     		mov	r5, r0
 802              	.LVL89:
 803 02e0 30E7     		b	.L43
 804              	.L101:
 805 02e2 00BF     		.align	2
 806              	.L100:
 807 02e4 00000000 		.word	tSLInformation
 808              	.LBE33:
 809              	.LBE61:
 810              		.cfi_endproc
 811              	.LFE2:
 812              		.size	hci_unsol_event_handler, .-hci_unsol_event_handler
 813 02e8 AFF30080 		.section	.text.hci_unsolicited_event_handler,"ax",%progbits
 813      AFF30080 
 814              		.align	2
 815              		.p2align 4,,15
 816              		.global	hci_unsolicited_event_handler
 817              		.thumb
 818              		.thumb_func
 819              		.type	hci_unsolicited_event_handler, %function
 820              	hci_unsolicited_event_handler:
 821              	.LFB3:
 822              		.loc 1 665 0
 823              		.cfi_startproc
 824              		@ args = 0, pretend = 0, frame = 8
 825              		@ frame_needed = 0, uses_anonymous_args = 0
 826              	.LVL90:
 827 0000 10B5     		push	{r4, lr}
 828              	.LCFI5:
 829              		.cfi_def_cfa_offset 8
 830              		.cfi_offset 4, -8
 831              		.cfi_offset 14, -4
 832              		.loc 1 669 0
 833 0002 0B4C     		ldr	r4, .L107
 834 0004 6388     		ldrh	r3, [r4, #2]
 835 0006 98B2     		uxth	r0, r3
 836              		.loc 1 665 0
 837 0008 82B0     		sub	sp, sp, #8
 838              	.LCFI6:
 839              		.cfi_def_cfa_offset 16
 840              		.loc 1 669 0
 841 000a 18B1     		cbz	r0, .L105
 842              		.loc 1 671 0
 843 000c 6068     		ldr	r0, [r4, #4]
 844              	.LVL91:
 845              		.loc 1 673 0
 846 000e 0178     		ldrb	r1, [r0, #0]	@ zero_extendqisi2
 847 0010 0429     		cmp	r1, #4
 848 0012 02D0     		beq	.L106
 849              	.LVL92:
 850              	.L105:
 851              		.loc 1 665 0
 852 0014 0020     		movs	r0, #0
 853              	.LVL93:
 854              	.L104:
ARM GAS  C:\Users\Vergil\AppData\Local\Temp\ccxsbUzg.s 			page 16


 855              		.loc 1 691 0
 856 0016 02B0     		add	sp, sp, #8
 857 0018 10BD     		pop	{r4, pc}
 858              	.LVL94:
 859              	.L106:
 860              		.loc 1 677 0
 861 001a FFF7FEFF 		bl	hci_unsol_event_handler
 862              	.LVL95:
 863 001e 0128     		cmp	r0, #1
 864 0020 F8D1     		bne	.L105
 865              		.loc 1 682 0
 866 0022 0022     		movs	r2, #0
 867              		.loc 1 685 0
 868 0024 0190     		str	r0, [sp, #4]
 869              		.loc 1 682 0
 870 0026 6280     		strh	r2, [r4, #2]	@ movhi
 871              	.LVL96:
 872              		.loc 1 685 0
 873 0028 FFF7FEFF 		bl	SpiResumeSpi
 874              	.LVL97:
 875 002c 0198     		ldr	r0, [sp, #4]
 876 002e F2E7     		b	.L104
 877              	.L108:
 878              		.align	2
 879              	.L107:
 880 0030 00000000 		.word	tSLInformation
 881              		.cfi_endproc
 882              	.LFE3:
 883              		.size	hci_unsolicited_event_handler, .-hci_unsolicited_event_handler
 884 0034 AFF30080 		.section	.text.hci_event_handler,"ax",%progbits
 884      AFF30080 
 884      AFF30080 
 885              		.align	2
 886              		.p2align 4,,15
 887              		.global	hci_event_handler
 888              		.thumb
 889              		.thumb_func
 890              		.type	hci_event_handler, %function
 891              	hci_event_handler:
 892              	.LFB1:
 893              		.loc 1 228 0
 894              		.cfi_startproc
 895              		@ args = 0, pretend = 0, frame = 8
 896              		@ frame_needed = 0, uses_anonymous_args = 0
 897              	.LVL98:
 898 0000 2DE9F04F 		push	{r4, r5, r6, r7, r8, r9, sl, fp, lr}
 899              	.LCFI7:
 900              		.cfi_def_cfa_offset 36
 901              		.cfi_offset 4, -36
 902              		.cfi_offset 5, -32
 903              		.cfi_offset 6, -28
 904              		.cfi_offset 7, -24
 905              		.cfi_offset 8, -20
 906              		.cfi_offset 9, -16
 907              		.cfi_offset 10, -12
 908              		.cfi_offset 11, -8
 909              		.cfi_offset 14, -4
ARM GAS  C:\Users\Vergil\AppData\Local\Temp\ccxsbUzg.s 			page 17


 910 0004 DFF8B4B4 		ldr	fp, .L167
 911 0008 83B0     		sub	sp, sp, #12
 912              	.LCFI8:
 913              		.cfi_def_cfa_offset 48
 914              		.loc 1 232 0
 915 000a 4FF00008 		mov	r8, #0
 916              		.loc 1 228 0
 917 000e 8146     		mov	r9, r0
 918 0010 8A46     		mov	sl, r1
 919 0012 0192     		str	r2, [sp, #4]
 920              		.loc 1 240 0
 921 0014 5F46     		mov	r7, fp
 922              		.loc 1 469 0
 923 0016 4646     		mov	r6, r8
 924              	.LVL99:
 925              	.L157:
 926              		.loc 1 240 0
 927 0018 BBF80230 		ldrh	r3, [fp, #2]
 928 001c 98B2     		uxth	r0, r3
 929 001e 0028     		cmp	r0, #0
 930 0020 FAD0     		beq	.L157
 931              		.loc 1 242 0
 932 0022 7C68     		ldr	r4, [r7, #4]
 933              	.LVL100:
 934              		.loc 1 244 0
 935 0024 2178     		ldrb	r1, [r4, #0]	@ zero_extendqisi2
 936 0026 0429     		cmp	r1, #4
 937 0028 3CD0     		beq	.L160
 938              	.LVL101:
 939              		.loc 1 453 0
 940 002a 2046     		mov	r0, r4
 941 002c 0321     		movs	r1, #3
 942              		.loc 1 451 0
 943 002e A578     		ldrb	r5, [r4, #2]	@ zero_extendqisi2
 944              	.LVL102:
 945              		.loc 1 453 0
 946 0030 FFF7FEFF 		bl	STREAM_TO_UINT16_f
 947              	.LVL103:
 948 0034 8446     		mov	ip, r0
 949              	.LVL104:
 950              		.loc 1 457 0
 951 0036 BAF1000F 		cmp	sl, #0
 952 003a 10D0     		beq	.L138
 953              		.loc 1 459 0
 954 003c 0421     		movs	r1, #4
 955 003e 601D     		adds	r0, r4, #5
 956              	.LVL105:
 957 0040 CDF800C0 		str	ip, [sp, #0]
 958 0044 FFF7FEFF 		bl	STREAM_TO_UINT32_f
 959              	.LVL106:
 960 0048 019B     		ldr	r3, [sp, #4]
 961 004a 0246     		mov	r2, r0
 962 004c 1860     		str	r0, [r3, #0]
 963              		.loc 1 460 0
 964 004e 04F11501 		add	r1, r4, #21
 965 0052 5046     		mov	r0, sl
 966 0054 D2B2     		uxtb	r2, r2
ARM GAS  C:\Users\Vergil\AppData\Local\Temp\ccxsbUzg.s 			page 18


 967 0056 FFF7FEFF 		bl	memcpy
 968              	.LVL107:
 969 005a DDF800C0 		ldr	ip, [sp, #0]
 970              	.L138:
 971              		.loc 1 463 0
 972 005e 691D     		adds	r1, r5, #5
 973 0060 4846     		mov	r0, r9
 974 0062 6118     		adds	r1, r4, r1
 975 0064 C5EB0C02 		rsb	r2, r5, ip
 976 0068 FFF7FEFF 		bl	memcpy
 977              	.LVL108:
 978              		.loc 1 466 0
 979 006c ABF83660 		strh	r6, [fp, #54]	@ movhi
 980              	.LVL109:
 981              	.L137:
 982              		.loc 1 469 0
 983 0070 ABF80260 		strh	r6, [fp, #2]	@ movhi
 984              		.loc 1 471 0
 985 0074 FFF7FEFF 		bl	SpiResumeSpi
 986              	.LVL110:
 987              		.loc 1 475 0
 988 0078 2178     		ldrb	r1, [r4, #0]	@ zero_extendqisi2
 989 007a 0429     		cmp	r1, #4
 990 007c 0BD0     		beq	.L161
 991              	.L139:
 992              		.loc 1 481 0
 993 007e BBF80020 		ldrh	r2, [fp, #0]
 994 0082 90B2     		uxth	r0, r2
 995 0084 0028     		cmp	r0, #0
 996 0086 C7D1     		bne	.L157
 997              		.loc 1 481 0 is_stmt 0 discriminator 1
 998 0088 FB8E     		ldrh	r3, [r7, #54]
 999 008a 98B2     		uxth	r0, r3
 1000 008c 0028     		cmp	r0, #0
 1001 008e C3D1     		bne	.L157
 1002              		.loc 1 488 0 is_stmt 1
 1003 0090 03B0     		add	sp, sp, #12
 1004 0092 BDE8F08F 		pop	{r4, r5, r6, r7, r8, r9, sl, fp, pc}
 1005              	.L161:
 1006              		.loc 1 475 0 discriminator 1
 1007 0096 B8F5805F 		cmp	r8, #4096
 1008 009a F0D1     		bne	.L139
 1009              		.loc 1 478 0
 1010 009c 2046     		mov	r0, r4
 1011 009e FFF7FEFF 		bl	hci_unsol_handle_patch_request
 1012              	.LVL111:
 1013 00a2 ECE7     		b	.L139
 1014              	.L160:
 1015              		.loc 1 247 0
 1016 00a4 0121     		movs	r1, #1
 1017 00a6 2046     		mov	r0, r4
 1018 00a8 FFF7FEFF 		bl	STREAM_TO_UINT16_f
 1019              	.LVL112:
 1020 00ac 8046     		mov	r8, r0
 1021              	.LVL113:
 1022              		.loc 1 254 0
 1023 00ae 2046     		mov	r0, r4
ARM GAS  C:\Users\Vergil\AppData\Local\Temp\ccxsbUzg.s 			page 19


 1024              	.LVL114:
 1025 00b0 FFF7FEFF 		bl	hci_unsol_event_handler
 1026              	.LVL115:
 1027 00b4 0146     		mov	r1, r0
 1028 00b6 68B9     		cbnz	r0, .L113
 1029              		.loc 1 258 0
 1030 00b8 41F20700 		movw	r0, #4103
 1031              		.loc 1 249 0
 1032 00bc 651D     		adds	r5, r4, #5
 1033              	.LVL116:
 1034              		.loc 1 258 0
 1035 00be 8045     		cmp	r8, r0
 1036 00c0 0FD8     		bhi	.L127
 1037 00c2 421E     		subs	r2, r0, #1
 1038 00c4 9045     		cmp	r8, r2
 1039 00c6 29D3     		bcc	.L162
 1040              	.L114:
 1041              		.loc 1 305 0
 1042 00c8 2846     		mov	r0, r5
 1043 00ca 0021     		movs	r1, #0
 1044 00cc FFF7FEFF 		bl	STREAM_TO_UINT32_f
 1045              	.LVL117:
 1046 00d0 C9F80000 		str	r0, [r9, #0]
 1047              	.LVL118:
 1048              	.L113:
 1049              		.loc 1 443 0
 1050 00d4 BBF80000 		ldrh	r0, [fp, #0]
 1051 00d8 83B2     		uxth	r3, r0
 1052 00da 4345     		cmp	r3, r8
 1053 00dc C8D1     		bne	.L137
 1054              	.LVL119:
 1055              	.L164:
 1056              		.loc 1 445 0
 1057 00de 3E80     		strh	r6, [r7, #0]	@ movhi
 1058 00e0 C6E7     		b	.L137
 1059              	.LVL120:
 1060              	.L127:
 1061              		.loc 1 258 0
 1062 00e2 41F21100 		movw	r0, #4113
 1063 00e6 8045     		cmp	r8, r0
 1064 00e8 58D0     		beq	.L116
 1065 00ea 49D8     		bhi	.L131
 1066 00ec 41F20B01 		movw	r1, #4107
 1067 00f0 8845     		cmp	r8, r1
 1068 00f2 E9D0     		beq	.L114
 1069 00f4 00F22C81 		bhi	.L132
 1070 00f8 41F20902 		movw	r2, #4105
 1071 00fc 9045     		cmp	r8, r2
 1072 00fe E3D0     		beq	.L114
 1073 0100 40F2A281 		bls	.L163
 1074              		.loc 1 390 0
 1075 0104 2079     		ldrb	r0, [r4, #4]	@ zero_extendqisi2
 1076 0106 89F80400 		strb	r0, [r9, #4]
 1077              		.loc 1 392 0
 1078 010a 2968     		ldr	r1, [r5, #0]	@ unaligned
 1079 010c C9F80010 		str	r1, [r9, #0]	@ unaligned
 1080              		.loc 1 443 0
ARM GAS  C:\Users\Vergil\AppData\Local\Temp\ccxsbUzg.s 			page 20


 1081 0110 BBF80000 		ldrh	r0, [fp, #0]
 1082 0114 83B2     		uxth	r3, r0
 1083 0116 4345     		cmp	r3, r8
 1084 0118 AAD1     		bne	.L137
 1085 011a E0E7     		b	.L164
 1086              	.L162:
 1087              		.loc 1 258 0
 1088 011c 40F20223 		movw	r3, #514
 1089 0120 9845     		cmp	r8, r3
 1090 0122 D1D0     		beq	.L114
 1091 0124 44D9     		bls	.L165
 1092 0126 41F20203 		movw	r3, #4098
 1093 012a 9845     		cmp	r8, r3
 1094 012c 40F24E81 		bls	.L166
 1095 0130 41F20400 		movw	r0, #4100
 1096 0134 8045     		cmp	r8, r0
 1097 0136 00F01681 		beq	.L119
 1098 013a 40F23281 		bls	.L118
 1099              		.loc 1 336 0
 1100 013e 0021     		movs	r1, #0
 1101 0140 2846     		mov	r0, r5
 1102 0142 FFF7FEFF 		bl	STREAM_TO_UINT32_f
 1103              	.LVL121:
 1104              		.loc 1 339 0
 1105 0146 0421     		movs	r1, #4
 1106              		.loc 1 336 0
 1107 0148 C9F80000 		str	r0, [r9, #0]
 1108              	.LVL122:
 1109              		.loc 1 339 0
 1110 014c 2846     		mov	r0, r5
 1111 014e FFF7FEFF 		bl	STREAM_TO_UINT32_f
 1112              	.LVL123:
 1113              		.loc 1 344 0
 1114 0152 2346     		mov	r3, r4
 1115              		.loc 1 339 0
 1116 0154 C9F80400 		str	r0, [r9, #4]
 1117              	.LVL124:
 1118              		.loc 1 344 0
 1119 0158 53F80D0F 		ldr	r0, [r3, #13]!	@ unaligned
 1120 015c 5968     		ldr	r1, [r3, #4]	@ unaligned
 1121 015e 9A68     		ldr	r2, [r3, #8]	@ unaligned
 1122 0160 DB68     		ldr	r3, [r3, #12]	@ unaligned
 1123 0162 49F8080F 		str	r0, [r9, #8]!	@ unaligned
 1124              	.LVL125:
 1125 0166 C9F80C30 		str	r3, [r9, #12]	@ unaligned
 1126              	.LVL126:
 1127 016a C9F80410 		str	r1, [r9, #4]	@ unaligned
 1128 016e C9F80820 		str	r2, [r9, #8]	@ unaligned
 1129              		.loc 1 443 0
 1130 0172 BBF80000 		ldrh	r0, [fp, #0]
 1131 0176 83B2     		uxth	r3, r0
 1132 0178 4345     		cmp	r3, r8
 1133 017a 7FF479AF 		bne	.L137
 1134 017e AEE7     		b	.L164
 1135              	.LVL127:
 1136              	.L131:
 1137              		.loc 1 258 0
ARM GAS  C:\Users\Vergil\AppData\Local\Temp\ccxsbUzg.s 			page 21


 1138 0180 42F20503 		movw	r3, #8197
 1139 0184 9845     		cmp	r8, r3
 1140 0186 64D0     		beq	.L125
 1141 0188 00F2D480 		bhi	.L133
 1142 018c 41F21202 		movw	r2, #4114
 1143 0190 9045     		cmp	r8, r2
 1144 0192 00F0C380 		beq	.L124
 1145 0196 B8F5005F 		cmp	r8, #8192
 1146 019a 9BD9     		bls	.L113
 1147              	.L116:
 1148              		.loc 1 282 0
 1149 019c 2279     		ldrb	r2, [r4, #4]	@ zero_extendqisi2
 1150 019e 89F80020 		strb	r2, [r9, #0]
 1151              		.loc 1 443 0
 1152 01a2 BBF80000 		ldrh	r0, [fp, #0]
 1153 01a6 83B2     		uxth	r3, r0
 1154 01a8 4345     		cmp	r3, r8
 1155 01aa 7FF461AF 		bne	.L137
 1156 01ae 96E7     		b	.L164
 1157              	.L165:
 1158              		.loc 1 258 0
 1159 01b0 B8F10C0F 		cmp	r8, #12
 1160 01b4 00F22981 		bhi	.L129
 1161 01b8 B8F1080F 		cmp	r8, #8
 1162 01bc 84D2     		bcs	.L114
 1163 01be B8F1000F 		cmp	r8, #0
 1164 01c2 87D0     		beq	.L113
 1165 01c4 B8F1060F 		cmp	r8, #6
 1166 01c8 7FF67EAF 		bls	.L114
 1167              		.loc 1 397 0
 1168 01cc 0021     		movs	r1, #0
 1169 01ce 2846     		mov	r0, r5
 1170 01d0 FFF7FEFF 		bl	STREAM_TO_UINT32_f
 1171              	.LVL128:
 1172              		.loc 1 399 0
 1173 01d4 0421     		movs	r1, #4
 1174              		.loc 1 397 0
 1175 01d6 C9F80000 		str	r0, [r9, #0]
 1176              	.LVL129:
 1177              		.loc 1 399 0
 1178 01da 2846     		mov	r0, r5
 1179 01dc FFF7FEFF 		bl	STREAM_TO_UINT32_f
 1180              	.LVL130:
 1181              		.loc 1 401 0
 1182 01e0 0821     		movs	r1, #8
 1183              		.loc 1 399 0
 1184 01e2 C9F80400 		str	r0, [r9, #4]
 1185              	.LVL131:
 1186              		.loc 1 401 0
 1187 01e6 2846     		mov	r0, r5
 1188 01e8 FFF7FEFF 		bl	STREAM_TO_UINT16_f
 1189              	.LVL132:
 1190              		.loc 1 403 0
 1191 01ec 0A21     		movs	r1, #10
 1192              		.loc 1 401 0
 1193 01ee C9F80800 		str	r0, [r9, #8]
 1194              	.LVL133:
ARM GAS  C:\Users\Vergil\AppData\Local\Temp\ccxsbUzg.s 			page 22


 1195              		.loc 1 403 0
 1196 01f2 2846     		mov	r0, r5
 1197 01f4 FFF7FEFF 		bl	STREAM_TO_UINT16_f
 1198              	.LVL134:
 1199              		.loc 1 405 0
 1200 01f8 2546     		mov	r5, r4
 1201              	.LVL135:
 1202              		.loc 1 403 0
 1203 01fa C9F80A00 		str	r0, [r9, #10]
 1204              	.LVL136:
 1205              		.loc 1 405 0
 1206 01fe 55F8112F 		ldr	r2, [r5, #17]!	@ unaligned
 1207 0202 6868     		ldr	r0, [r5, #4]	@ unaligned
 1208 0204 A968     		ldr	r1, [r5, #8]	@ unaligned
 1209 0206 EB68     		ldr	r3, [r5, #12]	@ unaligned
 1210 0208 49F80C2F 		str	r2, [r9, #12]!	@ unaligned
 1211              	.LVL137:
 1212 020c 2246     		mov	r2, r4
 1213 020e C9F80C30 		str	r3, [r9, #12]	@ unaligned
 1214 0212 C9F80400 		str	r0, [r9, #4]	@ unaligned
 1215 0216 C9F80810 		str	r1, [r9, #8]	@ unaligned
 1216 021a 52F821EF 		ldr	lr, [r2, #33]!	@ unaligned
 1217 021e 9068     		ldr	r0, [r2, #8]	@ unaligned
 1218 0220 5568     		ldr	r5, [r2, #4]	@ unaligned
 1219 0222 D168     		ldr	r1, [r2, #12]	@ unaligned
 1220 0224 C9F810E0 		str	lr, [r9, #16]	@ unaligned
 1221 0228 2346     		mov	r3, r4
 1222 022a C9F81450 		str	r5, [r9, #20]	@ unaligned
 1223 022e C9F81800 		str	r0, [r9, #24]	@ unaligned
 1224 0232 C9F81C10 		str	r1, [r9, #28]	@ unaligned
 1225 0236 53F8312F 		ldr	r2, [r3, #49]!	@ unaligned
 1226 023a C9F82020 		str	r2, [r9, #32]	@ unaligned
 1227 023e 9888     		ldrh	r0, [r3, #4]	@ unaligned
 1228 0240 A9F82400 		strh	r0, [r9, #36]	@ unaligned
 1229              	.LVL138:
 1230              		.loc 1 443 0
 1231 0244 BBF80000 		ldrh	r0, [fp, #0]
 1232 0248 83B2     		uxth	r3, r0
 1233 024a 4345     		cmp	r3, r8
 1234 024c 7FF410AF 		bne	.L137
 1235 0250 45E7     		b	.L164
 1236              	.LVL139:
 1237              	.L125:
 1238              	.LBB62:
 1239              		.loc 1 414 0
 1240 0252 6579     		ldrb	r5, [r4, #5]	@ zero_extendqisi2
 1241              	.LVL140:
 1242 0254 89F80050 		strb	r5, [r9, #0]
 1243              	.LVL141:
 1244 0258 A179     		ldrb	r1, [r4, #6]	@ zero_extendqisi2
 1245 025a 89F80110 		strb	r1, [r9, #1]
 1246              	.LVL142:
 1247 025e E079     		ldrb	r0, [r4, #7]	@ zero_extendqisi2
 1248 0260 89F80200 		strb	r0, [r9, #2]
 1249              	.LVL143:
 1250 0264 227A     		ldrb	r2, [r4, #8]	@ zero_extendqisi2
 1251 0266 89F80320 		strb	r2, [r9, #3]
ARM GAS  C:\Users\Vergil\AppData\Local\Temp\ccxsbUzg.s 			page 23


 1252              	.LVL144:
 1253              	.LBE62:
 1254              	.LBB63:
 1255              		.loc 1 418 0
 1256 026a 637A     		ldrb	r3, [r4, #9]	@ zero_extendqisi2
 1257 026c 89F80430 		strb	r3, [r9, #4]
 1258              	.LVL145:
 1259 0270 A57A     		ldrb	r5, [r4, #10]	@ zero_extendqisi2
 1260 0272 89F80550 		strb	r5, [r9, #5]
 1261              	.LVL146:
 1262 0276 E17A     		ldrb	r1, [r4, #11]	@ zero_extendqisi2
 1263 0278 89F80610 		strb	r1, [r9, #6]
 1264              	.LVL147:
 1265 027c 207B     		ldrb	r0, [r4, #12]	@ zero_extendqisi2
 1266 027e 89F80700 		strb	r0, [r9, #7]
 1267              	.LVL148:
 1268              	.LBE63:
 1269              	.LBB64:
 1270              		.loc 1 422 0
 1271 0282 627B     		ldrb	r2, [r4, #13]	@ zero_extendqisi2
 1272 0284 89F80820 		strb	r2, [r9, #8]
 1273              	.LVL149:
 1274 0288 A37B     		ldrb	r3, [r4, #14]	@ zero_extendqisi2
 1275 028a 89F80930 		strb	r3, [r9, #9]
 1276              	.LVL150:
 1277 028e E57B     		ldrb	r5, [r4, #15]	@ zero_extendqisi2
 1278 0290 89F80A50 		strb	r5, [r9, #10]
 1279              	.LVL151:
 1280 0294 217C     		ldrb	r1, [r4, #16]	@ zero_extendqisi2
 1281 0296 89F80B10 		strb	r1, [r9, #11]
 1282              	.LVL152:
 1283              	.LBE64:
 1284              	.LBB65:
 1285              		.loc 1 426 0
 1286 029a 607C     		ldrb	r0, [r4, #17]	@ zero_extendqisi2
 1287 029c 89F80C00 		strb	r0, [r9, #12]
 1288              	.LVL153:
 1289 02a0 A27C     		ldrb	r2, [r4, #18]	@ zero_extendqisi2
 1290 02a2 89F80D20 		strb	r2, [r9, #13]
 1291              	.LVL154:
 1292 02a6 E37C     		ldrb	r3, [r4, #19]	@ zero_extendqisi2
 1293 02a8 89F80E30 		strb	r3, [r9, #14]
 1294              	.LVL155:
 1295 02ac 257D     		ldrb	r5, [r4, #20]	@ zero_extendqisi2
 1296 02ae 89F80F50 		strb	r5, [r9, #15]
 1297              	.LVL156:
 1298              	.LBE65:
 1299              	.LBB66:
 1300              		.loc 1 430 0
 1301 02b2 617D     		ldrb	r1, [r4, #21]	@ zero_extendqisi2
 1302 02b4 89F81010 		strb	r1, [r9, #16]
 1303              	.LVL157:
 1304 02b8 A07D     		ldrb	r0, [r4, #22]	@ zero_extendqisi2
 1305 02ba 89F81100 		strb	r0, [r9, #17]
 1306              	.LVL158:
 1307 02be E27D     		ldrb	r2, [r4, #23]	@ zero_extendqisi2
 1308 02c0 89F81220 		strb	r2, [r9, #18]
ARM GAS  C:\Users\Vergil\AppData\Local\Temp\ccxsbUzg.s 			page 24


 1309              	.LVL159:
 1310 02c4 237E     		ldrb	r3, [r4, #24]	@ zero_extendqisi2
 1311 02c6 89F81330 		strb	r3, [r9, #19]
 1312              	.LVL160:
 1313              	.LBE66:
 1314              	.LBB67:
 1315              		.loc 1 434 0
 1316 02ca 657E     		ldrb	r5, [r4, #25]	@ zero_extendqisi2
 1317 02cc 89F81450 		strb	r5, [r9, #20]
 1318              	.LVL161:
 1319 02d0 A17E     		ldrb	r1, [r4, #26]	@ zero_extendqisi2
 1320 02d2 89F81510 		strb	r1, [r9, #21]
 1321              	.LVL162:
 1322 02d6 E07E     		ldrb	r0, [r4, #27]	@ zero_extendqisi2
 1323 02d8 89F81600 		strb	r0, [r9, #22]
 1324              	.LVL163:
 1325 02dc 227F     		ldrb	r2, [r4, #28]	@ zero_extendqisi2
 1326 02de 89F81720 		strb	r2, [r9, #23]
 1327              	.LVL164:
 1328 02e2 637F     		ldrb	r3, [r4, #29]	@ zero_extendqisi2
 1329 02e4 2146     		mov	r1, r4
 1330 02e6 89F81830 		strb	r3, [r9, #24]
 1331              	.LVL165:
 1332 02ea 11F81E5F 		ldrb	r5, [r1, #30]!	@ zero_extendqisi2
 1333 02ee 09F11A03 		add	r3, r9, #26
 1334 02f2 89F81950 		strb	r5, [r9, #25]
 1335              	.LVL166:
 1336              		.loc 1 227 0
 1337 02f6 09F13A05 		add	r5, r9, #58
 1338              	.LVL167:
 1339              	.L136:
 1340              	.LBE67:
 1341              	.LBB68:
 1342              		.loc 1 438 0 discriminator 2
 1343 02fa 4878     		ldrb	r0, [r1, #1]	@ zero_extendqisi2
 1344 02fc 1A46     		mov	r2, r3
 1345 02fe 02F8010B 		strb	r0, [r2], #1
 1346 0302 8878     		ldrb	r0, [r1, #2]	@ zero_extendqisi2
 1347 0304 5870     		strb	r0, [r3, #1]
 1348 0306 531C     		adds	r3, r2, #1
 1349              	.LVL168:
 1350 0308 0231     		adds	r1, r1, #2
 1351 030a AB42     		cmp	r3, r5
 1352 030c F5D1     		bne	.L136
 1353              	.LBE68:
 1354              		.loc 1 443 0
 1355 030e BBF80000 		ldrh	r0, [fp, #0]
 1356 0312 83B2     		uxth	r3, r0
 1357              	.LVL169:
 1358 0314 4345     		cmp	r3, r8
 1359 0316 7FF4ABAE 		bne	.L137
 1360 031a E0E6     		b	.L164
 1361              	.LVL170:
 1362              	.L124:
 1363              		.loc 1 329 0
 1364 031c 2846     		mov	r0, r5
 1365 031e FFF7FEFF 		bl	STREAM_TO_UINT16_f
ARM GAS  C:\Users\Vergil\AppData\Local\Temp\ccxsbUzg.s 			page 25


 1366              	.LVL171:
 1367 0322 A9F80000 		strh	r0, [r9, #0]	@ movhi
 1368              		.loc 1 443 0
 1369 0326 BBF80000 		ldrh	r0, [fp, #0]
 1370 032a 83B2     		uxth	r3, r0
 1371 032c 4345     		cmp	r3, r8
 1372 032e 7FF49FAE 		bne	.L137
 1373 0332 D4E6     		b	.L164
 1374              	.LVL172:
 1375              	.L133:
 1376              		.loc 1 258 0
 1377 0334 42F20901 		movw	r1, #8201
 1378 0338 8845     		cmp	r8, r1
 1379 033a 70D8     		bhi	.L134
 1380 033c 481E     		subs	r0, r1, #1
 1381 033e 8045     		cmp	r8, r0
 1382 0340 BFF42CAF 		bcs	.L116
 1383 0344 42F20603 		movw	r3, #8198
 1384 0348 9845     		cmp	r8, r3
 1385 034a 7FF4C3AE 		bne	.L113
 1386 034e 25E7     		b	.L116
 1387              	.L132:
 1388 0350 41F20F02 		movw	r2, #4111
 1389 0354 9045     		cmp	r8, r2
 1390 0356 24D0     		beq	.L118
 1391 0358 00F29880 		bhi	.L123
 1392 035c 41F20D03 		movw	r3, #4109
 1393 0360 9845     		cmp	r8, r3
 1394 0362 7FF4B7AE 		bne	.L113
 1395              	.L119:
 1396              		.loc 1 352 0
 1397 0366 0021     		movs	r1, #0
 1398 0368 2846     		mov	r0, r5
 1399 036a FFF7FEFF 		bl	STREAM_TO_UINT32_f
 1400              	.LVL173:
 1401              		.loc 1 354 0
 1402 036e 0421     		movs	r1, #4
 1403              		.loc 1 352 0
 1404 0370 C9F80000 		str	r0, [r9, #0]
 1405              	.LVL174:
 1406              		.loc 1 354 0
 1407 0374 2846     		mov	r0, r5
 1408 0376 FFF7FEFF 		bl	STREAM_TO_UINT32_f
 1409              	.LVL175:
 1410              		.loc 1 356 0
 1411 037a 0821     		movs	r1, #8
 1412              		.loc 1 354 0
 1413 037c C9F80400 		str	r0, [r9, #4]
 1414              		.loc 1 356 0
 1415 0380 2846     		mov	r0, r5
 1416 0382 FFF7FEFF 		bl	STREAM_TO_UINT32_f
 1417              	.LVL176:
 1418              		.loc 1 358 0
 1419 0386 D9F80C10 		ldr	r1, [r9, #12]
 1420              		.loc 1 356 0
 1421 038a C9F80800 		str	r0, [r9, #8]
 1422              		.loc 1 358 0
ARM GAS  C:\Users\Vergil\AppData\Local\Temp\ccxsbUzg.s 			page 26


 1423 038e 11F13903 		adds	r3, r1, #57
 1424              		.loc 1 355 0
 1425 0392 09F10809 		add	r9, r9, #8
 1426              	.LVL177:
 1427              		.loc 1 358 0
 1428 0396 7FF49DAE 		bne	.L113
 1429              		.loc 1 360 0
 1430 039a 0121     		movs	r1, #1
 1431 039c FFF7FEFF 		bl	set_socket_active_status
 1432              	.LVL178:
 1433 03a0 98E6     		b	.L113
 1434              	.LVL179:
 1435              	.L118:
 1436              		.loc 1 368 0
 1437 03a2 0021     		movs	r1, #0
 1438 03a4 2846     		mov	r0, r5
 1439 03a6 FFF7FEFF 		bl	STREAM_TO_UINT32_f
 1440              	.LVL180:
 1441              		.loc 1 370 0
 1442 03aa 0421     		movs	r1, #4
 1443              		.loc 1 368 0
 1444 03ac C9F80000 		str	r0, [r9, #0]
 1445              	.LVL181:
 1446              		.loc 1 370 0
 1447 03b0 2846     		mov	r0, r5
 1448 03b2 FFF7FEFF 		bl	STREAM_TO_UINT32_f
 1449              	.LVL182:
 1450 03b6 C9F80400 		str	r0, [r9, #4]
 1451              		.loc 1 443 0
 1452 03ba BBF80000 		ldrh	r0, [fp, #0]
 1453 03be 83B2     		uxth	r3, r0
 1454 03c0 4345     		cmp	r3, r8
 1455              		.loc 1 371 0
 1456 03c2 09F10809 		add	r9, r9, #8
 1457              	.LVL183:
 1458              		.loc 1 443 0
 1459 03c6 7FF453AE 		bne	.L137
 1460 03ca 88E6     		b	.L164
 1461              	.LVL184:
 1462              	.L166:
 1463              		.loc 1 258 0
 1464 03cc B8F5805F 		cmp	r8, #4096
 1465 03d0 3FF67AAE 		bhi	.L114
 1466 03d4 B8F5017F 		cmp	r8, #516
 1467 03d8 7FF6E0AE 		bls	.L116
 1468 03dc 40F20722 		movw	r2, #519
 1469 03e0 9045     		cmp	r8, r2
 1470 03e2 7FF477AE 		bne	.L113
 1471              		.loc 1 311 0
 1472 03e6 2179     		ldrb	r1, [r4, #4]	@ zero_extendqisi2
 1473              		.loc 1 314 0
 1474 03e8 2846     		mov	r0, r5
 1475              		.loc 1 311 0
 1476 03ea 09F8011B 		strb	r1, [r9], #1
 1477              	.LVL185:
 1478              		.loc 1 314 0
 1479 03ee 0021     		movs	r1, #0
ARM GAS  C:\Users\Vergil\AppData\Local\Temp\ccxsbUzg.s 			page 27


 1480 03f0 FFF7FEFF 		bl	STREAM_TO_UINT32_f
 1481              	.LVL186:
 1482 03f4 0146     		mov	r1, r0
 1483              	.LVL187:
 1484              		.loc 1 315 0
 1485 03f6 4846     		mov	r0, r9
 1486              	.LVL188:
 1487 03f8 FFF7FEFF 		bl	UINT32_TO_STREAM_f
 1488              	.LVL189:
 1489              		.loc 1 443 0
 1490 03fc BBF80000 		ldrh	r0, [fp, #0]
 1491 0400 83B2     		uxth	r3, r0
 1492 0402 4345     		cmp	r3, r8
 1493 0404 7FF434AE 		bne	.L137
 1494 0408 69E6     		b	.L164
 1495              	.LVL190:
 1496              	.L129:
 1497              		.loc 1 258 0
 1498 040a B8F10D0F 		cmp	r8, #13
 1499 040e 3FF4C5AE 		beq	.L116
 1500 0412 40F20121 		movw	r1, #513
 1501 0416 8845     		cmp	r8, r1
 1502 0418 7FF45CAE 		bne	.L113
 1503 041c BEE6     		b	.L116
 1504              	.L134:
 1505 041e 44F20B02 		movw	r2, #16395
 1506 0422 9045     		cmp	r8, r2
 1507 0424 7FF456AE 		bne	.L113
 1508              		.loc 1 262 0
 1509 0428 6379     		ldrb	r3, [r4, #5]	@ zero_extendqisi2
 1510              		.loc 1 264 0
 1511 042a 0121     		movs	r1, #1
 1512 042c 2846     		mov	r0, r5
 1513              		.loc 1 262 0
 1514 042e ABF83030 		strh	r3, [fp, #48]	@ movhi
 1515              		.loc 1 264 0
 1516 0432 FFF7FEFF 		bl	STREAM_TO_UINT16_f
 1517              	.LVL191:
 1518 0436 ABF83200 		strh	r0, [fp, #50]	@ movhi
 1519              		.loc 1 443 0
 1520 043a BBF80000 		ldrh	r0, [fp, #0]
 1521 043e 83B2     		uxth	r3, r0
 1522 0440 4345     		cmp	r3, r8
 1523 0442 7FF415AE 		bne	.L137
 1524 0446 4AE6     		b	.L164
 1525              	.LVL192:
 1526              	.L163:
 1527              		.loc 1 378 0
 1528 0448 0021     		movs	r1, #0
 1529 044a 2846     		mov	r0, r5
 1530 044c FFF7FEFF 		bl	STREAM_TO_UINT32_f
 1531              	.LVL193:
 1532              		.loc 1 380 0
 1533 0450 0421     		movs	r1, #4
 1534              		.loc 1 378 0
 1535 0452 C9F80000 		str	r0, [r9, #0]
 1536              	.LVL194:
ARM GAS  C:\Users\Vergil\AppData\Local\Temp\ccxsbUzg.s 			page 28


 1537              		.loc 1 380 0
 1538 0456 2846     		mov	r0, r5
 1539 0458 FFF7FEFF 		bl	STREAM_TO_UINT32_f
 1540              	.LVL195:
 1541              		.loc 1 382 0
 1542 045c 0821     		movs	r1, #8
 1543              		.loc 1 380 0
 1544 045e C9F80400 		str	r0, [r9, #4]
 1545              	.LVL196:
 1546              		.loc 1 382 0
 1547 0462 2846     		mov	r0, r5
 1548 0464 FFF7FEFF 		bl	STREAM_TO_UINT32_f
 1549              	.LVL197:
 1550              		.loc 1 384 0
 1551 0468 0C21     		movs	r1, #12
 1552              		.loc 1 382 0
 1553 046a C9F80800 		str	r0, [r9, #8]
 1554              		.loc 1 384 0
 1555 046e 2846     		mov	r0, r5
 1556 0470 FFF7FEFF 		bl	STREAM_TO_UINT32_f
 1557              	.LVL198:
 1558 0474 C9F80C00 		str	r0, [r9, #12]
 1559              		.loc 1 443 0
 1560 0478 BBF80000 		ldrh	r0, [fp, #0]
 1561              		.loc 1 383 0
 1562 047c 09F10C03 		add	r3, r9, #12
 1563              	.LVL199:
 1564 0480 9946     		mov	r9, r3
 1565              	.LVL200:
 1566              		.loc 1 443 0
 1567 0482 83B2     		uxth	r3, r0
 1568              	.LVL201:
 1569 0484 4345     		cmp	r3, r8
 1570 0486 7FF4F3AD 		bne	.L137
 1571 048a 28E6     		b	.L164
 1572              	.LVL202:
 1573              	.L123:
 1574              		.loc 1 320 0
 1575 048c 0021     		movs	r1, #0
 1576 048e 2846     		mov	r0, r5
 1577 0490 FFF7FEFF 		bl	STREAM_TO_UINT32_f
 1578              	.LVL203:
 1579 0494 4A46     		mov	r2, r9
 1580              		.loc 1 323 0
 1581 0496 0421     		movs	r1, #4
 1582              		.loc 1 320 0
 1583 0498 42F8040B 		str	r0, [r2], #4
 1584              	.LVL204:
 1585              		.loc 1 323 0
 1586 049c 2846     		mov	r0, r5
 1587 049e 0092     		str	r2, [sp, #0]
 1588 04a0 FFF7FEFF 		bl	STREAM_TO_UINT32_f
 1589              	.LVL205:
 1590 04a4 C9F80400 		str	r0, [r9, #4]
 1591              		.loc 1 322 0
 1592 04a8 0098     		ldr	r0, [sp, #0]
 1593 04aa 8146     		mov	r9, r0
ARM GAS  C:\Users\Vergil\AppData\Local\Temp\ccxsbUzg.s 			page 29


 1594              	.LVL206:
 1595              		.loc 1 443 0
 1596 04ac BBF80000 		ldrh	r0, [fp, #0]
 1597              	.LVL207:
 1598 04b0 83B2     		uxth	r3, r0
 1599 04b2 4345     		cmp	r3, r8
 1600 04b4 7FF4DCAD 		bne	.L137
 1601 04b8 11E6     		b	.L164
 1602              	.L168:
 1603 04ba 00BF     		.align	2
 1604              	.L167:
 1605 04bc 00000000 		.word	tSLInformation
 1606              		.cfi_endproc
 1607              	.LFE1:
 1608              		.size	hci_event_handler, .-hci_event_handler
 1609              		.section	.text.get_socket_active_status,"ax",%progbits
 1610              		.align	2
 1611              		.p2align 4,,15
 1612              		.global	get_socket_active_status
 1613              		.thumb
 1614              		.thumb_func
 1615              		.type	get_socket_active_status, %function
 1616              	get_socket_active_status:
 1617              	.LFB6:
 1618              		.loc 1 766 0
 1619              		.cfi_startproc
 1620              		@ args = 0, pretend = 0, frame = 0
 1621              		@ frame_needed = 0, uses_anonymous_args = 0
 1622              		@ link register save eliminated.
 1623              	.LVL208:
 1624              		.loc 1 767 0
 1625 0000 0728     		cmp	r0, #7
 1626 0002 09D8     		bhi	.L171
 1627              		.loc 1 769 0
 1628 0004 054B     		ldr	r3, .L172
 1629 0006 0122     		movs	r2, #1
 1630 0008 1968     		ldr	r1, [r3, #0]
 1631 000a 02FA00F0 		lsl	r0, r2, r0
 1632              	.LVL209:
 1633 000e 0842     		tst	r0, r1
 1634 0010 0CBF     		ite	eq
 1635 0012 0020     		moveq	r0, #0
 1636 0014 0120     		movne	r0, #1
 1637 0016 7047     		bx	lr
 1638              	.LVL210:
 1639              	.L171:
 1640              		.loc 1 771 0
 1641 0018 0120     		movs	r0, #1
 1642              	.LVL211:
 1643              		.loc 1 772 0
 1644 001a 7047     		bx	lr
 1645              	.L173:
 1646              		.align	2
 1647              	.L172:
 1648 001c 00000000 		.word	.LANCHOR0
 1649              		.cfi_endproc
 1650              	.LFE6:
ARM GAS  C:\Users\Vergil\AppData\Local\Temp\ccxsbUzg.s 			page 30


 1651              		.size	get_socket_active_status, .-get_socket_active_status
 1652              		.section	.text.SimpleLinkWaitEvent,"ax",%progbits
 1653              		.align	2
 1654              		.p2align 4,,15
 1655              		.global	SimpleLinkWaitEvent
 1656              		.thumb
 1657              		.thumb_func
 1658              		.type	SimpleLinkWaitEvent, %function
 1659              	SimpleLinkWaitEvent:
 1660              	.LFB8:
 1661              		.loc 1 813 0
 1662              		.cfi_startproc
 1663              		@ args = 0, pretend = 0, frame = 0
 1664              		@ frame_needed = 0, uses_anonymous_args = 0
 1665              		@ link register save eliminated.
 1666              	.LVL212:
 1667 0000 10B4     		push	{r4}
 1668              	.LCFI9:
 1669              		.cfi_def_cfa_offset 4
 1670              		.cfi_offset 4, -4
 1671              		.loc 1 816 0
 1672 0002 40F20003 		movw	r3, #:lower16:tSLInformation
 1673              		.loc 1 813 0
 1674 0006 0446     		mov	r4, r0
 1675              		.loc 1 816 0
 1676 0008 C0F20003 		movt	r3, #:upper16:tSLInformation
 1677              		.loc 1 817 0
 1678 000c 0846     		mov	r0, r1
 1679              	.LVL213:
 1680 000e 0021     		movs	r1, #0
 1681              	.LVL214:
 1682 0010 0A46     		mov	r2, r1
 1683              		.loc 1 816 0
 1684 0012 1C80     		strh	r4, [r3, #0]	@ movhi
 1685              		.loc 1 818 0
 1686 0014 10BC     		pop	{r4}
 1687              		.loc 1 817 0
 1688 0016 FFF7FEBF 		b	hci_event_handler
 1689              	.LVL215:
 1690              		.cfi_endproc
 1691              	.LFE8:
 1692              		.size	SimpleLinkWaitEvent, .-SimpleLinkWaitEvent
 1693 001a 00BFAFF3 		.section	.text.SimpleLinkWaitData,"ax",%progbits
 1693      0080
 1694              		.align	2
 1695              		.p2align 4,,15
 1696              		.global	SimpleLinkWaitData
 1697              		.thumb
 1698              		.thumb_func
 1699              		.type	SimpleLinkWaitData, %function
 1700              	SimpleLinkWaitData:
 1701              	.LFB9:
 1702              		.loc 1 837 0
 1703              		.cfi_startproc
 1704              		@ args = 0, pretend = 0, frame = 0
 1705              		@ frame_needed = 0, uses_anonymous_args = 0
 1706              		@ link register save eliminated.
ARM GAS  C:\Users\Vergil\AppData\Local\Temp\ccxsbUzg.s 			page 31


 1707              	.LVL216:
 1708 0000 10B4     		push	{r4}
 1709              	.LCFI10:
 1710              		.cfi_def_cfa_offset 4
 1711              		.cfi_offset 4, -4
 1712              		.loc 1 840 0
 1713 0002 40F20003 		movw	r3, #:lower16:tSLInformation
 1714 0006 C0F20003 		movt	r3, #:upper16:tSLInformation
 1715 000a 0124     		movs	r4, #1
 1716 000c DC86     		strh	r4, [r3, #54]	@ movhi
 1717              		.loc 1 842 0
 1718 000e 10BC     		pop	{r4}
 1719              		.loc 1 841 0
 1720 0010 FFF7FEBF 		b	hci_event_handler
 1721              	.LVL217:
 1722              		.cfi_endproc
 1723              	.LFE9:
 1724              		.size	SimpleLinkWaitData, .-SimpleLinkWaitData
 1725              		.global	socket_active_status
 1726 0014 AFF30080 		.section	.data.socket_active_status,"aw",%progbits
 1726      AFF30080 
 1726      AFF30080 
 1727              		.align	2
 1728              		.set	.LANCHOR0,. + 0
 1729              		.type	socket_active_status, %object
 1730              		.size	socket_active_status, 4
 1731              	socket_active_status:
 1732 0000 FFFF0000 		.word	65535
 1733              		.text
 1734              	.Letext0:
 1735              		.file 2 "C:\\Users\\Vergil\\ChibiOS_CC3000_SPI/CC3000HostDriver/data_types.h"
 1736              		.file 3 "C:\\Users\\Vergil\\ChibiOS_CC3000_SPI/CC3000HostDriver/cc3000_common.h"
 1737              		.file 4 "C:\\Users\\Vergil\\ChibiOS_CC3000_SPI/CC3000HostDriver/evnt_handler.h"
 1738              		.file 5 "C:\\Users\\Vergil\\ChibiOS_CC3000_SPI/CC3000HostDriver/netapp.h"
 1739              		.file 6 "C:\\Users\\Vergil\\ChibiOS_CC3000_SPI/CC3000HostDriver/hci.h"
 1740              		.file 7 "C:\\Users\\Vergil\\ChibiOS_CC3000_SPI/src/cc3000_spi.h"