ARM GAS  C:\Users\Vergil\AppData\Local\Temp\cc0L0IX8.s 			page 1


   1              		.syntax unified
   2              		.cpu cortex-m4
   3              		.eabi_attribute 27, 3
   4              		.eabi_attribute 28, 1
   5              		.fpu fpv4-sp-d16
   6              		.eabi_attribute 20, 1
   7              		.eabi_attribute 21, 1
   8              		.eabi_attribute 23, 3
   9              		.eabi_attribute 24, 1
  10              		.eabi_attribute 25, 1
  11              		.eabi_attribute 26, 1
  12              		.eabi_attribute 30, 2
  13              		.eabi_attribute 34, 1
  14              		.eabi_attribute 18, 4
  15              		.thumb
  16              		.file	"ext_lld.c"
  17              		.text
  18              	.Ltext0:
  19              		.cfi_sections	.debug_frame
  20              		.section	.text.ext_lld_init,"ax",%progbits
  21              		.align	2
  22              		.p2align 4,,15
  23              		.global	ext_lld_init
  24              		.thumb
  25              		.thumb_func
  26              		.type	ext_lld_init, %function
  27              	ext_lld_init:
  28              	.LFB118:
  29              		.file 1 "../../os/hal/platforms/STM32/ext_lld.c"
  30              		.loc 1 66 0
  31              		.cfi_startproc
  32              		@ args = 0, pretend = 0, frame = 0
  33              		@ frame_needed = 0, uses_anonymous_args = 0
  34              		@ link register save eliminated.
  35              		.loc 1 69 0
  36 0000 40F20000 		movw	r0, #:lower16:.LANCHOR0
  37 0004 C0F20000 		movt	r0, #:upper16:.LANCHOR0
  38              		.loc 1 70 0
  39              		.loc 1 69 0
  40 0008 FFF7FEBF 		b	extObjectInit
  41              	.LVL0:
  42              		.cfi_endproc
  43              	.LFE118:
  44              		.size	ext_lld_init, .-ext_lld_init
  45 000c AFF30080 		.section	.text.ext_lld_stop,"ax",%progbits
  46              		.align	2
  47              		.p2align 4,,15
  48              		.global	ext_lld_stop
  49              		.thumb
  50              		.thumb_func
  51              		.type	ext_lld_stop, %function
  52              	ext_lld_stop:
  53              	.LFB120:
  54              		.loc 1 100 0
  55              		.cfi_startproc
  56              		@ args = 0, pretend = 0, frame = 0
  57              		@ frame_needed = 0, uses_anonymous_args = 0
ARM GAS  C:\Users\Vergil\AppData\Local\Temp\cc0L0IX8.s 			page 2


  58              	.LVL1:
  59 0000 08B5     		push	{r3, lr}
  60              	.LCFI0:
  61              		.cfi_def_cfa_offset 8
  62              		.cfi_offset 3, -8
  63              		.cfi_offset 14, -4
  64              		.loc 1 102 0
  65 0002 0378     		ldrb	r3, [r0, #0]	@ zero_extendqisi2
  66 0004 022B     		cmp	r3, #2
  67 0006 0AD0     		beq	.L5
  68              	.LVL2:
  69              	.L3:
  70              		.loc 1 105 0
  71 0008 4FF47050 		mov	r0, #15360
  72 000c C4F20100 		movt	r0, 16385
  73 0010 0022     		movs	r2, #0
  74              		.loc 1 107 0
  75 0012 4FF0FF31 		mov	r1, #-1
  76              		.loc 1 105 0
  77 0016 4260     		str	r2, [r0, #4]
  78              		.loc 1 106 0
  79 0018 0260     		str	r2, [r0, #0]
  80              		.loc 1 107 0
  81 001a 4161     		str	r1, [r0, #20]
  82 001c 08BD     		pop	{r3, pc}
  83              	.LVL3:
  84              	.L5:
  85              		.loc 1 103 0
  86 001e FFF7FEFF 		bl	ext_lld_exti_irq_disable
  87              	.LVL4:
  88 0022 F1E7     		b	.L3
  89              		.cfi_endproc
  90              	.LFE120:
  91              		.size	ext_lld_stop, .-ext_lld_stop
  92 0024 AFF30080 		.section	.text.ext_lld_channel_enable,"ax",%progbits
  92      AFF30080 
  92      AFF30080 
  93              		.align	2
  94              		.p2align 4,,15
  95              		.global	ext_lld_channel_enable
  96              		.thumb
  97              		.thumb_func
  98              		.type	ext_lld_channel_enable, %function
  99              	ext_lld_channel_enable:
 100              	.LFB121:
 101              		.loc 1 121 0
 102              		.cfi_startproc
 103              		@ args = 0, pretend = 0, frame = 0
 104              		@ frame_needed = 0, uses_anonymous_args = 0
 105              		@ link register save eliminated.
 106              	.LVL5:
 107              		.loc 1 124 0
 108 0000 0F29     		cmp	r1, #15
 109              		.loc 1 121 0
 110 0002 F0B4     		push	{r4, r5, r6, r7}
 111              	.LCFI1:
 112              		.cfi_def_cfa_offset 16
ARM GAS  C:\Users\Vergil\AppData\Local\Temp\cc0L0IX8.s 			page 3


 113              		.cfi_offset 4, -16
 114              		.cfi_offset 5, -12
 115              		.cfi_offset 6, -8
 116              		.cfi_offset 7, -4
 117              	.LBB2:
 118              		.loc 1 127 0
 119 0004 4068     		ldr	r0, [r0, #4]
 120              	.LVL6:
 121              	.LBE2:
 122              		.loc 1 124 0
 123 0006 2AD9     		bls	.L7
 124 0008 50F83130 		ldr	r3, [r0, r1, lsl #3]
 125              		.loc 1 145 0
 126 000c DA07     		lsls	r2, r3, #31
 127 000e 42D5     		bpl	.L9
 128              	.L15:
 129              		.loc 1 146 0
 130 0010 4FF47054 		mov	r4, #15360
 131 0014 C4F20104 		movt	r4, 16385
 132 0018 0122     		movs	r2, #1
 133 001a A568     		ldr	r5, [r4, #8]
 134 001c 02FA01F2 		lsl	r2, r2, r1
 135 0020 1543     		orrs	r5, r5, r2
 136 0022 A560     		str	r5, [r4, #8]
 137 0024 D443     		mvns	r4, r2
 138              	.L10:
 139              		.loc 1 149 0
 140 0026 13F0020F 		tst	r3, #2
 141              		.loc 1 150 0
 142 002a 4FF47053 		mov	r3, #15360
 143 002e C4F20103 		movt	r3, 16385
 144              		.loc 1 155 0
 145 0032 00EBC101 		add	r1, r0, r1, lsl #3
 146              	.LVL7:
 147              		.loc 1 150 0
 148 0036 DD68     		ldr	r5, [r3, #12]
 149              		.loc 1 155 0
 150 0038 4868     		ldr	r0, [r1, #4]
 151              		.loc 1 150 0
 152 003a 14BF     		ite	ne
 153 003c 1543     		orrne	r5, r2, r5
 154              		.loc 1 152 0
 155 003e 2540     		andeq	r5, r5, r4
 156 0040 DD60     		str	r5, [r3, #12]
 157              		.loc 1 155 0
 158 0042 0028     		cmp	r0, #0
 159 0044 33D0     		beq	.L13
 160              		.loc 1 156 0
 161 0046 4FF47050 		mov	r0, #15360
 162 004a C4F20100 		movt	r0, 16385
 163 004e 0368     		ldr	r3, [r0, #0]
 164 0050 1A43     		orrs	r2, r2, r3
 165 0052 0260     		str	r2, [r0, #0]
 166              		.loc 1 157 0
 167 0054 4168     		ldr	r1, [r0, #4]
 168 0056 0C40     		ands	r4, r4, r1
 169 0058 4460     		str	r4, [r0, #4]
ARM GAS  C:\Users\Vergil\AppData\Local\Temp\cc0L0IX8.s 			page 4


 170              	.L6:
 171              		.loc 1 187 0
 172 005a F0BC     		pop	{r4, r5, r6, r7}
 173 005c 7047     		bx	lr
 174              	.LVL8:
 175              	.L7:
 176              	.LBB3:
 177              		.loc 1 125 0
 178 005e 8C08     		lsrs	r4, r1, #2
 179              	.LVL9:
 180              		.loc 1 137 0
 181 0060 4FF46052 		mov	r2, #14336
 182 0064 C4F20102 		movt	r2, 16385
 183 0068 0234     		adds	r4, r4, #2
 184              	.LVL10:
 185              		.loc 1 127 0
 186 006a 50F83130 		ldr	r3, [r0, r1, lsl #3]
 187              		.loc 1 137 0
 188 006e 52F82460 		ldr	r6, [r2, r4, lsl #2]
 189              		.loc 1 126 0
 190 0072 01F00305 		and	r5, r1, #3
 191 0076 AD00     		lsls	r5, r5, #2
 192              	.LVL11:
 193 0078 4FF00F0C 		mov	ip, #15
 194 007c 0CFA05FC 		lsl	ip, ip, r5
 195              		.loc 1 128 0
 196 0080 C3F30317 		ubfx	r7, r3, #4, #4
 197              		.loc 1 137 0
 198 0084 26EA0C06 		bic	r6, r6, ip
 199              		.loc 1 127 0
 200 0088 07FA05F5 		lsl	r5, r7, r5
 201              	.LVL12:
 202              		.loc 1 137 0
 203 008c 3543     		orrs	r5, r5, r6
 204 008e 42F82450 		str	r5, [r2, r4, lsl #2]
 205              	.LBE3:
 206              		.loc 1 145 0
 207 0092 DA07     		lsls	r2, r3, #31
 208 0094 BCD4     		bmi	.L15
 209              	.LVL13:
 210              	.L9:
 211              		.loc 1 148 0
 212 0096 4FF47055 		mov	r5, #15360
 213 009a C4F20105 		movt	r5, 16385
 214 009e 0122     		movs	r2, #1
 215 00a0 AE68     		ldr	r6, [r5, #8]
 216 00a2 02FA01F2 		lsl	r2, r2, r1
 217 00a6 D443     		mvns	r4, r2
 218 00a8 2640     		ands	r6, r6, r4
 219 00aa AE60     		str	r6, [r5, #8]
 220 00ac BBE7     		b	.L10
 221              	.LVL14:
 222              	.L13:
 223              		.loc 1 160 0
 224 00ae 4FF47053 		mov	r3, #15360
 225 00b2 C4F20103 		movt	r3, 16385
 226 00b6 5968     		ldr	r1, [r3, #4]
ARM GAS  C:\Users\Vergil\AppData\Local\Temp\cc0L0IX8.s 			page 5


 227 00b8 0A43     		orrs	r2, r2, r1
 228 00ba 5A60     		str	r2, [r3, #4]
 229              		.loc 1 161 0
 230 00bc 1A68     		ldr	r2, [r3, #0]
 231 00be 1440     		ands	r4, r4, r2
 232 00c0 1C60     		str	r4, [r3, #0]
 233 00c2 CAE7     		b	.L6
 234              		.cfi_endproc
 235              	.LFE121:
 236              		.size	ext_lld_channel_enable, .-ext_lld_channel_enable
 237 00c4 AFF30080 		.section	.text.ext_lld_channel_disable,"ax",%progbits
 237      AFF30080 
 237      AFF30080 
 238              		.align	2
 239              		.p2align 4,,15
 240              		.global	ext_lld_channel_disable
 241              		.thumb
 242              		.thumb_func
 243              		.type	ext_lld_channel_disable, %function
 244              	ext_lld_channel_disable:
 245              	.LFB122:
 246              		.loc 1 197 0
 247              		.cfi_startproc
 248              		@ args = 0, pretend = 0, frame = 0
 249              		@ frame_needed = 0, uses_anonymous_args = 0
 250              		@ link register save eliminated.
 251              	.LVL15:
 252              		.loc 1 204 0
 253 0000 4FF47053 		mov	r3, #15360
 254 0004 C4F20103 		movt	r3, 16385
 255 0008 0122     		movs	r2, #1
 256 000a 1868     		ldr	r0, [r3, #0]
 257              	.LVL16:
 258 000c 02FA01F1 		lsl	r1, r2, r1
 259              	.LVL17:
 260 0010 CA43     		mvns	r2, r1
 261 0012 1040     		ands	r0, r0, r2
 262 0014 1860     		str	r0, [r3, #0]
 263              		.loc 1 205 0
 264 0016 5868     		ldr	r0, [r3, #4]
 265 0018 1040     		ands	r0, r0, r2
 266 001a 5860     		str	r0, [r3, #4]
 267              		.loc 1 206 0
 268 001c 9868     		ldr	r0, [r3, #8]
 269 001e 1040     		ands	r0, r0, r2
 270 0020 9860     		str	r0, [r3, #8]
 271              		.loc 1 207 0
 272 0022 D868     		ldr	r0, [r3, #12]
 273 0024 0240     		ands	r2, r2, r0
 274 0026 DA60     		str	r2, [r3, #12]
 275              		.loc 1 208 0
 276 0028 5961     		str	r1, [r3, #20]
 277 002a 7047     		bx	lr
 278              		.cfi_endproc
 279              	.LFE122:
 280              		.size	ext_lld_channel_disable, .-ext_lld_channel_disable
 281 002c AFF30080 		.section	.text.ext_lld_start,"ax",%progbits
ARM GAS  C:\Users\Vergil\AppData\Local\Temp\cc0L0IX8.s 			page 6


 282              		.align	2
 283              		.p2align 4,,15
 284              		.global	ext_lld_start
 285              		.thumb
 286              		.thumb_func
 287              		.type	ext_lld_start, %function
 288              	ext_lld_start:
 289              	.LFB119:
 290              		.loc 1 79 0
 291              		.cfi_startproc
 292              		@ args = 0, pretend = 0, frame = 0
 293              		@ frame_needed = 0, uses_anonymous_args = 0
 294              	.LVL18:
 295 0000 38B5     		push	{r3, r4, r5, lr}
 296              	.LCFI2:
 297              		.cfi_def_cfa_offset 16
 298              		.cfi_offset 3, -16
 299              		.cfi_offset 4, -12
 300              		.cfi_offset 5, -8
 301              		.cfi_offset 14, -4
 302              		.loc 1 82 0
 303 0002 0378     		ldrb	r3, [r0, #0]	@ zero_extendqisi2
 304 0004 012B     		cmp	r3, #1
 305              		.loc 1 79 0
 306 0006 0546     		mov	r5, r0
 307              		.loc 1 82 0
 308 0008 35D0     		beq	.L32
 309              	.LVL19:
 310              	.L18:
 311              		.loc 1 87 0 discriminator 1
 312 000a 6868     		ldr	r0, [r5, #4]
 313 000c 0168     		ldr	r1, [r0, #0]
 314 000e 11F00401 		ands	r1, r1, #4
 315 0012 2CD0     		beq	.L23
 316              		.loc 1 88 0
 317 0014 2846     		mov	r0, r5
 318 0016 0021     		movs	r1, #0
 319 0018 FFF7FEFF 		bl	ext_lld_channel_enable
 320              	.LVL20:
 321              	.L29:
 322              		.loc 1 86 0
 323 001c 0124     		movs	r4, #1
 324              	.LVL21:
 325 001e 0EE0     		b	.L21
 326              	.LVL22:
 327              	.L34:
 328              		.loc 1 88 0
 329 0020 FFF7FEFF 		bl	ext_lld_channel_enable
 330              	.LVL23:
 331              		.loc 1 86 0
 332 0024 0134     		adds	r4, r4, #1
 333              		.loc 1 87 0
 334 0026 6868     		ldr	r0, [r5, #4]
 335 0028 50F83410 		ldr	r1, [r0, r4, lsl #3]
 336 002c 4B07     		lsls	r3, r1, #29
 337 002e 16D5     		bpl	.L25
 338              	.L35:
ARM GAS  C:\Users\Vergil\AppData\Local\Temp\cc0L0IX8.s 			page 7


 339              		.loc 1 88 0
 340 0030 2146     		mov	r1, r4
 341 0032 2846     		mov	r0, r5
 342              		.loc 1 86 0
 343 0034 0134     		adds	r4, r4, #1
 344              		.loc 1 88 0
 345 0036 FFF7FEFF 		bl	ext_lld_channel_enable
 346              	.LVL24:
 347              		.loc 1 86 0
 348 003a 172C     		cmp	r4, #23
 349 003c 16D0     		beq	.L33
 350              	.L21:
 351              		.loc 1 87 0
 352 003e 6A68     		ldr	r2, [r5, #4]
 353 0040 52F83430 		ldr	r3, [r2, r4, lsl #3]
 354 0044 13F0040F 		tst	r3, #4
 355              		.loc 1 90 0
 356 0048 2846     		mov	r0, r5
 357 004a 2146     		mov	r1, r4
 358              		.loc 1 87 0
 359 004c E8D1     		bne	.L34
 360              	.LVL25:
 361              		.loc 1 90 0
 362 004e FFF7FEFF 		bl	ext_lld_channel_disable
 363              	.LVL26:
 364              		.loc 1 86 0
 365 0052 0134     		adds	r4, r4, #1
 366              		.loc 1 87 0
 367 0054 6868     		ldr	r0, [r5, #4]
 368 0056 50F83410 		ldr	r1, [r0, r4, lsl #3]
 369 005a 4B07     		lsls	r3, r1, #29
 370 005c E8D4     		bmi	.L35
 371              	.L25:
 372              		.loc 1 90 0
 373 005e 2146     		mov	r1, r4
 374 0060 2846     		mov	r0, r5
 375              		.loc 1 86 0
 376 0062 0134     		adds	r4, r4, #1
 377              		.loc 1 90 0
 378 0064 FFF7FEFF 		bl	ext_lld_channel_disable
 379              	.LVL27:
 380              		.loc 1 86 0
 381 0068 172C     		cmp	r4, #23
 382 006a E8D1     		bne	.L21
 383              	.L33:
 384 006c 38BD     		pop	{r3, r4, r5, pc}
 385              	.LVL28:
 386              	.L23:
 387              		.loc 1 90 0
 388 006e 2846     		mov	r0, r5
 389 0070 FFF7FEFF 		bl	ext_lld_channel_disable
 390              	.LVL29:
 391 0074 D2E7     		b	.L29
 392              	.LVL30:
 393              	.L32:
 394              		.loc 1 83 0
 395 0076 FFF7FEFF 		bl	ext_lld_exti_irq_enable
ARM GAS  C:\Users\Vergil\AppData\Local\Temp\cc0L0IX8.s 			page 8


 396              	.LVL31:
 397 007a C6E7     		b	.L18
 398              		.cfi_endproc
 399              	.LFE119:
 400              		.size	ext_lld_start, .-ext_lld_start
 401              		.global	EXTD1
 402 007c AFF30080 		.section	.bss.EXTD1,"aw",%nobits
 403              		.align	2
 404              		.set	.LANCHOR0,. + 0
 405              		.type	EXTD1, %object
 406              		.size	EXTD1, 8
 407              	EXTD1:
 408 0000 00000000 		.space	8
 408      00000000 
 409              		.text
 410              	.Letext0:
 411              		.file 2 "c:\\chibistudio\\tools\\gnu tools arm embedded\\4.7 2014q2\\bin\\../lib/gcc/arm-none-eabi
 412              		.file 3 "../../os/hal/platforms/STM32F4xx/stm32f4xx.h"
 413              		.file 4 "../../os/hal/include/ext.h"
 414              		.file 5 "../../os/hal/platforms/STM32/ext_lld.h"
 415              		.file 6 "../../os/ports/common/ARMCMx/CMSIS/include/core_cm4.h"
 416              		.file 7 "../../os/hal/platforms/STM32F4xx/ext_lld_isr.h"
 417              		.section	.debug_info,"",%progbits
 418              	.Ldebug_info0:
 419 0000 9E040000 		.4byte	0x49e
 420 0004 0200     		.2byte	0x2
 421 0006 00000000 		.4byte	.Ldebug_abbrev0
 422 000a 04       		.byte	0x4
 423 000b 01       		.uleb128 0x1
 424 000c 19020000 		.4byte	.LASF49
 425 0010 01       		.byte	0x1
 426 0011 00000000 		.4byte	.LASF50
 427 0015 67010000 		.4byte	.LASF51
 428 0019 18000000 		.4byte	.Ldebug_ranges0+0x18
 429 001d 00000000 		.4byte	0
 430 0021 00000000 		.4byte	0
 431 0025 00000000 		.4byte	.Ldebug_line0
 432 0029 02       		.uleb128 0x2
 433 002a 04       		.byte	0x4
 434 002b 05       		.byte	0x5
 435 002c 696E7400 		.ascii	"int\000"
 436 0030 03       		.uleb128 0x3
 437 0031 04       		.byte	0x4
 438 0032 07       		.byte	0x7
 439 0033 D9010000 		.4byte	.LASF0
 440 0037 03       		.uleb128 0x3
 441 0038 01       		.byte	0x1
 442 0039 06       		.byte	0x6
 443 003a AB020000 		.4byte	.LASF1
 444 003e 03       		.uleb128 0x3
 445 003f 01       		.byte	0x1
 446 0040 08       		.byte	0x8
 447 0041 07010000 		.4byte	.LASF2
 448 0045 03       		.uleb128 0x3
 449 0046 02       		.byte	0x2
 450 0047 05       		.byte	0x5
 451 0048 76020000 		.4byte	.LASF3
ARM GAS  C:\Users\Vergil\AppData\Local\Temp\cc0L0IX8.s 			page 9


 452 004c 03       		.uleb128 0x3
 453 004d 02       		.byte	0x2
 454 004e 07       		.byte	0x7
 455 004f 73000000 		.4byte	.LASF4
 456 0053 04       		.uleb128 0x4
 457 0054 F5010000 		.4byte	.LASF6
 458 0058 02       		.byte	0x2
 459 0059 4F       		.byte	0x4f
 460 005a 5E000000 		.4byte	0x5e
 461 005e 03       		.uleb128 0x3
 462 005f 04       		.byte	0x4
 463 0060 05       		.byte	0x5
 464 0061 A2020000 		.4byte	.LASF5
 465 0065 04       		.uleb128 0x4
 466 0066 B7020000 		.4byte	.LASF7
 467 006a 02       		.byte	0x2
 468 006b 50       		.byte	0x50
 469 006c 70000000 		.4byte	0x70
 470 0070 03       		.uleb128 0x3
 471 0071 04       		.byte	0x4
 472 0072 07       		.byte	0x7
 473 0073 15010000 		.4byte	.LASF8
 474 0077 03       		.uleb128 0x3
 475 0078 08       		.byte	0x8
 476 0079 05       		.byte	0x5
 477 007a 06020000 		.4byte	.LASF9
 478 007e 03       		.uleb128 0x3
 479 007f 08       		.byte	0x8
 480 0080 07       		.byte	0x7
 481 0081 EA000000 		.4byte	.LASF10
 482 0085 03       		.uleb128 0x3
 483 0086 01       		.byte	0x1
 484 0087 02       		.byte	0x2
 485 0088 C0020000 		.4byte	.LASF11
 486 008c 05       		.uleb128 0x5
 487 008d 65000000 		.4byte	0x65
 488 0091 03       		.uleb128 0x3
 489 0092 04       		.byte	0x4
 490 0093 07       		.byte	0x7
 491 0094 FD010000 		.4byte	.LASF12
 492 0098 03       		.uleb128 0x3
 493 0099 01       		.byte	0x1
 494 009a 08       		.byte	0x8
 495 009b EB010000 		.4byte	.LASF13
 496 009f 06       		.uleb128 0x6
 497 00a0 65000000 		.4byte	0x65
 498 00a4 AF000000 		.4byte	0xaf
 499 00a8 07       		.uleb128 0x7
 500 00a9 91000000 		.4byte	0x91
 501 00ad 01       		.byte	0x1
 502 00ae 00       		.byte	0
 503 00af 06       		.uleb128 0x6
 504 00b0 65000000 		.4byte	0x65
 505 00b4 BF000000 		.4byte	0xbf
 506 00b8 07       		.uleb128 0x7
 507 00b9 91000000 		.4byte	0x91
 508 00bd 03       		.byte	0x3
ARM GAS  C:\Users\Vergil\AppData\Local\Temp\cc0L0IX8.s 			page 10


 509 00be 00       		.byte	0
 510 00bf 05       		.uleb128 0x5
 511 00c0 53000000 		.4byte	0x53
 512 00c4 08       		.uleb128 0x8
 513 00c5 18       		.byte	0x18
 514 00c6 03       		.byte	0x3
 515 00c7 3003     		.2byte	0x330
 516 00c9 27010000 		.4byte	0x127
 517 00cd 09       		.uleb128 0x9
 518 00ce 494D5200 		.ascii	"IMR\000"
 519 00d2 03       		.byte	0x3
 520 00d3 3203     		.2byte	0x332
 521 00d5 8C000000 		.4byte	0x8c
 522 00d9 02       		.byte	0x2
 523 00da 23       		.byte	0x23
 524 00db 00       		.uleb128 0
 525 00dc 09       		.uleb128 0x9
 526 00dd 454D5200 		.ascii	"EMR\000"
 527 00e1 03       		.byte	0x3
 528 00e2 3303     		.2byte	0x333
 529 00e4 8C000000 		.4byte	0x8c
 530 00e8 02       		.byte	0x2
 531 00e9 23       		.byte	0x23
 532 00ea 04       		.uleb128 0x4
 533 00eb 0A       		.uleb128 0xa
 534 00ec 48010000 		.4byte	.LASF14
 535 00f0 03       		.byte	0x3
 536 00f1 3403     		.2byte	0x334
 537 00f3 8C000000 		.4byte	0x8c
 538 00f7 02       		.byte	0x2
 539 00f8 23       		.byte	0x23
 540 00f9 08       		.uleb128 0x8
 541 00fa 0A       		.uleb128 0xa
 542 00fb 9D020000 		.4byte	.LASF15
 543 00ff 03       		.byte	0x3
 544 0100 3503     		.2byte	0x335
 545 0102 8C000000 		.4byte	0x8c
 546 0106 02       		.byte	0x2
 547 0107 23       		.byte	0x23
 548 0108 0C       		.uleb128 0xc
 549 0109 0A       		.uleb128 0xa
 550 010a C6020000 		.4byte	.LASF16
 551 010e 03       		.byte	0x3
 552 010f 3603     		.2byte	0x336
 553 0111 8C000000 		.4byte	0x8c
 554 0115 02       		.byte	0x2
 555 0116 23       		.byte	0x23
 556 0117 10       		.uleb128 0x10
 557 0118 09       		.uleb128 0x9
 558 0119 505200   		.ascii	"PR\000"
 559 011c 03       		.byte	0x3
 560 011d 3703     		.2byte	0x337
 561 011f 8C000000 		.4byte	0x8c
 562 0123 02       		.byte	0x2
 563 0124 23       		.byte	0x23
 564 0125 14       		.uleb128 0x14
 565 0126 00       		.byte	0
ARM GAS  C:\Users\Vergil\AppData\Local\Temp\cc0L0IX8.s 			page 11


 566 0127 0B       		.uleb128 0xb
 567 0128 2E010000 		.4byte	.LASF17
 568 012c 03       		.byte	0x3
 569 012d 3803     		.2byte	0x338
 570 012f C4000000 		.4byte	0xc4
 571 0133 08       		.uleb128 0x8
 572 0134 24       		.byte	0x24
 573 0135 03       		.byte	0x3
 574 0136 E903     		.2byte	0x3e9
 575 0138 88010000 		.4byte	0x188
 576 013c 0A       		.uleb128 0xa
 577 013d 27010000 		.4byte	.LASF18
 578 0141 03       		.byte	0x3
 579 0142 EB03     		.2byte	0x3eb
 580 0144 8C000000 		.4byte	0x8c
 581 0148 02       		.byte	0x2
 582 0149 23       		.byte	0x23
 583 014a 00       		.uleb128 0
 584 014b 09       		.uleb128 0x9
 585 014c 504D4300 		.ascii	"PMC\000"
 586 0150 03       		.byte	0x3
 587 0151 EC03     		.2byte	0x3ec
 588 0153 8C000000 		.4byte	0x8c
 589 0157 02       		.byte	0x2
 590 0158 23       		.byte	0x23
 591 0159 04       		.uleb128 0x4
 592 015a 0A       		.uleb128 0xa
 593 015b C7010000 		.4byte	.LASF19
 594 015f 03       		.byte	0x3
 595 0160 ED03     		.2byte	0x3ed
 596 0162 88010000 		.4byte	0x188
 597 0166 02       		.byte	0x2
 598 0167 23       		.byte	0x23
 599 0168 08       		.uleb128 0x8
 600 0169 0A       		.uleb128 0xa
 601 016a 5E010000 		.4byte	.LASF20
 602 016e 03       		.byte	0x3
 603 016f EE03     		.2byte	0x3ee
 604 0171 9F000000 		.4byte	0x9f
 605 0175 02       		.byte	0x2
 606 0176 23       		.byte	0x23
 607 0177 18       		.uleb128 0x18
 608 0178 0A       		.uleb128 0xa
 609 0179 01010000 		.4byte	.LASF21
 610 017d 03       		.byte	0x3
 611 017e EF03     		.2byte	0x3ef
 612 0180 8C000000 		.4byte	0x8c
 613 0184 02       		.byte	0x2
 614 0185 23       		.byte	0x23
 615 0186 20       		.uleb128 0x20
 616 0187 00       		.byte	0
 617 0188 05       		.uleb128 0x5
 618 0189 AF000000 		.4byte	0xaf
 619 018d 0B       		.uleb128 0xb
 620 018e 80020000 		.4byte	.LASF22
 621 0192 03       		.byte	0x3
 622 0193 F003     		.2byte	0x3f0
ARM GAS  C:\Users\Vergil\AppData\Local\Temp\cc0L0IX8.s 			page 12


 623 0195 33010000 		.4byte	0x133
 624 0199 0C       		.uleb128 0xc
 625 019a 01       		.byte	0x1
 626 019b 04       		.byte	0x4
 627 019c 4A       		.byte	0x4a
 628 019d B4010000 		.4byte	0x1b4
 629 01a1 0D       		.uleb128 0xd
 630 01a2 68000000 		.4byte	.LASF23
 631 01a6 00       		.sleb128 0
 632 01a7 0D       		.uleb128 0xd
 633 01a8 DA020000 		.4byte	.LASF24
 634 01ac 01       		.sleb128 1
 635 01ad 0D       		.uleb128 0xd
 636 01ae CE010000 		.4byte	.LASF25
 637 01b2 02       		.sleb128 2
 638 01b3 00       		.byte	0
 639 01b4 04       		.uleb128 0x4
 640 01b5 4C000000 		.4byte	.LASF26
 641 01b9 04       		.byte	0x4
 642 01ba 4E       		.byte	0x4e
 643 01bb 99010000 		.4byte	0x199
 644 01bf 04       		.uleb128 0x4
 645 01c0 27000000 		.4byte	.LASF27
 646 01c4 04       		.byte	0x4
 647 01c5 53       		.byte	0x53
 648 01c6 CA010000 		.4byte	0x1ca
 649 01ca 0E       		.uleb128 0xe
 650 01cb 27000000 		.4byte	.LASF27
 651 01cf 08       		.byte	0x8
 652 01d0 05       		.byte	0x5
 653 01d1 71       		.byte	0x71
 654 01d2 F3010000 		.4byte	0x1f3
 655 01d6 0F       		.uleb128 0xf
 656 01d7 46000000 		.4byte	.LASF28
 657 01db 05       		.byte	0x5
 658 01dc 75       		.byte	0x75
 659 01dd B4010000 		.4byte	0x1b4
 660 01e1 02       		.byte	0x2
 661 01e2 23       		.byte	0x23
 662 01e3 00       		.uleb128 0
 663 01e4 0F       		.uleb128 0xf
 664 01e5 4D010000 		.4byte	.LASF29
 665 01e9 05       		.byte	0x5
 666 01ea 79       		.byte	0x79
 667 01eb 87020000 		.4byte	0x287
 668 01ef 02       		.byte	0x2
 669 01f0 23       		.byte	0x23
 670 01f1 04       		.uleb128 0x4
 671 01f2 00       		.byte	0
 672 01f3 04       		.uleb128 0x4
 673 01f4 86000000 		.4byte	.LASF30
 674 01f8 05       		.byte	0x5
 675 01f9 47       		.byte	0x47
 676 01fa 65000000 		.4byte	0x65
 677 01fe 04       		.uleb128 0x4
 678 01ff AC000000 		.4byte	.LASF31
 679 0203 05       		.byte	0x5
ARM GAS  C:\Users\Vergil\AppData\Local\Temp\cc0L0IX8.s 			page 13


 680 0204 4F       		.byte	0x4f
 681 0205 09020000 		.4byte	0x209
 682 0209 10       		.uleb128 0x10
 683 020a 04       		.byte	0x4
 684 020b 0F020000 		.4byte	0x20f
 685 020f 11       		.uleb128 0x11
 686 0210 01       		.byte	0x1
 687 0211 20020000 		.4byte	0x220
 688 0215 12       		.uleb128 0x12
 689 0216 20020000 		.4byte	0x220
 690 021a 12       		.uleb128 0x12
 691 021b F3010000 		.4byte	0x1f3
 692 021f 00       		.byte	0
 693 0220 10       		.uleb128 0x10
 694 0221 04       		.byte	0x4
 695 0222 BF010000 		.4byte	0x1bf
 696 0226 13       		.uleb128 0x13
 697 0227 08       		.byte	0x8
 698 0228 05       		.byte	0x5
 699 0229 54       		.byte	0x54
 700 022a 4A020000 		.4byte	0x24a
 701 022e 0F       		.uleb128 0xf
 702 022f F0010000 		.4byte	.LASF32
 703 0233 05       		.byte	0x5
 704 0234 58       		.byte	0x58
 705 0235 65000000 		.4byte	0x65
 706 0239 02       		.byte	0x2
 707 023a 23       		.byte	0x23
 708 023b 00       		.uleb128 0
 709 023c 14       		.uleb128 0x14
 710 023d 636200   		.ascii	"cb\000"
 711 0240 05       		.byte	0x5
 712 0241 5F       		.byte	0x5f
 713 0242 FE010000 		.4byte	0x1fe
 714 0246 02       		.byte	0x2
 715 0247 23       		.byte	0x23
 716 0248 04       		.uleb128 0x4
 717 0249 00       		.byte	0
 718 024a 04       		.uleb128 0x4
 719 024b 57000000 		.4byte	.LASF33
 720 024f 05       		.byte	0x5
 721 0250 60       		.byte	0x60
 722 0251 26020000 		.4byte	0x226
 723 0255 13       		.uleb128 0x13
 724 0256 B8       		.byte	0xb8
 725 0257 05       		.byte	0x5
 726 0258 66       		.byte	0x66
 727 0259 6C020000 		.4byte	0x26c
 728 025d 0F       		.uleb128 0xf
 729 025e 62020000 		.4byte	.LASF34
 730 0262 05       		.byte	0x5
 731 0263 6A       		.byte	0x6a
 732 0264 6C020000 		.4byte	0x26c
 733 0268 02       		.byte	0x2
 734 0269 23       		.byte	0x23
 735 026a 00       		.uleb128 0
 736 026b 00       		.byte	0
ARM GAS  C:\Users\Vergil\AppData\Local\Temp\cc0L0IX8.s 			page 14


 737 026c 06       		.uleb128 0x6
 738 026d 4A020000 		.4byte	0x24a
 739 0271 7C020000 		.4byte	0x27c
 740 0275 07       		.uleb128 0x7
 741 0276 91000000 		.4byte	0x91
 742 027a 16       		.byte	0x16
 743 027b 00       		.byte	0
 744 027c 04       		.uleb128 0x4
 745 027d 54010000 		.4byte	.LASF35
 746 0281 05       		.byte	0x5
 747 0282 6C       		.byte	0x6c
 748 0283 55020000 		.4byte	0x255
 749 0287 10       		.uleb128 0x10
 750 0288 04       		.byte	0x4
 751 0289 8D020000 		.4byte	0x28d
 752 028d 15       		.uleb128 0x15
 753 028e 7C020000 		.4byte	0x27c
 754 0292 16       		.uleb128 0x16
 755 0293 01       		.byte	0x1
 756 0294 39000000 		.4byte	.LASF36
 757 0298 01       		.byte	0x1
 758 0299 42       		.byte	0x42
 759 029a 01       		.byte	0x1
 760 029b 00000000 		.4byte	.LFB118
 761 029f 0C000000 		.4byte	.LFE118
 762 02a3 02       		.byte	0x2
 763 02a4 7D       		.byte	0x7d
 764 02a5 00       		.sleb128 0
 765 02a6 01       		.byte	0x1
 766 02a7 C0020000 		.4byte	0x2c0
 767 02ab 17       		.uleb128 0x17
 768 02ac 0C000000 		.4byte	.LVL0
 769 02b0 01       		.byte	0x1
 770 02b1 79040000 		.4byte	0x479
 771 02b5 18       		.uleb128 0x18
 772 02b6 01       		.byte	0x1
 773 02b7 50       		.byte	0x50
 774 02b8 05       		.byte	0x5
 775 02b9 03       		.byte	0x3
 776 02ba 00000000 		.4byte	.LANCHOR0
 777 02be 00       		.byte	0
 778 02bf 00       		.byte	0
 779 02c0 19       		.uleb128 0x19
 780 02c1 01       		.byte	0x1
 781 02c2 BA010000 		.4byte	.LASF37
 782 02c6 01       		.byte	0x1
 783 02c7 64       		.byte	0x64
 784 02c8 01       		.byte	0x1
 785 02c9 00000000 		.4byte	.LFB120
 786 02cd 24000000 		.4byte	.LFE120
 787 02d1 00000000 		.4byte	.LLST0
 788 02d5 01       		.byte	0x1
 789 02d6 F3020000 		.4byte	0x2f3
 790 02da 1A       		.uleb128 0x1a
 791 02db E6010000 		.4byte	.LASF39
 792 02df 01       		.byte	0x1
 793 02e0 64       		.byte	0x64
ARM GAS  C:\Users\Vergil\AppData\Local\Temp\cc0L0IX8.s 			page 15


 794 02e1 20020000 		.4byte	0x220
 795 02e5 20000000 		.4byte	.LLST1
 796 02e9 1B       		.uleb128 0x1b
 797 02ea 22000000 		.4byte	.LVL4
 798 02ee 8D040000 		.4byte	0x48d
 799 02f2 00       		.byte	0
 800 02f3 19       		.uleb128 0x19
 801 02f4 01       		.byte	0x1
 802 02f5 A3010000 		.4byte	.LASF38
 803 02f9 01       		.byte	0x1
 804 02fa 79       		.byte	0x79
 805 02fb 01       		.byte	0x1
 806 02fc 00000000 		.4byte	.LFB121
 807 0300 C4000000 		.4byte	.LFE121
 808 0304 5A000000 		.4byte	.LLST2
 809 0308 01       		.byte	0x1
 810 0309 5D030000 		.4byte	0x35d
 811 030d 1A       		.uleb128 0x1a
 812 030e E6010000 		.4byte	.LASF39
 813 0312 01       		.byte	0x1
 814 0313 79       		.byte	0x79
 815 0314 20020000 		.4byte	0x220
 816 0318 7A000000 		.4byte	.LLST3
 817 031c 1A       		.uleb128 0x1a
 818 031d 31000000 		.4byte	.LASF40
 819 0321 01       		.byte	0x1
 820 0322 79       		.byte	0x79
 821 0323 F3010000 		.4byte	0x1f3
 822 0327 9B000000 		.4byte	.LLST4
 823 032b 1C       		.uleb128 0x1c
 824 032c 00000000 		.4byte	.Ldebug_ranges0+0
 825 0330 1D       		.uleb128 0x1d
 826 0331 6E00     		.ascii	"n\000"
 827 0333 01       		.byte	0x1
 828 0334 7D       		.byte	0x7d
 829 0335 65000000 		.4byte	0x65
 830 0339 D5000000 		.4byte	.LLST5
 831 033d 1E       		.uleb128 0x1e
 832 033e 14020000 		.4byte	.LASF41
 833 0342 01       		.byte	0x1
 834 0343 7E       		.byte	0x7e
 835 0344 65000000 		.4byte	0x65
 836 0348 F5000000 		.4byte	.LLST6
 837 034c 1E       		.uleb128 0x1e
 838 034d 6B020000 		.4byte	.LASF42
 839 0351 01       		.byte	0x1
 840 0352 7F       		.byte	0x7f
 841 0353 65000000 		.4byte	0x65
 842 0357 21010000 		.4byte	.LLST7
 843 035b 00       		.byte	0
 844 035c 00       		.byte	0
 845 035d 16       		.uleb128 0x16
 846 035e 01       		.byte	0x1
 847 035f D2000000 		.4byte	.LASF43
 848 0363 01       		.byte	0x1
 849 0364 C5       		.byte	0xc5
 850 0365 01       		.byte	0x1
ARM GAS  C:\Users\Vergil\AppData\Local\Temp\cc0L0IX8.s 			page 16


 851 0366 00000000 		.4byte	.LFB122
 852 036a 2C000000 		.4byte	.LFE122
 853 036e 02       		.byte	0x2
 854 036f 7D       		.byte	0x7d
 855 0370 00       		.sleb128 0
 856 0371 01       		.byte	0x1
 857 0372 95030000 		.4byte	0x395
 858 0376 1A       		.uleb128 0x1a
 859 0377 E6010000 		.4byte	.LASF39
 860 037b 01       		.byte	0x1
 861 037c C5       		.byte	0xc5
 862 037d 20020000 		.4byte	0x220
 863 0381 57010000 		.4byte	.LLST8
 864 0385 1A       		.uleb128 0x1a
 865 0386 31000000 		.4byte	.LASF40
 866 038a 01       		.byte	0x1
 867 038b C5       		.byte	0xc5
 868 038c F3010000 		.4byte	0x1f3
 869 0390 78010000 		.4byte	.LLST9
 870 0394 00       		.byte	0
 871 0395 19       		.uleb128 0x19
 872 0396 01       		.byte	0x1
 873 0397 CC020000 		.4byte	.LASF44
 874 039b 01       		.byte	0x1
 875 039c 4F       		.byte	0x4f
 876 039d 01       		.byte	0x1
 877 039e 00000000 		.4byte	.LFB119
 878 03a2 7C000000 		.4byte	.LFE119
 879 03a6 99010000 		.4byte	.LLST10
 880 03aa 01       		.byte	0x1
 881 03ab 59040000 		.4byte	0x459
 882 03af 1A       		.uleb128 0x1a
 883 03b0 E6010000 		.4byte	.LASF39
 884 03b4 01       		.byte	0x1
 885 03b5 4F       		.byte	0x4f
 886 03b6 20020000 		.4byte	0x220
 887 03ba B9010000 		.4byte	.LLST11
 888 03be 1D       		.uleb128 0x1d
 889 03bf 6900     		.ascii	"i\000"
 890 03c1 01       		.byte	0x1
 891 03c2 50       		.byte	0x50
 892 03c3 30000000 		.4byte	0x30
 893 03c7 19020000 		.4byte	.LLST12
 894 03cb 1F       		.uleb128 0x1f
 895 03cc 1C000000 		.4byte	.LVL20
 896 03d0 F3020000 		.4byte	0x2f3
 897 03d4 E4030000 		.4byte	0x3e4
 898 03d8 18       		.uleb128 0x18
 899 03d9 01       		.byte	0x1
 900 03da 51       		.byte	0x51
 901 03db 01       		.byte	0x1
 902 03dc 30       		.byte	0x30
 903 03dd 18       		.uleb128 0x18
 904 03de 01       		.byte	0x1
 905 03df 50       		.byte	0x50
 906 03e0 02       		.byte	0x2
 907 03e1 75       		.byte	0x75
ARM GAS  C:\Users\Vergil\AppData\Local\Temp\cc0L0IX8.s 			page 17


 908 03e2 00       		.sleb128 0
 909 03e3 00       		.byte	0
 910 03e4 1B       		.uleb128 0x1b
 911 03e5 24000000 		.4byte	.LVL23
 912 03e9 F3020000 		.4byte	0x2f3
 913 03ed 1F       		.uleb128 0x1f
 914 03ee 3A000000 		.4byte	.LVL24
 915 03f2 F3020000 		.4byte	0x2f3
 916 03f6 07040000 		.4byte	0x407
 917 03fa 18       		.uleb128 0x18
 918 03fb 01       		.byte	0x1
 919 03fc 51       		.byte	0x51
 920 03fd 02       		.byte	0x2
 921 03fe 74       		.byte	0x74
 922 03ff 7F       		.sleb128 -1
 923 0400 18       		.uleb128 0x18
 924 0401 01       		.byte	0x1
 925 0402 50       		.byte	0x50
 926 0403 02       		.byte	0x2
 927 0404 75       		.byte	0x75
 928 0405 00       		.sleb128 0
 929 0406 00       		.byte	0
 930 0407 1F       		.uleb128 0x1f
 931 0408 52000000 		.4byte	.LVL26
 932 040c 5D030000 		.4byte	0x35d
 933 0410 21040000 		.4byte	0x421
 934 0414 18       		.uleb128 0x18
 935 0415 01       		.byte	0x1
 936 0416 51       		.byte	0x51
 937 0417 02       		.byte	0x2
 938 0418 74       		.byte	0x74
 939 0419 00       		.sleb128 0
 940 041a 18       		.uleb128 0x18
 941 041b 01       		.byte	0x1
 942 041c 50       		.byte	0x50
 943 041d 02       		.byte	0x2
 944 041e 75       		.byte	0x75
 945 041f 00       		.sleb128 0
 946 0420 00       		.byte	0
 947 0421 1F       		.uleb128 0x1f
 948 0422 68000000 		.4byte	.LVL27
 949 0426 5D030000 		.4byte	0x35d
 950 042a 3B040000 		.4byte	0x43b
 951 042e 18       		.uleb128 0x18
 952 042f 01       		.byte	0x1
 953 0430 51       		.byte	0x51
 954 0431 02       		.byte	0x2
 955 0432 74       		.byte	0x74
 956 0433 7F       		.sleb128 -1
 957 0434 18       		.uleb128 0x18
 958 0435 01       		.byte	0x1
 959 0436 50       		.byte	0x50
 960 0437 02       		.byte	0x2
 961 0438 75       		.byte	0x75
 962 0439 00       		.sleb128 0
 963 043a 00       		.byte	0
 964 043b 1F       		.uleb128 0x1f
ARM GAS  C:\Users\Vergil\AppData\Local\Temp\cc0L0IX8.s 			page 18


 965 043c 74000000 		.4byte	.LVL29
 966 0440 5D030000 		.4byte	0x35d
 967 0444 4F040000 		.4byte	0x44f
 968 0448 18       		.uleb128 0x18
 969 0449 01       		.byte	0x1
 970 044a 50       		.byte	0x50
 971 044b 02       		.byte	0x2
 972 044c 75       		.byte	0x75
 973 044d 00       		.sleb128 0
 974 044e 00       		.byte	0
 975 044f 1B       		.uleb128 0x1b
 976 0450 7A000000 		.4byte	.LVL31
 977 0454 97040000 		.4byte	0x497
 978 0458 00       		.byte	0
 979 0459 20       		.uleb128 0x20
 980 045a 3B010000 		.4byte	.LASF45
 981 045e 06       		.byte	0x6
 982 045f 9806     		.2byte	0x698
 983 0461 BF000000 		.4byte	0xbf
 984 0465 01       		.byte	0x1
 985 0466 01       		.byte	0x1
 986 0467 21       		.uleb128 0x21
 987 0468 70020000 		.4byte	.LASF46
 988 046c 01       		.byte	0x1
 989 046d 2B       		.byte	0x2b
 990 046e BF010000 		.4byte	0x1bf
 991 0472 01       		.byte	0x1
 992 0473 05       		.byte	0x5
 993 0474 03       		.byte	0x3
 994 0475 00000000 		.4byte	EXTD1
 995 0479 22       		.uleb128 0x22
 996 047a 01       		.byte	0x1
 997 047b 8F020000 		.4byte	.LASF52
 998 047f 04       		.byte	0x4
 999 0480 91       		.byte	0x91
 1000 0481 01       		.byte	0x1
 1001 0482 01       		.byte	0x1
 1002 0483 8D040000 		.4byte	0x48d
 1003 0487 12       		.uleb128 0x12
 1004 0488 20020000 		.4byte	0x220
 1005 048c 00       		.byte	0
 1006 048d 23       		.uleb128 0x23
 1007 048e 01       		.byte	0x1
 1008 048f 93000000 		.4byte	.LASF47
 1009 0493 07       		.byte	0x7
 1010 0494 A1       		.byte	0xa1
 1011 0495 01       		.byte	0x1
 1012 0496 01       		.byte	0x1
 1013 0497 23       		.uleb128 0x23
 1014 0498 01       		.byte	0x1
 1015 0499 BA000000 		.4byte	.LASF48
 1016 049d 07       		.byte	0x7
 1017 049e A0       		.byte	0xa0
 1018 049f 01       		.byte	0x1
 1019 04a0 01       		.byte	0x1
 1020 04a1 00       		.byte	0
 1021              		.section	.debug_abbrev,"",%progbits
ARM GAS  C:\Users\Vergil\AppData\Local\Temp\cc0L0IX8.s 			page 19


 1022              	.Ldebug_abbrev0:
 1023 0000 01       		.uleb128 0x1
 1024 0001 11       		.uleb128 0x11
 1025 0002 01       		.byte	0x1
 1026 0003 25       		.uleb128 0x25
 1027 0004 0E       		.uleb128 0xe
 1028 0005 13       		.uleb128 0x13
 1029 0006 0B       		.uleb128 0xb
 1030 0007 03       		.uleb128 0x3
 1031 0008 0E       		.uleb128 0xe
 1032 0009 1B       		.uleb128 0x1b
 1033 000a 0E       		.uleb128 0xe
 1034 000b 55       		.uleb128 0x55
 1035 000c 06       		.uleb128 0x6
 1036 000d 11       		.uleb128 0x11
 1037 000e 01       		.uleb128 0x1
 1038 000f 52       		.uleb128 0x52
 1039 0010 01       		.uleb128 0x1
 1040 0011 10       		.uleb128 0x10
 1041 0012 06       		.uleb128 0x6
 1042 0013 00       		.byte	0
 1043 0014 00       		.byte	0
 1044 0015 02       		.uleb128 0x2
 1045 0016 24       		.uleb128 0x24
 1046 0017 00       		.byte	0
 1047 0018 0B       		.uleb128 0xb
 1048 0019 0B       		.uleb128 0xb
 1049 001a 3E       		.uleb128 0x3e
 1050 001b 0B       		.uleb128 0xb
 1051 001c 03       		.uleb128 0x3
 1052 001d 08       		.uleb128 0x8
 1053 001e 00       		.byte	0
 1054 001f 00       		.byte	0
 1055 0020 03       		.uleb128 0x3
 1056 0021 24       		.uleb128 0x24
 1057 0022 00       		.byte	0
 1058 0023 0B       		.uleb128 0xb
 1059 0024 0B       		.uleb128 0xb
 1060 0025 3E       		.uleb128 0x3e
 1061 0026 0B       		.uleb128 0xb
 1062 0027 03       		.uleb128 0x3
 1063 0028 0E       		.uleb128 0xe
 1064 0029 00       		.byte	0
 1065 002a 00       		.byte	0
 1066 002b 04       		.uleb128 0x4
 1067 002c 16       		.uleb128 0x16
 1068 002d 00       		.byte	0
 1069 002e 03       		.uleb128 0x3
 1070 002f 0E       		.uleb128 0xe
 1071 0030 3A       		.uleb128 0x3a
 1072 0031 0B       		.uleb128 0xb
 1073 0032 3B       		.uleb128 0x3b
 1074 0033 0B       		.uleb128 0xb
 1075 0034 49       		.uleb128 0x49
 1076 0035 13       		.uleb128 0x13
 1077 0036 00       		.byte	0
 1078 0037 00       		.byte	0
ARM GAS  C:\Users\Vergil\AppData\Local\Temp\cc0L0IX8.s 			page 20


 1079 0038 05       		.uleb128 0x5
 1080 0039 35       		.uleb128 0x35
 1081 003a 00       		.byte	0
 1082 003b 49       		.uleb128 0x49
 1083 003c 13       		.uleb128 0x13
 1084 003d 00       		.byte	0
 1085 003e 00       		.byte	0
 1086 003f 06       		.uleb128 0x6
 1087 0040 01       		.uleb128 0x1
 1088 0041 01       		.byte	0x1
 1089 0042 49       		.uleb128 0x49
 1090 0043 13       		.uleb128 0x13
 1091 0044 01       		.uleb128 0x1
 1092 0045 13       		.uleb128 0x13
 1093 0046 00       		.byte	0
 1094 0047 00       		.byte	0
 1095 0048 07       		.uleb128 0x7
 1096 0049 21       		.uleb128 0x21
 1097 004a 00       		.byte	0
 1098 004b 49       		.uleb128 0x49
 1099 004c 13       		.uleb128 0x13
 1100 004d 2F       		.uleb128 0x2f
 1101 004e 0B       		.uleb128 0xb
 1102 004f 00       		.byte	0
 1103 0050 00       		.byte	0
 1104 0051 08       		.uleb128 0x8
 1105 0052 13       		.uleb128 0x13
 1106 0053 01       		.byte	0x1
 1107 0054 0B       		.uleb128 0xb
 1108 0055 0B       		.uleb128 0xb
 1109 0056 3A       		.uleb128 0x3a
 1110 0057 0B       		.uleb128 0xb
 1111 0058 3B       		.uleb128 0x3b
 1112 0059 05       		.uleb128 0x5
 1113 005a 01       		.uleb128 0x1
 1114 005b 13       		.uleb128 0x13
 1115 005c 00       		.byte	0
 1116 005d 00       		.byte	0
 1117 005e 09       		.uleb128 0x9
 1118 005f 0D       		.uleb128 0xd
 1119 0060 00       		.byte	0
 1120 0061 03       		.uleb128 0x3
 1121 0062 08       		.uleb128 0x8
 1122 0063 3A       		.uleb128 0x3a
 1123 0064 0B       		.uleb128 0xb
 1124 0065 3B       		.uleb128 0x3b
 1125 0066 05       		.uleb128 0x5
 1126 0067 49       		.uleb128 0x49
 1127 0068 13       		.uleb128 0x13
 1128 0069 38       		.uleb128 0x38
 1129 006a 0A       		.uleb128 0xa
 1130 006b 00       		.byte	0
 1131 006c 00       		.byte	0
 1132 006d 0A       		.uleb128 0xa
 1133 006e 0D       		.uleb128 0xd
 1134 006f 00       		.byte	0
 1135 0070 03       		.uleb128 0x3
ARM GAS  C:\Users\Vergil\AppData\Local\Temp\cc0L0IX8.s 			page 21


 1136 0071 0E       		.uleb128 0xe
 1137 0072 3A       		.uleb128 0x3a
 1138 0073 0B       		.uleb128 0xb
 1139 0074 3B       		.uleb128 0x3b
 1140 0075 05       		.uleb128 0x5
 1141 0076 49       		.uleb128 0x49
 1142 0077 13       		.uleb128 0x13
 1143 0078 38       		.uleb128 0x38
 1144 0079 0A       		.uleb128 0xa
 1145 007a 00       		.byte	0
 1146 007b 00       		.byte	0
 1147 007c 0B       		.uleb128 0xb
 1148 007d 16       		.uleb128 0x16
 1149 007e 00       		.byte	0
 1150 007f 03       		.uleb128 0x3
 1151 0080 0E       		.uleb128 0xe
 1152 0081 3A       		.uleb128 0x3a
 1153 0082 0B       		.uleb128 0xb
 1154 0083 3B       		.uleb128 0x3b
 1155 0084 05       		.uleb128 0x5
 1156 0085 49       		.uleb128 0x49
 1157 0086 13       		.uleb128 0x13
 1158 0087 00       		.byte	0
 1159 0088 00       		.byte	0
 1160 0089 0C       		.uleb128 0xc
 1161 008a 04       		.uleb128 0x4
 1162 008b 01       		.byte	0x1
 1163 008c 0B       		.uleb128 0xb
 1164 008d 0B       		.uleb128 0xb
 1165 008e 3A       		.uleb128 0x3a
 1166 008f 0B       		.uleb128 0xb
 1167 0090 3B       		.uleb128 0x3b
 1168 0091 0B       		.uleb128 0xb
 1169 0092 01       		.uleb128 0x1
 1170 0093 13       		.uleb128 0x13
 1171 0094 00       		.byte	0
 1172 0095 00       		.byte	0
 1173 0096 0D       		.uleb128 0xd
 1174 0097 28       		.uleb128 0x28
 1175 0098 00       		.byte	0
 1176 0099 03       		.uleb128 0x3
 1177 009a 0E       		.uleb128 0xe
 1178 009b 1C       		.uleb128 0x1c
 1179 009c 0D       		.uleb128 0xd
 1180 009d 00       		.byte	0
 1181 009e 00       		.byte	0
 1182 009f 0E       		.uleb128 0xe
 1183 00a0 13       		.uleb128 0x13
 1184 00a1 01       		.byte	0x1
 1185 00a2 03       		.uleb128 0x3
 1186 00a3 0E       		.uleb128 0xe
 1187 00a4 0B       		.uleb128 0xb
 1188 00a5 0B       		.uleb128 0xb
 1189 00a6 3A       		.uleb128 0x3a
 1190 00a7 0B       		.uleb128 0xb
 1191 00a8 3B       		.uleb128 0x3b
 1192 00a9 0B       		.uleb128 0xb
ARM GAS  C:\Users\Vergil\AppData\Local\Temp\cc0L0IX8.s 			page 22


 1193 00aa 01       		.uleb128 0x1
 1194 00ab 13       		.uleb128 0x13
 1195 00ac 00       		.byte	0
 1196 00ad 00       		.byte	0
 1197 00ae 0F       		.uleb128 0xf
 1198 00af 0D       		.uleb128 0xd
 1199 00b0 00       		.byte	0
 1200 00b1 03       		.uleb128 0x3
 1201 00b2 0E       		.uleb128 0xe
 1202 00b3 3A       		.uleb128 0x3a
 1203 00b4 0B       		.uleb128 0xb
 1204 00b5 3B       		.uleb128 0x3b
 1205 00b6 0B       		.uleb128 0xb
 1206 00b7 49       		.uleb128 0x49
 1207 00b8 13       		.uleb128 0x13
 1208 00b9 38       		.uleb128 0x38
 1209 00ba 0A       		.uleb128 0xa
 1210 00bb 00       		.byte	0
 1211 00bc 00       		.byte	0
 1212 00bd 10       		.uleb128 0x10
 1213 00be 0F       		.uleb128 0xf
 1214 00bf 00       		.byte	0
 1215 00c0 0B       		.uleb128 0xb
 1216 00c1 0B       		.uleb128 0xb
 1217 00c2 49       		.uleb128 0x49
 1218 00c3 13       		.uleb128 0x13
 1219 00c4 00       		.byte	0
 1220 00c5 00       		.byte	0
 1221 00c6 11       		.uleb128 0x11
 1222 00c7 15       		.uleb128 0x15
 1223 00c8 01       		.byte	0x1
 1224 00c9 27       		.uleb128 0x27
 1225 00ca 0C       		.uleb128 0xc
 1226 00cb 01       		.uleb128 0x1
 1227 00cc 13       		.uleb128 0x13
 1228 00cd 00       		.byte	0
 1229 00ce 00       		.byte	0
 1230 00cf 12       		.uleb128 0x12
 1231 00d0 05       		.uleb128 0x5
 1232 00d1 00       		.byte	0
 1233 00d2 49       		.uleb128 0x49
 1234 00d3 13       		.uleb128 0x13
 1235 00d4 00       		.byte	0
 1236 00d5 00       		.byte	0
 1237 00d6 13       		.uleb128 0x13
 1238 00d7 13       		.uleb128 0x13
 1239 00d8 01       		.byte	0x1
 1240 00d9 0B       		.uleb128 0xb
 1241 00da 0B       		.uleb128 0xb
 1242 00db 3A       		.uleb128 0x3a
 1243 00dc 0B       		.uleb128 0xb
 1244 00dd 3B       		.uleb128 0x3b
 1245 00de 0B       		.uleb128 0xb
 1246 00df 01       		.uleb128 0x1
 1247 00e0 13       		.uleb128 0x13
 1248 00e1 00       		.byte	0
 1249 00e2 00       		.byte	0
ARM GAS  C:\Users\Vergil\AppData\Local\Temp\cc0L0IX8.s 			page 23


 1250 00e3 14       		.uleb128 0x14
 1251 00e4 0D       		.uleb128 0xd
 1252 00e5 00       		.byte	0
 1253 00e6 03       		.uleb128 0x3
 1254 00e7 08       		.uleb128 0x8
 1255 00e8 3A       		.uleb128 0x3a
 1256 00e9 0B       		.uleb128 0xb
 1257 00ea 3B       		.uleb128 0x3b
 1258 00eb 0B       		.uleb128 0xb
 1259 00ec 49       		.uleb128 0x49
 1260 00ed 13       		.uleb128 0x13
 1261 00ee 38       		.uleb128 0x38
 1262 00ef 0A       		.uleb128 0xa
 1263 00f0 00       		.byte	0
 1264 00f1 00       		.byte	0
 1265 00f2 15       		.uleb128 0x15
 1266 00f3 26       		.uleb128 0x26
 1267 00f4 00       		.byte	0
 1268 00f5 49       		.uleb128 0x49
 1269 00f6 13       		.uleb128 0x13
 1270 00f7 00       		.byte	0
 1271 00f8 00       		.byte	0
 1272 00f9 16       		.uleb128 0x16
 1273 00fa 2E       		.uleb128 0x2e
 1274 00fb 01       		.byte	0x1
 1275 00fc 3F       		.uleb128 0x3f
 1276 00fd 0C       		.uleb128 0xc
 1277 00fe 03       		.uleb128 0x3
 1278 00ff 0E       		.uleb128 0xe
 1279 0100 3A       		.uleb128 0x3a
 1280 0101 0B       		.uleb128 0xb
 1281 0102 3B       		.uleb128 0x3b
 1282 0103 0B       		.uleb128 0xb
 1283 0104 27       		.uleb128 0x27
 1284 0105 0C       		.uleb128 0xc
 1285 0106 11       		.uleb128 0x11
 1286 0107 01       		.uleb128 0x1
 1287 0108 12       		.uleb128 0x12
 1288 0109 01       		.uleb128 0x1
 1289 010a 40       		.uleb128 0x40
 1290 010b 0A       		.uleb128 0xa
 1291 010c 9742     		.uleb128 0x2117
 1292 010e 0C       		.uleb128 0xc
 1293 010f 01       		.uleb128 0x1
 1294 0110 13       		.uleb128 0x13
 1295 0111 00       		.byte	0
 1296 0112 00       		.byte	0
 1297 0113 17       		.uleb128 0x17
 1298 0114 898201   		.uleb128 0x4109
 1299 0117 01       		.byte	0x1
 1300 0118 11       		.uleb128 0x11
 1301 0119 01       		.uleb128 0x1
 1302 011a 9542     		.uleb128 0x2115
 1303 011c 0C       		.uleb128 0xc
 1304 011d 31       		.uleb128 0x31
 1305 011e 13       		.uleb128 0x13
 1306 011f 00       		.byte	0
ARM GAS  C:\Users\Vergil\AppData\Local\Temp\cc0L0IX8.s 			page 24


 1307 0120 00       		.byte	0
 1308 0121 18       		.uleb128 0x18
 1309 0122 8A8201   		.uleb128 0x410a
 1310 0125 00       		.byte	0
 1311 0126 02       		.uleb128 0x2
 1312 0127 0A       		.uleb128 0xa
 1313 0128 9142     		.uleb128 0x2111
 1314 012a 0A       		.uleb128 0xa
 1315 012b 00       		.byte	0
 1316 012c 00       		.byte	0
 1317 012d 19       		.uleb128 0x19
 1318 012e 2E       		.uleb128 0x2e
 1319 012f 01       		.byte	0x1
 1320 0130 3F       		.uleb128 0x3f
 1321 0131 0C       		.uleb128 0xc
 1322 0132 03       		.uleb128 0x3
 1323 0133 0E       		.uleb128 0xe
 1324 0134 3A       		.uleb128 0x3a
 1325 0135 0B       		.uleb128 0xb
 1326 0136 3B       		.uleb128 0x3b
 1327 0137 0B       		.uleb128 0xb
 1328 0138 27       		.uleb128 0x27
 1329 0139 0C       		.uleb128 0xc
 1330 013a 11       		.uleb128 0x11
 1331 013b 01       		.uleb128 0x1
 1332 013c 12       		.uleb128 0x12
 1333 013d 01       		.uleb128 0x1
 1334 013e 40       		.uleb128 0x40
 1335 013f 06       		.uleb128 0x6
 1336 0140 9742     		.uleb128 0x2117
 1337 0142 0C       		.uleb128 0xc
 1338 0143 01       		.uleb128 0x1
 1339 0144 13       		.uleb128 0x13
 1340 0145 00       		.byte	0
 1341 0146 00       		.byte	0
 1342 0147 1A       		.uleb128 0x1a
 1343 0148 05       		.uleb128 0x5
 1344 0149 00       		.byte	0
 1345 014a 03       		.uleb128 0x3
 1346 014b 0E       		.uleb128 0xe
 1347 014c 3A       		.uleb128 0x3a
 1348 014d 0B       		.uleb128 0xb
 1349 014e 3B       		.uleb128 0x3b
 1350 014f 0B       		.uleb128 0xb
 1351 0150 49       		.uleb128 0x49
 1352 0151 13       		.uleb128 0x13
 1353 0152 02       		.uleb128 0x2
 1354 0153 06       		.uleb128 0x6
 1355 0154 00       		.byte	0
 1356 0155 00       		.byte	0
 1357 0156 1B       		.uleb128 0x1b
 1358 0157 898201   		.uleb128 0x4109
 1359 015a 00       		.byte	0
 1360 015b 11       		.uleb128 0x11
 1361 015c 01       		.uleb128 0x1
 1362 015d 31       		.uleb128 0x31
 1363 015e 13       		.uleb128 0x13
ARM GAS  C:\Users\Vergil\AppData\Local\Temp\cc0L0IX8.s 			page 25


 1364 015f 00       		.byte	0
 1365 0160 00       		.byte	0
 1366 0161 1C       		.uleb128 0x1c
 1367 0162 0B       		.uleb128 0xb
 1368 0163 01       		.byte	0x1
 1369 0164 55       		.uleb128 0x55
 1370 0165 06       		.uleb128 0x6
 1371 0166 00       		.byte	0
 1372 0167 00       		.byte	0
 1373 0168 1D       		.uleb128 0x1d
 1374 0169 34       		.uleb128 0x34
 1375 016a 00       		.byte	0
 1376 016b 03       		.uleb128 0x3
 1377 016c 08       		.uleb128 0x8
 1378 016d 3A       		.uleb128 0x3a
 1379 016e 0B       		.uleb128 0xb
 1380 016f 3B       		.uleb128 0x3b
 1381 0170 0B       		.uleb128 0xb
 1382 0171 49       		.uleb128 0x49
 1383 0172 13       		.uleb128 0x13
 1384 0173 02       		.uleb128 0x2
 1385 0174 06       		.uleb128 0x6
 1386 0175 00       		.byte	0
 1387 0176 00       		.byte	0
 1388 0177 1E       		.uleb128 0x1e
 1389 0178 34       		.uleb128 0x34
 1390 0179 00       		.byte	0
 1391 017a 03       		.uleb128 0x3
 1392 017b 0E       		.uleb128 0xe
 1393 017c 3A       		.uleb128 0x3a
 1394 017d 0B       		.uleb128 0xb
 1395 017e 3B       		.uleb128 0x3b
 1396 017f 0B       		.uleb128 0xb
 1397 0180 49       		.uleb128 0x49
 1398 0181 13       		.uleb128 0x13
 1399 0182 02       		.uleb128 0x2
 1400 0183 06       		.uleb128 0x6
 1401 0184 00       		.byte	0
 1402 0185 00       		.byte	0
 1403 0186 1F       		.uleb128 0x1f
 1404 0187 898201   		.uleb128 0x4109
 1405 018a 01       		.byte	0x1
 1406 018b 11       		.uleb128 0x11
 1407 018c 01       		.uleb128 0x1
 1408 018d 31       		.uleb128 0x31
 1409 018e 13       		.uleb128 0x13
 1410 018f 01       		.uleb128 0x1
 1411 0190 13       		.uleb128 0x13
 1412 0191 00       		.byte	0
 1413 0192 00       		.byte	0
 1414 0193 20       		.uleb128 0x20
 1415 0194 34       		.uleb128 0x34
 1416 0195 00       		.byte	0
 1417 0196 03       		.uleb128 0x3
 1418 0197 0E       		.uleb128 0xe
 1419 0198 3A       		.uleb128 0x3a
 1420 0199 0B       		.uleb128 0xb
ARM GAS  C:\Users\Vergil\AppData\Local\Temp\cc0L0IX8.s 			page 26


 1421 019a 3B       		.uleb128 0x3b
 1422 019b 05       		.uleb128 0x5
 1423 019c 49       		.uleb128 0x49
 1424 019d 13       		.uleb128 0x13
 1425 019e 3F       		.uleb128 0x3f
 1426 019f 0C       		.uleb128 0xc
 1427 01a0 3C       		.uleb128 0x3c
 1428 01a1 0C       		.uleb128 0xc
 1429 01a2 00       		.byte	0
 1430 01a3 00       		.byte	0
 1431 01a4 21       		.uleb128 0x21
 1432 01a5 34       		.uleb128 0x34
 1433 01a6 00       		.byte	0
 1434 01a7 03       		.uleb128 0x3
 1435 01a8 0E       		.uleb128 0xe
 1436 01a9 3A       		.uleb128 0x3a
 1437 01aa 0B       		.uleb128 0xb
 1438 01ab 3B       		.uleb128 0x3b
 1439 01ac 0B       		.uleb128 0xb
 1440 01ad 49       		.uleb128 0x49
 1441 01ae 13       		.uleb128 0x13
 1442 01af 3F       		.uleb128 0x3f
 1443 01b0 0C       		.uleb128 0xc
 1444 01b1 02       		.uleb128 0x2
 1445 01b2 0A       		.uleb128 0xa
 1446 01b3 00       		.byte	0
 1447 01b4 00       		.byte	0
 1448 01b5 22       		.uleb128 0x22
 1449 01b6 2E       		.uleb128 0x2e
 1450 01b7 01       		.byte	0x1
 1451 01b8 3F       		.uleb128 0x3f
 1452 01b9 0C       		.uleb128 0xc
 1453 01ba 03       		.uleb128 0x3
 1454 01bb 0E       		.uleb128 0xe
 1455 01bc 3A       		.uleb128 0x3a
 1456 01bd 0B       		.uleb128 0xb
 1457 01be 3B       		.uleb128 0x3b
 1458 01bf 0B       		.uleb128 0xb
 1459 01c0 27       		.uleb128 0x27
 1460 01c1 0C       		.uleb128 0xc
 1461 01c2 3C       		.uleb128 0x3c
 1462 01c3 0C       		.uleb128 0xc
 1463 01c4 01       		.uleb128 0x1
 1464 01c5 13       		.uleb128 0x13
 1465 01c6 00       		.byte	0
 1466 01c7 00       		.byte	0
 1467 01c8 23       		.uleb128 0x23
 1468 01c9 2E       		.uleb128 0x2e
 1469 01ca 00       		.byte	0
 1470 01cb 3F       		.uleb128 0x3f
 1471 01cc 0C       		.uleb128 0xc
 1472 01cd 03       		.uleb128 0x3
 1473 01ce 0E       		.uleb128 0xe
 1474 01cf 3A       		.uleb128 0x3a
 1475 01d0 0B       		.uleb128 0xb
 1476 01d1 3B       		.uleb128 0x3b
 1477 01d2 0B       		.uleb128 0xb
ARM GAS  C:\Users\Vergil\AppData\Local\Temp\cc0L0IX8.s 			page 27


 1478 01d3 27       		.uleb128 0x27
 1479 01d4 0C       		.uleb128 0xc
 1480 01d5 3C       		.uleb128 0x3c
 1481 01d6 0C       		.uleb128 0xc
 1482 01d7 00       		.byte	0
 1483 01d8 00       		.byte	0
 1484 01d9 00       		.byte	0
 1485              		.section	.debug_loc,"",%progbits
 1486              	.Ldebug_loc0:
 1487              	.LLST0:
 1488 0000 00000000 		.4byte	.LFB120
 1489 0004 02000000 		.4byte	.LCFI0
 1490 0008 0200     		.2byte	0x2
 1491 000a 7D       		.byte	0x7d
 1492 000b 00       		.sleb128 0
 1493 000c 02000000 		.4byte	.LCFI0
 1494 0010 24000000 		.4byte	.LFE120
 1495 0014 0200     		.2byte	0x2
 1496 0016 7D       		.byte	0x7d
 1497 0017 08       		.sleb128 8
 1498 0018 00000000 		.4byte	0
 1499 001c 00000000 		.4byte	0
 1500              	.LLST1:
 1501 0020 00000000 		.4byte	.LVL1
 1502 0024 08000000 		.4byte	.LVL2
 1503 0028 0100     		.2byte	0x1
 1504 002a 50       		.byte	0x50
 1505 002b 08000000 		.4byte	.LVL2
 1506 002f 1E000000 		.4byte	.LVL3
 1507 0033 0400     		.2byte	0x4
 1508 0035 F3       		.byte	0xf3
 1509 0036 01       		.uleb128 0x1
 1510 0037 50       		.byte	0x50
 1511 0038 9F       		.byte	0x9f
 1512 0039 1E000000 		.4byte	.LVL3
 1513 003d 21000000 		.4byte	.LVL4-1
 1514 0041 0100     		.2byte	0x1
 1515 0043 50       		.byte	0x50
 1516 0044 21000000 		.4byte	.LVL4-1
 1517 0048 24000000 		.4byte	.LFE120
 1518 004c 0400     		.2byte	0x4
 1519 004e F3       		.byte	0xf3
 1520 004f 01       		.uleb128 0x1
 1521 0050 50       		.byte	0x50
 1522 0051 9F       		.byte	0x9f
 1523 0052 00000000 		.4byte	0
 1524 0056 00000000 		.4byte	0
 1525              	.LLST2:
 1526 005a 00000000 		.4byte	.LFB121
 1527 005e 04000000 		.4byte	.LCFI1
 1528 0062 0200     		.2byte	0x2
 1529 0064 7D       		.byte	0x7d
 1530 0065 00       		.sleb128 0
 1531 0066 04000000 		.4byte	.LCFI1
 1532 006a C4000000 		.4byte	.LFE121
 1533 006e 0200     		.2byte	0x2
 1534 0070 7D       		.byte	0x7d
ARM GAS  C:\Users\Vergil\AppData\Local\Temp\cc0L0IX8.s 			page 28


 1535 0071 10       		.sleb128 16
 1536 0072 00000000 		.4byte	0
 1537 0076 00000000 		.4byte	0
 1538              	.LLST3:
 1539 007a 00000000 		.4byte	.LVL5
 1540 007e 06000000 		.4byte	.LVL6
 1541 0082 0100     		.2byte	0x1
 1542 0084 50       		.byte	0x50
 1543 0085 06000000 		.4byte	.LVL6
 1544 0089 C4000000 		.4byte	.LFE121
 1545 008d 0400     		.2byte	0x4
 1546 008f F3       		.byte	0xf3
 1547 0090 01       		.uleb128 0x1
 1548 0091 50       		.byte	0x50
 1549 0092 9F       		.byte	0x9f
 1550 0093 00000000 		.4byte	0
 1551 0097 00000000 		.4byte	0
 1552              	.LLST4:
 1553 009b 00000000 		.4byte	.LVL5
 1554 009f 36000000 		.4byte	.LVL7
 1555 00a3 0100     		.2byte	0x1
 1556 00a5 51       		.byte	0x51
 1557 00a6 36000000 		.4byte	.LVL7
 1558 00aa 5E000000 		.4byte	.LVL8
 1559 00ae 0400     		.2byte	0x4
 1560 00b0 F3       		.byte	0xf3
 1561 00b1 01       		.uleb128 0x1
 1562 00b2 51       		.byte	0x51
 1563 00b3 9F       		.byte	0x9f
 1564 00b4 5E000000 		.4byte	.LVL8
 1565 00b8 AE000000 		.4byte	.LVL14
 1566 00bc 0100     		.2byte	0x1
 1567 00be 51       		.byte	0x51
 1568 00bf AE000000 		.4byte	.LVL14
 1569 00c3 C4000000 		.4byte	.LFE121
 1570 00c7 0400     		.2byte	0x4
 1571 00c9 F3       		.byte	0xf3
 1572 00ca 01       		.uleb128 0x1
 1573 00cb 51       		.byte	0x51
 1574 00cc 9F       		.byte	0x9f
 1575 00cd 00000000 		.4byte	0
 1576 00d1 00000000 		.4byte	0
 1577              	.LLST5:
 1578 00d5 60000000 		.4byte	.LVL9
 1579 00d9 6A000000 		.4byte	.LVL10
 1580 00dd 0100     		.2byte	0x1
 1581 00df 54       		.byte	0x54
 1582 00e0 6A000000 		.4byte	.LVL10
 1583 00e4 96000000 		.4byte	.LVL13
 1584 00e8 0300     		.2byte	0x3
 1585 00ea 74       		.byte	0x74
 1586 00eb 7E       		.sleb128 -2
 1587 00ec 9F       		.byte	0x9f
 1588 00ed 00000000 		.4byte	0
 1589 00f1 00000000 		.4byte	0
 1590              	.LLST6:
 1591 00f5 78000000 		.4byte	.LVL11
ARM GAS  C:\Users\Vergil\AppData\Local\Temp\cc0L0IX8.s 			page 29


 1592 00f9 8C000000 		.4byte	.LVL12
 1593 00fd 0600     		.2byte	0x6
 1594 00ff 3F       		.byte	0x3f
 1595 0100 75       		.byte	0x75
 1596 0101 00       		.sleb128 0
 1597 0102 24       		.byte	0x24
 1598 0103 20       		.byte	0x20
 1599 0104 9F       		.byte	0x9f
 1600 0105 8C000000 		.4byte	.LVL12
 1601 0109 96000000 		.4byte	.LVL13
 1602 010d 0A00     		.2byte	0xa
 1603 010f 3F       		.byte	0x3f
 1604 0110 71       		.byte	0x71
 1605 0111 00       		.sleb128 0
 1606 0112 33       		.byte	0x33
 1607 0113 1A       		.byte	0x1a
 1608 0114 32       		.byte	0x32
 1609 0115 24       		.byte	0x24
 1610 0116 24       		.byte	0x24
 1611 0117 20       		.byte	0x20
 1612 0118 9F       		.byte	0x9f
 1613 0119 00000000 		.4byte	0
 1614 011d 00000000 		.4byte	0
 1615              	.LLST7:
 1616 0121 78000000 		.4byte	.LVL11
 1617 0125 8C000000 		.4byte	.LVL12
 1618 0129 0B00     		.2byte	0xb
 1619 012b 73       		.byte	0x73
 1620 012c 00       		.sleb128 0
 1621 012d 08       		.byte	0x8
 1622 012e F0       		.byte	0xf0
 1623 012f 1A       		.byte	0x1a
 1624 0130 34       		.byte	0x34
 1625 0131 25       		.byte	0x25
 1626 0132 75       		.byte	0x75
 1627 0133 00       		.sleb128 0
 1628 0134 24       		.byte	0x24
 1629 0135 9F       		.byte	0x9f
 1630 0136 8C000000 		.4byte	.LVL12
 1631 013a 96000000 		.4byte	.LVL13
 1632 013e 0F00     		.2byte	0xf
 1633 0140 73       		.byte	0x73
 1634 0141 00       		.sleb128 0
 1635 0142 08       		.byte	0x8
 1636 0143 F0       		.byte	0xf0
 1637 0144 1A       		.byte	0x1a
 1638 0145 34       		.byte	0x34
 1639 0146 25       		.byte	0x25
 1640 0147 71       		.byte	0x71
 1641 0148 00       		.sleb128 0
 1642 0149 33       		.byte	0x33
 1643 014a 1A       		.byte	0x1a
 1644 014b 32       		.byte	0x32
 1645 014c 24       		.byte	0x24
 1646 014d 24       		.byte	0x24
 1647 014e 9F       		.byte	0x9f
 1648 014f 00000000 		.4byte	0
ARM GAS  C:\Users\Vergil\AppData\Local\Temp\cc0L0IX8.s 			page 30


 1649 0153 00000000 		.4byte	0
 1650              	.LLST8:
 1651 0157 00000000 		.4byte	.LVL15
 1652 015b 0C000000 		.4byte	.LVL16
 1653 015f 0100     		.2byte	0x1
 1654 0161 50       		.byte	0x50
 1655 0162 0C000000 		.4byte	.LVL16
 1656 0166 2C000000 		.4byte	.LFE122
 1657 016a 0400     		.2byte	0x4
 1658 016c F3       		.byte	0xf3
 1659 016d 01       		.uleb128 0x1
 1660 016e 50       		.byte	0x50
 1661 016f 9F       		.byte	0x9f
 1662 0170 00000000 		.4byte	0
 1663 0174 00000000 		.4byte	0
 1664              	.LLST9:
 1665 0178 00000000 		.4byte	.LVL15
 1666 017c 10000000 		.4byte	.LVL17
 1667 0180 0100     		.2byte	0x1
 1668 0182 51       		.byte	0x51
 1669 0183 10000000 		.4byte	.LVL17
 1670 0187 2C000000 		.4byte	.LFE122
 1671 018b 0400     		.2byte	0x4
 1672 018d F3       		.byte	0xf3
 1673 018e 01       		.uleb128 0x1
 1674 018f 51       		.byte	0x51
 1675 0190 9F       		.byte	0x9f
 1676 0191 00000000 		.4byte	0
 1677 0195 00000000 		.4byte	0
 1678              	.LLST10:
 1679 0199 00000000 		.4byte	.LFB119
 1680 019d 02000000 		.4byte	.LCFI2
 1681 01a1 0200     		.2byte	0x2
 1682 01a3 7D       		.byte	0x7d
 1683 01a4 00       		.sleb128 0
 1684 01a5 02000000 		.4byte	.LCFI2
 1685 01a9 7C000000 		.4byte	.LFE119
 1686 01ad 0200     		.2byte	0x2
 1687 01af 7D       		.byte	0x7d
 1688 01b0 10       		.sleb128 16
 1689 01b1 00000000 		.4byte	0
 1690 01b5 00000000 		.4byte	0
 1691              	.LLST11:
 1692 01b9 00000000 		.4byte	.LVL18
 1693 01bd 0A000000 		.4byte	.LVL19
 1694 01c1 0100     		.2byte	0x1
 1695 01c3 50       		.byte	0x50
 1696 01c4 0A000000 		.4byte	.LVL19
 1697 01c8 20000000 		.4byte	.LVL22
 1698 01cc 0100     		.2byte	0x1
 1699 01ce 55       		.byte	0x55
 1700 01cf 20000000 		.4byte	.LVL22
 1701 01d3 23000000 		.4byte	.LVL23-1
 1702 01d7 0100     		.2byte	0x1
 1703 01d9 50       		.byte	0x50
 1704 01da 23000000 		.4byte	.LVL23-1
 1705 01de 4E000000 		.4byte	.LVL25
ARM GAS  C:\Users\Vergil\AppData\Local\Temp\cc0L0IX8.s 			page 31


 1706 01e2 0100     		.2byte	0x1
 1707 01e4 55       		.byte	0x55
 1708 01e5 4E000000 		.4byte	.LVL25
 1709 01e9 51000000 		.4byte	.LVL26-1
 1710 01ed 0100     		.2byte	0x1
 1711 01ef 50       		.byte	0x50
 1712 01f0 51000000 		.4byte	.LVL26-1
 1713 01f4 76000000 		.4byte	.LVL30
 1714 01f8 0100     		.2byte	0x1
 1715 01fa 55       		.byte	0x55
 1716 01fb 76000000 		.4byte	.LVL30
 1717 01ff 79000000 		.4byte	.LVL31-1
 1718 0203 0100     		.2byte	0x1
 1719 0205 50       		.byte	0x50
 1720 0206 79000000 		.4byte	.LVL31-1
 1721 020a 7C000000 		.4byte	.LFE119
 1722 020e 0100     		.2byte	0x1
 1723 0210 55       		.byte	0x55
 1724 0211 00000000 		.4byte	0
 1725 0215 00000000 		.4byte	0
 1726              	.LLST12:
 1727 0219 0A000000 		.4byte	.LVL19
 1728 021d 1E000000 		.4byte	.LVL21
 1729 0221 0200     		.2byte	0x2
 1730 0223 30       		.byte	0x30
 1731 0224 9F       		.byte	0x9f
 1732 0225 6E000000 		.4byte	.LVL28
 1733 0229 76000000 		.4byte	.LVL30
 1734 022d 0200     		.2byte	0x2
 1735 022f 30       		.byte	0x30
 1736 0230 9F       		.byte	0x9f
 1737 0231 00000000 		.4byte	0
 1738 0235 00000000 		.4byte	0
 1739              		.section	.debug_aranges,"",%progbits
 1740 0000 3C000000 		.4byte	0x3c
 1741 0004 0200     		.2byte	0x2
 1742 0006 00000000 		.4byte	.Ldebug_info0
 1743 000a 04       		.byte	0x4
 1744 000b 00       		.byte	0
 1745 000c 0000     		.2byte	0
 1746 000e 0000     		.2byte	0
 1747 0010 00000000 		.4byte	.LFB118
 1748 0014 0C000000 		.4byte	.LFE118-.LFB118
 1749 0018 00000000 		.4byte	.LFB120
 1750 001c 24000000 		.4byte	.LFE120-.LFB120
 1751 0020 00000000 		.4byte	.LFB121
 1752 0024 C4000000 		.4byte	.LFE121-.LFB121
 1753 0028 00000000 		.4byte	.LFB122
 1754 002c 2C000000 		.4byte	.LFE122-.LFB122
 1755 0030 00000000 		.4byte	.LFB119
 1756 0034 7C000000 		.4byte	.LFE119-.LFB119
 1757 0038 00000000 		.4byte	0
 1758 003c 00000000 		.4byte	0
 1759              		.section	.debug_ranges,"",%progbits
 1760              	.Ldebug_ranges0:
 1761 0000 04000000 		.4byte	.LBB2
 1762 0004 06000000 		.4byte	.LBE2
ARM GAS  C:\Users\Vergil\AppData\Local\Temp\cc0L0IX8.s 			page 32


 1763 0008 5E000000 		.4byte	.LBB3
 1764 000c 92000000 		.4byte	.LBE3
 1765 0010 00000000 		.4byte	0
 1766 0014 00000000 		.4byte	0
 1767 0018 00000000 		.4byte	.LFB118
 1768 001c 0C000000 		.4byte	.LFE118
 1769 0020 00000000 		.4byte	.LFB120
 1770 0024 24000000 		.4byte	.LFE120
 1771 0028 00000000 		.4byte	.LFB121
 1772 002c C4000000 		.4byte	.LFE121
 1773 0030 00000000 		.4byte	.LFB122
 1774 0034 2C000000 		.4byte	.LFE122
 1775 0038 00000000 		.4byte	.LFB119
 1776 003c 7C000000 		.4byte	.LFE119
 1777 0040 00000000 		.4byte	0
 1778 0044 00000000 		.4byte	0
 1779              		.section	.debug_line,"",%progbits
 1780              	.Ldebug_line0:
 1781 0000 22020000 		.section	.debug_str,"MS",%progbits,1
 1781      02006A01 
 1781      00000201 
 1781      FB0E0D00 
 1781      01010101 
 1782              	.LASF50:
 1783 0000 2E2E2F2E 		.ascii	"../../os/hal/platforms/STM32/ext_lld.c\000"
 1783      2E2F6F73 
 1783      2F68616C 
 1783      2F706C61 
 1783      74666F72 
 1784              	.LASF27:
 1785 0027 45585444 		.ascii	"EXTDriver\000"
 1785      72697665 
 1785      7200
 1786              	.LASF40:
 1787 0031 6368616E 		.ascii	"channel\000"
 1787      6E656C00 
 1788              	.LASF36:
 1789 0039 6578745F 		.ascii	"ext_lld_init\000"
 1789      6C6C645F 
 1789      696E6974 
 1789      00
 1790              	.LASF28:
 1791 0046 73746174 		.ascii	"state\000"
 1791      6500
 1792              	.LASF26:
 1793 004c 65787473 		.ascii	"extstate_t\000"
 1793      74617465 
 1793      5F7400
 1794              	.LASF33:
 1795 0057 45585443 		.ascii	"EXTChannelConfig\000"
 1795      68616E6E 
 1795      656C436F 
 1795      6E666967 
 1795      00
 1796              	.LASF23:
 1797 0068 4558545F 		.ascii	"EXT_UNINIT\000"
 1797      554E494E 
ARM GAS  C:\Users\Vergil\AppData\Local\Temp\cc0L0IX8.s 			page 33


 1797      495400
 1798              	.LASF4:
 1799 0073 73686F72 		.ascii	"short unsigned int\000"
 1799      7420756E 
 1799      7369676E 
 1799      65642069 
 1799      6E7400
 1800              	.LASF30:
 1801 0086 65787063 		.ascii	"expchannel_t\000"
 1801      68616E6E 
 1801      656C5F74 
 1801      00
 1802              	.LASF47:
 1803 0093 6578745F 		.ascii	"ext_lld_exti_irq_disable\000"
 1803      6C6C645F 
 1803      65787469 
 1803      5F697271 
 1803      5F646973 
 1804              	.LASF31:
 1805 00ac 65787463 		.ascii	"extcallback_t\000"
 1805      616C6C62 
 1805      61636B5F 
 1805      7400
 1806              	.LASF48:
 1807 00ba 6578745F 		.ascii	"ext_lld_exti_irq_enable\000"
 1807      6C6C645F 
 1807      65787469 
 1807      5F697271 
 1807      5F656E61 
 1808              	.LASF43:
 1809 00d2 6578745F 		.ascii	"ext_lld_channel_disable\000"
 1809      6C6C645F 
 1809      6368616E 
 1809      6E656C5F 
 1809      64697361 
 1810              	.LASF10:
 1811 00ea 6C6F6E67 		.ascii	"long long unsigned int\000"
 1811      206C6F6E 
 1811      6720756E 
 1811      7369676E 
 1811      65642069 
 1812              	.LASF21:
 1813 0101 434D5043 		.ascii	"CMPCR\000"
 1813      5200
 1814              	.LASF2:
 1815 0107 756E7369 		.ascii	"unsigned char\000"
 1815      676E6564 
 1815      20636861 
 1815      7200
 1816              	.LASF8:
 1817 0115 6C6F6E67 		.ascii	"long unsigned int\000"
 1817      20756E73 
 1817      69676E65 
 1817      6420696E 
 1817      7400
 1818              	.LASF18:
 1819 0127 4D454D52 		.ascii	"MEMRMP\000"
ARM GAS  C:\Users\Vergil\AppData\Local\Temp\cc0L0IX8.s 			page 34


 1819      4D5000
 1820              	.LASF17:
 1821 012e 45585449 		.ascii	"EXTI_TypeDef\000"
 1821      5F547970 
 1821      65446566 
 1821      00
 1822              	.LASF45:
 1823 013b 49544D5F 		.ascii	"ITM_RxBuffer\000"
 1823      52784275 
 1823      66666572 
 1823      00
 1824              	.LASF14:
 1825 0148 52545352 		.ascii	"RTSR\000"
 1825      00
 1826              	.LASF29:
 1827 014d 636F6E66 		.ascii	"config\000"
 1827      696700
 1828              	.LASF35:
 1829 0154 45585443 		.ascii	"EXTConfig\000"
 1829      6F6E6669 
 1829      6700
 1830              	.LASF20:
 1831 015e 52455345 		.ascii	"RESERVED\000"
 1831      52564544 
 1831      00
 1832              	.LASF51:
 1833 0167 433A5C43 		.ascii	"C:\\ChibiStudio\\chibios\\demos\\ARMCM4-STM32F401RE"
 1833      68696269 
 1833      53747564 
 1833      696F5C63 
 1833      68696269 
 1834 0196 2D4E5543 		.ascii	"-NUCLEO-CC3K\000"
 1834      4C454F2D 
 1834      4343334B 
 1834      00
 1835              	.LASF38:
 1836 01a3 6578745F 		.ascii	"ext_lld_channel_enable\000"
 1836      6C6C645F 
 1836      6368616E 
 1836      6E656C5F 
 1836      656E6162 
 1837              	.LASF37:
 1838 01ba 6578745F 		.ascii	"ext_lld_stop\000"
 1838      6C6C645F 
 1838      73746F70 
 1838      00
 1839              	.LASF19:
 1840 01c7 45585449 		.ascii	"EXTICR\000"
 1840      435200
 1841              	.LASF25:
 1842 01ce 4558545F 		.ascii	"EXT_ACTIVE\000"
 1842      41435449 
 1842      564500
 1843              	.LASF0:
 1844 01d9 756E7369 		.ascii	"unsigned int\000"
 1844      676E6564 
 1844      20696E74 
ARM GAS  C:\Users\Vergil\AppData\Local\Temp\cc0L0IX8.s 			page 35


 1844      00
 1845              	.LASF39:
 1846 01e6 65787470 		.ascii	"extp\000"
 1846      00
 1847              	.LASF13:
 1848 01eb 63686172 		.ascii	"char\000"
 1848      00
 1849              	.LASF32:
 1850 01f0 6D6F6465 		.ascii	"mode\000"
 1850      00
 1851              	.LASF6:
 1852 01f5 696E7433 		.ascii	"int32_t\000"
 1852      325F7400 
 1853              	.LASF12:
 1854 01fd 73697A65 		.ascii	"sizetype\000"
 1854      74797065 
 1854      00
 1855              	.LASF9:
 1856 0206 6C6F6E67 		.ascii	"long long int\000"
 1856      206C6F6E 
 1856      6720696E 
 1856      7400
 1857              	.LASF41:
 1858 0214 6D61736B 		.ascii	"mask\000"
 1858      00
 1859              	.LASF49:
 1860 0219 474E5520 		.ascii	"GNU C 4.7.4 20140401 (release) [ARM/embedded-4_7-br"
 1860      4320342E 
 1860      372E3420 
 1860      32303134 
 1860      30343031 
 1861 024c 616E6368 		.ascii	"anch revision 209195]\000"
 1861      20726576 
 1861      6973696F 
 1861      6E203230 
 1861      39313935 
 1862              	.LASF34:
 1863 0262 6368616E 		.ascii	"channels\000"
 1863      6E656C73 
 1863      00
 1864              	.LASF42:
 1865 026b 706F7274 		.ascii	"port\000"
 1865      00
 1866              	.LASF46:
 1867 0270 45585444 		.ascii	"EXTD1\000"
 1867      3100
 1868              	.LASF3:
 1869 0276 73686F72 		.ascii	"short int\000"
 1869      7420696E 
 1869      7400
 1870              	.LASF22:
 1871 0280 53595343 		.ascii	"SYSCFG_TypeDef\000"
 1871      46475F54 
 1871      79706544 
 1871      656600
 1872              	.LASF52:
 1873 028f 6578744F 		.ascii	"extObjectInit\000"
ARM GAS  C:\Users\Vergil\AppData\Local\Temp\cc0L0IX8.s 			page 36


 1873      626A6563 
 1873      74496E69 
 1873      7400
 1874              	.LASF15:
 1875 029d 46545352 		.ascii	"FTSR\000"
 1875      00
 1876              	.LASF5:
 1877 02a2 6C6F6E67 		.ascii	"long int\000"
 1877      20696E74 
 1877      00
 1878              	.LASF1:
 1879 02ab 7369676E 		.ascii	"signed char\000"
 1879      65642063 
 1879      68617200 
 1880              	.LASF7:
 1881 02b7 75696E74 		.ascii	"uint32_t\000"
 1881      33325F74 
 1881      00
 1882              	.LASF11:
 1883 02c0 5F426F6F 		.ascii	"_Bool\000"
 1883      6C00
 1884              	.LASF16:
 1885 02c6 53574945 		.ascii	"SWIER\000"
 1885      5200
 1886              	.LASF44:
 1887 02cc 6578745F 		.ascii	"ext_lld_start\000"
 1887      6C6C645F 
 1887      73746172 
 1887      7400
 1888              	.LASF24:
 1889 02da 4558545F 		.ascii	"EXT_STOP\000"
 1889      53544F50 
 1889      00
 1890              		.ident	"GCC: (GNU Tools for ARM Embedded Processors) 4.7.4 20140401 (release) [ARM/embedded-4_7-br
ARM GAS  C:\Users\Vergil\AppData\Local\Temp\cc0L0IX8.s 			page 37


DEFINED SYMBOLS
                            *ABS*:00000000 ext_lld.c
C:\Users\Vergil\AppData\Local\Temp\cc0L0IX8.s:21     .text.ext_lld_init:00000000 $t
C:\Users\Vergil\AppData\Local\Temp\cc0L0IX8.s:27     .text.ext_lld_init:00000000 ext_lld_init
C:\Users\Vergil\AppData\Local\Temp\cc0L0IX8.s:404    .bss.EXTD1:00000000 .LANCHOR0
C:\Users\Vergil\AppData\Local\Temp\cc0L0IX8.s:46     .text.ext_lld_stop:00000000 $t
C:\Users\Vergil\AppData\Local\Temp\cc0L0IX8.s:52     .text.ext_lld_stop:00000000 ext_lld_stop
C:\Users\Vergil\AppData\Local\Temp\cc0L0IX8.s:93     .text.ext_lld_channel_enable:00000000 $t
C:\Users\Vergil\AppData\Local\Temp\cc0L0IX8.s:99     .text.ext_lld_channel_enable:00000000 ext_lld_channel_enable
C:\Users\Vergil\AppData\Local\Temp\cc0L0IX8.s:238    .text.ext_lld_channel_disable:00000000 $t
C:\Users\Vergil\AppData\Local\Temp\cc0L0IX8.s:244    .text.ext_lld_channel_disable:00000000 ext_lld_channel_disable
C:\Users\Vergil\AppData\Local\Temp\cc0L0IX8.s:282    .text.ext_lld_start:00000000 $t
C:\Users\Vergil\AppData\Local\Temp\cc0L0IX8.s:288    .text.ext_lld_start:00000000 ext_lld_start
C:\Users\Vergil\AppData\Local\Temp\cc0L0IX8.s:407    .bss.EXTD1:00000000 EXTD1
C:\Users\Vergil\AppData\Local\Temp\cc0L0IX8.s:403    .bss.EXTD1:00000000 $d
                     .debug_frame:00000010 $d

UNDEFINED SYMBOLS
extObjectInit
ext_lld_exti_irq_disable
ext_lld_exti_irq_enable
