ARM GAS  C:\Users\Vergil\AppData\Local\Temp\cc0L0IX8.s 			page 1


   1              		.syntax unified
   2              		.cpu cortex-m4
   3              		.eabi_attribute 27, 3
   4              		.eabi_attribute 28, 1
   5              		.fpu fpv4-sp-d16
   6              		.eabi_attribute 20, 1
   7              		.eabi_attribute 21, 1
   8              		.eabi_attribute 23, 3
   9              		.eabi_attribute 24, 1
  10              		.eabi_attribute 25, 1
  11              		.eabi_attribute 26, 1
  12              		.eabi_attribute 30, 2
  13              		.eabi_attribute 34, 1
  14              		.eabi_attribute 18, 4
  15              		.thumb
  16              		.file	"ext_lld.c"
  17              		.text
  18              	.Ltext0:
  19              		.cfi_sections	.debug_frame
  20              		.section	.text.ext_lld_init,"ax",%progbits
  21              		.align	2
  22              		.p2align 4,,15
  23              		.global	ext_lld_init
  24              		.thumb
  25              		.thumb_func
  26              		.type	ext_lld_init, %function
  27              	ext_lld_init:
  28              	.LFB118:
  29              		.file 1 "../../os/hal/platforms/STM32/ext_lld.c"
  30              		.loc 1 66 0
  31              		.cfi_startproc
  32              		@ args = 0, pretend = 0, frame = 0
  33              		@ frame_needed = 0, uses_anonymous_args = 0
  34              		@ link register save eliminated.
  35              		.loc 1 69 0
  36 0000 40F20000 		movw	r0, #:lower16:.LANCHOR0
  37 0004 C0F20000 		movt	r0, #:upper16:.LANCHOR0
  38              		.loc 1 70 0
  39              		.loc 1 69 0
  40 0008 FFF7FEBF 		b	extObjectInit
  41              	.LVL0:
  42              		.cfi_endproc
  43              	.LFE118:
  44              		.size	ext_lld_init, .-ext_lld_init
  45 000c AFF30080 		.section	.text.ext_lld_stop,"ax",%progbits
  46              		.align	2
  47              		.p2align 4,,15
  48              		.global	ext_lld_stop
  49              		.thumb
  50              		.thumb_func
  51              		.type	ext_lld_stop, %function
  52              	ext_lld_stop:
  53              	.LFB120:
  54              		.loc 1 100 0
  55              		.cfi_startproc
  56              		@ args = 0, pretend = 0, frame = 0
  57              		@ frame_needed = 0, uses_anonymous_args = 0
ARM GAS  C:\Users\Vergil\AppData\Local\Temp\cc0L0IX8.s 			page 2


  58              	.LVL1:
  59 0000 08B5     		push	{r3, lr}
  60              	.LCFI0:
  61              		.cfi_def_cfa_offset 8
  62              		.cfi_offset 3, -8
  63              		.cfi_offset 14, -4
  64              		.loc 1 102 0
  65 0002 0378     		ldrb	r3, [r0, #0]	@ zero_extendqisi2
  66 0004 022B     		cmp	r3, #2
  67 0006 0AD0     		beq	.L5
  68              	.LVL2:
  69              	.L3:
  70              		.loc 1 105 0
  71 0008 4FF47050 		mov	r0, #15360
  72 000c C4F20100 		movt	r0, 16385
  73 0010 0022     		movs	r2, #0
  74              		.loc 1 107 0
  75 0012 4FF0FF31 		mov	r1, #-1
  76              		.loc 1 105 0
  77 0016 4260     		str	r2, [r0, #4]
  78              		.loc 1 106 0
  79 0018 0260     		str	r2, [r0, #0]
  80              		.loc 1 107 0
  81 001a 4161     		str	r1, [r0, #20]
  82 001c 08BD     		pop	{r3, pc}
  83              	.LVL3:
  84              	.L5:
  85              		.loc 1 103 0
  86 001e FFF7FEFF 		bl	ext_lld_exti_irq_disable
  87              	.LVL4:
  88 0022 F1E7     		b	.L3
  89              		.cfi_endproc
  90              	.LFE120:
  91              		.size	ext_lld_stop, .-ext_lld_stop
  92 0024 AFF30080 		.section	.text.ext_lld_channel_enable,"ax",%progbits
  92      AFF30080 
  92      AFF30080 
  93              		.align	2
  94              		.p2align 4,,15
  95              		.global	ext_lld_channel_enable
  96              		.thumb
  97              		.thumb_func
  98              		.type	ext_lld_channel_enable, %function
  99              	ext_lld_channel_enable:
 100              	.LFB121:
 101              		.loc 1 121 0
 102              		.cfi_startproc
 103              		@ args = 0, pretend = 0, frame = 0
 104              		@ frame_needed = 0, uses_anonymous_args = 0
 105              		@ link register save eliminated.
 106              	.LVL5:
 107              		.loc 1 124 0
 108 0000 0F29     		cmp	r1, #15
 109              		.loc 1 121 0
 110 0002 F0B4     		push	{r4, r5, r6, r7}
 111              	.LCFI1:
 112              		.cfi_def_cfa_offset 16
ARM GAS  C:\Users\Vergil\AppData\Local\Temp\cc0L0IX8.s 			page 3


 113              		.cfi_offset 4, -16
 114              		.cfi_offset 5, -12
 115              		.cfi_offset 6, -8
 116              		.cfi_offset 7, -4
 117              	.LBB2:
 118              		.loc 1 127 0
 119 0004 4068     		ldr	r0, [r0, #4]
 120              	.LVL6:
 121              	.LBE2:
 122              		.loc 1 124 0
 123 0006 2AD9     		bls	.L7
 124 0008 50F83130 		ldr	r3, [r0, r1, lsl #3]
 125              		.loc 1 145 0
 126 000c DA07     		lsls	r2, r3, #31
 127 000e 42D5     		bpl	.L9
 128              	.L15:
 129              		.loc 1 146 0
 130 0010 4FF47054 		mov	r4, #15360
 131 0014 C4F20104 		movt	r4, 16385
 132 0018 0122     		movs	r2, #1
 133 001a A568     		ldr	r5, [r4, #8]
 134 001c 02FA01F2 		lsl	r2, r2, r1
 135 0020 1543     		orrs	r5, r5, r2
 136 0022 A560     		str	r5, [r4, #8]
 137 0024 D443     		mvns	r4, r2
 138              	.L10:
 139              		.loc 1 149 0
 140 0026 13F0020F 		tst	r3, #2
 141              		.loc 1 150 0
 142 002a 4FF47053 		mov	r3, #15360
 143 002e C4F20103 		movt	r3, 16385
 144              		.loc 1 155 0
 145 0032 00EBC101 		add	r1, r0, r1, lsl #3
 146              	.LVL7:
 147              		.loc 1 150 0
 148 0036 DD68     		ldr	r5, [r3, #12]
 149              		.loc 1 155 0
 150 0038 4868     		ldr	r0, [r1, #4]
 151              		.loc 1 150 0
 152 003a 14BF     		ite	ne
 153 003c 1543     		orrne	r5, r2, r5
 154              		.loc 1 152 0
 155 003e 2540     		andeq	r5, r5, r4
 156 0040 DD60     		str	r5, [r3, #12]
 157              		.loc 1 155 0
 158 0042 0028     		cmp	r0, #0
 159 0044 33D0     		beq	.L13
 160              		.loc 1 156 0
 161 0046 4FF47050 		mov	r0, #15360
 162 004a C4F20100 		movt	r0, 16385
 163 004e 0368     		ldr	r3, [r0, #0]
 164 0050 1A43     		orrs	r2, r2, r3
 165 0052 0260     		str	r2, [r0, #0]
 166              		.loc 1 157 0
 167 0054 4168     		ldr	r1, [r0, #4]
 168 0056 0C40     		ands	r4, r4, r1
 169 0058 4460     		str	r4, [r0, #4]
ARM GAS  C:\Users\Vergil\AppData\Local\Temp\cc0L0IX8.s 			page 4


 170              	.L6:
 171              		.loc 1 187 0
 172 005a F0BC     		pop	{r4, r5, r6, r7}
 173 005c 7047     		bx	lr
 174              	.LVL8:
 175              	.L7:
 176              	.LBB3:
 177              		.loc 1 125 0
 178 005e 8C08     		lsrs	r4, r1, #2
 179              	.LVL9:
 180              		.loc 1 137 0
 181 0060 4FF46052 		mov	r2, #14336
 182 0064 C4F20102 		movt	r2, 16385
 183 0068 0234     		adds	r4, r4, #2
 184              	.LVL10:
 185              		.loc 1 127 0
 186 006a 50F83130 		ldr	r3, [r0, r1, lsl #3]
 187              		.loc 1 137 0
 188 006e 52F82460 		ldr	r6, [r2, r4, lsl #2]
 189              		.loc 1 126 0
 190 0072 01F00305 		and	r5, r1, #3
 191 0076 AD00     		lsls	r5, r5, #2
 192              	.LVL11:
 193 0078 4FF00F0C 		mov	ip, #15
 194 007c 0CFA05FC 		lsl	ip, ip, r5
 195              		.loc 1 128 0
 196 0080 C3F30317 		ubfx	r7, r3, #4, #4
 197              		.loc 1 137 0
 198 0084 26EA0C06 		bic	r6, r6, ip
 199              		.loc 1 127 0
 200 0088 07FA05F5 		lsl	r5, r7, r5
 201              	.LVL12:
 202              		.loc 1 137 0
 203 008c 3543     		orrs	r5, r5, r6
 204 008e 42F82450 		str	r5, [r2, r4, lsl #2]
 205              	.LBE3:
 206              		.loc 1 145 0
 207 0092 DA07     		lsls	r2, r3, #31
 208 0094 BCD4     		bmi	.L15
 209              	.LVL13:
 210              	.L9:
 211              		.loc 1 148 0
 212 0096 4FF47055 		mov	r5, #15360
 213 009a C4F20105 		movt	r5, 16385
 214 009e 0122     		movs	r2, #1
 215 00a0 AE68     		ldr	r6, [r5, #8]
 216 00a2 02FA01F2 		lsl	r2, r2, r1
 217 00a6 D443     		mvns	r4, r2
 218 00a8 2640     		ands	r6, r6, r4
 219 00aa AE60     		str	r6, [r5, #8]
 220 00ac BBE7     		b	.L10
 221              	.LVL14:
 222              	.L13:
 223              		.loc 1 160 0
 224 00ae 4FF47053 		mov	r3, #15360
 225 00b2 C4F20103 		movt	r3, 16385
 226 00b6 5968     		ldr	r1, [r3, #4]
ARM GAS  C:\Users\Vergil\AppData\Local\Temp\cc0L0IX8.s 			page 5


 227 00b8 0A43     		orrs	r2, r2, r1
 228 00ba 5A60     		str	r2, [r3, #4]
 229              		.loc 1 161 0
 230 00bc 1A68     		ldr	r2, [r3, #0]
 231 00be 1440     		ands	r4, r4, r2
 232 00c0 1C60     		str	r4, [r3, #0]
 233 00c2 CAE7     		b	.L6
 234              		.cfi_endproc
 235              	.LFE121:
 236              		.size	ext_lld_channel_enable, .-ext_lld_channel_enable
 237 00c4 AFF30080 		.section	.text.ext_lld_channel_disable,"ax",%progbits
 237      AFF30080 
 237      AFF30080 
 238              		.align	2
 239              		.p2align 4,,15
 240              		.global	ext_lld_channel_disable
 241              		.thumb
 242              		.thumb_func
 243              		.type	ext_lld_channel_disable, %function
 244              	ext_lld_channel_disable:
 245              	.LFB122:
 246              		.loc 1 197 0
 247              		.cfi_startproc
 248              		@ args = 0, pretend = 0, frame = 0
 249              		@ frame_needed = 0, uses_anonymous_args = 0
 250              		@ link register save eliminated.
 251              	.LVL15:
 252              		.loc 1 204 0
 253 0000 4FF47053 		mov	r3, #15360
 254 0004 C4F20103 		movt	r3, 16385
 255 0008 0122     		movs	r2, #1
 256 000a 1868     		ldr	r0, [r3, #0]
 257              	.LVL16:
 258 000c 02FA01F1 		lsl	r1, r2, r1
 259              	.LVL17:
 260 0010 CA43     		mvns	r2, r1
 261 0012 1040     		ands	r0, r0, r2
 262 0014 1860     		str	r0, [r3, #0]
 263              		.loc 1 205 0
 264 0016 5868     		ldr	r0, [r3, #4]
 265 0018 1040     		ands	r0, r0, r2
 266 001a 5860     		str	r0, [r3, #4]
 267              		.loc 1 206 0
 268 001c 9868     		ldr	r0, [r3, #8]
 269 001e 1040     		ands	r0, r0, r2
 270 0020 9860     		str	r0, [r3, #8]
 271              		.loc 1 207 0
 272 0022 D868     		ldr	r0, [r3, #12]
 273 0024 0240     		ands	r2, r2, r0
 274 0026 DA60     		str	r2, [r3, #12]
 275              		.loc 1 208 0
 276 0028 5961     		str	r1, [r3, #20]
 277 002a 7047     		bx	lr
 278              		.cfi_endproc
 279              	.LFE122:
 280              		.size	ext_lld_channel_disable, .-ext_lld_channel_disable
 281 002c AFF30080 		.section	.text.ext_lld_start,"ax",%progbits
ARM GAS  C:\Users\Vergil\AppData\Local\Temp\cc0L0IX8.s 			page 6


 282              		.align	2
 283              		.p2align 4,,15
 284              		.global	ext_lld_start
 285              		.thumb
 286              		.thumb_func
 287              		.type	ext_lld_start, %function
 288              	ext_lld_start:
 289              	.LFB119:
 290              		.loc 1 79 0
 291              		.cfi_startproc
 292              		@ args = 0, pretend = 0, frame = 0
 293              		@ frame_needed = 0, uses_anonymous_args = 0
 294              	.LVL18:
 295 0000 38B5     		push	{r3, r4, r5, lr}
 296              	.LCFI2:
 297              		.cfi_def_cfa_offset 16
 298              		.cfi_offset 3, -16
 299              		.cfi_offset 4, -12
 300              		.cfi_offset 5, -8
 301              		.cfi_offset 14, -4
 302              		.loc 1 82 0
 303 0002 0378     		ldrb	r3, [r0, #0]	@ zero_extendqisi2
 304 0004 012B     		cmp	r3, #1
 305              		.loc 1 79 0
 306 0006 0546     		mov	r5, r0
 307              		.loc 1 82 0
 308 0008 35D0     		beq	.L32
 309              	.LVL19:
 310              	.L18:
 311              		.loc 1 87 0 discriminator 1
 312 000a 6868     		ldr	r0, [r5, #4]
 313 000c 0168     		ldr	r1, [r0, #0]
 314 000e 11F00401 		ands	r1, r1, #4
 315 0012 2CD0     		beq	.L23
 316              		.loc 1 88 0
 317 0014 2846     		mov	r0, r5
 318 0016 0021     		movs	r1, #0
 319 0018 FFF7FEFF 		bl	ext_lld_channel_enable
 320              	.LVL20:
 321              	.L29:
 322              		.loc 1 86 0
 323 001c 0124     		movs	r4, #1
 324              	.LVL21:
 325 001e 0EE0     		b	.L21
 326              	.LVL22:
 327              	.L34:
 328              		.loc 1 88 0
 329 0020 FFF7FEFF 		bl	ext_lld_channel_enable
 330              	.LVL23:
 331              		.loc 1 86 0
 332 0024 0134     		adds	r4, r4, #1
 333              		.loc 1 87 0
 334 0026 6868     		ldr	r0, [r5, #4]
 335 0028 50F83410 		ldr	r1, [r0, r4, lsl #3]
 336 002c 4B07     		lsls	r3, r1, #29
 337 002e 16D5     		bpl	.L25
 338              	.L35:
ARM GAS  C:\Users\Vergil\AppData\Local\Temp\cc0L0IX8.s 			page 7


 339              		.loc 1 88 0
 340 0030 2146     		mov	r1, r4
 341 0032 2846     		mov	r0, r5
 342              		.loc 1 86 0
 343 0034 0134     		adds	r4, r4, #1
 344              		.loc 1 88 0
 345 0036 FFF7FEFF 		bl	ext_lld_channel_enable
 346              	.LVL24:
 347              		.loc 1 86 0
 348 003a 172C     		cmp	r4, #23
 349 003c 16D0     		beq	.L33
 350              	.L21:
 351              		.loc 1 87 0
 352 003e 6A68     		ldr	r2, [r5, #4]
 353 0040 52F83430 		ldr	r3, [r2, r4, lsl #3]
 354 0044 13F0040F 		tst	r3, #4
 355              		.loc 1 90 0
 356 0048 2846     		mov	r0, r5
 357 004a 2146     		mov	r1, r4
 358              		.loc 1 87 0
 359 004c E8D1     		bne	.L34
 360              	.LVL25:
 361              		.loc 1 90 0
 362 004e FFF7FEFF 		bl	ext_lld_channel_disable
 363              	.LVL26:
 364              		.loc 1 86 0
 365 0052 0134     		adds	r4, r4, #1
 366              		.loc 1 87 0
 367 0054 6868     		ldr	r0, [r5, #4]
 368 0056 50F83410 		ldr	r1, [r0, r4, lsl #3]
 369 005a 4B07     		lsls	r3, r1, #29
 370 005c E8D4     		bmi	.L35
 371              	.L25:
 372              		.loc 1 90 0
 373 005e 2146     		mov	r1, r4
 374 0060 2846     		mov	r0, r5
 375              		.loc 1 86 0
 376 0062 0134     		adds	r4, r4, #1
 377              		.loc 1 90 0
 378 0064 FFF7FEFF 		bl	ext_lld_channel_disable
 379              	.LVL27:
 380              		.loc 1 86 0
 381 0068 172C     		cmp	r4, #23
 382 006a E8D1     		bne	.L21
 383              	.L33:
 384 006c 38BD     		pop	{r3, r4, r5, pc}
 385              	.LVL28:
 386              	.L23:
 387              		.loc 1 90 0
 388 006e 2846     		mov	r0, r5
 389 0070 FFF7FEFF 		bl	ext_lld_channel_disable
 390              	.LVL29:
 391 0074 D2E7     		b	.L29
 392              	.LVL30:
 393              	.L32:
 394              		.loc 1 83 0
 395 0076 FFF7FEFF 		bl	ext_lld_exti_irq_enable
ARM GAS  C:\Users\Vergil\AppData\Local\Temp\cc0L0IX8.s 			page 8


 396              	.LVL31:
 397 007a C6E7     		b	.L18
 398              		.cfi_endproc
 399              	.LFE119:
 400              		.size	ext_lld_start, .-ext_lld_start
 401              		.global	EXTD1
 402 007c AFF30080 		.section	.bss.EXTD1,"aw",%nobits
 403              		.align	2
 404              		.set	.LANCHOR0,. + 0
 405              		.type	EXTD1, %object
 406              		.size	EXTD1, 8
 407              	EXTD1:
 408 0000 00000000 		.space	8
 408      00000000 
 409              		.text
 410              	.Letext0:
 411              		.file 2 "c:\\chibistudio\\tools\\gnu tools arm embedded\\4.7 2014q2\\bin\\../lib/gcc/arm-none-eabi
 412              		.file 3 "../../os/hal/platforms/STM32F4xx/stm32f4xx.h"
 413              		.file 4 "../../os/hal/include/ext.h"
 414              		.file 5 "../../os/hal/platforms/STM32/ext_lld.h"
 415              		.file 6 "../../os/ports/common/ARMCMx/CMSIS/include/core_cm4.h"
 416              		.file 7 "../../os/hal/platforms/STM32F4xx/ext_lld_isr.h"