ARM GAS  C:\Users\Vergil\AppData\Local\Temp\ccupfPd6.s 			page 1


   1              		.syntax unified
   2              		.cpu cortex-m4
   3              		.eabi_attribute 27, 3
   4              		.eabi_attribute 28, 1
   5              		.fpu fpv4-sp-d16
   6              		.eabi_attribute 20, 1
   7              		.eabi_attribute 21, 1
   8              		.eabi_attribute 23, 3
   9              		.eabi_attribute 24, 1
  10              		.eabi_attribute 25, 1
  11              		.eabi_attribute 26, 1
  12              		.eabi_attribute 30, 2
  13              		.eabi_attribute 34, 1
  14              		.eabi_attribute 18, 4
  15              		.thumb
  16              		.file	"ext_lld_isr.c"
  17              		.text
  18              	.Ltext0:
  19              		.cfi_sections	.debug_frame
  20              		.section	.text.Vector58,"ax",%progbits
  21              		.align	2
  22              		.p2align 4,,15
  23              		.global	Vector58
  24              		.thumb
  25              		.thumb_func
  26              		.type	Vector58, %function
  27              	Vector58:
  28              	.LFB118:
  29              		.file 1 "../../os/hal/platforms/STM32F4xx/ext_lld_isr.c"
  30              		.loc 1 57 0
  31              		.cfi_startproc
  32              		@ args = 0, pretend = 0, frame = 0
  33              		@ frame_needed = 0, uses_anonymous_args = 0
  34              		.loc 1 62 0
  35 0000 40F20000 		movw	r0, #:lower16:EXTD1
  36 0004 C0F20000 		movt	r0, #:upper16:EXTD1
  37              		.loc 1 57 0
  38 0008 08B5     		push	{r3, lr}
  39              	.LCFI0:
  40              		.cfi_def_cfa_offset 8
  41              		.cfi_offset 3, -8
  42              		.cfi_offset 14, -4
  43              		.loc 1 61 0
  44 000a 4FF47053 		mov	r3, #15360
  45              		.loc 1 62 0
  46 000e 4268     		ldr	r2, [r0, #4]
  47              		.loc 1 61 0
  48 0010 C4F20103 		movt	r3, 16385
  49 0014 0121     		movs	r1, #1
  50 0016 5961     		str	r1, [r3, #20]
  51              		.loc 1 62 0
  52 0018 5368     		ldr	r3, [r2, #4]
  53 001a 0021     		movs	r1, #0
  54 001c 9847     		blx	r3
  55              	.LVL0:
  56              		.loc 1 65 0
  57 001e BDE80840 		pop	{r3, lr}
ARM GAS  C:\Users\Vergil\AppData\Local\Temp\ccupfPd6.s 			page 2


  58              		.loc 1 64 0
  59 0022 FFF7FEBF 		b	_port_irq_epilogue
  60              	.LVL1:
  61              		.cfi_endproc
  62              	.LFE118:
  63              		.size	Vector58, .-Vector58
  64 0026 00BFAFF3 		.section	.text.Vector5C,"ax",%progbits
  64      0080AFF3 
  64      0080
  65              		.align	2
  66              		.p2align 4,,15
  67              		.global	Vector5C
  68              		.thumb
  69              		.thumb_func
  70              		.type	Vector5C, %function
  71              	Vector5C:
  72              	.LFB119:
  73              		.loc 1 72 0
  74              		.cfi_startproc
  75              		@ args = 0, pretend = 0, frame = 0
  76              		@ frame_needed = 0, uses_anonymous_args = 0
  77              		.loc 1 77 0
  78 0000 40F20000 		movw	r0, #:lower16:EXTD1
  79 0004 C0F20000 		movt	r0, #:upper16:EXTD1
  80              		.loc 1 72 0
  81 0008 08B5     		push	{r3, lr}
  82              	.LCFI1:
  83              		.cfi_def_cfa_offset 8
  84              		.cfi_offset 3, -8
  85              		.cfi_offset 14, -4
  86              		.loc 1 76 0
  87 000a 4FF47053 		mov	r3, #15360
  88              		.loc 1 77 0
  89 000e 4268     		ldr	r2, [r0, #4]
  90              		.loc 1 76 0
  91 0010 C4F20103 		movt	r3, 16385
  92 0014 0221     		movs	r1, #2
  93 0016 5961     		str	r1, [r3, #20]
  94              		.loc 1 77 0
  95 0018 D368     		ldr	r3, [r2, #12]
  96 001a 0121     		movs	r1, #1
  97 001c 9847     		blx	r3
  98              	.LVL2:
  99              		.loc 1 80 0
 100 001e BDE80840 		pop	{r3, lr}
 101              		.loc 1 79 0
 102 0022 FFF7FEBF 		b	_port_irq_epilogue
 103              	.LVL3:
 104              		.cfi_endproc
 105              	.LFE119:
 106              		.size	Vector5C, .-Vector5C
 107 0026 00BFAFF3 		.section	.text.Vector60,"ax",%progbits
 107      0080AFF3 
 107      0080
 108              		.align	2
 109              		.p2align 4,,15
 110              		.global	Vector60
ARM GAS  C:\Users\Vergil\AppData\Local\Temp\ccupfPd6.s 			page 3


 111              		.thumb
 112              		.thumb_func
 113              		.type	Vector60, %function
 114              	Vector60:
 115              	.LFB120:
 116              		.loc 1 87 0
 117              		.cfi_startproc
 118              		@ args = 0, pretend = 0, frame = 0
 119              		@ frame_needed = 0, uses_anonymous_args = 0
 120              		.loc 1 92 0
 121 0000 40F20000 		movw	r0, #:lower16:EXTD1
 122 0004 C0F20000 		movt	r0, #:upper16:EXTD1
 123              		.loc 1 87 0
 124 0008 08B5     		push	{r3, lr}
 125              	.LCFI2:
 126              		.cfi_def_cfa_offset 8
 127              		.cfi_offset 3, -8
 128              		.cfi_offset 14, -4
 129              		.loc 1 91 0
 130 000a 4FF47053 		mov	r3, #15360
 131              		.loc 1 92 0
 132 000e 4268     		ldr	r2, [r0, #4]
 133              		.loc 1 91 0
 134 0010 C4F20103 		movt	r3, 16385
 135 0014 0421     		movs	r1, #4
 136 0016 5961     		str	r1, [r3, #20]
 137              		.loc 1 92 0
 138 0018 5369     		ldr	r3, [r2, #20]
 139 001a 0221     		movs	r1, #2
 140 001c 9847     		blx	r3
 141              	.LVL4:
 142              		.loc 1 95 0
 143 001e BDE80840 		pop	{r3, lr}
 144              		.loc 1 94 0
 145 0022 FFF7FEBF 		b	_port_irq_epilogue
 146              	.LVL5:
 147              		.cfi_endproc
 148              	.LFE120:
 149              		.size	Vector60, .-Vector60
 150 0026 00BFAFF3 		.section	.text.Vector64,"ax",%progbits
 150      0080AFF3 
 150      0080
 151              		.align	2
 152              		.p2align 4,,15
 153              		.global	Vector64
 154              		.thumb
 155              		.thumb_func
 156              		.type	Vector64, %function
 157              	Vector64:
 158              	.LFB121:
 159              		.loc 1 102 0
 160              		.cfi_startproc
 161              		@ args = 0, pretend = 0, frame = 0
 162              		@ frame_needed = 0, uses_anonymous_args = 0
 163              		.loc 1 107 0
 164 0000 40F20000 		movw	r0, #:lower16:EXTD1
 165 0004 C0F20000 		movt	r0, #:upper16:EXTD1
ARM GAS  C:\Users\Vergil\AppData\Local\Temp\ccupfPd6.s 			page 4


 166              		.loc 1 102 0
 167 0008 08B5     		push	{r3, lr}
 168              	.LCFI3:
 169              		.cfi_def_cfa_offset 8
 170              		.cfi_offset 3, -8
 171              		.cfi_offset 14, -4
 172              		.loc 1 106 0
 173 000a 4FF47053 		mov	r3, #15360
 174              		.loc 1 107 0
 175 000e 4268     		ldr	r2, [r0, #4]
 176              		.loc 1 106 0
 177 0010 C4F20103 		movt	r3, 16385
 178 0014 0821     		movs	r1, #8
 179 0016 5961     		str	r1, [r3, #20]
 180              		.loc 1 107 0
 181 0018 D369     		ldr	r3, [r2, #28]
 182 001a 0321     		movs	r1, #3
 183 001c 9847     		blx	r3
 184              	.LVL6:
 185              		.loc 1 110 0
 186 001e BDE80840 		pop	{r3, lr}
 187              		.loc 1 109 0
 188 0022 FFF7FEBF 		b	_port_irq_epilogue
 189              	.LVL7:
 190              		.cfi_endproc
 191              	.LFE121:
 192              		.size	Vector64, .-Vector64
 193 0026 00BFAFF3 		.section	.text.Vector68,"ax",%progbits
 193      0080AFF3 
 193      0080
 194              		.align	2
 195              		.p2align 4,,15
 196              		.global	Vector68
 197              		.thumb
 198              		.thumb_func
 199              		.type	Vector68, %function
 200              	Vector68:
 201              	.LFB122:
 202              		.loc 1 117 0
 203              		.cfi_startproc
 204              		@ args = 0, pretend = 0, frame = 0
 205              		@ frame_needed = 0, uses_anonymous_args = 0
 206              		.loc 1 122 0
 207 0000 40F20000 		movw	r0, #:lower16:EXTD1
 208 0004 C0F20000 		movt	r0, #:upper16:EXTD1
 209              		.loc 1 117 0
 210 0008 08B5     		push	{r3, lr}
 211              	.LCFI4:
 212              		.cfi_def_cfa_offset 8
 213              		.cfi_offset 3, -8
 214              		.cfi_offset 14, -4
 215              		.loc 1 121 0
 216 000a 4FF47053 		mov	r3, #15360
 217              		.loc 1 122 0
 218 000e 4268     		ldr	r2, [r0, #4]
 219              		.loc 1 121 0
 220 0010 C4F20103 		movt	r3, 16385
ARM GAS  C:\Users\Vergil\AppData\Local\Temp\ccupfPd6.s 			page 5


 221 0014 1021     		movs	r1, #16
 222 0016 5961     		str	r1, [r3, #20]
 223              		.loc 1 122 0
 224 0018 536A     		ldr	r3, [r2, #36]
 225 001a 0421     		movs	r1, #4
 226 001c 9847     		blx	r3
 227              	.LVL8:
 228              		.loc 1 125 0
 229 001e BDE80840 		pop	{r3, lr}
 230              		.loc 1 124 0
 231 0022 FFF7FEBF 		b	_port_irq_epilogue
 232              	.LVL9:
 233              		.cfi_endproc
 234              	.LFE122:
 235              		.size	Vector68, .-Vector68
 236 0026 00BFAFF3 		.section	.text.Vector9C,"ax",%progbits
 236      0080AFF3 
 236      0080
 237              		.align	2
 238              		.p2align 4,,15
 239              		.global	Vector9C
 240              		.thumb
 241              		.thumb_func
 242              		.type	Vector9C, %function
 243              	Vector9C:
 244              	.LFB123:
 245              		.loc 1 132 0
 246              		.cfi_startproc
 247              		@ args = 0, pretend = 0, frame = 0
 248              		@ frame_needed = 0, uses_anonymous_args = 0
 249              		.loc 1 137 0
 250 0000 4FF47053 		mov	r3, #15360
 251 0004 C4F20103 		movt	r3, 16385
 252              		.loc 1 132 0
 253 0008 10B5     		push	{r4, lr}
 254              	.LCFI5:
 255              		.cfi_def_cfa_offset 8
 256              		.cfi_offset 4, -8
 257              		.cfi_offset 14, -4
 258              		.loc 1 137 0
 259 000a 5C69     		ldr	r4, [r3, #20]
 260 000c 04F47872 		and	r2, r4, #992
 261              	.LVL10:
 262              		.loc 1 138 0
 263 0010 5A61     		str	r2, [r3, #20]
 264              		.loc 1 139 0
 265 0012 A306     		lsls	r3, r4, #26
 266 0014 22D4     		bmi	.L28
 267              	.LVL11:
 268              	.L7:
 269              		.loc 1 141 0
 270 0016 6006     		lsls	r0, r4, #25
 271 0018 1AD4     		bmi	.L29
 272              	.L8:
 273              		.loc 1 143 0
 274 001a 2106     		lsls	r1, r4, #24
 275 001c 12D4     		bmi	.L30
ARM GAS  C:\Users\Vergil\AppData\Local\Temp\ccupfPd6.s 			page 6


 276              	.L9:
 277              		.loc 1 145 0
 278 001e E205     		lsls	r2, r4, #23
 279 0020 0AD4     		bmi	.L31
 280              	.L10:
 281              		.loc 1 147 0
 282 0022 A305     		lsls	r3, r4, #22
 283 0024 04D5     		bpl	.L11
 284              		.loc 1 148 0
 285 0026 1048     		ldr	r0, .L32
 286 0028 4168     		ldr	r1, [r0, #4]
 287 002a CB6C     		ldr	r3, [r1, #76]
 288 002c 0921     		movs	r1, #9
 289 002e 9847     		blx	r3
 290              	.LVL12:
 291              	.L11:
 292              		.loc 1 151 0
 293 0030 BDE81040 		pop	{r4, lr}
 294              		.loc 1 150 0
 295 0034 FFF7FEBF 		b	_port_irq_epilogue
 296              	.LVL13:
 297              	.L31:
 298              		.loc 1 146 0
 299 0038 0B48     		ldr	r0, .L32
 300 003a 4368     		ldr	r3, [r0, #4]
 301 003c 0821     		movs	r1, #8
 302 003e 5A6C     		ldr	r2, [r3, #68]
 303 0040 9047     		blx	r2
 304              	.LVL14:
 305 0042 EEE7     		b	.L10
 306              	.L30:
 307              		.loc 1 144 0
 308 0044 0848     		ldr	r0, .L32
 309 0046 4168     		ldr	r1, [r0, #4]
 310 0048 CA6B     		ldr	r2, [r1, #60]
 311 004a 0721     		movs	r1, #7
 312 004c 9047     		blx	r2
 313              	.LVL15:
 314 004e E6E7     		b	.L9
 315              	.L29:
 316              		.loc 1 142 0
 317 0050 0548     		ldr	r0, .L32
 318 0052 4268     		ldr	r2, [r0, #4]
 319 0054 0621     		movs	r1, #6
 320 0056 536B     		ldr	r3, [r2, #52]
 321 0058 9847     		blx	r3
 322              	.LVL16:
 323 005a DEE7     		b	.L8
 324              	.LVL17:
 325              	.L28:
 326              		.loc 1 140 0
 327 005c 0248     		ldr	r0, .L32
 328 005e 4168     		ldr	r1, [r0, #4]
 329 0060 CB6A     		ldr	r3, [r1, #44]
 330 0062 0521     		movs	r1, #5
 331 0064 9847     		blx	r3
 332              	.LVL18:
ARM GAS  C:\Users\Vergil\AppData\Local\Temp\ccupfPd6.s 			page 7


 333 0066 D6E7     		b	.L7
 334              	.L33:
 335              		.align	2
 336              	.L32:
 337 0068 00000000 		.word	EXTD1
 338              		.cfi_endproc
 339              	.LFE123:
 340              		.size	Vector9C, .-Vector9C
 341 006c AFF30080 		.section	.text.VectorE0,"ax",%progbits
 342              		.align	2
 343              		.p2align 4,,15
 344              		.global	VectorE0
 345              		.thumb
 346              		.thumb_func
 347              		.type	VectorE0, %function
 348              	VectorE0:
 349              	.LFB124:
 350              		.loc 1 158 0
 351              		.cfi_startproc
 352              		@ args = 0, pretend = 0, frame = 0
 353              		@ frame_needed = 0, uses_anonymous_args = 0
 354              		.loc 1 163 0
 355 0000 4FF47053 		mov	r3, #15360
 356 0004 C4F20103 		movt	r3, 16385
 357              		.loc 1 158 0
 358 0008 10B5     		push	{r4, lr}
 359              	.LCFI6:
 360              		.cfi_def_cfa_offset 8
 361              		.cfi_offset 4, -8
 362              		.cfi_offset 14, -4
 363              		.loc 1 163 0
 364 000a 5C69     		ldr	r4, [r3, #20]
 365 000c 04F47C42 		and	r2, r4, #64512
 366              	.LVL19:
 367              		.loc 1 165 0
 368 0010 5A61     		str	r2, [r3, #20]
 369              		.loc 1 166 0
 370 0012 6205     		lsls	r2, r4, #21
 371              	.LVL20:
 372 0014 2AD4     		bmi	.L59
 373              	.LVL21:
 374              	.L35:
 375              		.loc 1 168 0
 376 0016 2305     		lsls	r3, r4, #20
 377 0018 22D4     		bmi	.L60
 378              	.L36:
 379              		.loc 1 170 0
 380 001a E004     		lsls	r0, r4, #19
 381 001c 1AD4     		bmi	.L61
 382              	.L37:
 383              		.loc 1 172 0
 384 001e A104     		lsls	r1, r4, #18
 385 0020 12D4     		bmi	.L62
 386              	.L38:
 387              		.loc 1 174 0
 388 0022 6204     		lsls	r2, r4, #17
 389 0024 0AD4     		bmi	.L63
ARM GAS  C:\Users\Vergil\AppData\Local\Temp\ccupfPd6.s 			page 8


 390              	.L39:
 391              		.loc 1 176 0
 392 0026 2304     		lsls	r3, r4, #16
 393 0028 04D5     		bpl	.L40
 394              		.loc 1 177 0
 395 002a 1348     		ldr	r0, .L64
 396 002c 4268     		ldr	r2, [r0, #4]
 397 002e 0F21     		movs	r1, #15
 398 0030 D36F     		ldr	r3, [r2, #124]
 399 0032 9847     		blx	r3
 400              	.LVL22:
 401              	.L40:
 402              		.loc 1 180 0
 403 0034 BDE81040 		pop	{r4, lr}
 404              		.loc 1 179 0
 405 0038 FFF7FEBF 		b	_port_irq_epilogue
 406              	.LVL23:
 407              	.L63:
 408              		.loc 1 175 0
 409 003c 0E48     		ldr	r0, .L64
 410 003e 4168     		ldr	r1, [r0, #4]
 411 0040 4B6F     		ldr	r3, [r1, #116]
 412 0042 0E21     		movs	r1, #14
 413 0044 9847     		blx	r3
 414              	.LVL24:
 415 0046 EEE7     		b	.L39
 416              	.L62:
 417              		.loc 1 173 0
 418 0048 0B48     		ldr	r0, .L64
 419 004a 4368     		ldr	r3, [r0, #4]
 420 004c 0D21     		movs	r1, #13
 421 004e DA6E     		ldr	r2, [r3, #108]
 422 0050 9047     		blx	r2
 423              	.LVL25:
 424 0052 E6E7     		b	.L38
 425              	.L61:
 426              		.loc 1 171 0
 427 0054 0848     		ldr	r0, .L64
 428 0056 4168     		ldr	r1, [r0, #4]
 429 0058 4A6E     		ldr	r2, [r1, #100]
 430 005a 0C21     		movs	r1, #12
 431 005c 9047     		blx	r2
 432              	.LVL26:
 433 005e DEE7     		b	.L37
 434              	.L60:
 435              		.loc 1 169 0
 436 0060 0548     		ldr	r0, .L64
 437 0062 4268     		ldr	r2, [r0, #4]
 438 0064 0B21     		movs	r1, #11
 439 0066 D36D     		ldr	r3, [r2, #92]
 440 0068 9847     		blx	r3
 441              	.LVL27:
 442 006a D6E7     		b	.L36
 443              	.LVL28:
 444              	.L59:
 445              		.loc 1 167 0
 446 006c 0248     		ldr	r0, .L64
ARM GAS  C:\Users\Vergil\AppData\Local\Temp\ccupfPd6.s 			page 9


 447 006e 4168     		ldr	r1, [r0, #4]
 448 0070 4B6D     		ldr	r3, [r1, #84]
 449              	.LVL29:
 450 0072 0A21     		movs	r1, #10
 451 0074 9847     		blx	r3
 452              	.LVL30:
 453 0076 CEE7     		b	.L35
 454              	.L65:
 455              		.align	2
 456              	.L64:
 457 0078 00000000 		.word	EXTD1
 458              		.cfi_endproc
 459              	.LFE124:
 460              		.size	VectorE0, .-VectorE0
 461 007c AFF30080 		.section	.text.Vector44,"ax",%progbits
 462              		.align	2
 463              		.p2align 4,,15
 464              		.global	Vector44
 465              		.thumb
 466              		.thumb_func
 467              		.type	Vector44, %function
 468              	Vector44:
 469              	.LFB125:
 470              		.loc 1 187 0
 471              		.cfi_startproc
 472              		@ args = 0, pretend = 0, frame = 0
 473              		@ frame_needed = 0, uses_anonymous_args = 0
 474              		.loc 1 192 0
 475 0000 40F20000 		movw	r0, #:lower16:EXTD1
 476 0004 C0F20000 		movt	r0, #:upper16:EXTD1
 477              		.loc 1 187 0
 478 0008 08B5     		push	{r3, lr}
 479              	.LCFI7:
 480              		.cfi_def_cfa_offset 8
 481              		.cfi_offset 3, -8
 482              		.cfi_offset 14, -4
 483              		.loc 1 191 0
 484 000a 4FF47053 		mov	r3, #15360
 485              		.loc 1 192 0
 486 000e 4268     		ldr	r2, [r0, #4]
 487              		.loc 1 191 0
 488 0010 C4F20103 		movt	r3, 16385
 489 0014 4FF48031 		mov	r1, #65536
 490 0018 5961     		str	r1, [r3, #20]
 491              		.loc 1 192 0
 492 001a D2F88430 		ldr	r3, [r2, #132]
 493 001e 1021     		movs	r1, #16
 494 0020 9847     		blx	r3
 495              	.LVL31:
 496              		.loc 1 195 0
 497 0022 BDE80840 		pop	{r3, lr}
 498              		.loc 1 194 0
 499 0026 FFF7FEBF 		b	_port_irq_epilogue
 500              	.LVL32:
 501              		.cfi_endproc
 502              	.LFE125:
 503              		.size	Vector44, .-Vector44
ARM GAS  C:\Users\Vergil\AppData\Local\Temp\ccupfPd6.s 			page 10


 504 002a 00BFAFF3 		.section	.text.VectorE4,"ax",%progbits
 504      0080
 505              		.align	2
 506              		.p2align 4,,15
 507              		.global	VectorE4
 508              		.thumb
 509              		.thumb_func
 510              		.type	VectorE4, %function
 511              	VectorE4:
 512              	.LFB126:
 513              		.loc 1 202 0
 514              		.cfi_startproc
 515              		@ args = 0, pretend = 0, frame = 0
 516              		@ frame_needed = 0, uses_anonymous_args = 0
 517              		.loc 1 207 0
 518 0000 40F20000 		movw	r0, #:lower16:EXTD1
 519 0004 C0F20000 		movt	r0, #:upper16:EXTD1
 520              		.loc 1 202 0
 521 0008 08B5     		push	{r3, lr}
 522              	.LCFI8:
 523              		.cfi_def_cfa_offset 8
 524              		.cfi_offset 3, -8
 525              		.cfi_offset 14, -4
 526              		.loc 1 206 0
 527 000a 4FF47053 		mov	r3, #15360
 528              		.loc 1 207 0
 529 000e 4268     		ldr	r2, [r0, #4]
 530              		.loc 1 206 0
 531 0010 C4F20103 		movt	r3, 16385
 532 0014 4FF40031 		mov	r1, #131072
 533 0018 5961     		str	r1, [r3, #20]
 534              		.loc 1 207 0
 535 001a D2F88C30 		ldr	r3, [r2, #140]
 536 001e 1121     		movs	r1, #17
 537 0020 9847     		blx	r3
 538              	.LVL33:
 539              		.loc 1 210 0
 540 0022 BDE80840 		pop	{r3, lr}
 541              		.loc 1 209 0
 542 0026 FFF7FEBF 		b	_port_irq_epilogue
 543              	.LVL34:
 544              		.cfi_endproc
 545              	.LFE126:
 546              		.size	VectorE4, .-VectorE4
 547 002a 00BFAFF3 		.section	.text.VectorE8,"ax",%progbits
 547      0080
 548              		.align	2
 549              		.p2align 4,,15
 550              		.global	VectorE8
 551              		.thumb
 552              		.thumb_func
 553              		.type	VectorE8, %function
 554              	VectorE8:
 555              	.LFB127:
 556              		.loc 1 217 0
 557              		.cfi_startproc
 558              		@ args = 0, pretend = 0, frame = 0
ARM GAS  C:\Users\Vergil\AppData\Local\Temp\ccupfPd6.s 			page 11


 559              		@ frame_needed = 0, uses_anonymous_args = 0
 560              		.loc 1 222 0
 561 0000 40F20000 		movw	r0, #:lower16:EXTD1
 562 0004 C0F20000 		movt	r0, #:upper16:EXTD1
 563              		.loc 1 217 0
 564 0008 08B5     		push	{r3, lr}
 565              	.LCFI9:
 566              		.cfi_def_cfa_offset 8
 567              		.cfi_offset 3, -8
 568              		.cfi_offset 14, -4
 569              		.loc 1 221 0
 570 000a 4FF47053 		mov	r3, #15360
 571              		.loc 1 222 0
 572 000e 4268     		ldr	r2, [r0, #4]
 573              		.loc 1 221 0
 574 0010 C4F20103 		movt	r3, 16385
 575 0014 4FF48021 		mov	r1, #262144
 576 0018 5961     		str	r1, [r3, #20]
 577              		.loc 1 222 0
 578 001a D2F89430 		ldr	r3, [r2, #148]
 579 001e 1221     		movs	r1, #18
 580 0020 9847     		blx	r3
 581              	.LVL35:
 582              		.loc 1 225 0
 583 0022 BDE80840 		pop	{r3, lr}
 584              		.loc 1 224 0
 585 0026 FFF7FEBF 		b	_port_irq_epilogue
 586              	.LVL36:
 587              		.cfi_endproc
 588              	.LFE127:
 589              		.size	VectorE8, .-VectorE8
 590 002a 00BFAFF3 		.section	.text.Vector138,"ax",%progbits
 590      0080
 591              		.align	2
 592              		.p2align 4,,15
 593              		.global	Vector138
 594              		.thumb
 595              		.thumb_func
 596              		.type	Vector138, %function
 597              	Vector138:
 598              	.LFB128:
 599              		.loc 1 232 0
 600              		.cfi_startproc
 601              		@ args = 0, pretend = 0, frame = 0
 602              		@ frame_needed = 0, uses_anonymous_args = 0
 603              		.loc 1 237 0
 604 0000 40F20000 		movw	r0, #:lower16:EXTD1
 605 0004 C0F20000 		movt	r0, #:upper16:EXTD1
 606              		.loc 1 232 0
 607 0008 08B5     		push	{r3, lr}
 608              	.LCFI10:
 609              		.cfi_def_cfa_offset 8
 610              		.cfi_offset 3, -8
 611              		.cfi_offset 14, -4
 612              		.loc 1 236 0
 613 000a 4FF47053 		mov	r3, #15360
 614              		.loc 1 237 0
ARM GAS  C:\Users\Vergil\AppData\Local\Temp\ccupfPd6.s 			page 12


 615 000e 4268     		ldr	r2, [r0, #4]
 616              		.loc 1 236 0
 617 0010 C4F20103 		movt	r3, 16385
 618 0014 4FF40021 		mov	r1, #524288
 619 0018 5961     		str	r1, [r3, #20]
 620              		.loc 1 237 0
 621 001a D2F89C30 		ldr	r3, [r2, #156]
 622 001e 1321     		movs	r1, #19
 623 0020 9847     		blx	r3
 624              	.LVL37:
 625              		.loc 1 240 0
 626 0022 BDE80840 		pop	{r3, lr}
 627              		.loc 1 239 0
 628 0026 FFF7FEBF 		b	_port_irq_epilogue
 629              	.LVL38:
 630              		.cfi_endproc
 631              	.LFE128:
 632              		.size	Vector138, .-Vector138
 633 002a 00BFAFF3 		.section	.text.Vector4C,"ax",%progbits
 633      0080
 634              		.align	2
 635              		.p2align 4,,15
 636              		.global	Vector4C
 637              		.thumb
 638              		.thumb_func
 639              		.type	Vector4C, %function
 640              	Vector4C:
 641              	.LFB129:
 642              		.loc 1 279 0
 643              		.cfi_startproc
 644              		@ args = 0, pretend = 0, frame = 0
 645              		@ frame_needed = 0, uses_anonymous_args = 0
 646              		.loc 1 284 0
 647 0000 40F20000 		movw	r0, #:lower16:EXTD1
 648 0004 C0F20000 		movt	r0, #:upper16:EXTD1
 649              		.loc 1 279 0
 650 0008 08B5     		push	{r3, lr}
 651              	.LCFI11:
 652              		.cfi_def_cfa_offset 8
 653              		.cfi_offset 3, -8
 654              		.cfi_offset 14, -4
 655              		.loc 1 283 0
 656 000a 4FF47053 		mov	r3, #15360
 657              		.loc 1 284 0
 658 000e 4268     		ldr	r2, [r0, #4]
 659              		.loc 1 283 0
 660 0010 C4F20103 		movt	r3, 16385
 661 0014 4FF48001 		mov	r1, #4194304
 662 0018 5961     		str	r1, [r3, #20]
 663              		.loc 1 284 0
 664 001a D2F8B430 		ldr	r3, [r2, #180]
 665 001e 1621     		movs	r1, #22
 666 0020 9847     		blx	r3
 667              	.LVL39:
 668              		.loc 1 287 0
 669 0022 BDE80840 		pop	{r3, lr}
 670              		.loc 1 286 0
ARM GAS  C:\Users\Vergil\AppData\Local\Temp\ccupfPd6.s 			page 13


 671 0026 FFF7FEBF 		b	_port_irq_epilogue
 672              	.LVL40:
 673              		.cfi_endproc
 674              	.LFE129:
 675              		.size	Vector4C, .-Vector4C
 676 002a 00BFAFF3 		.section	.text.ext_lld_exti_irq_enable,"ax",%progbits
 676      0080
 677              		.align	2
 678              		.p2align 4,,15
 679              		.global	ext_lld_exti_irq_enable
 680              		.thumb
 681              		.thumb_func
 682              		.type	ext_lld_exti_irq_enable, %function
 683              	ext_lld_exti_irq_enable:
 684              	.LFB130:
 685              		.loc 1 298 0
 686              		.cfi_startproc
 687              		@ args = 0, pretend = 0, frame = 0
 688              		@ frame_needed = 0, uses_anonymous_args = 0
 689 0000 08B5     		push	{r3, lr}
 690              	.LCFI12:
 691              		.cfi_def_cfa_offset 8
 692              		.cfi_offset 3, -8
 693              		.cfi_offset 14, -4
 694              		.loc 1 300 0
 695 0002 0620     		movs	r0, #6
 696 0004 6021     		movs	r1, #96
 697 0006 FFF7FEFF 		bl	nvicEnableVector
 698              	.LVL41:
 699              		.loc 1 302 0
 700 000a 0720     		movs	r0, #7
 701 000c 6021     		movs	r1, #96
 702 000e FFF7FEFF 		bl	nvicEnableVector
 703              	.LVL42:
 704              		.loc 1 304 0
 705 0012 0820     		movs	r0, #8
 706 0014 6021     		movs	r1, #96
 707 0016 FFF7FEFF 		bl	nvicEnableVector
 708              	.LVL43:
 709              		.loc 1 306 0
 710 001a 0920     		movs	r0, #9
 711 001c 6021     		movs	r1, #96
 712 001e FFF7FEFF 		bl	nvicEnableVector
 713              	.LVL44:
 714              		.loc 1 308 0
 715 0022 0A20     		movs	r0, #10
 716 0024 6021     		movs	r1, #96
 717 0026 FFF7FEFF 		bl	nvicEnableVector
 718              	.LVL45:
 719              		.loc 1 310 0
 720 002a 1720     		movs	r0, #23
 721 002c 6021     		movs	r1, #96
 722 002e FFF7FEFF 		bl	nvicEnableVector
 723              	.LVL46:
 724              		.loc 1 312 0
 725 0032 2820     		movs	r0, #40
 726 0034 6021     		movs	r1, #96
ARM GAS  C:\Users\Vergil\AppData\Local\Temp\ccupfPd6.s 			page 14


 727 0036 FFF7FEFF 		bl	nvicEnableVector
 728              	.LVL47:
 729              		.loc 1 314 0
 730 003a 0120     		movs	r0, #1
 731 003c 6021     		movs	r1, #96
 732 003e FFF7FEFF 		bl	nvicEnableVector
 733              	.LVL48:
 734              		.loc 1 316 0
 735 0042 2920     		movs	r0, #41
 736 0044 F021     		movs	r1, #240
 737 0046 FFF7FEFF 		bl	nvicEnableVector
 738              	.LVL49:
 739              		.loc 1 318 0
 740 004a 2A20     		movs	r0, #42
 741 004c 6021     		movs	r1, #96
 742 004e FFF7FEFF 		bl	nvicEnableVector
 743              	.LVL50:
 744              		.loc 1 329 0
 745 0052 0320     		movs	r0, #3
 746 0054 F021     		movs	r1, #240
 747              		.loc 1 331 0
 748 0056 BDE80840 		pop	{r3, lr}
 749              		.loc 1 329 0
 750 005a FFF7FEBF 		b	nvicEnableVector
 751              	.LVL51:
 752              		.cfi_endproc
 753              	.LFE130:
 754              		.size	ext_lld_exti_irq_enable, .-ext_lld_exti_irq_enable
 755 005e 00BF     		.section	.text.ext_lld_exti_irq_disable,"ax",%progbits
 756              		.align	2
 757              		.p2align 4,,15
 758              		.global	ext_lld_exti_irq_disable
 759              		.thumb
 760              		.thumb_func
 761              		.type	ext_lld_exti_irq_disable, %function
 762              	ext_lld_exti_irq_disable:
 763              	.LFB131:
 764              		.loc 1 338 0
 765              		.cfi_startproc
 766              		@ args = 0, pretend = 0, frame = 0
 767              		@ frame_needed = 0, uses_anonymous_args = 0
 768 0000 08B5     		push	{r3, lr}
 769              	.LCFI13:
 770              		.cfi_def_cfa_offset 8
 771              		.cfi_offset 3, -8
 772              		.cfi_offset 14, -4
 773              		.loc 1 340 0
 774 0002 0620     		movs	r0, #6
 775 0004 FFF7FEFF 		bl	nvicDisableVector
 776              	.LVL52:
 777              		.loc 1 341 0
 778 0008 0720     		movs	r0, #7
 779 000a FFF7FEFF 		bl	nvicDisableVector
 780              	.LVL53:
 781              		.loc 1 342 0
 782 000e 0820     		movs	r0, #8
 783 0010 FFF7FEFF 		bl	nvicDisableVector
ARM GAS  C:\Users\Vergil\AppData\Local\Temp\ccupfPd6.s 			page 15


 784              	.LVL54:
 785              		.loc 1 343 0
 786 0014 0920     		movs	r0, #9
 787 0016 FFF7FEFF 		bl	nvicDisableVector
 788              	.LVL55:
 789              		.loc 1 344 0
 790 001a 0A20     		movs	r0, #10
 791 001c FFF7FEFF 		bl	nvicDisableVector
 792              	.LVL56:
 793              		.loc 1 345 0
 794 0020 1720     		movs	r0, #23
 795 0022 FFF7FEFF 		bl	nvicDisableVector
 796              	.LVL57:
 797              		.loc 1 346 0
 798 0026 2820     		movs	r0, #40
 799 0028 FFF7FEFF 		bl	nvicDisableVector
 800              	.LVL58:
 801              		.loc 1 347 0
 802 002c 0120     		movs	r0, #1
 803 002e FFF7FEFF 		bl	nvicDisableVector
 804              	.LVL59:
 805              		.loc 1 348 0
 806 0032 2920     		movs	r0, #41
 807 0034 FFF7FEFF 		bl	nvicDisableVector
 808              	.LVL60:
 809              		.loc 1 349 0
 810 0038 2A20     		movs	r0, #42
 811 003a FFF7FEFF 		bl	nvicDisableVector
 812              	.LVL61:
 813              		.loc 1 355 0
 814 003e 0320     		movs	r0, #3
 815              		.loc 1 356 0
 816 0040 BDE80840 		pop	{r3, lr}
 817              		.loc 1 355 0
 818 0044 FFF7FEBF 		b	nvicDisableVector
 819              	.LVL62:
 820              		.cfi_endproc
 821              	.LFE131:
 822              		.size	ext_lld_exti_irq_disable, .-ext_lld_exti_irq_disable
 823 0048 AFF30080 		.text
 823      AFF30080 
 824              	.Letext0:
 825              		.file 2 "c:\\chibistudio\\tools\\gnu tools arm embedded\\4.7 2014q2\\bin\\../lib/gcc/arm-none-eabi
 826              		.file 3 "../../os/hal/platforms/STM32F4xx/stm32f4xx.h"
 827              		.file 4 "../../os/hal/include/ext.h"
 828              		.file 5 "../../os/hal/platforms/STM32/ext_lld.h"
 829              		.file 6 "../../os/ports/common/ARMCMx/CMSIS/include/core_cm4.h"
 830              		.file 7 "../../os/ports/GCC/ARMCMx/chcore_v7m.h"
 831              		.file 8 "../../os/ports/common/ARMCMx/nvic.h"