ARM GAS  C:\Users\Vergil\AppData\Local\Temp\ccLdvCqa.s 			page 1


   1              		.syntax unified
   2              		.cpu cortex-m4
   3              		.eabi_attribute 27, 3
   4              		.eabi_attribute 28, 1
   5              		.fpu fpv4-sp-d16
   6              		.eabi_attribute 20, 1
   7              		.eabi_attribute 21, 1
   8              		.eabi_attribute 23, 3
   9              		.eabi_attribute 24, 1
  10              		.eabi_attribute 25, 1
  11              		.eabi_attribute 26, 1
  12              		.eabi_attribute 30, 2
  13              		.eabi_attribute 34, 1
  14              		.eabi_attribute 18, 4
  15              		.thumb
  16              		.file	"gpt.c"
  17              		.text
  18              	.Ltext0:
  19              		.cfi_sections	.debug_frame
  20              		.section	.text.gptInit,"ax",%progbits
  21              		.align	2
  22              		.p2align 4,,15
  23              		.global	gptInit
  24              		.thumb
  25              		.thumb_func
  26              		.type	gptInit, %function
  27              	gptInit:
  28              	.LFB118:
  29              		.file 1 "../../os/hal/src/gpt.c"
  30              		.loc 1 68 0
  31              		.cfi_startproc
  32              		@ args = 0, pretend = 0, frame = 0
  33              		@ frame_needed = 0, uses_anonymous_args = 0
  34              		@ link register save eliminated.
  35              		.loc 1 71 0
  36              		.loc 1 70 0
  37 0000 FFF7FEBF 		b	gpt_lld_init
  38              	.LVL0:
  39              		.cfi_endproc
  40              	.LFE118:
  41              		.size	gptInit, .-gptInit
  42 0004 AFF30080 		.section	.text.gptObjectInit,"ax",%progbits
  42      AFF30080 
  42      AFF30080 
  43              		.align	2
  44              		.p2align 4,,15
  45              		.global	gptObjectInit
  46              		.thumb
  47              		.thumb_func
  48              		.type	gptObjectInit, %function
  49              	gptObjectInit:
  50              	.LFB119:
  51              		.loc 1 80 0
  52              		.cfi_startproc
  53              		@ args = 0, pretend = 0, frame = 0
  54              		@ frame_needed = 0, uses_anonymous_args = 0
  55              		@ link register save eliminated.
ARM GAS  C:\Users\Vergil\AppData\Local\Temp\ccLdvCqa.s 			page 2


  56              	.LVL1:
  57              		.loc 1 82 0
  58 0000 0123     		movs	r3, #1
  59              		.loc 1 83 0
  60 0002 0021     		movs	r1, #0
  61              		.loc 1 82 0
  62 0004 0370     		strb	r3, [r0, #0]
  63              		.loc 1 83 0
  64 0006 4160     		str	r1, [r0, #4]
  65 0008 7047     		bx	lr
  66              		.cfi_endproc
  67              	.LFE119:
  68              		.size	gptObjectInit, .-gptObjectInit
  69 000a 00BFAFF3 		.section	.text.gptStart,"ax",%progbits
  69      0080
  70              		.align	2
  71              		.p2align 4,,15
  72              		.global	gptStart
  73              		.thumb
  74              		.thumb_func
  75              		.type	gptStart, %function
  76              	gptStart:
  77              	.LFB120:
  78              		.loc 1 94 0
  79              		.cfi_startproc
  80              		@ args = 0, pretend = 0, frame = 0
  81              		@ frame_needed = 0, uses_anonymous_args = 0
  82              	.LVL2:
  83 0000 10B5     		push	{r4, lr}
  84              	.LCFI0:
  85              		.cfi_def_cfa_offset 8
  86              		.cfi_offset 4, -8
  87              		.cfi_offset 14, -4
  88              	.LBB2:
  89              		.loc 1 98 0
  90 0002 2023     		movs	r3, #32
  91              	.LVL3:
  92              	.LBE2:
  93              		.loc 1 94 0
  94 0004 0446     		mov	r4, r0
  95              	.LBB3:
  96              		.loc 1 98 0
  97              	@ 98 "../../os/hal/src/gpt.c" 1
  98 0006 83F31188 		msr     BASEPRI, r3
  99              	@ 0 "" 2
 100              	.LVL4:
 101              		.thumb
 102              	.LBE3:
 103              		.loc 1 101 0
 104 000a 4160     		str	r1, [r0, #4]
 105              		.loc 1 102 0
 106 000c FFF7FEFF 		bl	gpt_lld_start
 107              	.LVL5:
 108              		.loc 1 103 0
 109 0010 0223     		movs	r3, #2
 110 0012 2370     		strb	r3, [r4, #0]
 111              	.LBB4:
ARM GAS  C:\Users\Vergil\AppData\Local\Temp\ccLdvCqa.s 			page 3


 112              		.loc 1 104 0
 113 0014 0023     		movs	r3, #0
 114              	.LVL6:
 115              	@ 104 "../../os/hal/src/gpt.c" 1
 116 0016 83F31188 		msr     BASEPRI, r3
 117              	@ 0 "" 2
 118              	.LVL7:
 119              		.thumb
 120 001a 10BD     		pop	{r4, pc}
 121              	.LBE4:
 122              		.cfi_endproc
 123              	.LFE120:
 124              		.size	gptStart, .-gptStart
 125 001c AFF30080 		.section	.text.gptStop,"ax",%progbits
 126              		.align	2
 127              		.p2align 4,,15
 128              		.global	gptStop
 129              		.thumb
 130              		.thumb_func
 131              		.type	gptStop, %function
 132              	gptStop:
 133              	.LFB121:
 134              		.loc 1 114 0
 135              		.cfi_startproc
 136              		@ args = 0, pretend = 0, frame = 0
 137              		@ frame_needed = 0, uses_anonymous_args = 0
 138              	.LVL8:
 139 0000 10B5     		push	{r4, lr}
 140              	.LCFI1:
 141              		.cfi_def_cfa_offset 8
 142              		.cfi_offset 4, -8
 143              		.cfi_offset 14, -4
 144              	.LBB5:
 145              		.loc 1 118 0
 146 0002 2023     		movs	r3, #32
 147              	.LVL9:
 148              	.LBE5:
 149              		.loc 1 114 0
 150 0004 0446     		mov	r4, r0
 151              	.LBB6:
 152              		.loc 1 118 0
 153              	@ 118 "../../os/hal/src/gpt.c" 1
 154 0006 83F31188 		msr     BASEPRI, r3
 155              	@ 0 "" 2
 156              	.LVL10:
 157              		.thumb
 158              	.LBE6:
 159              		.loc 1 121 0
 160 000a FFF7FEFF 		bl	gpt_lld_stop
 161              	.LVL11:
 162              		.loc 1 122 0
 163 000e 0123     		movs	r3, #1
 164 0010 2370     		strb	r3, [r4, #0]
 165              	.LBB7:
 166              		.loc 1 123 0
 167 0012 0023     		movs	r3, #0
 168              	.LVL12:
ARM GAS  C:\Users\Vergil\AppData\Local\Temp\ccLdvCqa.s 			page 4


 169              	@ 123 "../../os/hal/src/gpt.c" 1
 170 0014 83F31188 		msr     BASEPRI, r3
 171              	@ 0 "" 2
 172              	.LVL13:
 173              		.thumb
 174 0018 10BD     		pop	{r4, pc}
 175              	.LBE7:
 176              		.cfi_endproc
 177              	.LFE121:
 178              		.size	gptStop, .-gptStop
 179 001a 00BFAFF3 		.section	.text.gptChangeInterval,"ax",%progbits
 179      0080
 180              		.align	2
 181              		.p2align 4,,15
 182              		.global	gptChangeInterval
 183              		.thumb
 184              		.thumb_func
 185              		.type	gptChangeInterval, %function
 186              	gptChangeInterval:
 187              	.LFB122:
 188              		.loc 1 139 0
 189              		.cfi_startproc
 190              		@ args = 0, pretend = 0, frame = 0
 191              		@ frame_needed = 0, uses_anonymous_args = 0
 192              		@ link register save eliminated.
 193              	.LVL14:
 194              	.LBB8:
 195              		.loc 1 143 0
 196 0000 2023     		movs	r3, #32
 197              	.LVL15:
 198              	@ 143 "../../os/hal/src/gpt.c" 1
 199 0002 83F31188 		msr     BASEPRI, r3
 200              	@ 0 "" 2
 201              	.LVL16:
 202              		.thumb
 203              	.LBE8:
 204              		.loc 1 146 0
 205 0006 C368     		ldr	r3, [r0, #12]
 206              	.LVL17:
 207 0008 0139     		subs	r1, r1, #1
 208              	.LVL18:
 209 000a D962     		str	r1, [r3, #44]
 210              	.LBB9:
 211              		.loc 1 147 0
 212 000c 0023     		movs	r3, #0
 213              	.LVL19:
 214              	@ 147 "../../os/hal/src/gpt.c" 1
 215 000e 83F31188 		msr     BASEPRI, r3
 216              	@ 0 "" 2
 217              	.LVL20:
 218              		.thumb
 219 0012 7047     		bx	lr
 220              	.LBE9:
 221              		.cfi_endproc
 222              	.LFE122:
 223              		.size	gptChangeInterval, .-gptChangeInterval
 224 0014 AFF30080 		.section	.text.gptStartContinuousI,"ax",%progbits
ARM GAS  C:\Users\Vergil\AppData\Local\Temp\ccLdvCqa.s 			page 5


 224      AFF30080 
 224      AFF30080 
 225              		.align	2
 226              		.p2align 4,,15
 227              		.global	gptStartContinuousI
 228              		.thumb
 229              		.thumb_func
 230              		.type	gptStartContinuousI, %function
 231              	gptStartContinuousI:
 232              	.LFB124:
 233              		.loc 1 173 0
 234              		.cfi_startproc
 235              		@ args = 0, pretend = 0, frame = 0
 236              		@ frame_needed = 0, uses_anonymous_args = 0
 237              		@ link register save eliminated.
 238              	.LVL21:
 239              		.loc 1 180 0
 240 0000 0323     		movs	r3, #3
 241 0002 0370     		strb	r3, [r0, #0]
 242              		.loc 1 182 0
 243              		.loc 1 181 0
 244 0004 FFF7FEBF 		b	gpt_lld_start_timer
 245              	.LVL22:
 246              		.cfi_endproc
 247              	.LFE124:
 248              		.size	gptStartContinuousI, .-gptStartContinuousI
 249 0008 AFF30080 		.section	.text.gptStartContinuous,"ax",%progbits
 249      AFF30080 
 250              		.align	2
 251              		.p2align 4,,15
 252              		.global	gptStartContinuous
 253              		.thumb
 254              		.thumb_func
 255              		.type	gptStartContinuous, %function
 256              	gptStartContinuous:
 257              	.LFB123:
 258              		.loc 1 158 0
 259              		.cfi_startproc
 260              		@ args = 0, pretend = 0, frame = 0
 261              		@ frame_needed = 0, uses_anonymous_args = 0
 262              	.LVL23:
 263 0000 08B5     		push	{r3, lr}
 264              	.LCFI2:
 265              		.cfi_def_cfa_offset 8
 266              		.cfi_offset 3, -8
 267              		.cfi_offset 14, -4
 268              	.LBB10:
 269              		.loc 1 160 0
 270 0002 2023     		movs	r3, #32
 271              	.LVL24:
 272              	@ 160 "../../os/hal/src/gpt.c" 1
 273 0004 83F31188 		msr     BASEPRI, r3
 274              	@ 0 "" 2
 275              	.LVL25:
 276              		.thumb
 277              	.LBE10:
 278              		.loc 1 161 0
ARM GAS  C:\Users\Vergil\AppData\Local\Temp\ccLdvCqa.s 			page 6


 279 0008 FFF7FEFF 		bl	gptStartContinuousI
 280              	.LVL26:
 281              	.LBB11:
 282              		.loc 1 162 0
 283 000c 0023     		movs	r3, #0
 284              	.LVL27:
 285              	@ 162 "../../os/hal/src/gpt.c" 1
 286 000e 83F31188 		msr     BASEPRI, r3
 287              	@ 0 "" 2
 288              	.LVL28:
 289              		.thumb
 290 0012 08BD     		pop	{r3, pc}
 291              	.LBE11:
 292              		.cfi_endproc
 293              	.LFE123:
 294              		.size	gptStartContinuous, .-gptStartContinuous
 295 0014 AFF30080 		.section	.text.gptStartOneShotI,"ax",%progbits
 295      AFF30080 
 295      AFF30080 
 296              		.align	2
 297              		.p2align 4,,15
 298              		.global	gptStartOneShotI
 299              		.thumb
 300              		.thumb_func
 301              		.type	gptStartOneShotI, %function
 302              	gptStartOneShotI:
 303              	.LFB126:
 304              		.loc 1 207 0
 305              		.cfi_startproc
 306              		@ args = 0, pretend = 0, frame = 0
 307              		@ frame_needed = 0, uses_anonymous_args = 0
 308              		@ link register save eliminated.
 309              	.LVL29:
 310              		.loc 1 214 0
 311 0000 0423     		movs	r3, #4
 312 0002 0370     		strb	r3, [r0, #0]
 313              		.loc 1 216 0
 314              		.loc 1 215 0
 315 0004 FFF7FEBF 		b	gpt_lld_start_timer
 316              	.LVL30:
 317              		.cfi_endproc
 318              	.LFE126:
 319              		.size	gptStartOneShotI, .-gptStartOneShotI
 320 0008 AFF30080 		.section	.text.gptStartOneShot,"ax",%progbits
 320      AFF30080 
 321              		.align	2
 322              		.p2align 4,,15
 323              		.global	gptStartOneShot
 324              		.thumb
 325              		.thumb_func
 326              		.type	gptStartOneShot, %function
 327              	gptStartOneShot:
 328              	.LFB125:
 329              		.loc 1 192 0
 330              		.cfi_startproc
 331              		@ args = 0, pretend = 0, frame = 0
 332              		@ frame_needed = 0, uses_anonymous_args = 0
ARM GAS  C:\Users\Vergil\AppData\Local\Temp\ccLdvCqa.s 			page 7


 333              	.LVL31:
 334 0000 08B5     		push	{r3, lr}
 335              	.LCFI3:
 336              		.cfi_def_cfa_offset 8
 337              		.cfi_offset 3, -8
 338              		.cfi_offset 14, -4
 339              	.LBB12:
 340              		.loc 1 194 0
 341 0002 2023     		movs	r3, #32
 342              	.LVL32:
 343              	@ 194 "../../os/hal/src/gpt.c" 1
 344 0004 83F31188 		msr     BASEPRI, r3
 345              	@ 0 "" 2
 346              	.LVL33:
 347              		.thumb
 348              	.LBE12:
 349              		.loc 1 195 0
 350 0008 FFF7FEFF 		bl	gptStartOneShotI
 351              	.LVL34:
 352              	.LBB13:
 353              		.loc 1 196 0
 354 000c 0023     		movs	r3, #0
 355              	.LVL35:
 356              	@ 196 "../../os/hal/src/gpt.c" 1
 357 000e 83F31188 		msr     BASEPRI, r3
 358              	@ 0 "" 2
 359              	.LVL36:
 360              		.thumb
 361 0012 08BD     		pop	{r3, pc}
 362              	.LBE13:
 363              		.cfi_endproc
 364              	.LFE125:
 365              		.size	gptStartOneShot, .-gptStartOneShot
 366 0014 AFF30080 		.section	.text.gptStopTimerI,"ax",%progbits
 366      AFF30080 
 366      AFF30080 
 367              		.align	2
 368              		.p2align 4,,15
 369              		.global	gptStopTimerI
 370              		.thumb
 371              		.thumb_func
 372              		.type	gptStopTimerI, %function
 373              	gptStopTimerI:
 374              	.LFB128:
 375              		.loc 1 239 0
 376              		.cfi_startproc
 377              		@ args = 0, pretend = 0, frame = 0
 378              		@ frame_needed = 0, uses_anonymous_args = 0
 379              		@ link register save eliminated.
 380              	.LVL37:
 381              		.loc 1 247 0
 382 0000 0223     		movs	r3, #2
 383 0002 0370     		strb	r3, [r0, #0]
 384              		.loc 1 249 0
 385              		.loc 1 248 0
 386 0004 FFF7FEBF 		b	gpt_lld_stop_timer
 387              	.LVL38:
ARM GAS  C:\Users\Vergil\AppData\Local\Temp\ccLdvCqa.s 			page 8


 388              		.cfi_endproc
 389              	.LFE128:
 390              		.size	gptStopTimerI, .-gptStopTimerI
 391 0008 AFF30080 		.section	.text.gptStopTimer,"ax",%progbits
 391      AFF30080 
 392              		.align	2
 393              		.p2align 4,,15
 394              		.global	gptStopTimer
 395              		.thumb
 396              		.thumb_func
 397              		.type	gptStopTimer, %function
 398              	gptStopTimer:
 399              	.LFB127:
 400              		.loc 1 225 0
 401              		.cfi_startproc
 402              		@ args = 0, pretend = 0, frame = 0
 403              		@ frame_needed = 0, uses_anonymous_args = 0
 404              	.LVL39:
 405 0000 08B5     		push	{r3, lr}
 406              	.LCFI4:
 407              		.cfi_def_cfa_offset 8
 408              		.cfi_offset 3, -8
 409              		.cfi_offset 14, -4
 410              	.LBB14:
 411              		.loc 1 227 0
 412 0002 2023     		movs	r3, #32
 413              	.LVL40:
 414              	@ 227 "../../os/hal/src/gpt.c" 1
 415 0004 83F31188 		msr     BASEPRI, r3
 416              	@ 0 "" 2
 417              	.LVL41:
 418              		.thumb
 419              	.LBE14:
 420              		.loc 1 228 0
 421 0008 FFF7FEFF 		bl	gptStopTimerI
 422              	.LVL42:
 423              	.LBB15:
 424              		.loc 1 229 0
 425 000c 0023     		movs	r3, #0
 426              	.LVL43:
 427              	@ 229 "../../os/hal/src/gpt.c" 1
 428 000e 83F31188 		msr     BASEPRI, r3
 429              	@ 0 "" 2
 430              	.LVL44:
 431              		.thumb
 432 0012 08BD     		pop	{r3, pc}
 433              	.LBE15:
 434              		.cfi_endproc
 435              	.LFE127:
 436              		.size	gptStopTimer, .-gptStopTimer
 437 0014 AFF30080 		.section	.text.gptPolledDelay,"ax",%progbits
 437      AFF30080 
 437      AFF30080 
 438              		.align	2
 439              		.p2align 4,,15
 440              		.global	gptPolledDelay
 441              		.thumb
ARM GAS  C:\Users\Vergil\AppData\Local\Temp\ccLdvCqa.s 			page 9


 442              		.thumb_func
 443              		.type	gptPolledDelay, %function
 444              	gptPolledDelay:
 445              	.LFB129:
 446              		.loc 1 263 0
 447              		.cfi_startproc
 448              		@ args = 0, pretend = 0, frame = 0
 449              		@ frame_needed = 0, uses_anonymous_args = 0
 450              	.LVL45:
 451              		.loc 1 268 0
 452 0000 0423     		movs	r3, #4
 453              		.loc 1 263 0
 454 0002 10B5     		push	{r4, lr}
 455              	.LCFI5:
 456              		.cfi_def_cfa_offset 8
 457              		.cfi_offset 4, -8
 458              		.cfi_offset 14, -4
 459              		.loc 1 263 0
 460 0004 0446     		mov	r4, r0
 461              		.loc 1 268 0
 462 0006 0370     		strb	r3, [r0, #0]
 463              		.loc 1 269 0
 464 0008 FFF7FEFF 		bl	gpt_lld_polled_delay
 465              	.LVL46:
 466              		.loc 1 270 0
 467 000c 0220     		movs	r0, #2
 468 000e 2070     		strb	r0, [r4, #0]
 469 0010 10BD     		pop	{r4, pc}
 470              		.cfi_endproc
 471              	.LFE129:
 472              		.size	gptPolledDelay, .-gptPolledDelay
 473 0012 00BFAFF3 		.text
 473      0080AFF3 
 473      0080AFF3 
 473      0080
 474              	.Letext0:
 475              		.file 2 "c:\\chibistudio\\tools\\gnu tools arm embedded\\4.7 2014q2\\bin\\../lib/gcc/arm-none-eabi
 476              		.file 3 "../../os/hal/include/gpt.h"
 477              		.file 4 "../../os/hal/platforms/STM32/TIMv1/gpt_lld.h"
 478              		.file 5 "../../os/hal/platforms/STM32/TIMv1/stm32_tim.h"
 479              		.file 6 "../../os/ports/common/ARMCMx/CMSIS/include/core_cm4.h"