ARM GAS  C:\Users\Vergil\AppData\Local\Temp\ccRGsPif.s 			page 1


   1              		.syntax unified
   2              		.cpu cortex-m4
   3              		.eabi_attribute 27, 3
   4              		.eabi_attribute 28, 1
   5              		.fpu fpv4-sp-d16
   6              		.eabi_attribute 20, 1
   7              		.eabi_attribute 21, 1
   8              		.eabi_attribute 23, 3
   9              		.eabi_attribute 24, 1
  10              		.eabi_attribute 25, 1
  11              		.eabi_attribute 26, 1
  12              		.eabi_attribute 30, 2
  13              		.eabi_attribute 34, 1
  14              		.eabi_attribute 18, 4
  15              		.thumb
  16              		.file	"hal.c"
  17              		.text
  18              	.Ltext0:
  19              		.cfi_sections	.debug_frame
  20              		.section	.text.halInit,"ax",%progbits
  21              		.align	2
  22              		.p2align 4,,15
  23              		.global	halInit
  24              		.thumb
  25              		.thumb_func
  26              		.type	halInit, %function
  27              	halInit:
  28              	.LFB118:
  29              		.file 1 "../../os/hal/src/hal.c"
  30              		.loc 1 68 0
  31              		.cfi_startproc
  32              		@ args = 0, pretend = 0, frame = 0
  33              		@ frame_needed = 0, uses_anonymous_args = 0
  34 0000 08B5     		push	{r3, lr}
  35              	.LCFI0:
  36              		.cfi_def_cfa_offset 8
  37              		.cfi_offset 3, -8
  38              		.cfi_offset 14, -4
  39              		.loc 1 70 0
  40 0002 FFF7FEFF 		bl	hal_lld_init
  41              	.LVL0:
  42              		.loc 1 73 0
  43 0006 FFF7FEFF 		bl	tmInit
  44              	.LVL1:
  45              		.loc 1 76 0
  46 000a 40F20000 		movw	r0, #:lower16:pal_default_config
  47 000e C0F20000 		movt	r0, #:upper16:pal_default_config
  48 0012 FFF7FEFF 		bl	_pal_lld_init
  49              	.LVL2:
  50              		.loc 1 85 0
  51 0016 FFF7FEFF 		bl	extInit
  52              	.LVL3:
  53              		.loc 1 88 0
  54 001a FFF7FEFF 		bl	gptInit
  55              	.LVL4:
  56              		.loc 1 91 0
  57 001e FFF7FEFF 		bl	i2cInit
ARM GAS  C:\Users\Vergil\AppData\Local\Temp\ccRGsPif.s 			page 2


  58              	.LVL5:
  59              		.loc 1 103 0
  60 0022 FFF7FEFF 		bl	sdInit
  61              	.LVL6:
  62              		.loc 1 109 0
  63 0026 FFF7FEFF 		bl	spiInit
  64              	.LVL7:
  65              		.loc 1 118 0
  66 002a FFF7FEFF 		bl	mmcInit
  67              	.LVL8:
  68              		.loc 1 128 0
  69 002e BDE80840 		pop	{r3, lr}
  70              		.loc 1 127 0
  71 0032 FFF7FEBF 		b	boardInit
  72              	.LVL9:
  73              		.cfi_endproc
  74              	.LFE118:
  75              		.size	halInit, .-halInit
  76 0036 00BFAFF3 		.section	.text.halIsCounterWithin,"ax",%progbits
  76      0080AFF3 
  76      0080
  77              		.align	2
  78              		.p2align 4,,15
  79              		.global	halIsCounterWithin
  80              		.thumb
  81              		.thumb_func
  82              		.type	halIsCounterWithin, %function
  83              	halIsCounterWithin:
  84              	.LFB119:
  85              		.loc 1 174 0
  86              		.cfi_startproc
  87              		@ args = 0, pretend = 0, frame = 0
  88              		@ frame_needed = 0, uses_anonymous_args = 0
  89              		@ link register save eliminated.
  90              	.LVL10:
  91              		.loc 1 175 0
  92 0000 4FF48053 		mov	r3, #4096
  93 0004 CEF20003 		movt	r3, 57344
  94              		.loc 1 177 0
  95 0008 8142     		cmp	r1, r0
  96              		.loc 1 175 0
  97 000a 5A68     		ldr	r2, [r3, #4]
  98              	.LVL11:
  99              		.loc 1 177 0
 100 000c 06D9     		bls	.L3
 101              		.loc 1 177 0 is_stmt 0 discriminator 1
 102 000e 8242     		cmp	r2, r0
 103 0010 08D3     		bcc	.L7
 104              	.L9:
 105              		.loc 1 178 0 is_stmt 1 discriminator 2
 106 0012 8A42     		cmp	r2, r1
 107 0014 2CBF     		ite	cs
 108 0016 0020     		movcs	r0, #0
 109              	.LVL12:
 110 0018 0120     		movcc	r0, #1
 111 001a 7047     		bx	lr
 112              	.LVL13:
ARM GAS  C:\Users\Vergil\AppData\Local\Temp\ccRGsPif.s 			page 3


 113              	.L3:
 114              		.loc 1 178 0 is_stmt 0
 115 001c 8242     		cmp	r2, r0
 116 001e F8D3     		bcc	.L9
 117 0020 0120     		movs	r0, #1
 118              	.LVL14:
 119              		.loc 1 179 0 is_stmt 1
 120 0022 7047     		bx	lr
 121              	.LVL15:
 122              	.L7:
 123              		.loc 1 177 0
 124 0024 0020     		movs	r0, #0
 125              	.LVL16:
 126 0026 7047     		bx	lr
 127              		.cfi_endproc
 128              	.LFE119:
 129              		.size	halIsCounterWithin, .-halIsCounterWithin
 130 0028 AFF30080 		.section	.text.halPolledDelay,"ax",%progbits
 130      AFF30080 
 131              		.align	2
 132              		.p2align 4,,15
 133              		.global	halPolledDelay
 134              		.thumb
 135              		.thumb_func
 136              		.type	halPolledDelay, %function
 137              	halPolledDelay:
 138              	.LFB120:
 139              		.loc 1 193 0
 140              		.cfi_startproc
 141              		@ args = 0, pretend = 0, frame = 0
 142              		@ frame_needed = 0, uses_anonymous_args = 0
 143              		@ link register save eliminated.
 144              	.LVL17:
 145              		.loc 1 194 0
 146 0000 4FF48053 		mov	r3, #4096
 147 0004 CEF20003 		movt	r3, 57344
 148              	.LBB4:
 149              	.LBB5:
 150              		.loc 1 175 0
 151 0008 1946     		mov	r1, r3
 152              	.LBE5:
 153              	.LBE4:
 154              		.loc 1 194 0
 155 000a 5A68     		ldr	r2, [r3, #4]
 156              	.LVL18:
 157              		.loc 1 195 0
 158 000c 8018     		adds	r0, r0, r2
 159              	.LVL19:
 160              	.L21:
 161              	.LBB7:
 162              	.LBB6:
 163              		.loc 1 177 0 discriminator 1
 164 000e 8242     		cmp	r2, r0
 165              		.loc 1 175 0 discriminator 1
 166 0010 4B68     		ldr	r3, [r1, #4]
 167              	.LVL20:
 168              		.loc 1 177 0 discriminator 1
ARM GAS  C:\Users\Vergil\AppData\Local\Temp\ccRGsPif.s 			page 4


 169 0012 02D2     		bcs	.L12
 170              		.loc 1 177 0 is_stmt 0
 171 0014 9A42     		cmp	r2, r3
 172 0016 02D9     		bls	.L22
 173 0018 7047     		bx	lr
 174              	.L12:
 175              		.loc 1 178 0 is_stmt 1
 176 001a 9A42     		cmp	r2, r3
 177 001c F7D9     		bls	.L21
 178              	.L22:
 179 001e 9842     		cmp	r0, r3
 180 0020 94BF     		ite	ls
 181 0022 0023     		movls	r3, #0
 182              	.LVL21:
 183 0024 0123     		movhi	r3, #1
 184              	.LBE6:
 185              	.LBE7:
 186              		.loc 1 196 0
 187 0026 002B     		cmp	r3, #0
 188 0028 F1D1     		bne	.L21
 189 002a 7047     		bx	lr
 190              		.cfi_endproc
 191              	.LFE120:
 192              		.size	halPolledDelay, .-halPolledDelay
 193 002c AFF30080 		.text
 194              	.Letext0:
 195              		.file 2 "c:\\chibistudio\\tools\\gnu tools arm embedded\\4.7 2014q2\\bin\\../lib/gcc/arm-none-eabi
 196              		.file 3 "../../os/ports/GCC/ARMCMx/chtypes.h"
 197              		.file 4 "../../os/ports/common/ARMCMx/nvic.h"
 198              		.file 5 "../../os/hal/platforms/STM32F4xx/hal_lld.h"
 199              		.file 6 "../../os/hal/platforms/STM32/GPIOv2/pal_lld.h"
 200              		.file 7 "../../os/ports/common/ARMCMx/CMSIS/include/core_cm4.h"
 201              		.file 8 "../../os/hal/include/tm.h"
 202              		.file 9 "../../os/hal/include/ext.h"
 203              		.file 10 "../../os/hal/include/gpt.h"
 204              		.file 11 "../../os/hal/include/i2c.h"
 205              		.file 12 "../../os/hal/include/serial.h"
 206              		.file 13 "../../os/hal/include/spi.h"
 207              		.file 14 "../../os/hal/include/mmc_spi.h"
 208              		.file 15 "../../boards/ST_NUCLEO_F401RE/board.h"
 209              		.section	.debug_info,"",%progbits
 210              	.Ldebug_info0:
 211 0000 11040000 		.4byte	0x411
 212 0004 0200     		.2byte	0x2
 213 0006 00000000 		.4byte	.Ldebug_abbrev0
 214 000a 04       		.byte	0x4
 215 000b 01       		.uleb128 0x1
 216 000c 42000000 		.4byte	.LASF55
 217 0010 01       		.byte	0x1
 218 0011 0B010000 		.4byte	.LASF56
 219 0015 71010000 		.4byte	.LASF57
 220 0019 30000000 		.4byte	.Ldebug_ranges0+0x30
 221 001d 00000000 		.4byte	0
 222 0021 00000000 		.4byte	0
 223 0025 00000000 		.4byte	.Ldebug_line0
 224 0029 02       		.uleb128 0x2
 225 002a 04       		.byte	0x4
ARM GAS  C:\Users\Vergil\AppData\Local\Temp\ccRGsPif.s 			page 5


 226 002b 05       		.byte	0x5
 227 002c 696E7400 		.ascii	"int\000"
 228 0030 03       		.uleb128 0x3
 229 0031 04       		.byte	0x4
 230 0032 07       		.byte	0x7
 231 0033 94020000 		.4byte	.LASF0
 232 0037 03       		.uleb128 0x3
 233 0038 01       		.byte	0x1
 234 0039 06       		.byte	0x6
 235 003a 4E010000 		.4byte	.LASF1
 236 003e 03       		.uleb128 0x3
 237 003f 01       		.byte	0x1
 238 0040 08       		.byte	0x8
 239 0041 33010000 		.4byte	.LASF2
 240 0045 03       		.uleb128 0x3
 241 0046 02       		.byte	0x2
 242 0047 05       		.byte	0x5
 243 0048 2F000000 		.4byte	.LASF3
 244 004c 03       		.uleb128 0x3
 245 004d 02       		.byte	0x2
 246 004e 07       		.byte	0x7
 247 004f DA010000 		.4byte	.LASF4
 248 0053 04       		.uleb128 0x4
 249 0054 F2010000 		.4byte	.LASF6
 250 0058 02       		.byte	0x2
 251 0059 4F       		.byte	0x4f
 252 005a 5E000000 		.4byte	0x5e
 253 005e 03       		.uleb128 0x3
 254 005f 04       		.byte	0x4
 255 0060 05       		.byte	0x5
 256 0061 EC000000 		.4byte	.LASF5
 257 0065 04       		.uleb128 0x4
 258 0066 A0000000 		.4byte	.LASF7
 259 006a 02       		.byte	0x2
 260 006b 50       		.byte	0x50
 261 006c 70000000 		.4byte	0x70
 262 0070 03       		.uleb128 0x3
 263 0071 04       		.byte	0x4
 264 0072 07       		.byte	0x7
 265 0073 2E020000 		.4byte	.LASF8
 266 0077 03       		.uleb128 0x3
 267 0078 08       		.byte	0x8
 268 0079 05       		.byte	0x5
 269 007a BF000000 		.4byte	.LASF9
 270 007e 03       		.uleb128 0x3
 271 007f 08       		.byte	0x8
 272 0080 07       		.byte	0x7
 273 0081 5A010000 		.4byte	.LASF10
 274 0085 04       		.uleb128 0x4
 275 0086 FA010000 		.4byte	.LASF11
 276 008a 03       		.byte	0x3
 277 008b 2B       		.byte	0x2b
 278 008c 90000000 		.4byte	0x90
 279 0090 03       		.uleb128 0x3
 280 0091 01       		.byte	0x1
 281 0092 02       		.byte	0x2
 282 0093 12020000 		.4byte	.LASF12
ARM GAS  C:\Users\Vergil\AppData\Local\Temp\ccRGsPif.s 			page 6


 283 0097 04       		.uleb128 0x4
 284 0098 B0000000 		.4byte	.LASF13
 285 009c 04       		.byte	0x4
 286 009d 3A       		.byte	0x3a
 287 009e A2000000 		.4byte	0xa2
 288 00a2 05       		.uleb128 0x5
 289 00a3 65000000 		.4byte	0x65
 290 00a7 03       		.uleb128 0x3
 291 00a8 04       		.byte	0x4
 292 00a9 07       		.byte	0x7
 293 00aa 39000000 		.4byte	.LASF14
 294 00ae 06       		.uleb128 0x6
 295 00af 20       		.byte	0x20
 296 00b0 04       		.byte	0x4
 297 00b1 0601     		.2byte	0x106
 298 00b3 30010000 		.4byte	0x130
 299 00b7 07       		.uleb128 0x7
 300 00b8 49010000 		.4byte	.LASF15
 301 00bc 04       		.byte	0x4
 302 00bd 0701     		.2byte	0x107
 303 00bf 97000000 		.4byte	0x97
 304 00c3 02       		.byte	0x2
 305 00c4 23       		.byte	0x23
 306 00c5 00       		.uleb128 0
 307 00c6 07       		.uleb128 0x7
 308 00c7 D5000000 		.4byte	.LASF16
 309 00cb 04       		.byte	0x4
 310 00cc 0801     		.2byte	0x108
 311 00ce 97000000 		.4byte	0x97
 312 00d2 02       		.byte	0x2
 313 00d3 23       		.byte	0x23
 314 00d4 04       		.uleb128 0x4
 315 00d5 07       		.uleb128 0x7
 316 00d6 27020000 		.4byte	.LASF17
 317 00da 04       		.byte	0x4
 318 00db 0901     		.2byte	0x109
 319 00dd 97000000 		.4byte	0x97
 320 00e1 02       		.byte	0x2
 321 00e2 23       		.byte	0x23
 322 00e3 08       		.uleb128 0x8
 323 00e4 07       		.uleb128 0x7
 324 00e5 B4020000 		.4byte	.LASF18
 325 00e9 04       		.byte	0x4
 326 00ea 0A01     		.2byte	0x10a
 327 00ec 97000000 		.4byte	0x97
 328 00f0 02       		.byte	0x2
 329 00f1 23       		.byte	0x23
 330 00f2 0C       		.uleb128 0xc
 331 00f3 07       		.uleb128 0x7
 332 00f4 52020000 		.4byte	.LASF19
 333 00f8 04       		.byte	0x4
 334 00f9 0B01     		.2byte	0x10b
 335 00fb 97000000 		.4byte	0x97
 336 00ff 02       		.byte	0x2
 337 0100 23       		.byte	0x23
 338 0101 10       		.uleb128 0x10
 339 0102 07       		.uleb128 0x7
ARM GAS  C:\Users\Vergil\AppData\Local\Temp\ccRGsPif.s 			page 7


 340 0103 69020000 		.4byte	.LASF20
 341 0107 04       		.byte	0x4
 342 0108 0C01     		.2byte	0x10c
 343 010a 97000000 		.4byte	0x97
 344 010e 02       		.byte	0x2
 345 010f 23       		.byte	0x23
 346 0110 14       		.uleb128 0x14
 347 0111 07       		.uleb128 0x7
 348 0112 90000000 		.4byte	.LASF21
 349 0116 04       		.byte	0x4
 350 0117 0D01     		.2byte	0x10d
 351 0119 97000000 		.4byte	0x97
 352 011d 02       		.byte	0x2
 353 011e 23       		.byte	0x23
 354 011f 18       		.uleb128 0x18
 355 0120 07       		.uleb128 0x7
 356 0121 8B000000 		.4byte	.LASF22
 357 0125 04       		.byte	0x4
 358 0126 0E01     		.2byte	0x10e
 359 0128 97000000 		.4byte	0x97
 360 012c 02       		.byte	0x2
 361 012d 23       		.byte	0x23
 362 012e 1C       		.uleb128 0x1c
 363 012f 00       		.byte	0
 364 0130 08       		.uleb128 0x8
 365 0131 18020000 		.4byte	.LASF23
 366 0135 04       		.byte	0x4
 367 0136 0F01     		.2byte	0x10f
 368 0138 AE000000 		.4byte	0xae
 369 013c 03       		.uleb128 0x3
 370 013d 01       		.byte	0x1
 371 013e 08       		.byte	0x8
 372 013f ED010000 		.4byte	.LASF24
 373 0143 05       		.uleb128 0x5
 374 0144 53000000 		.4byte	0x53
 375 0148 08       		.uleb128 0x8
 376 0149 47020000 		.4byte	.LASF25
 377 014d 05       		.byte	0x5
 378 014e C006     		.2byte	0x6c0
 379 0150 65000000 		.4byte	0x65
 380 0154 09       		.uleb128 0x9
 381 0155 1C       		.byte	0x1c
 382 0156 06       		.byte	0x6
 383 0157 A3       		.byte	0xa3
 384 0158 BF010000 		.4byte	0x1bf
 385 015c 0A       		.uleb128 0xa
 386 015d 7A020000 		.4byte	.LASF26
 387 0161 06       		.byte	0x6
 388 0162 A5       		.byte	0xa5
 389 0163 65000000 		.4byte	0x65
 390 0167 02       		.byte	0x2
 391 0168 23       		.byte	0x23
 392 0169 00       		.uleb128 0
 393 016a 0A       		.uleb128 0xa
 394 016b AD010000 		.4byte	.LASF27
 395 016f 06       		.byte	0x6
 396 0170 A7       		.byte	0xa7
ARM GAS  C:\Users\Vergil\AppData\Local\Temp\ccRGsPif.s 			page 8


 397 0171 65000000 		.4byte	0x65
 398 0175 02       		.byte	0x2
 399 0176 23       		.byte	0x23
 400 0177 04       		.uleb128 0x4
 401 0178 0A       		.uleb128 0xa
 402 0179 E4000000 		.4byte	.LASF28
 403 017d 06       		.byte	0x6
 404 017e A9       		.byte	0xa9
 405 017f 65000000 		.4byte	0x65
 406 0183 02       		.byte	0x2
 407 0184 23       		.byte	0x23
 408 0185 08       		.uleb128 0x8
 409 0186 0A       		.uleb128 0xa
 410 0187 63020000 		.4byte	.LASF29
 411 018b 06       		.byte	0x6
 412 018c AB       		.byte	0xab
 413 018d 65000000 		.4byte	0x65
 414 0191 02       		.byte	0x2
 415 0192 23       		.byte	0x23
 416 0193 0C       		.uleb128 0xc
 417 0194 0B       		.uleb128 0xb
 418 0195 6F647200 		.ascii	"odr\000"
 419 0199 06       		.byte	0x6
 420 019a AD       		.byte	0xad
 421 019b 65000000 		.4byte	0x65
 422 019f 02       		.byte	0x2
 423 01a0 23       		.byte	0x23
 424 01a1 10       		.uleb128 0x10
 425 01a2 0A       		.uleb128 0xa
 426 01a3 75020000 		.4byte	.LASF30
 427 01a7 06       		.byte	0x6
 428 01a8 AF       		.byte	0xaf
 429 01a9 65000000 		.4byte	0x65
 430 01ad 02       		.byte	0x2
 431 01ae 23       		.byte	0x23
 432 01af 14       		.uleb128 0x14
 433 01b0 0A       		.uleb128 0xa
 434 01b1 70020000 		.4byte	.LASF31
 435 01b5 06       		.byte	0x6
 436 01b6 B1       		.byte	0xb1
 437 01b7 65000000 		.4byte	0x65
 438 01bb 02       		.byte	0x2
 439 01bc 23       		.byte	0x23
 440 01bd 18       		.uleb128 0x18
 441 01be 00       		.byte	0
 442 01bf 04       		.uleb128 0x4
 443 01c0 B4010000 		.4byte	.LASF32
 444 01c4 06       		.byte	0x6
 445 01c5 B2       		.byte	0xb2
 446 01c6 54010000 		.4byte	0x154
 447 01ca 09       		.uleb128 0x9
 448 01cb A8       		.byte	0xa8
 449 01cc 06       		.byte	0x6
 450 01cd BB       		.byte	0xbb
 451 01ce 28020000 		.4byte	0x228
 452 01d2 0A       		.uleb128 0xa
 453 01d3 B8000000 		.4byte	.LASF33
ARM GAS  C:\Users\Vergil\AppData\Local\Temp\ccRGsPif.s 			page 9


 454 01d7 06       		.byte	0x6
 455 01d8 BE       		.byte	0xbe
 456 01d9 BF010000 		.4byte	0x1bf
 457 01dd 02       		.byte	0x2
 458 01de 23       		.byte	0x23
 459 01df 00       		.uleb128 0
 460 01e0 0A       		.uleb128 0xa
 461 01e1 0B020000 		.4byte	.LASF34
 462 01e5 06       		.byte	0x6
 463 01e6 C2       		.byte	0xc2
 464 01e7 BF010000 		.4byte	0x1bf
 465 01eb 02       		.byte	0x2
 466 01ec 23       		.byte	0x23
 467 01ed 1C       		.uleb128 0x1c
 468 01ee 0A       		.uleb128 0xa
 469 01ef 2C010000 		.4byte	.LASF35
 470 01f3 06       		.byte	0x6
 471 01f4 C6       		.byte	0xc6
 472 01f5 BF010000 		.4byte	0x1bf
 473 01f9 02       		.byte	0x2
 474 01fa 23       		.byte	0x23
 475 01fb 38       		.uleb128 0x38
 476 01fc 0A       		.uleb128 0xa
 477 01fd F5000000 		.4byte	.LASF36
 478 0201 06       		.byte	0x6
 479 0202 CA       		.byte	0xca
 480 0203 BF010000 		.4byte	0x1bf
 481 0207 02       		.byte	0x2
 482 0208 23       		.byte	0x23
 483 0209 54       		.uleb128 0x54
 484 020a 0A       		.uleb128 0xa
 485 020b 20020000 		.4byte	.LASF37
 486 020f 06       		.byte	0x6
 487 0210 CE       		.byte	0xce
 488 0211 BF010000 		.4byte	0x1bf
 489 0215 02       		.byte	0x2
 490 0216 23       		.byte	0x23
 491 0217 70       		.uleb128 0x70
 492 0218 0A       		.uleb128 0xa
 493 0219 40020000 		.4byte	.LASF38
 494 021d 06       		.byte	0x6
 495 021e DA       		.byte	0xda
 496 021f BF010000 		.4byte	0x1bf
 497 0223 03       		.byte	0x3
 498 0224 23       		.byte	0x23
 499 0225 8C01     		.uleb128 0x8c
 500 0227 00       		.byte	0
 501 0228 04       		.uleb128 0x4
 502 0229 01020000 		.4byte	.LASF39
 503 022d 06       		.byte	0x6
 504 022e E0       		.byte	0xe0
 505 022f CA010000 		.4byte	0x1ca
 506 0233 0C       		.uleb128 0xc
 507 0234 01       		.byte	0x1
 508 0235 A1020000 		.4byte	.LASF58
 509 0239 01       		.byte	0x1
 510 023a AE       		.byte	0xae
ARM GAS  C:\Users\Vergil\AppData\Local\Temp\ccRGsPif.s 			page 10


 511 023b 01       		.byte	0x1
 512 023c 85000000 		.4byte	0x85
 513 0240 01       		.byte	0x1
 514 0241 67020000 		.4byte	0x267
 515 0245 0D       		.uleb128 0xd
 516 0246 D4010000 		.4byte	.LASF40
 517 024a 01       		.byte	0x1
 518 024b AE       		.byte	0xae
 519 024c 48010000 		.4byte	0x148
 520 0250 0E       		.uleb128 0xe
 521 0251 656E6400 		.ascii	"end\000"
 522 0255 01       		.byte	0x1
 523 0256 AE       		.byte	0xae
 524 0257 48010000 		.4byte	0x148
 525 025b 0F       		.uleb128 0xf
 526 025c 6E6F7700 		.ascii	"now\000"
 527 0260 01       		.byte	0x1
 528 0261 AF       		.byte	0xaf
 529 0262 48010000 		.4byte	0x148
 530 0266 00       		.byte	0
 531 0267 10       		.uleb128 0x10
 532 0268 01       		.byte	0x1
 533 0269 CD000000 		.4byte	.LASF41
 534 026d 01       		.byte	0x1
 535 026e 44       		.byte	0x44
 536 026f 01       		.byte	0x1
 537 0270 00000000 		.4byte	.LFB118
 538 0274 36000000 		.4byte	.LFE118
 539 0278 00000000 		.4byte	.LLST0
 540 027c 01       		.byte	0x1
 541 027d DD020000 		.4byte	0x2dd
 542 0281 11       		.uleb128 0x11
 543 0282 06000000 		.4byte	.LVL0
 544 0286 9B030000 		.4byte	0x39b
 545 028a 11       		.uleb128 0x11
 546 028b 0A000000 		.4byte	.LVL1
 547 028f A6030000 		.4byte	0x3a6
 548 0293 11       		.uleb128 0x11
 549 0294 16000000 		.4byte	.LVL2
 550 0298 B0030000 		.4byte	0x3b0
 551 029c 11       		.uleb128 0x11
 552 029d 1A000000 		.4byte	.LVL3
 553 02a1 CB030000 		.4byte	0x3cb
 554 02a5 11       		.uleb128 0x11
 555 02a6 1E000000 		.4byte	.LVL4
 556 02aa D5030000 		.4byte	0x3d5
 557 02ae 11       		.uleb128 0x11
 558 02af 22000000 		.4byte	.LVL5
 559 02b3 DF030000 		.4byte	0x3df
 560 02b7 11       		.uleb128 0x11
 561 02b8 26000000 		.4byte	.LVL6
 562 02bc E9030000 		.4byte	0x3e9
 563 02c0 11       		.uleb128 0x11
 564 02c1 2A000000 		.4byte	.LVL7
 565 02c5 F4030000 		.4byte	0x3f4
 566 02c9 11       		.uleb128 0x11
 567 02ca 2E000000 		.4byte	.LVL8
ARM GAS  C:\Users\Vergil\AppData\Local\Temp\ccRGsPif.s 			page 11


 568 02ce FF030000 		.4byte	0x3ff
 569 02d2 12       		.uleb128 0x12
 570 02d3 36000000 		.4byte	.LVL9
 571 02d7 01       		.byte	0x1
 572 02d8 09040000 		.4byte	0x409
 573 02dc 00       		.byte	0
 574 02dd 13       		.uleb128 0x13
 575 02de 33020000 		.4byte	0x233
 576 02e2 00000000 		.4byte	.LFB119
 577 02e6 28000000 		.4byte	.LFE119
 578 02ea 02       		.byte	0x2
 579 02eb 7D       		.byte	0x7d
 580 02ec 00       		.sleb128 0
 581 02ed 01       		.byte	0x1
 582 02ee 0A030000 		.4byte	0x30a
 583 02f2 14       		.uleb128 0x14
 584 02f3 45020000 		.4byte	0x245
 585 02f7 20000000 		.4byte	.LLST1
 586 02fb 15       		.uleb128 0x15
 587 02fc 50020000 		.4byte	0x250
 588 0300 01       		.byte	0x1
 589 0301 51       		.byte	0x51
 590 0302 16       		.uleb128 0x16
 591 0303 5B020000 		.4byte	0x25b
 592 0307 01       		.byte	0x1
 593 0308 52       		.byte	0x52
 594 0309 00       		.byte	0
 595 030a 17       		.uleb128 0x17
 596 030b 01       		.byte	0x1
 597 030c FC000000 		.4byte	.LASF42
 598 0310 01       		.byte	0x1
 599 0311 C1       		.byte	0xc1
 600 0312 01       		.byte	0x1
 601 0313 00000000 		.4byte	.LFB120
 602 0317 2C000000 		.4byte	.LFE120
 603 031b 02       		.byte	0x2
 604 031c 7D       		.byte	0x7d
 605 031d 00       		.sleb128 0
 606 031e 01       		.byte	0x1
 607 031f 7A030000 		.4byte	0x37a
 608 0323 18       		.uleb128 0x18
 609 0324 00000000 		.4byte	.LASF59
 610 0328 01       		.byte	0x1
 611 0329 C1       		.byte	0xc1
 612 032a 48010000 		.4byte	0x148
 613 032e 73000000 		.4byte	.LLST2
 614 0332 19       		.uleb128 0x19
 615 0333 D4010000 		.4byte	.LASF40
 616 0337 01       		.byte	0x1
 617 0338 C2       		.byte	0xc2
 618 0339 48010000 		.4byte	0x148
 619 033d 01       		.byte	0x1
 620 033e 52       		.byte	0x52
 621 033f 19       		.uleb128 0x19
 622 0340 BB020000 		.4byte	.LASF43
 623 0344 01       		.byte	0x1
 624 0345 C3       		.byte	0xc3
ARM GAS  C:\Users\Vergil\AppData\Local\Temp\ccRGsPif.s 			page 12


 625 0346 48010000 		.4byte	0x148
 626 034a 01       		.byte	0x1
 627 034b 50       		.byte	0x50
 628 034c 1A       		.uleb128 0x1a
 629 034d 33020000 		.4byte	0x233
 630 0351 08000000 		.4byte	.LBB4
 631 0355 00000000 		.4byte	.Ldebug_ranges0+0
 632 0359 01       		.byte	0x1
 633 035a C4       		.byte	0xc4
 634 035b 15       		.uleb128 0x15
 635 035c 50020000 		.4byte	0x250
 636 0360 01       		.byte	0x1
 637 0361 50       		.byte	0x50
 638 0362 15       		.uleb128 0x15
 639 0363 45020000 		.4byte	0x245
 640 0367 01       		.byte	0x1
 641 0368 52       		.byte	0x52
 642 0369 1B       		.uleb128 0x1b
 643 036a 18000000 		.4byte	.Ldebug_ranges0+0x18
 644 036e 1C       		.uleb128 0x1c
 645 036f 5B020000 		.4byte	0x25b
 646 0373 94000000 		.4byte	.LLST3
 647 0377 00       		.byte	0
 648 0378 00       		.byte	0
 649 0379 00       		.byte	0
 650 037a 1D       		.uleb128 0x1d
 651 037b 80020000 		.4byte	.LASF44
 652 037f 07       		.byte	0x7
 653 0380 9806     		.2byte	0x698
 654 0382 43010000 		.4byte	0x143
 655 0386 01       		.byte	0x1
 656 0387 01       		.byte	0x1
 657 0388 1D       		.uleb128 0x1d
 658 0389 1C000000 		.4byte	.LASF45
 659 038d 06       		.byte	0x6
 660 038e BC01     		.2byte	0x1bc
 661 0390 96030000 		.4byte	0x396
 662 0394 01       		.byte	0x1
 663 0395 01       		.byte	0x1
 664 0396 1E       		.uleb128 0x1e
 665 0397 28020000 		.4byte	0x228
 666 039b 1F       		.uleb128 0x1f
 667 039c 01       		.byte	0x1
 668 039d C7010000 		.4byte	.LASF46
 669 03a1 05       		.byte	0x5
 670 03a2 E906     		.2byte	0x6e9
 671 03a4 01       		.byte	0x1
 672 03a5 01       		.byte	0x1
 673 03a6 20       		.uleb128 0x20
 674 03a7 01       		.byte	0x1
 675 03a8 8D020000 		.4byte	.LASF47
 676 03ac 08       		.byte	0x8
 677 03ad 73       		.byte	0x73
 678 03ae 01       		.byte	0x1
 679 03af 01       		.byte	0x1
 680 03b0 21       		.uleb128 0x21
 681 03b1 01       		.byte	0x1
ARM GAS  C:\Users\Vergil\AppData\Local\Temp\ccRGsPif.s 			page 13


 682 03b2 0E000000 		.4byte	.LASF60
 683 03b6 06       		.byte	0x6
 684 03b7 C101     		.2byte	0x1c1
 685 03b9 01       		.byte	0x1
 686 03ba 01       		.byte	0x1
 687 03bb C5030000 		.4byte	0x3c5
 688 03bf 22       		.uleb128 0x22
 689 03c0 C5030000 		.4byte	0x3c5
 690 03c4 00       		.byte	0
 691 03c5 23       		.uleb128 0x23
 692 03c6 04       		.byte	0x4
 693 03c7 96030000 		.4byte	0x396
 694 03cb 20       		.uleb128 0x20
 695 03cc 01       		.byte	0x1
 696 03cd DC000000 		.4byte	.LASF48
 697 03d1 09       		.byte	0x9
 698 03d2 90       		.byte	0x90
 699 03d3 01       		.byte	0x1
 700 03d4 01       		.byte	0x1
 701 03d5 20       		.uleb128 0x20
 702 03d6 01       		.byte	0x1
 703 03d7 41010000 		.4byte	.LASF49
 704 03db 0A       		.byte	0xa
 705 03dc 6E       		.byte	0x6e
 706 03dd 01       		.byte	0x1
 707 03de 01       		.byte	0x1
 708 03df 20       		.uleb128 0x20
 709 03e0 01       		.byte	0x1
 710 03e1 06000000 		.4byte	.LASF50
 711 03e5 0B       		.byte	0xb
 712 03e6 7F       		.byte	0x7f
 713 03e7 01       		.byte	0x1
 714 03e8 01       		.byte	0x1
 715 03e9 1F       		.uleb128 0x1f
 716 03ea 01       		.byte	0x1
 717 03eb A9000000 		.4byte	.LASF51
 718 03ef 0C       		.byte	0xc
 719 03f0 3501     		.2byte	0x135
 720 03f2 01       		.byte	0x1
 721 03f3 01       		.byte	0x1
 722 03f4 1F       		.uleb128 0x1f
 723 03f5 01       		.byte	0x1
 724 03f6 98000000 		.4byte	.LASF52
 725 03fa 0D       		.byte	0xd
 726 03fb 2E01     		.2byte	0x12e
 727 03fd 01       		.byte	0x1
 728 03fe 01       		.byte	0x1
 729 03ff 20       		.uleb128 0x20
 730 0400 01       		.byte	0x1
 731 0401 5B020000 		.4byte	.LASF53
 732 0405 0E       		.byte	0xe
 733 0406 B5       		.byte	0xb5
 734 0407 01       		.byte	0x1
 735 0408 01       		.byte	0x1
 736 0409 1F       		.uleb128 0x1f
 737 040a 01       		.byte	0x1
 738 040b 22010000 		.4byte	.LASF54
ARM GAS  C:\Users\Vergil\AppData\Local\Temp\ccRGsPif.s 			page 14


 739 040f 0F       		.byte	0xf
 740 0410 0B05     		.2byte	0x50b
 741 0412 01       		.byte	0x1
 742 0413 01       		.byte	0x1
 743 0414 00       		.byte	0
 744              		.section	.debug_abbrev,"",%progbits
 745              	.Ldebug_abbrev0:
 746 0000 01       		.uleb128 0x1
 747 0001 11       		.uleb128 0x11
 748 0002 01       		.byte	0x1
 749 0003 25       		.uleb128 0x25
 750 0004 0E       		.uleb128 0xe
 751 0005 13       		.uleb128 0x13
 752 0006 0B       		.uleb128 0xb
 753 0007 03       		.uleb128 0x3
 754 0008 0E       		.uleb128 0xe
 755 0009 1B       		.uleb128 0x1b
 756 000a 0E       		.uleb128 0xe
 757 000b 55       		.uleb128 0x55
 758 000c 06       		.uleb128 0x6
 759 000d 11       		.uleb128 0x11
 760 000e 01       		.uleb128 0x1
 761 000f 52       		.uleb128 0x52
 762 0010 01       		.uleb128 0x1
 763 0011 10       		.uleb128 0x10
 764 0012 06       		.uleb128 0x6
 765 0013 00       		.byte	0
 766 0014 00       		.byte	0
 767 0015 02       		.uleb128 0x2
 768 0016 24       		.uleb128 0x24
 769 0017 00       		.byte	0
 770 0018 0B       		.uleb128 0xb
 771 0019 0B       		.uleb128 0xb
 772 001a 3E       		.uleb128 0x3e
 773 001b 0B       		.uleb128 0xb
 774 001c 03       		.uleb128 0x3
 775 001d 08       		.uleb128 0x8
 776 001e 00       		.byte	0
 777 001f 00       		.byte	0
 778 0020 03       		.uleb128 0x3
 779 0021 24       		.uleb128 0x24
 780 0022 00       		.byte	0
 781 0023 0B       		.uleb128 0xb
 782 0024 0B       		.uleb128 0xb
 783 0025 3E       		.uleb128 0x3e
 784 0026 0B       		.uleb128 0xb
 785 0027 03       		.uleb128 0x3
 786 0028 0E       		.uleb128 0xe
 787 0029 00       		.byte	0
 788 002a 00       		.byte	0
 789 002b 04       		.uleb128 0x4
 790 002c 16       		.uleb128 0x16
 791 002d 00       		.byte	0
 792 002e 03       		.uleb128 0x3
 793 002f 0E       		.uleb128 0xe
 794 0030 3A       		.uleb128 0x3a
 795 0031 0B       		.uleb128 0xb
ARM GAS  C:\Users\Vergil\AppData\Local\Temp\ccRGsPif.s 			page 15


 796 0032 3B       		.uleb128 0x3b
 797 0033 0B       		.uleb128 0xb
 798 0034 49       		.uleb128 0x49
 799 0035 13       		.uleb128 0x13
 800 0036 00       		.byte	0
 801 0037 00       		.byte	0
 802 0038 05       		.uleb128 0x5
 803 0039 35       		.uleb128 0x35
 804 003a 00       		.byte	0
 805 003b 49       		.uleb128 0x49
 806 003c 13       		.uleb128 0x13
 807 003d 00       		.byte	0
 808 003e 00       		.byte	0
 809 003f 06       		.uleb128 0x6
 810 0040 13       		.uleb128 0x13
 811 0041 01       		.byte	0x1
 812 0042 0B       		.uleb128 0xb
 813 0043 0B       		.uleb128 0xb
 814 0044 3A       		.uleb128 0x3a
 815 0045 0B       		.uleb128 0xb
 816 0046 3B       		.uleb128 0x3b
 817 0047 05       		.uleb128 0x5
 818 0048 01       		.uleb128 0x1
 819 0049 13       		.uleb128 0x13
 820 004a 00       		.byte	0
 821 004b 00       		.byte	0
 822 004c 07       		.uleb128 0x7
 823 004d 0D       		.uleb128 0xd
 824 004e 00       		.byte	0
 825 004f 03       		.uleb128 0x3
 826 0050 0E       		.uleb128 0xe
 827 0051 3A       		.uleb128 0x3a
 828 0052 0B       		.uleb128 0xb
 829 0053 3B       		.uleb128 0x3b
 830 0054 05       		.uleb128 0x5
 831 0055 49       		.uleb128 0x49
 832 0056 13       		.uleb128 0x13
 833 0057 38       		.uleb128 0x38
 834 0058 0A       		.uleb128 0xa
 835 0059 00       		.byte	0
 836 005a 00       		.byte	0
 837 005b 08       		.uleb128 0x8
 838 005c 16       		.uleb128 0x16
 839 005d 00       		.byte	0
 840 005e 03       		.uleb128 0x3
 841 005f 0E       		.uleb128 0xe
 842 0060 3A       		.uleb128 0x3a
 843 0061 0B       		.uleb128 0xb
 844 0062 3B       		.uleb128 0x3b
 845 0063 05       		.uleb128 0x5
 846 0064 49       		.uleb128 0x49
 847 0065 13       		.uleb128 0x13
 848 0066 00       		.byte	0
 849 0067 00       		.byte	0
 850 0068 09       		.uleb128 0x9
 851 0069 13       		.uleb128 0x13
 852 006a 01       		.byte	0x1
ARM GAS  C:\Users\Vergil\AppData\Local\Temp\ccRGsPif.s 			page 16


 853 006b 0B       		.uleb128 0xb
 854 006c 0B       		.uleb128 0xb
 855 006d 3A       		.uleb128 0x3a
 856 006e 0B       		.uleb128 0xb
 857 006f 3B       		.uleb128 0x3b
 858 0070 0B       		.uleb128 0xb
 859 0071 01       		.uleb128 0x1
 860 0072 13       		.uleb128 0x13
 861 0073 00       		.byte	0
 862 0074 00       		.byte	0
 863 0075 0A       		.uleb128 0xa
 864 0076 0D       		.uleb128 0xd
 865 0077 00       		.byte	0
 866 0078 03       		.uleb128 0x3
 867 0079 0E       		.uleb128 0xe
 868 007a 3A       		.uleb128 0x3a
 869 007b 0B       		.uleb128 0xb
 870 007c 3B       		.uleb128 0x3b
 871 007d 0B       		.uleb128 0xb
 872 007e 49       		.uleb128 0x49
 873 007f 13       		.uleb128 0x13
 874 0080 38       		.uleb128 0x38
 875 0081 0A       		.uleb128 0xa
 876 0082 00       		.byte	0
 877 0083 00       		.byte	0
 878 0084 0B       		.uleb128 0xb
 879 0085 0D       		.uleb128 0xd
 880 0086 00       		.byte	0
 881 0087 03       		.uleb128 0x3
 882 0088 08       		.uleb128 0x8
 883 0089 3A       		.uleb128 0x3a
 884 008a 0B       		.uleb128 0xb
 885 008b 3B       		.uleb128 0x3b
 886 008c 0B       		.uleb128 0xb
 887 008d 49       		.uleb128 0x49
 888 008e 13       		.uleb128 0x13
 889 008f 38       		.uleb128 0x38
 890 0090 0A       		.uleb128 0xa
 891 0091 00       		.byte	0
 892 0092 00       		.byte	0
 893 0093 0C       		.uleb128 0xc
 894 0094 2E       		.uleb128 0x2e
 895 0095 01       		.byte	0x1
 896 0096 3F       		.uleb128 0x3f
 897 0097 0C       		.uleb128 0xc
 898 0098 03       		.uleb128 0x3
 899 0099 0E       		.uleb128 0xe
 900 009a 3A       		.uleb128 0x3a
 901 009b 0B       		.uleb128 0xb
 902 009c 3B       		.uleb128 0x3b
 903 009d 0B       		.uleb128 0xb
 904 009e 27       		.uleb128 0x27
 905 009f 0C       		.uleb128 0xc
 906 00a0 49       		.uleb128 0x49
 907 00a1 13       		.uleb128 0x13
 908 00a2 20       		.uleb128 0x20
 909 00a3 0B       		.uleb128 0xb
ARM GAS  C:\Users\Vergil\AppData\Local\Temp\ccRGsPif.s 			page 17


 910 00a4 01       		.uleb128 0x1
 911 00a5 13       		.uleb128 0x13
 912 00a6 00       		.byte	0
 913 00a7 00       		.byte	0
 914 00a8 0D       		.uleb128 0xd
 915 00a9 05       		.uleb128 0x5
 916 00aa 00       		.byte	0
 917 00ab 03       		.uleb128 0x3
 918 00ac 0E       		.uleb128 0xe
 919 00ad 3A       		.uleb128 0x3a
 920 00ae 0B       		.uleb128 0xb
 921 00af 3B       		.uleb128 0x3b
 922 00b0 0B       		.uleb128 0xb
 923 00b1 49       		.uleb128 0x49
 924 00b2 13       		.uleb128 0x13
 925 00b3 00       		.byte	0
 926 00b4 00       		.byte	0
 927 00b5 0E       		.uleb128 0xe
 928 00b6 05       		.uleb128 0x5
 929 00b7 00       		.byte	0
 930 00b8 03       		.uleb128 0x3
 931 00b9 08       		.uleb128 0x8
 932 00ba 3A       		.uleb128 0x3a
 933 00bb 0B       		.uleb128 0xb
 934 00bc 3B       		.uleb128 0x3b
 935 00bd 0B       		.uleb128 0xb
 936 00be 49       		.uleb128 0x49
 937 00bf 13       		.uleb128 0x13
 938 00c0 00       		.byte	0
 939 00c1 00       		.byte	0
 940 00c2 0F       		.uleb128 0xf
 941 00c3 34       		.uleb128 0x34
 942 00c4 00       		.byte	0
 943 00c5 03       		.uleb128 0x3
 944 00c6 08       		.uleb128 0x8
 945 00c7 3A       		.uleb128 0x3a
 946 00c8 0B       		.uleb128 0xb
 947 00c9 3B       		.uleb128 0x3b
 948 00ca 0B       		.uleb128 0xb
 949 00cb 49       		.uleb128 0x49
 950 00cc 13       		.uleb128 0x13
 951 00cd 00       		.byte	0
 952 00ce 00       		.byte	0
 953 00cf 10       		.uleb128 0x10
 954 00d0 2E       		.uleb128 0x2e
 955 00d1 01       		.byte	0x1
 956 00d2 3F       		.uleb128 0x3f
 957 00d3 0C       		.uleb128 0xc
 958 00d4 03       		.uleb128 0x3
 959 00d5 0E       		.uleb128 0xe
 960 00d6 3A       		.uleb128 0x3a
 961 00d7 0B       		.uleb128 0xb
 962 00d8 3B       		.uleb128 0x3b
 963 00d9 0B       		.uleb128 0xb
 964 00da 27       		.uleb128 0x27
 965 00db 0C       		.uleb128 0xc
 966 00dc 11       		.uleb128 0x11
ARM GAS  C:\Users\Vergil\AppData\Local\Temp\ccRGsPif.s 			page 18


 967 00dd 01       		.uleb128 0x1
 968 00de 12       		.uleb128 0x12
 969 00df 01       		.uleb128 0x1
 970 00e0 40       		.uleb128 0x40
 971 00e1 06       		.uleb128 0x6
 972 00e2 9742     		.uleb128 0x2117
 973 00e4 0C       		.uleb128 0xc
 974 00e5 01       		.uleb128 0x1
 975 00e6 13       		.uleb128 0x13
 976 00e7 00       		.byte	0
 977 00e8 00       		.byte	0
 978 00e9 11       		.uleb128 0x11
 979 00ea 898201   		.uleb128 0x4109
 980 00ed 00       		.byte	0
 981 00ee 11       		.uleb128 0x11
 982 00ef 01       		.uleb128 0x1
 983 00f0 31       		.uleb128 0x31
 984 00f1 13       		.uleb128 0x13
 985 00f2 00       		.byte	0
 986 00f3 00       		.byte	0
 987 00f4 12       		.uleb128 0x12
 988 00f5 898201   		.uleb128 0x4109
 989 00f8 00       		.byte	0
 990 00f9 11       		.uleb128 0x11
 991 00fa 01       		.uleb128 0x1
 992 00fb 9542     		.uleb128 0x2115
 993 00fd 0C       		.uleb128 0xc
 994 00fe 31       		.uleb128 0x31
 995 00ff 13       		.uleb128 0x13
 996 0100 00       		.byte	0
 997 0101 00       		.byte	0
 998 0102 13       		.uleb128 0x13
 999 0103 2E       		.uleb128 0x2e
 1000 0104 01       		.byte	0x1
 1001 0105 31       		.uleb128 0x31
 1002 0106 13       		.uleb128 0x13
 1003 0107 11       		.uleb128 0x11
 1004 0108 01       		.uleb128 0x1
 1005 0109 12       		.uleb128 0x12
 1006 010a 01       		.uleb128 0x1
 1007 010b 40       		.uleb128 0x40
 1008 010c 0A       		.uleb128 0xa
 1009 010d 9742     		.uleb128 0x2117
 1010 010f 0C       		.uleb128 0xc
 1011 0110 01       		.uleb128 0x1
 1012 0111 13       		.uleb128 0x13
 1013 0112 00       		.byte	0
 1014 0113 00       		.byte	0
 1015 0114 14       		.uleb128 0x14
 1016 0115 05       		.uleb128 0x5
 1017 0116 00       		.byte	0
 1018 0117 31       		.uleb128 0x31
 1019 0118 13       		.uleb128 0x13
 1020 0119 02       		.uleb128 0x2
 1021 011a 06       		.uleb128 0x6
 1022 011b 00       		.byte	0
 1023 011c 00       		.byte	0
ARM GAS  C:\Users\Vergil\AppData\Local\Temp\ccRGsPif.s 			page 19


 1024 011d 15       		.uleb128 0x15
 1025 011e 05       		.uleb128 0x5
 1026 011f 00       		.byte	0
 1027 0120 31       		.uleb128 0x31
 1028 0121 13       		.uleb128 0x13
 1029 0122 02       		.uleb128 0x2
 1030 0123 0A       		.uleb128 0xa
 1031 0124 00       		.byte	0
 1032 0125 00       		.byte	0
 1033 0126 16       		.uleb128 0x16
 1034 0127 34       		.uleb128 0x34
 1035 0128 00       		.byte	0
 1036 0129 31       		.uleb128 0x31
 1037 012a 13       		.uleb128 0x13
 1038 012b 02       		.uleb128 0x2
 1039 012c 0A       		.uleb128 0xa
 1040 012d 00       		.byte	0
 1041 012e 00       		.byte	0
 1042 012f 17       		.uleb128 0x17
 1043 0130 2E       		.uleb128 0x2e
 1044 0131 01       		.byte	0x1
 1045 0132 3F       		.uleb128 0x3f
 1046 0133 0C       		.uleb128 0xc
 1047 0134 03       		.uleb128 0x3
 1048 0135 0E       		.uleb128 0xe
 1049 0136 3A       		.uleb128 0x3a
 1050 0137 0B       		.uleb128 0xb
 1051 0138 3B       		.uleb128 0x3b
 1052 0139 0B       		.uleb128 0xb
 1053 013a 27       		.uleb128 0x27
 1054 013b 0C       		.uleb128 0xc
 1055 013c 11       		.uleb128 0x11
 1056 013d 01       		.uleb128 0x1
 1057 013e 12       		.uleb128 0x12
 1058 013f 01       		.uleb128 0x1
 1059 0140 40       		.uleb128 0x40
 1060 0141 0A       		.uleb128 0xa
 1061 0142 9742     		.uleb128 0x2117
 1062 0144 0C       		.uleb128 0xc
 1063 0145 01       		.uleb128 0x1
 1064 0146 13       		.uleb128 0x13
 1065 0147 00       		.byte	0
 1066 0148 00       		.byte	0
 1067 0149 18       		.uleb128 0x18
 1068 014a 05       		.uleb128 0x5
 1069 014b 00       		.byte	0
 1070 014c 03       		.uleb128 0x3
 1071 014d 0E       		.uleb128 0xe
 1072 014e 3A       		.uleb128 0x3a
 1073 014f 0B       		.uleb128 0xb
 1074 0150 3B       		.uleb128 0x3b
 1075 0151 0B       		.uleb128 0xb
 1076 0152 49       		.uleb128 0x49
 1077 0153 13       		.uleb128 0x13
 1078 0154 02       		.uleb128 0x2
 1079 0155 06       		.uleb128 0x6
 1080 0156 00       		.byte	0
ARM GAS  C:\Users\Vergil\AppData\Local\Temp\ccRGsPif.s 			page 20


 1081 0157 00       		.byte	0
 1082 0158 19       		.uleb128 0x19
 1083 0159 34       		.uleb128 0x34
 1084 015a 00       		.byte	0
 1085 015b 03       		.uleb128 0x3
 1086 015c 0E       		.uleb128 0xe
 1087 015d 3A       		.uleb128 0x3a
 1088 015e 0B       		.uleb128 0xb
 1089 015f 3B       		.uleb128 0x3b
 1090 0160 0B       		.uleb128 0xb
 1091 0161 49       		.uleb128 0x49
 1092 0162 13       		.uleb128 0x13
 1093 0163 02       		.uleb128 0x2
 1094 0164 0A       		.uleb128 0xa
 1095 0165 00       		.byte	0
 1096 0166 00       		.byte	0
 1097 0167 1A       		.uleb128 0x1a
 1098 0168 1D       		.uleb128 0x1d
 1099 0169 01       		.byte	0x1
 1100 016a 31       		.uleb128 0x31
 1101 016b 13       		.uleb128 0x13
 1102 016c 52       		.uleb128 0x52
 1103 016d 01       		.uleb128 0x1
 1104 016e 55       		.uleb128 0x55
 1105 016f 06       		.uleb128 0x6
 1106 0170 58       		.uleb128 0x58
 1107 0171 0B       		.uleb128 0xb
 1108 0172 59       		.uleb128 0x59
 1109 0173 0B       		.uleb128 0xb
 1110 0174 00       		.byte	0
 1111 0175 00       		.byte	0
 1112 0176 1B       		.uleb128 0x1b
 1113 0177 0B       		.uleb128 0xb
 1114 0178 01       		.byte	0x1
 1115 0179 55       		.uleb128 0x55
 1116 017a 06       		.uleb128 0x6
 1117 017b 00       		.byte	0
 1118 017c 00       		.byte	0
 1119 017d 1C       		.uleb128 0x1c
 1120 017e 34       		.uleb128 0x34
 1121 017f 00       		.byte	0
 1122 0180 31       		.uleb128 0x31
 1123 0181 13       		.uleb128 0x13
 1124 0182 02       		.uleb128 0x2
 1125 0183 06       		.uleb128 0x6
 1126 0184 00       		.byte	0
 1127 0185 00       		.byte	0
 1128 0186 1D       		.uleb128 0x1d
 1129 0187 34       		.uleb128 0x34
 1130 0188 00       		.byte	0
 1131 0189 03       		.uleb128 0x3
 1132 018a 0E       		.uleb128 0xe
 1133 018b 3A       		.uleb128 0x3a
 1134 018c 0B       		.uleb128 0xb
 1135 018d 3B       		.uleb128 0x3b
 1136 018e 05       		.uleb128 0x5
 1137 018f 49       		.uleb128 0x49
ARM GAS  C:\Users\Vergil\AppData\Local\Temp\ccRGsPif.s 			page 21


 1138 0190 13       		.uleb128 0x13
 1139 0191 3F       		.uleb128 0x3f
 1140 0192 0C       		.uleb128 0xc
 1141 0193 3C       		.uleb128 0x3c
 1142 0194 0C       		.uleb128 0xc
 1143 0195 00       		.byte	0
 1144 0196 00       		.byte	0
 1145 0197 1E       		.uleb128 0x1e
 1146 0198 26       		.uleb128 0x26
 1147 0199 00       		.byte	0
 1148 019a 49       		.uleb128 0x49
 1149 019b 13       		.uleb128 0x13
 1150 019c 00       		.byte	0
 1151 019d 00       		.byte	0
 1152 019e 1F       		.uleb128 0x1f
 1153 019f 2E       		.uleb128 0x2e
 1154 01a0 00       		.byte	0
 1155 01a1 3F       		.uleb128 0x3f
 1156 01a2 0C       		.uleb128 0xc
 1157 01a3 03       		.uleb128 0x3
 1158 01a4 0E       		.uleb128 0xe
 1159 01a5 3A       		.uleb128 0x3a
 1160 01a6 0B       		.uleb128 0xb
 1161 01a7 3B       		.uleb128 0x3b
 1162 01a8 05       		.uleb128 0x5
 1163 01a9 27       		.uleb128 0x27
 1164 01aa 0C       		.uleb128 0xc
 1165 01ab 3C       		.uleb128 0x3c
 1166 01ac 0C       		.uleb128 0xc
 1167 01ad 00       		.byte	0
 1168 01ae 00       		.byte	0
 1169 01af 20       		.uleb128 0x20
 1170 01b0 2E       		.uleb128 0x2e
 1171 01b1 00       		.byte	0
 1172 01b2 3F       		.uleb128 0x3f
 1173 01b3 0C       		.uleb128 0xc
 1174 01b4 03       		.uleb128 0x3
 1175 01b5 0E       		.uleb128 0xe
 1176 01b6 3A       		.uleb128 0x3a
 1177 01b7 0B       		.uleb128 0xb
 1178 01b8 3B       		.uleb128 0x3b
 1179 01b9 0B       		.uleb128 0xb
 1180 01ba 27       		.uleb128 0x27
 1181 01bb 0C       		.uleb128 0xc
 1182 01bc 3C       		.uleb128 0x3c
 1183 01bd 0C       		.uleb128 0xc
 1184 01be 00       		.byte	0
 1185 01bf 00       		.byte	0
 1186 01c0 21       		.uleb128 0x21
 1187 01c1 2E       		.uleb128 0x2e
 1188 01c2 01       		.byte	0x1
 1189 01c3 3F       		.uleb128 0x3f
 1190 01c4 0C       		.uleb128 0xc
 1191 01c5 03       		.uleb128 0x3
 1192 01c6 0E       		.uleb128 0xe
 1193 01c7 3A       		.uleb128 0x3a
 1194 01c8 0B       		.uleb128 0xb
ARM GAS  C:\Users\Vergil\AppData\Local\Temp\ccRGsPif.s 			page 22


 1195 01c9 3B       		.uleb128 0x3b
 1196 01ca 05       		.uleb128 0x5
 1197 01cb 27       		.uleb128 0x27
 1198 01cc 0C       		.uleb128 0xc
 1199 01cd 3C       		.uleb128 0x3c
 1200 01ce 0C       		.uleb128 0xc
 1201 01cf 01       		.uleb128 0x1
 1202 01d0 13       		.uleb128 0x13
 1203 01d1 00       		.byte	0
 1204 01d2 00       		.byte	0
 1205 01d3 22       		.uleb128 0x22
 1206 01d4 05       		.uleb128 0x5
 1207 01d5 00       		.byte	0
 1208 01d6 49       		.uleb128 0x49
 1209 01d7 13       		.uleb128 0x13
 1210 01d8 00       		.byte	0
 1211 01d9 00       		.byte	0
 1212 01da 23       		.uleb128 0x23
 1213 01db 0F       		.uleb128 0xf
 1214 01dc 00       		.byte	0
 1215 01dd 0B       		.uleb128 0xb
 1216 01de 0B       		.uleb128 0xb
 1217 01df 49       		.uleb128 0x49
 1218 01e0 13       		.uleb128 0x13
 1219 01e1 00       		.byte	0
 1220 01e2 00       		.byte	0
 1221 01e3 00       		.byte	0
 1222              		.section	.debug_loc,"",%progbits
 1223              	.Ldebug_loc0:
 1224              	.LLST0:
 1225 0000 00000000 		.4byte	.LFB118
 1226 0004 02000000 		.4byte	.LCFI0
 1227 0008 0200     		.2byte	0x2
 1228 000a 7D       		.byte	0x7d
 1229 000b 00       		.sleb128 0
 1230 000c 02000000 		.4byte	.LCFI0
 1231 0010 36000000 		.4byte	.LFE118
 1232 0014 0200     		.2byte	0x2
 1233 0016 7D       		.byte	0x7d
 1234 0017 08       		.sleb128 8
 1235 0018 00000000 		.4byte	0
 1236 001c 00000000 		.4byte	0
 1237              	.LLST1:
 1238 0020 00000000 		.4byte	.LVL10
 1239 0024 18000000 		.4byte	.LVL12
 1240 0028 0100     		.2byte	0x1
 1241 002a 50       		.byte	0x50
 1242 002b 18000000 		.4byte	.LVL12
 1243 002f 1C000000 		.4byte	.LVL13
 1244 0033 0400     		.2byte	0x4
 1245 0035 F3       		.byte	0xf3
 1246 0036 01       		.uleb128 0x1
 1247 0037 50       		.byte	0x50
 1248 0038 9F       		.byte	0x9f
 1249 0039 1C000000 		.4byte	.LVL13
 1250 003d 22000000 		.4byte	.LVL14
 1251 0041 0100     		.2byte	0x1
ARM GAS  C:\Users\Vergil\AppData\Local\Temp\ccRGsPif.s 			page 23


 1252 0043 50       		.byte	0x50
 1253 0044 22000000 		.4byte	.LVL14
 1254 0048 24000000 		.4byte	.LVL15
 1255 004c 0400     		.2byte	0x4
 1256 004e F3       		.byte	0xf3
 1257 004f 01       		.uleb128 0x1
 1258 0050 50       		.byte	0x50
 1259 0051 9F       		.byte	0x9f
 1260 0052 24000000 		.4byte	.LVL15
 1261 0056 26000000 		.4byte	.LVL16
 1262 005a 0100     		.2byte	0x1
 1263 005c 50       		.byte	0x50
 1264 005d 26000000 		.4byte	.LVL16
 1265 0061 28000000 		.4byte	.LFE119
 1266 0065 0400     		.2byte	0x4
 1267 0067 F3       		.byte	0xf3
 1268 0068 01       		.uleb128 0x1
 1269 0069 50       		.byte	0x50
 1270 006a 9F       		.byte	0x9f
 1271 006b 00000000 		.4byte	0
 1272 006f 00000000 		.4byte	0
 1273              	.LLST2:
 1274 0073 00000000 		.4byte	.LVL17
 1275 0077 0E000000 		.4byte	.LVL19
 1276 007b 0100     		.2byte	0x1
 1277 007d 50       		.byte	0x50
 1278 007e 0E000000 		.4byte	.LVL19
 1279 0082 2C000000 		.4byte	.LFE120
 1280 0086 0400     		.2byte	0x4
 1281 0088 F3       		.byte	0xf3
 1282 0089 01       		.uleb128 0x1
 1283 008a 50       		.byte	0x50
 1284 008b 9F       		.byte	0x9f
 1285 008c 00000000 		.4byte	0
 1286 0090 00000000 		.4byte	0
 1287              	.LLST3:
 1288 0094 12000000 		.4byte	.LVL20
 1289 0098 24000000 		.4byte	.LVL21
 1290 009c 0100     		.2byte	0x1
 1291 009e 53       		.byte	0x53
 1292 009f 00000000 		.4byte	0
 1293 00a3 00000000 		.4byte	0
 1294              		.section	.debug_aranges,"",%progbits
 1295 0000 2C000000 		.4byte	0x2c
 1296 0004 0200     		.2byte	0x2
 1297 0006 00000000 		.4byte	.Ldebug_info0
 1298 000a 04       		.byte	0x4
 1299 000b 00       		.byte	0
 1300 000c 0000     		.2byte	0
 1301 000e 0000     		.2byte	0
 1302 0010 00000000 		.4byte	.LFB118
 1303 0014 36000000 		.4byte	.LFE118-.LFB118
 1304 0018 00000000 		.4byte	.LFB119
 1305 001c 28000000 		.4byte	.LFE119-.LFB119
 1306 0020 00000000 		.4byte	.LFB120
 1307 0024 2C000000 		.4byte	.LFE120-.LFB120
 1308 0028 00000000 		.4byte	0
ARM GAS  C:\Users\Vergil\AppData\Local\Temp\ccRGsPif.s 			page 24


 1309 002c 00000000 		.4byte	0
 1310              		.section	.debug_ranges,"",%progbits
 1311              	.Ldebug_ranges0:
 1312 0000 08000000 		.4byte	.LBB4
 1313 0004 0A000000 		.4byte	.LBE4
 1314 0008 0E000000 		.4byte	.LBB7
 1315 000c 26000000 		.4byte	.LBE7
 1316 0010 00000000 		.4byte	0
 1317 0014 00000000 		.4byte	0
 1318 0018 08000000 		.4byte	.LBB5
 1319 001c 0A000000 		.4byte	.LBE5
 1320 0020 0E000000 		.4byte	.LBB6
 1321 0024 26000000 		.4byte	.LBE6
 1322 0028 00000000 		.4byte	0
 1323 002c 00000000 		.4byte	0
 1324 0030 00000000 		.4byte	.LFB118
 1325 0034 36000000 		.4byte	.LFE118
 1326 0038 00000000 		.4byte	.LFB119
 1327 003c 28000000 		.4byte	.LFE119
 1328 0040 00000000 		.4byte	.LFB120
 1329 0044 2C000000 		.4byte	.LFE120
 1330 0048 00000000 		.4byte	0
 1331 004c 00000000 		.4byte	0
 1332              		.section	.debug_line,"",%progbits
 1333              	.Ldebug_line0:
 1334 0000 9C020000 		.section	.debug_str,"MS",%progbits,1
 1334      02001E02 
 1334      00000201 
 1334      FB0E0D00 
 1334      01010101 
 1335              	.LASF59:
 1336 0000 7469636B 		.ascii	"ticks\000"
 1336      7300
 1337              	.LASF50:
 1338 0006 69326349 		.ascii	"i2cInit\000"
 1338      6E697400 
 1339              	.LASF60:
 1340 000e 5F70616C 		.ascii	"_pal_lld_init\000"
 1340      5F6C6C64 
 1340      5F696E69 
 1340      7400
 1341              	.LASF45:
 1342 001c 70616C5F 		.ascii	"pal_default_config\000"
 1342      64656661 
 1342      756C745F 
 1342      636F6E66 
 1342      696700
 1343              	.LASF3:
 1344 002f 73686F72 		.ascii	"short int\000"
 1344      7420696E 
 1344      7400
 1345              	.LASF14:
 1346 0039 73697A65 		.ascii	"sizetype\000"
 1346      74797065 
 1346      00
 1347              	.LASF55:
 1348 0042 474E5520 		.ascii	"GNU C 4.7.4 20140401 (release) [ARM/embedded-4_7-br"
ARM GAS  C:\Users\Vergil\AppData\Local\Temp\ccRGsPif.s 			page 25


 1348      4320342E 
 1348      372E3420 
 1348      32303134 
 1348      30343031 
 1349 0075 616E6368 		.ascii	"anch revision 209195]\000"
 1349      20726576 
 1349      6973696F 
 1349      6E203230 
 1349      39313935 
 1350              	.LASF22:
 1351 008b 50435352 		.ascii	"PCSR\000"
 1351      00
 1352              	.LASF21:
 1353 0090 464F4C44 		.ascii	"FOLDCNT\000"
 1353      434E5400 
 1354              	.LASF52:
 1355 0098 73706949 		.ascii	"spiInit\000"
 1355      6E697400 
 1356              	.LASF7:
 1357 00a0 75696E74 		.ascii	"uint32_t\000"
 1357      33325F74 
 1357      00
 1358              	.LASF51:
 1359 00a9 7364496E 		.ascii	"sdInit\000"
 1359      697400
 1360              	.LASF13:
 1361 00b0 494F5245 		.ascii	"IOREG32\000"
 1361      47333200 
 1362              	.LASF33:
 1363 00b8 50414461 		.ascii	"PAData\000"
 1363      746100
 1364              	.LASF9:
 1365 00bf 6C6F6E67 		.ascii	"long long int\000"
 1365      206C6F6E 
 1365      6720696E 
 1365      7400
 1366              	.LASF41:
 1367 00cd 68616C49 		.ascii	"halInit\000"
 1367      6E697400 
 1368              	.LASF16:
 1369 00d5 43594343 		.ascii	"CYCCNT\000"
 1369      4E5400
 1370              	.LASF48:
 1371 00dc 65787449 		.ascii	"extInit\000"
 1371      6E697400 
 1372              	.LASF28:
 1373 00e4 6F737065 		.ascii	"ospeedr\000"
 1373      65647200 
 1374              	.LASF5:
 1375 00ec 6C6F6E67 		.ascii	"long int\000"
 1375      20696E74 
 1375      00
 1376              	.LASF36:
 1377 00f5 50444461 		.ascii	"PDData\000"
 1377      746100
 1378              	.LASF42:
 1379 00fc 68616C50 		.ascii	"halPolledDelay\000"
ARM GAS  C:\Users\Vergil\AppData\Local\Temp\ccRGsPif.s 			page 26


 1379      6F6C6C65 
 1379      6444656C 
 1379      617900
 1380              	.LASF56:
 1381 010b 2E2E2F2E 		.ascii	"../../os/hal/src/hal.c\000"
 1381      2E2F6F73 
 1381      2F68616C 
 1381      2F737263 
 1381      2F68616C 
 1382              	.LASF54:
 1383 0122 626F6172 		.ascii	"boardInit\000"
 1383      64496E69 
 1383      7400
 1384              	.LASF35:
 1385 012c 50434461 		.ascii	"PCData\000"
 1385      746100
 1386              	.LASF2:
 1387 0133 756E7369 		.ascii	"unsigned char\000"
 1387      676E6564 
 1387      20636861 
 1387      7200
 1388              	.LASF49:
 1389 0141 67707449 		.ascii	"gptInit\000"
 1389      6E697400 
 1390              	.LASF15:
 1391 0149 4354524C 		.ascii	"CTRL\000"
 1391      00
 1392              	.LASF1:
 1393 014e 7369676E 		.ascii	"signed char\000"
 1393      65642063 
 1393      68617200 
 1394              	.LASF10:
 1395 015a 6C6F6E67 		.ascii	"long long unsigned int\000"
 1395      206C6F6E 
 1395      6720756E 
 1395      7369676E 
 1395      65642069 
 1396              	.LASF57:
 1397 0171 433A5C43 		.ascii	"C:\\ChibiStudio\\chibios\\demos\\ARMCM4-STM32F401RE"
 1397      68696269 
 1397      53747564 
 1397      696F5C63 
 1397      68696269 
 1398 01a0 2D4E5543 		.ascii	"-NUCLEO-CC3K\000"
 1398      4C454F2D 
 1398      4343334B 
 1398      00
 1399              	.LASF27:
 1400 01ad 6F747970 		.ascii	"otyper\000"
 1400      657200
 1401              	.LASF32:
 1402 01b4 73746D33 		.ascii	"stm32_gpio_setup_t\000"
 1402      325F6770 
 1402      696F5F73 
 1402      65747570 
 1402      5F7400
 1403              	.LASF46:
ARM GAS  C:\Users\Vergil\AppData\Local\Temp\ccRGsPif.s 			page 27


 1404 01c7 68616C5F 		.ascii	"hal_lld_init\000"
 1404      6C6C645F 
 1404      696E6974 
 1404      00
 1405              	.LASF40:
 1406 01d4 73746172 		.ascii	"start\000"
 1406      7400
 1407              	.LASF4:
 1408 01da 73686F72 		.ascii	"short unsigned int\000"
 1408      7420756E 
 1408      7369676E 
 1408      65642069 
 1408      6E7400
 1409              	.LASF24:
 1410 01ed 63686172 		.ascii	"char\000"
 1410      00
 1411              	.LASF6:
 1412 01f2 696E7433 		.ascii	"int32_t\000"
 1412      325F7400 
 1413              	.LASF11:
 1414 01fa 626F6F6C 		.ascii	"bool_t\000"
 1414      5F7400
 1415              	.LASF39:
 1416 0201 50414C43 		.ascii	"PALConfig\000"
 1416      6F6E6669 
 1416      6700
 1417              	.LASF34:
 1418 020b 50424461 		.ascii	"PBData\000"
 1418      746100
 1419              	.LASF12:
 1420 0212 5F426F6F 		.ascii	"_Bool\000"
 1420      6C00
 1421              	.LASF23:
 1422 0218 434D785F 		.ascii	"CMx_DWT\000"
 1422      44575400 
 1423              	.LASF37:
 1424 0220 50454461 		.ascii	"PEData\000"
 1424      746100
 1425              	.LASF17:
 1426 0227 43504943 		.ascii	"CPICNT\000"
 1426      4E5400
 1427              	.LASF8:
 1428 022e 6C6F6E67 		.ascii	"long unsigned int\000"
 1428      20756E73 
 1428      69676E65 
 1428      6420696E 
 1428      7400
 1429              	.LASF38:
 1430 0240 50484461 		.ascii	"PHData\000"
 1430      746100
 1431              	.LASF25:
 1432 0247 68616C72 		.ascii	"halrtcnt_t\000"
 1432      74636E74 
 1432      5F7400
 1433              	.LASF19:
 1434 0252 534C4545 		.ascii	"SLEEPCNT\000"
 1434      50434E54 
ARM GAS  C:\Users\Vergil\AppData\Local\Temp\ccRGsPif.s 			page 28


 1434      00
 1435              	.LASF53:
 1436 025b 6D6D6349 		.ascii	"mmcInit\000"
 1436      6E697400 
 1437              	.LASF29:
 1438 0263 70757064 		.ascii	"pupdr\000"
 1438      7200
 1439              	.LASF20:
 1440 0269 4C535543 		.ascii	"LSUCNT\000"
 1440      4E5400
 1441              	.LASF31:
 1442 0270 61667268 		.ascii	"afrh\000"
 1442      00
 1443              	.LASF30:
 1444 0275 6166726C 		.ascii	"afrl\000"
 1444      00
 1445              	.LASF26:
 1446 027a 6D6F6465 		.ascii	"moder\000"
 1446      7200
 1447              	.LASF44:
 1448 0280 49544D5F 		.ascii	"ITM_RxBuffer\000"
 1448      52784275 
 1448      66666572 
 1448      00
 1449              	.LASF47:
 1450 028d 746D496E 		.ascii	"tmInit\000"
 1450      697400
 1451              	.LASF0:
 1452 0294 756E7369 		.ascii	"unsigned int\000"
 1452      676E6564 
 1452      20696E74 
 1452      00
 1453              	.LASF58:
 1454 02a1 68616C49 		.ascii	"halIsCounterWithin\000"
 1454      73436F75 
 1454      6E746572 
 1454      57697468 
 1454      696E00
 1455              	.LASF18:
 1456 02b4 45584343 		.ascii	"EXCCNT\000"
 1456      4E5400
 1457              	.LASF43:
 1458 02bb 74696D65 		.ascii	"timeout\000"
 1458      6F757400 
 1459              		.ident	"GCC: (GNU Tools for ARM Embedded Processors) 4.7.4 20140401 (release) [ARM/embedded-4_7-br
ARM GAS  C:\Users\Vergil\AppData\Local\Temp\ccRGsPif.s 			page 29


DEFINED SYMBOLS
                            *ABS*:00000000 hal.c
C:\Users\Vergil\AppData\Local\Temp\ccRGsPif.s:21     .text.halInit:00000000 $t
C:\Users\Vergil\AppData\Local\Temp\ccRGsPif.s:27     .text.halInit:00000000 halInit
C:\Users\Vergil\AppData\Local\Temp\ccRGsPif.s:77     .text.halIsCounterWithin:00000000 $t
C:\Users\Vergil\AppData\Local\Temp\ccRGsPif.s:83     .text.halIsCounterWithin:00000000 halIsCounterWithin
C:\Users\Vergil\AppData\Local\Temp\ccRGsPif.s:131    .text.halPolledDelay:00000000 $t
C:\Users\Vergil\AppData\Local\Temp\ccRGsPif.s:137    .text.halPolledDelay:00000000 halPolledDelay
                     .debug_frame:00000010 $d

UNDEFINED SYMBOLS
hal_lld_init
tmInit
pal_default_config
_pal_lld_init
extInit
gptInit
i2cInit
sdInit
spiInit
mmcInit
boardInit
