ARM GAS  C:\Users\Vergil\AppData\Local\Temp\ccRGsPif.s 			page 1


   1              		.syntax unified
   2              		.cpu cortex-m4
   3              		.eabi_attribute 27, 3
   4              		.eabi_attribute 28, 1
   5              		.fpu fpv4-sp-d16
   6              		.eabi_attribute 20, 1
   7              		.eabi_attribute 21, 1
   8              		.eabi_attribute 23, 3
   9              		.eabi_attribute 24, 1
  10              		.eabi_attribute 25, 1
  11              		.eabi_attribute 26, 1
  12              		.eabi_attribute 30, 2
  13              		.eabi_attribute 34, 1
  14              		.eabi_attribute 18, 4
  15              		.thumb
  16              		.file	"hal.c"
  17              		.text
  18              	.Ltext0:
  19              		.cfi_sections	.debug_frame
  20              		.section	.text.halInit,"ax",%progbits
  21              		.align	2
  22              		.p2align 4,,15
  23              		.global	halInit
  24              		.thumb
  25              		.thumb_func
  26              		.type	halInit, %function
  27              	halInit:
  28              	.LFB118:
  29              		.file 1 "../../os/hal/src/hal.c"
  30              		.loc 1 68 0
  31              		.cfi_startproc
  32              		@ args = 0, pretend = 0, frame = 0
  33              		@ frame_needed = 0, uses_anonymous_args = 0
  34 0000 08B5     		push	{r3, lr}
  35              	.LCFI0:
  36              		.cfi_def_cfa_offset 8
  37              		.cfi_offset 3, -8
  38              		.cfi_offset 14, -4
  39              		.loc 1 70 0
  40 0002 FFF7FEFF 		bl	hal_lld_init
  41              	.LVL0:
  42              		.loc 1 73 0
  43 0006 FFF7FEFF 		bl	tmInit
  44              	.LVL1:
  45              		.loc 1 76 0
  46 000a 40F20000 		movw	r0, #:lower16:pal_default_config
  47 000e C0F20000 		movt	r0, #:upper16:pal_default_config
  48 0012 FFF7FEFF 		bl	_pal_lld_init
  49              	.LVL2:
  50              		.loc 1 85 0
  51 0016 FFF7FEFF 		bl	extInit
  52              	.LVL3:
  53              		.loc 1 88 0
  54 001a FFF7FEFF 		bl	gptInit
  55              	.LVL4:
  56              		.loc 1 91 0
  57 001e FFF7FEFF 		bl	i2cInit
ARM GAS  C:\Users\Vergil\AppData\Local\Temp\ccRGsPif.s 			page 2


  58              	.LVL5:
  59              		.loc 1 103 0
  60 0022 FFF7FEFF 		bl	sdInit
  61              	.LVL6:
  62              		.loc 1 109 0
  63 0026 FFF7FEFF 		bl	spiInit
  64              	.LVL7:
  65              		.loc 1 118 0
  66 002a FFF7FEFF 		bl	mmcInit
  67              	.LVL8:
  68              		.loc 1 128 0
  69 002e BDE80840 		pop	{r3, lr}
  70              		.loc 1 127 0
  71 0032 FFF7FEBF 		b	boardInit
  72              	.LVL9:
  73              		.cfi_endproc
  74              	.LFE118:
  75              		.size	halInit, .-halInit
  76 0036 00BFAFF3 		.section	.text.halIsCounterWithin,"ax",%progbits
  76      0080AFF3 
  76      0080
  77              		.align	2
  78              		.p2align 4,,15
  79              		.global	halIsCounterWithin
  80              		.thumb
  81              		.thumb_func
  82              		.type	halIsCounterWithin, %function
  83              	halIsCounterWithin:
  84              	.LFB119:
  85              		.loc 1 174 0
  86              		.cfi_startproc
  87              		@ args = 0, pretend = 0, frame = 0
  88              		@ frame_needed = 0, uses_anonymous_args = 0
  89              		@ link register save eliminated.
  90              	.LVL10:
  91              		.loc 1 175 0
  92 0000 4FF48053 		mov	r3, #4096
  93 0004 CEF20003 		movt	r3, 57344
  94              		.loc 1 177 0
  95 0008 8142     		cmp	r1, r0
  96              		.loc 1 175 0
  97 000a 5A68     		ldr	r2, [r3, #4]
  98              	.LVL11:
  99              		.loc 1 177 0
 100 000c 06D9     		bls	.L3
 101              		.loc 1 177 0 is_stmt 0 discriminator 1
 102 000e 8242     		cmp	r2, r0
 103 0010 08D3     		bcc	.L7
 104              	.L9:
 105              		.loc 1 178 0 is_stmt 1 discriminator 2
 106 0012 8A42     		cmp	r2, r1
 107 0014 2CBF     		ite	cs
 108 0016 0020     		movcs	r0, #0
 109              	.LVL12:
 110 0018 0120     		movcc	r0, #1
 111 001a 7047     		bx	lr
 112              	.LVL13:
ARM GAS  C:\Users\Vergil\AppData\Local\Temp\ccRGsPif.s 			page 3


 113              	.L3:
 114              		.loc 1 178 0 is_stmt 0
 115 001c 8242     		cmp	r2, r0
 116 001e F8D3     		bcc	.L9
 117 0020 0120     		movs	r0, #1
 118              	.LVL14:
 119              		.loc 1 179 0 is_stmt 1
 120 0022 7047     		bx	lr
 121              	.LVL15:
 122              	.L7:
 123              		.loc 1 177 0
 124 0024 0020     		movs	r0, #0
 125              	.LVL16:
 126 0026 7047     		bx	lr
 127              		.cfi_endproc
 128              	.LFE119:
 129              		.size	halIsCounterWithin, .-halIsCounterWithin
 130 0028 AFF30080 		.section	.text.halPolledDelay,"ax",%progbits
 130      AFF30080 
 131              		.align	2
 132              		.p2align 4,,15
 133              		.global	halPolledDelay
 134              		.thumb
 135              		.thumb_func
 136              		.type	halPolledDelay, %function
 137              	halPolledDelay:
 138              	.LFB120:
 139              		.loc 1 193 0
 140              		.cfi_startproc
 141              		@ args = 0, pretend = 0, frame = 0
 142              		@ frame_needed = 0, uses_anonymous_args = 0
 143              		@ link register save eliminated.
 144              	.LVL17:
 145              		.loc 1 194 0
 146 0000 4FF48053 		mov	r3, #4096
 147 0004 CEF20003 		movt	r3, 57344
 148              	.LBB4:
 149              	.LBB5:
 150              		.loc 1 175 0
 151 0008 1946     		mov	r1, r3
 152              	.LBE5:
 153              	.LBE4:
 154              		.loc 1 194 0
 155 000a 5A68     		ldr	r2, [r3, #4]
 156              	.LVL18:
 157              		.loc 1 195 0
 158 000c 8018     		adds	r0, r0, r2
 159              	.LVL19:
 160              	.L21:
 161              	.LBB7:
 162              	.LBB6:
 163              		.loc 1 177 0 discriminator 1
 164 000e 8242     		cmp	r2, r0
 165              		.loc 1 175 0 discriminator 1
 166 0010 4B68     		ldr	r3, [r1, #4]
 167              	.LVL20:
 168              		.loc 1 177 0 discriminator 1
ARM GAS  C:\Users\Vergil\AppData\Local\Temp\ccRGsPif.s 			page 4


 169 0012 02D2     		bcs	.L12
 170              		.loc 1 177 0 is_stmt 0
 171 0014 9A42     		cmp	r2, r3
 172 0016 02D9     		bls	.L22
 173 0018 7047     		bx	lr
 174              	.L12:
 175              		.loc 1 178 0 is_stmt 1
 176 001a 9A42     		cmp	r2, r3
 177 001c F7D9     		bls	.L21
 178              	.L22:
 179 001e 9842     		cmp	r0, r3
 180 0020 94BF     		ite	ls
 181 0022 0023     		movls	r3, #0
 182              	.LVL21:
 183 0024 0123     		movhi	r3, #1
 184              	.LBE6:
 185              	.LBE7:
 186              		.loc 1 196 0
 187 0026 002B     		cmp	r3, #0
 188 0028 F1D1     		bne	.L21
 189 002a 7047     		bx	lr
 190              		.cfi_endproc
 191              	.LFE120:
 192              		.size	halPolledDelay, .-halPolledDelay
 193 002c AFF30080 		.text
 194              	.Letext0:
 195              		.file 2 "c:\\chibistudio\\tools\\gnu tools arm embedded\\4.7 2014q2\\bin\\../lib/gcc/arm-none-eabi
 196              		.file 3 "../../os/ports/GCC/ARMCMx/chtypes.h"
 197              		.file 4 "../../os/ports/common/ARMCMx/nvic.h"
 198              		.file 5 "../../os/hal/platforms/STM32F4xx/hal_lld.h"
 199              		.file 6 "../../os/hal/platforms/STM32/GPIOv2/pal_lld.h"
 200              		.file 7 "../../os/ports/common/ARMCMx/CMSIS/include/core_cm4.h"
 201              		.file 8 "../../os/hal/include/tm.h"
 202              		.file 9 "../../os/hal/include/ext.h"
 203              		.file 10 "../../os/hal/include/gpt.h"
 204              		.file 11 "../../os/hal/include/i2c.h"
 205              		.file 12 "../../os/hal/include/serial.h"
 206              		.file 13 "../../os/hal/include/spi.h"
 207              		.file 14 "../../os/hal/include/mmc_spi.h"
 208              		.file 15 "../../boards/ST_NUCLEO_F401RE/board.h"