ARM GAS  C:\Users\Vergil\AppData\Local\Temp\ccCZKrLz.s 			page 1


   1              		.syntax unified
   2              		.cpu cortex-m4
   3              		.eabi_attribute 27, 3
   4              		.eabi_attribute 28, 1
   5              		.fpu fpv4-sp-d16
   6              		.eabi_attribute 20, 1
   7              		.eabi_attribute 21, 1
   8              		.eabi_attribute 23, 3
   9              		.eabi_attribute 24, 1
  10              		.eabi_attribute 25, 1
  11              		.eabi_attribute 26, 1
  12              		.eabi_attribute 30, 2
  13              		.eabi_attribute 34, 1
  14              		.eabi_attribute 18, 4
  15              		.thumb
  16              		.file	"hal_lld.c"
  17              		.text
  18              	.Ltext0:
  19              		.cfi_sections	.debug_frame
  20              		.section	.text.hal_lld_init,"ax",%progbits
  21              		.align	2
  22              		.p2align 4,,15
  23              		.global	hal_lld_init
  24              		.thumb
  25              		.thumb_func
  26              		.type	hal_lld_init, %function
  27              	hal_lld_init:
  28              	.LFB119:
  29              		.file 1 "../../os/hal/platforms/STM32F4xx/hal_lld.c"
  30              		.loc 1 111 0
  31              		.cfi_startproc
  32              		@ args = 0, pretend = 0, frame = 0
  33              		@ frame_needed = 0, uses_anonymous_args = 0
  34              		@ link register save eliminated.
  35              		.loc 1 115 0
  36 0000 4FF46053 		mov	r3, #14336
  37 0004 C4F20203 		movt	r3, 16386
  38              		.loc 1 111 0
  39 0008 70B4     		push	{r4, r5, r6}
  40              	.LCFI0:
  41              		.cfi_def_cfa_offset 12
  42              		.cfi_offset 4, -12
  43              		.cfi_offset 5, -8
  44              		.cfi_offset 6, -4
  45              		.loc 1 115 0
  46 000a 0022     		movs	r2, #0
  47 000c 4FF0FF34 		mov	r4, #-1
  48 0010 1969     		ldr	r1, [r3, #16]
  49 0012 1C61     		str	r4, [r3, #16]
  50 0014 1A61     		str	r2, [r3, #16]
  51              		.loc 1 116 0
  52 0016 5969     		ldr	r1, [r3, #20]
  53 0018 5C61     		str	r4, [r3, #20]
  54 001a 5A61     		str	r2, [r3, #20]
  55              		.loc 1 117 0
  56 001c 1E6A     		ldr	r6, [r3, #32]
  57              		.loc 1 121 0
ARM GAS  C:\Users\Vergil\AppData\Local\Temp\ccCZKrLz.s 			page 2


  58 001e 4EF21001 		movw	r1, #57360
  59              		.loc 1 117 0
  60 0022 66F08056 		orn	r6, r6, #268435456
  61 0026 1E62     		str	r6, [r3, #32]
  62              		.loc 1 121 0
  63 0028 CEF20001 		movt	r1, 57344
  64              		.loc 1 117 0
  65 002c 1A62     		str	r2, [r3, #32]
  66              		.loc 1 121 0
  67 002e 44F61F05 		movw	r5, #18463
  68              		.loc 1 128 0
  69 0032 4EF6F050 		movw	r0, #60912
  70              		.loc 1 118 0
  71 0036 5E6A     		ldr	r6, [r3, #36]
  72 0038 5C62     		str	r4, [r3, #36]
  73              		.loc 1 128 0
  74 003a CEF20000 		movt	r0, 57344
  75              		.loc 1 123 0
  76 003e 0724     		movs	r4, #7
  77              		.loc 1 121 0
  78 0040 C0F20105 		movt	r5, 1
  79              		.loc 1 118 0
  80 0044 5A62     		str	r2, [r3, #36]
  81              		.loc 1 121 0
  82 0046 4D60     		str	r5, [r1, #4]
  83              		.loc 1 122 0
  84 0048 8A60     		str	r2, [r1, #8]
  85              		.loc 1 123 0
  86 004a 0C60     		str	r4, [r1, #0]
  87              		.loc 1 128 0
  88 004c C468     		ldr	r4, [r0, #12]
  89              		.loc 1 129 0
  90 004e 4FF48051 		mov	r1, #4096
  91 0052 CEF20001 		movt	r1, 57344
  92              		.loc 1 128 0
  93 0056 44F08074 		orr	r4, r4, #16777216
  94 005a C460     		str	r4, [r0, #12]
  95              		.loc 1 129 0
  96 005c 0868     		ldr	r0, [r1, #0]
  97 005e 40F00100 		orr	r0, r0, #1
  98 0062 0860     		str	r0, [r1, #0]
  99              		.loc 1 132 0
 100 0064 186C     		ldr	r0, [r3, #64]
 101              	.LBB4:
 102              	.LBB5:
 103              		.loc 1 54 0
 104 0066 4FF4E041 		mov	r1, #28672
 105 006a C4F20001 		movt	r1, 16384
 106              	.LBE5:
 107              	.LBE4:
 108              		.loc 1 132 0
 109 006e 40F08050 		orr	r0, r0, #268435456
 110 0072 1864     		str	r0, [r3, #64]
 111              	.LBB7:
 112              	.LBB6:
 113              		.loc 1 54 0
 114 0074 0868     		ldr	r0, [r1, #0]
ARM GAS  C:\Users\Vergil\AppData\Local\Temp\ccCZKrLz.s 			page 3


 115 0076 40F48070 		orr	r0, r0, #256
 116 007a 0860     		str	r0, [r1, #0]
 117              		.loc 1 57 0
 118 007c 196F     		ldr	r1, [r3, #112]
 119 007e 01F44070 		and	r0, r1, #768
 120 0082 B0F5007F 		cmp	r0, #512
 121 0086 03D0     		beq	.L2
 122              		.loc 1 59 0
 123 0088 4FF48031 		mov	r1, #65536
 124 008c 1967     		str	r1, [r3, #112]
 125              		.loc 1 60 0
 126 008e 1A67     		str	r2, [r3, #112]
 127              	.L2:
 128              		.loc 1 94 0
 129 0090 4FF4E043 		mov	r3, #28672
 130 0094 C4F20003 		movt	r3, 16384
 131 0098 5A68     		ldr	r2, [r3, #4]
 132 009a 22F40070 		bic	r0, r2, #512
 133 009e 5860     		str	r0, [r3, #4]
 134              	.LBE6:
 135              	.LBE7:
 136              		.loc 1 145 0
 137 00a0 70BC     		pop	{r4, r5, r6}
 138              		.loc 1 138 0
 139 00a2 FFF7FEBF 		b	dmaInit
 140              	.LVL0:
 141              		.cfi_endproc
 142              	.LFE119:
 143              		.size	hal_lld_init, .-hal_lld_init
 144              		.section	.text.stm32_clock_init,"ax",%progbits
 145              		.align	2
 146              		.p2align 4,,15
 147              		.global	stm32_clock_init
 148              		.thumb
 149              		.thumb_func
 150              		.type	stm32_clock_init, %function
 151              	stm32_clock_init:
 152              	.LFB120:
 153              		.loc 1 154 0
 154              		.cfi_startproc
 155              		@ args = 0, pretend = 0, frame = 0
 156              		@ frame_needed = 0, uses_anonymous_args = 0
 157              		@ link register save eliminated.
 158              		.loc 1 158 0
 159 0000 4FF46051 		mov	r1, #14336
 160              		.loc 1 162 0
 161 0004 4FF4E043 		mov	r3, #28672
 162              		.loc 1 158 0
 163 0008 C4F20201 		movt	r1, 16386
 164              		.loc 1 162 0
 165 000c C4F20003 		movt	r3, 16384
 166              		.loc 1 158 0
 167 0010 4FF08052 		mov	r2, #268435456
 168              		.loc 1 162 0
 169 0014 4FF40040 		mov	r0, #32768
 170              		.loc 1 158 0
 171 0018 0A64     		str	r2, [r1, #64]
ARM GAS  C:\Users\Vergil\AppData\Local\Temp\ccCZKrLz.s 			page 4


 172              		.loc 1 162 0
 173 001a 1860     		str	r0, [r3, #0]
 174              		.loc 1 169 0
 175 001c 0B68     		ldr	r3, [r1, #0]
 176 001e 43F00102 		orr	r2, r3, #1
 177 0022 0A60     		str	r2, [r1, #0]
 178              	.L8:
 179              		.loc 1 170 0 discriminator 1
 180 0024 0868     		ldr	r0, [r1, #0]
 181 0026 4FF46053 		mov	r3, #14336
 182 002a 8207     		lsls	r2, r0, #30
 183 002c C4F20203 		movt	r3, 16386
 184 0030 F8D5     		bpl	.L8
 185              		.loc 1 172 0
 186 0032 1968     		ldr	r1, [r3, #0]
 187 0034 01F0F902 		and	r2, r1, #249
 188              		.loc 1 173 0
 189 0038 0021     		movs	r1, #0
 190              		.loc 1 172 0
 191 003a 1A60     		str	r2, [r3, #0]
 192              		.loc 1 174 0
 193 003c 1846     		mov	r0, r3
 194              		.loc 1 173 0
 195 003e 9960     		str	r1, [r3, #8]
 196              	.L9:
 197              		.loc 1 174 0 discriminator 1
 198 0040 8268     		ldr	r2, [r0, #8]
 199 0042 4FF46053 		mov	r3, #14336
 200 0046 12F00C0F 		tst	r2, #12
 201 004a C4F20203 		movt	r3, 16386
 202 004e F7D1     		bne	.L9
 203              		.loc 1 192 0
 204 0050 586F     		ldr	r0, [r3, #116]
 205 0052 40F00101 		orr	r1, r0, #1
 206 0056 5967     		str	r1, [r3, #116]
 207              		.loc 1 193 0
 208 0058 1946     		mov	r1, r3
 209              	.L10:
 210              		.loc 1 193 0 is_stmt 0 discriminator 1
 211 005a 4A6F     		ldr	r2, [r1, #116]
 212 005c 4FF46053 		mov	r3, #14336
 213 0060 9007     		lsls	r0, r2, #30
 214 0062 C4F20203 		movt	r3, 16386
 215 0066 F8D5     		bpl	.L10
 216              		.loc 1 199 0 is_stmt 1
 217 0068 45F21040 		movw	r0, #21520
 218 006c C0F20170 		movt	r0, 1793
 219 0070 5860     		str	r0, [r3, #4]
 220              		.loc 1 201 0
 221 0072 1968     		ldr	r1, [r3, #0]
 222              		.loc 1 205 0
 223 0074 4FF4E042 		mov	r2, #28672
 224              		.loc 1 201 0
 225 0078 41F08070 		orr	r0, r1, #16777216
 226 007c 1860     		str	r0, [r3, #0]
 227              		.loc 1 205 0
 228 007e C4F20002 		movt	r2, 16384
ARM GAS  C:\Users\Vergil\AppData\Local\Temp\ccCZKrLz.s 			page 5


 229              	.L11:
 230              		.loc 1 205 0 is_stmt 0 discriminator 1
 231 0082 5368     		ldr	r3, [r2, #4]
 232 0084 5904     		lsls	r1, r3, #17
 233 0086 FCD5     		bpl	.L11
 234              		.loc 1 221 0 is_stmt 1
 235 0088 4FF46051 		mov	r1, #14336
 236 008c C4F20201 		movt	r1, 16386
 237              	.L22:
 238 0090 0A68     		ldr	r2, [r1, #0]
 239 0092 4FF46050 		mov	r0, #14336
 240 0096 9201     		lsls	r2, r2, #6
 241 0098 C4F20200 		movt	r0, 16386
 242 009c F8D5     		bpl	.L22
 243              		.loc 1 249 0
 244 009e 4FF47053 		mov	r3, #15360
 245 00a2 C4F20203 		movt	r3, 16386
 246              		.loc 1 236 0
 247 00a6 4FF48051 		mov	r1, #4096
 248 00aa C3F60801 		movt	r1, 14344
 249              		.loc 1 249 0
 250 00ae 40F20272 		movw	r2, #1794
 251              		.loc 1 236 0
 252 00b2 8160     		str	r1, [r0, #8]
 253              		.loc 1 249 0
 254 00b4 1A60     		str	r2, [r3, #0]
 255              		.loc 1 255 0
 256 00b6 8368     		ldr	r3, [r0, #8]
 257 00b8 43F00201 		orr	r1, r3, #2
 258 00bc 8160     		str	r1, [r0, #8]
 259              	.L13:
 260              		.loc 1 256 0 discriminator 1
 261 00be 8268     		ldr	r2, [r0, #8]
 262 00c0 02F00C01 		and	r1, r2, #12
 263 00c4 4FF46053 		mov	r3, #14336
 264 00c8 0829     		cmp	r1, #8
 265 00ca C4F20203 		movt	r3, 16386
 266 00ce F6D1     		bne	.L13
 267              		.loc 1 263 0
 268 00d0 586C     		ldr	r0, [r3, #68]
 269 00d2 40F48042 		orr	r2, r0, #16384
 270 00d6 5A64     		str	r2, [r3, #68]
 271 00d8 596E     		ldr	r1, [r3, #100]
 272 00da 41F48040 		orr	r0, r1, #16384
 273 00de 5866     		str	r0, [r3, #100]
 274 00e0 7047     		bx	lr
 275              		.cfi_endproc
 276              	.LFE120:
 277              		.size	stm32_clock_init, .-stm32_clock_init
 278 00e2 00BFAFF3 		.text
 278      0080AFF3 
 278      0080AFF3 
 278      0080
 279              	.Letext0:
 280              		.file 2 "c:\\chibistudio\\tools\\gnu tools arm embedded\\4.7 2014q2\\bin\\../lib/gcc/arm-none-eabi
 281              		.file 3 "../../os/ports/common/ARMCMx/nvic.h"
 282              		.file 4 "../../os/ports/common/ARMCMx/CMSIS/include/core_cm4.h"
ARM GAS  C:\Users\Vergil\AppData\Local\Temp\ccCZKrLz.s 			page 6


 283              		.file 5 "../../os/hal/platforms/STM32F4xx/stm32f4xx.h"
 284              		.file 6 "../../os/hal/platforms/STM32F4xx/stm32_dma.h"
 285              		.section	.debug_info,"",%progbits
 286              	.Ldebug_info0:
 287 0000 01050000 		.4byte	0x501
 288 0004 0200     		.2byte	0x2
 289 0006 00000000 		.4byte	.Ldebug_abbrev0
 290 000a 04       		.byte	0x4
 291 000b 01       		.uleb128 0x1
 292 000c F1000000 		.4byte	.LASF68
 293 0010 01       		.byte	0x1
 294 0011 E2020000 		.4byte	.LASF69
 295 0015 C3010000 		.4byte	.LASF70
 296 0019 18000000 		.4byte	.Ldebug_ranges0+0x18
 297 001d 00000000 		.4byte	0
 298 0021 00000000 		.4byte	0
 299 0025 00000000 		.4byte	.Ldebug_line0
 300 0029 02       		.uleb128 0x2
 301 002a 04       		.byte	0x4
 302 002b 05       		.byte	0x5
 303 002c 696E7400 		.ascii	"int\000"
 304 0030 03       		.uleb128 0x3
 305 0031 04       		.byte	0x4
 306 0032 07       		.byte	0x7
 307 0033 FF010000 		.4byte	.LASF0
 308 0037 03       		.uleb128 0x3
 309 0038 01       		.byte	0x1
 310 0039 06       		.byte	0x6
 311 003a A0010000 		.4byte	.LASF1
 312 003e 03       		.uleb128 0x3
 313 003f 01       		.byte	0x1
 314 0040 08       		.byte	0x8
 315 0041 8A010000 		.4byte	.LASF2
 316 0045 03       		.uleb128 0x3
 317 0046 02       		.byte	0x2
 318 0047 05       		.byte	0x5
 319 0048 21000000 		.4byte	.LASF3
 320 004c 03       		.uleb128 0x3
 321 004d 02       		.byte	0x2
 322 004e 07       		.byte	0x7
 323 004f 49020000 		.4byte	.LASF4
 324 0053 04       		.uleb128 0x4
 325 0054 73020000 		.4byte	.LASF6
 326 0058 02       		.byte	0x2
 327 0059 4F       		.byte	0x4f
 328 005a 5E000000 		.4byte	0x5e
 329 005e 03       		.uleb128 0x3
 330 005f 04       		.byte	0x4
 331 0060 05       		.byte	0x5
 332 0061 40010000 		.4byte	.LASF5
 333 0065 04       		.uleb128 0x4
 334 0066 94000000 		.4byte	.LASF7
 335 006a 02       		.byte	0x2
 336 006b 50       		.byte	0x50
 337 006c 70000000 		.4byte	0x70
 338 0070 03       		.uleb128 0x3
 339 0071 04       		.byte	0x4
ARM GAS  C:\Users\Vergil\AppData\Local\Temp\ccCZKrLz.s 			page 7


 340 0072 07       		.byte	0x7
 341 0073 15020000 		.4byte	.LASF8
 342 0077 03       		.uleb128 0x3
 343 0078 08       		.byte	0x8
 344 0079 05       		.byte	0x5
 345 007a D6000000 		.4byte	.LASF9
 346 007e 03       		.uleb128 0x3
 347 007f 08       		.byte	0x8
 348 0080 07       		.byte	0x7
 349 0081 AC010000 		.4byte	.LASF10
 350 0085 03       		.uleb128 0x3
 351 0086 01       		.byte	0x1
 352 0087 02       		.byte	0x2
 353 0088 7B020000 		.4byte	.LASF11
 354 008c 04       		.uleb128 0x4
 355 008d C6000000 		.4byte	.LASF12
 356 0091 03       		.byte	0x3
 357 0092 3A       		.byte	0x3a
 358 0093 97000000 		.4byte	0x97
 359 0097 05       		.uleb128 0x5
 360 0098 65000000 		.4byte	0x65
 361 009c 03       		.uleb128 0x3
 362 009d 04       		.byte	0x4
 363 009e 07       		.byte	0x7
 364 009f 2B000000 		.4byte	.LASF13
 365 00a3 06       		.uleb128 0x6
 366 00a4 10       		.byte	0x10
 367 00a5 03       		.byte	0x3
 368 00a6 F1       		.byte	0xf1
 369 00a7 E4000000 		.4byte	0xe4
 370 00ab 07       		.uleb128 0x7
 371 00ac 3A010000 		.4byte	.LASF14
 372 00b0 03       		.byte	0x3
 373 00b1 F2       		.byte	0xf2
 374 00b2 8C000000 		.4byte	0x8c
 375 00b6 02       		.byte	0x2
 376 00b7 23       		.byte	0x23
 377 00b8 00       		.uleb128 0
 378 00b9 07       		.uleb128 0x7
 379 00ba 8E000000 		.4byte	.LASF15
 380 00be 03       		.byte	0x3
 381 00bf F3       		.byte	0xf3
 382 00c0 8C000000 		.4byte	0x8c
 383 00c4 02       		.byte	0x2
 384 00c5 23       		.byte	0x23
 385 00c6 04       		.uleb128 0x4
 386 00c7 07       		.uleb128 0x7
 387 00c8 B8000000 		.4byte	.LASF16
 388 00cc 03       		.byte	0x3
 389 00cd F4       		.byte	0xf4
 390 00ce 8C000000 		.4byte	0x8c
 391 00d2 02       		.byte	0x2
 392 00d3 23       		.byte	0x23
 393 00d4 08       		.uleb128 0x8
 394 00d5 07       		.uleb128 0x7
 395 00d6 1B000000 		.4byte	.LASF17
 396 00da 03       		.byte	0x3
ARM GAS  C:\Users\Vergil\AppData\Local\Temp\ccCZKrLz.s 			page 8


 397 00db F5       		.byte	0xf5
 398 00dc 8C000000 		.4byte	0x8c
 399 00e0 02       		.byte	0x2
 400 00e1 23       		.byte	0x23
 401 00e2 0C       		.uleb128 0xc
 402 00e3 00       		.byte	0
 403 00e4 04       		.uleb128 0x4
 404 00e5 6B020000 		.4byte	.LASF18
 405 00e9 03       		.byte	0x3
 406 00ea F6       		.byte	0xf6
 407 00eb A3000000 		.4byte	0xa3
 408 00ef 08       		.uleb128 0x8
 409 00f0 20       		.byte	0x20
 410 00f1 03       		.byte	0x3
 411 00f2 0601     		.2byte	0x106
 412 00f4 71010000 		.4byte	0x171
 413 00f8 09       		.uleb128 0x9
 414 00f9 6B000000 		.4byte	.LASF19
 415 00fd 03       		.byte	0x3
 416 00fe 0701     		.2byte	0x107
 417 0100 8C000000 		.4byte	0x8c
 418 0104 02       		.byte	0x2
 419 0105 23       		.byte	0x23
 420 0106 00       		.uleb128 0
 421 0107 09       		.uleb128 0x9
 422 0108 E4000000 		.4byte	.LASF20
 423 010c 03       		.byte	0x3
 424 010d 0801     		.2byte	0x108
 425 010f 8C000000 		.4byte	0x8c
 426 0113 02       		.byte	0x2
 427 0114 23       		.byte	0x23
 428 0115 04       		.uleb128 0x4
 429 0116 09       		.uleb128 0x9
 430 0117 7F000000 		.4byte	.LASF21
 431 011b 03       		.byte	0x3
 432 011c 0901     		.2byte	0x109
 433 011e 8C000000 		.4byte	0x8c
 434 0122 02       		.byte	0x2
 435 0123 23       		.byte	0x23
 436 0124 08       		.uleb128 0x8
 437 0125 09       		.uleb128 0x9
 438 0126 83010000 		.4byte	.LASF22
 439 012a 03       		.byte	0x3
 440 012b 0A01     		.2byte	0x10a
 441 012d 8C000000 		.4byte	0x8c
 442 0131 02       		.byte	0x2
 443 0132 23       		.byte	0x23
 444 0133 0C       		.uleb128 0xc
 445 0134 09       		.uleb128 0x9
 446 0135 D9020000 		.4byte	.LASF23
 447 0139 03       		.byte	0x3
 448 013a 0B01     		.2byte	0x10b
 449 013c 8C000000 		.4byte	0x8c
 450 0140 02       		.byte	0x2
 451 0141 23       		.byte	0x23
 452 0142 10       		.uleb128 0x10
 453 0143 09       		.uleb128 0x9
ARM GAS  C:\Users\Vergil\AppData\Local\Temp\ccCZKrLz.s 			page 9


 454 0144 0D030000 		.4byte	.LASF24
 455 0148 03       		.byte	0x3
 456 0149 0C01     		.2byte	0x10c
 457 014b 8C000000 		.4byte	0x8c
 458 014f 02       		.byte	0x2
 459 0150 23       		.byte	0x23
 460 0151 14       		.uleb128 0x14
 461 0152 09       		.uleb128 0x9
 462 0153 3E000000 		.4byte	.LASF25
 463 0157 03       		.byte	0x3
 464 0158 0D01     		.2byte	0x10d
 465 015a 8C000000 		.4byte	0x8c
 466 015e 02       		.byte	0x2
 467 015f 23       		.byte	0x23
 468 0160 18       		.uleb128 0x18
 469 0161 09       		.uleb128 0x9
 470 0162 39000000 		.4byte	.LASF26
 471 0166 03       		.byte	0x3
 472 0167 0E01     		.2byte	0x10e
 473 0169 8C000000 		.4byte	0x8c
 474 016d 02       		.byte	0x2
 475 016e 23       		.byte	0x23
 476 016f 1C       		.uleb128 0x1c
 477 0170 00       		.byte	0
 478 0171 0A       		.uleb128 0xa
 479 0172 5D000000 		.4byte	.LASF27
 480 0176 03       		.byte	0x3
 481 0177 0F01     		.2byte	0x10f
 482 0179 EF000000 		.4byte	0xef
 483 017d 03       		.uleb128 0x3
 484 017e 01       		.byte	0x1
 485 017f 08       		.byte	0x8
 486 0180 66020000 		.4byte	.LASF28
 487 0184 0B       		.uleb128 0xb
 488 0185 97000000 		.4byte	0x97
 489 0189 0C       		.uleb128 0xc
 490 018a 65000000 		.4byte	0x65
 491 018e 99010000 		.4byte	0x199
 492 0192 0D       		.uleb128 0xd
 493 0193 9C000000 		.4byte	0x9c
 494 0197 01       		.byte	0x1
 495 0198 00       		.byte	0
 496 0199 08       		.uleb128 0x8
 497 019a 10       		.byte	0x10
 498 019b 04       		.byte	0x4
 499 019c 6002     		.2byte	0x260
 500 019e DF010000 		.4byte	0x1df
 501 01a2 09       		.uleb128 0x9
 502 01a3 6B000000 		.4byte	.LASF19
 503 01a7 04       		.byte	0x4
 504 01a8 6202     		.2byte	0x262
 505 01aa 97000000 		.4byte	0x97
 506 01ae 02       		.byte	0x2
 507 01af 23       		.byte	0x23
 508 01b0 00       		.uleb128 0
 509 01b1 09       		.uleb128 0x9
 510 01b2 14030000 		.4byte	.LASF29
ARM GAS  C:\Users\Vergil\AppData\Local\Temp\ccCZKrLz.s 			page 10


 511 01b6 04       		.byte	0x4
 512 01b7 6302     		.2byte	0x263
 513 01b9 97000000 		.4byte	0x97
 514 01bd 02       		.byte	0x2
 515 01be 23       		.byte	0x23
 516 01bf 04       		.uleb128 0x4
 517 01c0 0E       		.uleb128 0xe
 518 01c1 56414C00 		.ascii	"VAL\000"
 519 01c5 04       		.byte	0x4
 520 01c6 6402     		.2byte	0x264
 521 01c8 97000000 		.4byte	0x97
 522 01cc 02       		.byte	0x2
 523 01cd 23       		.byte	0x23
 524 01ce 08       		.uleb128 0x8
 525 01cf 09       		.uleb128 0x9
 526 01d0 EB000000 		.4byte	.LASF30
 527 01d4 04       		.byte	0x4
 528 01d5 6502     		.2byte	0x265
 529 01d7 84010000 		.4byte	0x184
 530 01db 02       		.byte	0x2
 531 01dc 23       		.byte	0x23
 532 01dd 0C       		.uleb128 0xc
 533 01de 00       		.byte	0
 534 01df 0A       		.uleb128 0xa
 535 01e0 3C020000 		.4byte	.LASF31
 536 01e4 04       		.byte	0x4
 537 01e5 6602     		.2byte	0x266
 538 01e7 99010000 		.4byte	0x199
 539 01eb 05       		.uleb128 0x5
 540 01ec 53000000 		.4byte	0x53
 541 01f0 08       		.uleb128 0x8
 542 01f1 1C       		.byte	0x1c
 543 01f2 05       		.byte	0x5
 544 01f3 3E03     		.2byte	0x33e
 545 01f5 61020000 		.4byte	0x261
 546 01f9 0E       		.uleb128 0xe
 547 01fa 41435200 		.ascii	"ACR\000"
 548 01fe 05       		.byte	0x5
 549 01ff 4003     		.2byte	0x340
 550 0201 97000000 		.4byte	0x97
 551 0205 02       		.byte	0x2
 552 0206 23       		.byte	0x23
 553 0207 00       		.uleb128 0
 554 0208 09       		.uleb128 0x9
 555 0209 7E010000 		.4byte	.LASF32
 556 020d 05       		.byte	0x5
 557 020e 4103     		.2byte	0x341
 558 0210 97000000 		.4byte	0x97
 559 0214 02       		.byte	0x2
 560 0215 23       		.byte	0x23
 561 0216 04       		.uleb128 0x4
 562 0217 09       		.uleb128 0x9
 563 0218 CE000000 		.4byte	.LASF33
 564 021c 05       		.byte	0x5
 565 021d 4203     		.2byte	0x342
 566 021f 97000000 		.4byte	0x97
 567 0223 02       		.byte	0x2
ARM GAS  C:\Users\Vergil\AppData\Local\Temp\ccCZKrLz.s 			page 11


 568 0224 23       		.byte	0x23
 569 0225 08       		.uleb128 0x8
 570 0226 0E       		.uleb128 0xe
 571 0227 535200   		.ascii	"SR\000"
 572 022a 05       		.byte	0x5
 573 022b 4303     		.2byte	0x343
 574 022d 97000000 		.4byte	0x97
 575 0231 02       		.byte	0x2
 576 0232 23       		.byte	0x23
 577 0233 0C       		.uleb128 0xc
 578 0234 0E       		.uleb128 0xe
 579 0235 435200   		.ascii	"CR\000"
 580 0238 05       		.byte	0x5
 581 0239 4403     		.2byte	0x344
 582 023b 97000000 		.4byte	0x97
 583 023f 02       		.byte	0x2
 584 0240 23       		.byte	0x23
 585 0241 10       		.uleb128 0x10
 586 0242 09       		.uleb128 0x9
 587 0243 63030000 		.4byte	.LASF34
 588 0247 05       		.byte	0x5
 589 0248 4503     		.2byte	0x345
 590 024a 97000000 		.4byte	0x97
 591 024e 02       		.byte	0x2
 592 024f 23       		.byte	0x23
 593 0250 14       		.uleb128 0x14
 594 0251 09       		.uleb128 0x9
 595 0252 6F010000 		.4byte	.LASF35
 596 0256 05       		.byte	0x5
 597 0257 4603     		.2byte	0x346
 598 0259 97000000 		.4byte	0x97
 599 025d 02       		.byte	0x2
 600 025e 23       		.byte	0x23
 601 025f 18       		.uleb128 0x18
 602 0260 00       		.byte	0
 603 0261 0A       		.uleb128 0xa
 604 0262 33030000 		.4byte	.LASF36
 605 0266 05       		.byte	0x5
 606 0267 4703     		.2byte	0x347
 607 0269 F0010000 		.4byte	0x1f0
 608 026d 08       		.uleb128 0x8
 609 026e 08       		.byte	0x8
 610 026f 05       		.byte	0x5
 611 0270 4E04     		.2byte	0x44e
 612 0272 94020000 		.4byte	0x294
 613 0276 0E       		.uleb128 0xe
 614 0277 435200   		.ascii	"CR\000"
 615 027a 05       		.byte	0x5
 616 027b 5004     		.2byte	0x450
 617 027d 97000000 		.4byte	0x97
 618 0281 02       		.byte	0x2
 619 0282 23       		.byte	0x23
 620 0283 00       		.uleb128 0
 621 0284 0E       		.uleb128 0xe
 622 0285 43535200 		.ascii	"CSR\000"
 623 0289 05       		.byte	0x5
 624 028a 5104     		.2byte	0x451
ARM GAS  C:\Users\Vergil\AppData\Local\Temp\ccCZKrLz.s 			page 12


 625 028c 97000000 		.4byte	0x97
 626 0290 02       		.byte	0x2
 627 0291 23       		.byte	0x23
 628 0292 04       		.uleb128 0x4
 629 0293 00       		.byte	0
 630 0294 0A       		.uleb128 0xa
 631 0295 51000000 		.4byte	.LASF37
 632 0299 05       		.byte	0x5
 633 029a 5204     		.2byte	0x452
 634 029c 6D020000 		.4byte	0x26d
 635 02a0 08       		.uleb128 0x8
 636 02a1 90       		.byte	0x90
 637 02a2 05       		.byte	0x5
 638 02a3 5804     		.2byte	0x458
 639 02a5 8D040000 		.4byte	0x48d
 640 02a9 0E       		.uleb128 0xe
 641 02aa 435200   		.ascii	"CR\000"
 642 02ad 05       		.byte	0x5
 643 02ae 5A04     		.2byte	0x45a
 644 02b0 97000000 		.4byte	0x97
 645 02b4 02       		.byte	0x2
 646 02b5 23       		.byte	0x23
 647 02b6 00       		.uleb128 0
 648 02b7 09       		.uleb128 0x9
 649 02b8 34020000 		.4byte	.LASF38
 650 02bc 05       		.byte	0x5
 651 02bd 5B04     		.2byte	0x45b
 652 02bf 97000000 		.4byte	0x97
 653 02c3 02       		.byte	0x2
 654 02c4 23       		.byte	0x23
 655 02c5 04       		.uleb128 0x4
 656 02c6 09       		.uleb128 0x9
 657 02c7 7A000000 		.4byte	.LASF39
 658 02cb 05       		.byte	0x5
 659 02cc 5C04     		.2byte	0x45c
 660 02ce 97000000 		.4byte	0x97
 661 02d2 02       		.byte	0x2
 662 02d3 23       		.byte	0x23
 663 02d4 08       		.uleb128 0x8
 664 02d5 0E       		.uleb128 0xe
 665 02d6 43495200 		.ascii	"CIR\000"
 666 02da 05       		.byte	0x5
 667 02db 5D04     		.2byte	0x45d
 668 02dd 97000000 		.4byte	0x97
 669 02e1 02       		.byte	0x2
 670 02e2 23       		.byte	0x23
 671 02e3 0C       		.uleb128 0xc
 672 02e4 09       		.uleb128 0x9
 673 02e5 19030000 		.4byte	.LASF40
 674 02e9 05       		.byte	0x5
 675 02ea 5E04     		.2byte	0x45e
 676 02ec 97000000 		.4byte	0x97
 677 02f0 02       		.byte	0x2
 678 02f1 23       		.byte	0x23
 679 02f2 10       		.uleb128 0x10
 680 02f3 09       		.uleb128 0x9
 681 02f4 0C020000 		.4byte	.LASF41
ARM GAS  C:\Users\Vergil\AppData\Local\Temp\ccCZKrLz.s 			page 13


 682 02f8 05       		.byte	0x5
 683 02f9 5F04     		.2byte	0x45f
 684 02fb 97000000 		.4byte	0x97
 685 02ff 02       		.byte	0x2
 686 0300 23       		.byte	0x23
 687 0301 14       		.uleb128 0x14
 688 0302 09       		.uleb128 0x9
 689 0303 2A030000 		.4byte	.LASF42
 690 0307 05       		.byte	0x5
 691 0308 6004     		.2byte	0x460
 692 030a 97000000 		.4byte	0x97
 693 030e 02       		.byte	0x2
 694 030f 23       		.byte	0x23
 695 0310 18       		.uleb128 0x18
 696 0311 09       		.uleb128 0x9
 697 0312 93020000 		.4byte	.LASF43
 698 0316 05       		.byte	0x5
 699 0317 6104     		.2byte	0x461
 700 0319 65000000 		.4byte	0x65
 701 031d 02       		.byte	0x2
 702 031e 23       		.byte	0x23
 703 031f 1C       		.uleb128 0x1c
 704 0320 09       		.uleb128 0x9
 705 0321 0A000000 		.4byte	.LASF44
 706 0325 05       		.byte	0x5
 707 0326 6204     		.2byte	0x462
 708 0328 97000000 		.4byte	0x97
 709 032c 02       		.byte	0x2
 710 032d 23       		.byte	0x23
 711 032e 20       		.uleb128 0x20
 712 032f 09       		.uleb128 0x9
 713 0330 55010000 		.4byte	.LASF45
 714 0334 05       		.byte	0x5
 715 0335 6304     		.2byte	0x463
 716 0337 97000000 		.4byte	0x97
 717 033b 02       		.byte	0x2
 718 033c 23       		.byte	0x23
 719 033d 24       		.uleb128 0x24
 720 033e 09       		.uleb128 0x9
 721 033f 9D020000 		.4byte	.LASF46
 722 0343 05       		.byte	0x5
 723 0344 6404     		.2byte	0x464
 724 0346 89010000 		.4byte	0x189
 725 034a 02       		.byte	0x2
 726 034b 23       		.byte	0x23
 727 034c 28       		.uleb128 0x28
 728 034d 09       		.uleb128 0x9
 729 034e 22030000 		.4byte	.LASF47
 730 0352 05       		.byte	0x5
 731 0353 6504     		.2byte	0x465
 732 0355 97000000 		.4byte	0x97
 733 0359 02       		.byte	0x2
 734 035a 23       		.byte	0x23
 735 035b 30       		.uleb128 0x30
 736 035c 09       		.uleb128 0x9
 737 035d 13000000 		.4byte	.LASF48
 738 0361 05       		.byte	0x5
ARM GAS  C:\Users\Vergil\AppData\Local\Temp\ccCZKrLz.s 			page 14


 739 0362 6604     		.2byte	0x466
 740 0364 97000000 		.4byte	0x97
 741 0368 02       		.byte	0x2
 742 0369 23       		.byte	0x23
 743 036a 34       		.uleb128 0x34
 744 036b 09       		.uleb128 0x9
 745 036c 76010000 		.4byte	.LASF49
 746 0370 05       		.byte	0x5
 747 0371 6704     		.2byte	0x467
 748 0373 97000000 		.4byte	0x97
 749 0377 02       		.byte	0x2
 750 0378 23       		.byte	0x23
 751 0379 38       		.uleb128 0x38
 752 037a 09       		.uleb128 0x9
 753 037b A7020000 		.4byte	.LASF50
 754 037f 05       		.byte	0x5
 755 0380 6804     		.2byte	0x468
 756 0382 65000000 		.4byte	0x65
 757 0386 02       		.byte	0x2
 758 0387 23       		.byte	0x23
 759 0388 3C       		.uleb128 0x3c
 760 0389 09       		.uleb128 0x9
 761 038a 86000000 		.4byte	.LASF51
 762 038e 05       		.byte	0x5
 763 038f 6904     		.2byte	0x469
 764 0391 97000000 		.4byte	0x97
 765 0395 02       		.byte	0x2
 766 0396 23       		.byte	0x23
 767 0397 40       		.uleb128 0x40
 768 0398 09       		.uleb128 0x9
 769 0399 98010000 		.4byte	.LASF52
 770 039d 05       		.byte	0x5
 771 039e 6A04     		.2byte	0x46a
 772 03a0 97000000 		.4byte	0x97
 773 03a4 02       		.byte	0x2
 774 03a5 23       		.byte	0x23
 775 03a6 44       		.uleb128 0x44
 776 03a7 09       		.uleb128 0x9
 777 03a8 B1020000 		.4byte	.LASF53
 778 03ac 05       		.byte	0x5
 779 03ad 6B04     		.2byte	0x46b
 780 03af 89010000 		.4byte	0x189
 781 03b3 02       		.byte	0x2
 782 03b4 23       		.byte	0x23
 783 03b5 48       		.uleb128 0x48
 784 03b6 09       		.uleb128 0x9
 785 03b7 00000000 		.4byte	.LASF54
 786 03bb 05       		.byte	0x5
 787 03bc 6C04     		.2byte	0x46c
 788 03be 97000000 		.4byte	0x97
 789 03c2 02       		.byte	0x2
 790 03c3 23       		.byte	0x23
 791 03c4 50       		.uleb128 0x50
 792 03c5 09       		.uleb128 0x9
 793 03c6 81020000 		.4byte	.LASF55
 794 03ca 05       		.byte	0x5
 795 03cb 6D04     		.2byte	0x46d
ARM GAS  C:\Users\Vergil\AppData\Local\Temp\ccCZKrLz.s 			page 15


 796 03cd 97000000 		.4byte	0x97
 797 03d1 02       		.byte	0x2
 798 03d2 23       		.byte	0x23
 799 03d3 54       		.uleb128 0x54
 800 03d4 09       		.uleb128 0x9
 801 03d5 70000000 		.4byte	.LASF56
 802 03d9 05       		.byte	0x5
 803 03da 6E04     		.2byte	0x46e
 804 03dc 97000000 		.4byte	0x97
 805 03e0 02       		.byte	0x2
 806 03e1 23       		.byte	0x23
 807 03e2 58       		.uleb128 0x58
 808 03e3 09       		.uleb128 0x9
 809 03e4 BB020000 		.4byte	.LASF57
 810 03e8 05       		.byte	0x5
 811 03e9 6F04     		.2byte	0x46f
 812 03eb 65000000 		.4byte	0x65
 813 03ef 02       		.byte	0x2
 814 03f0 23       		.byte	0x23
 815 03f1 5C       		.uleb128 0x5c
 816 03f2 09       		.uleb128 0x9
 817 03f3 5C020000 		.4byte	.LASF58
 818 03f7 05       		.byte	0x5
 819 03f8 7004     		.2byte	0x470
 820 03fa 97000000 		.4byte	0x97
 821 03fe 02       		.byte	0x2
 822 03ff 23       		.byte	0x23
 823 0400 60       		.uleb128 0x60
 824 0401 09       		.uleb128 0x9
 825 0402 59030000 		.4byte	.LASF59
 826 0406 05       		.byte	0x5
 827 0407 7104     		.2byte	0x471
 828 0409 97000000 		.4byte	0x97
 829 040d 02       		.byte	0x2
 830 040e 23       		.byte	0x23
 831 040f 64       		.uleb128 0x64
 832 0410 09       		.uleb128 0x9
 833 0411 C5020000 		.4byte	.LASF60
 834 0415 05       		.byte	0x5
 835 0416 7204     		.2byte	0x472
 836 0418 89010000 		.4byte	0x189
 837 041c 02       		.byte	0x2
 838 041d 23       		.byte	0x23
 839 041e 68       		.uleb128 0x68
 840 041f 09       		.uleb128 0x9
 841 0420 34000000 		.4byte	.LASF61
 842 0424 05       		.byte	0x5
 843 0425 7304     		.2byte	0x473
 844 0427 97000000 		.4byte	0x97
 845 042b 02       		.byte	0x2
 846 042c 23       		.byte	0x23
 847 042d 70       		.uleb128 0x70
 848 042e 0E       		.uleb128 0xe
 849 042f 43535200 		.ascii	"CSR\000"
 850 0433 05       		.byte	0x5
 851 0434 7404     		.2byte	0x474
 852 0436 97000000 		.4byte	0x97
ARM GAS  C:\Users\Vergil\AppData\Local\Temp\ccCZKrLz.s 			page 16


 853 043a 02       		.byte	0x2
 854 043b 23       		.byte	0x23
 855 043c 74       		.uleb128 0x74
 856 043d 09       		.uleb128 0x9
 857 043e CF020000 		.4byte	.LASF62
 858 0442 05       		.byte	0x5
 859 0443 7504     		.2byte	0x475
 860 0445 89010000 		.4byte	0x189
 861 0449 02       		.byte	0x2
 862 044a 23       		.byte	0x23
 863 044b 78       		.uleb128 0x78
 864 044c 09       		.uleb128 0x9
 865 044d 65000000 		.4byte	.LASF63
 866 0451 05       		.byte	0x5
 867 0452 7604     		.2byte	0x476
 868 0454 97000000 		.4byte	0x97
 869 0458 03       		.byte	0x3
 870 0459 23       		.byte	0x23
 871 045a 8001     		.uleb128 0x80
 872 045c 09       		.uleb128 0x9
 873 045d 46000000 		.4byte	.LASF64
 874 0461 05       		.byte	0x5
 875 0462 7704     		.2byte	0x477
 876 0464 97000000 		.4byte	0x97
 877 0468 03       		.byte	0x3
 878 0469 23       		.byte	0x23
 879 046a 8401     		.uleb128 0x84
 880 046c 09       		.uleb128 0x9
 881 046d 4E030000 		.4byte	.LASF65
 882 0471 05       		.byte	0x5
 883 0472 7804     		.2byte	0x478
 884 0474 97000000 		.4byte	0x97
 885 0478 03       		.byte	0x3
 886 0479 23       		.byte	0x23
 887 047a 8801     		.uleb128 0x88
 888 047c 09       		.uleb128 0x9
 889 047d BE000000 		.4byte	.LASF66
 890 0481 05       		.byte	0x5
 891 0482 7904     		.2byte	0x479
 892 0484 97000000 		.4byte	0x97
 893 0488 03       		.byte	0x3
 894 0489 23       		.byte	0x23
 895 048a 8C01     		.uleb128 0x8c
 896 048c 00       		.byte	0
 897 048d 0A       		.uleb128 0xa
 898 048e 49010000 		.4byte	.LASF67
 899 0492 05       		.byte	0x5
 900 0493 7B04     		.2byte	0x47b
 901 0495 A0020000 		.4byte	0x2a0
 902 0499 0F       		.uleb128 0xf
 903 049a 9D000000 		.4byte	.LASF71
 904 049e 01       		.byte	0x1
 905 049f 33       		.byte	0x33
 906 04a0 01       		.byte	0x1
 907 04a1 01       		.byte	0x1
 908 04a2 10       		.uleb128 0x10
 909 04a3 01       		.byte	0x1
ARM GAS  C:\Users\Vergil\AppData\Local\Temp\ccCZKrLz.s 			page 17


 910 04a4 27020000 		.4byte	.LASF72
 911 04a8 01       		.byte	0x1
 912 04a9 6F       		.byte	0x6f
 913 04aa 01       		.byte	0x1
 914 04ab 00000000 		.4byte	.LFB119
 915 04af A6000000 		.4byte	.LFE119
 916 04b3 00000000 		.4byte	.LLST0
 917 04b7 01       		.byte	0x1
 918 04b8 D6040000 		.4byte	0x4d6
 919 04bc 11       		.uleb128 0x11
 920 04bd 99040000 		.4byte	0x499
 921 04c1 66000000 		.4byte	.LBB4
 922 04c5 00000000 		.4byte	.Ldebug_ranges0+0
 923 04c9 01       		.byte	0x1
 924 04ca 87       		.byte	0x87
 925 04cb 12       		.uleb128 0x12
 926 04cc A6000000 		.4byte	.LVL0
 927 04d0 01       		.byte	0x1
 928 04d1 F9040000 		.4byte	0x4f9
 929 04d5 00       		.byte	0
 930 04d6 13       		.uleb128 0x13
 931 04d7 01       		.byte	0x1
 932 04d8 5E010000 		.4byte	.LASF73
 933 04dc 01       		.byte	0x1
 934 04dd 9A       		.byte	0x9a
 935 04de 01       		.byte	0x1
 936 04df 00000000 		.4byte	.LFB120
 937 04e3 E2000000 		.4byte	.LFE120
 938 04e7 02       		.byte	0x2
 939 04e8 7D       		.byte	0x7d
 940 04e9 00       		.sleb128 0
 941 04ea 01       		.byte	0x1
 942 04eb 14       		.uleb128 0x14
 943 04ec 41030000 		.4byte	.LASF74
 944 04f0 04       		.byte	0x4
 945 04f1 9806     		.2byte	0x698
 946 04f3 EB010000 		.4byte	0x1eb
 947 04f7 01       		.byte	0x1
 948 04f8 01       		.byte	0x1
 949 04f9 15       		.uleb128 0x15
 950 04fa 01       		.byte	0x1
 951 04fb 8B020000 		.4byte	.LASF75
 952 04ff 06       		.byte	0x6
 953 0500 C101     		.2byte	0x1c1
 954 0502 01       		.byte	0x1
 955 0503 01       		.byte	0x1
 956 0504 00       		.byte	0
 957              		.section	.debug_abbrev,"",%progbits
 958              	.Ldebug_abbrev0:
 959 0000 01       		.uleb128 0x1
 960 0001 11       		.uleb128 0x11
 961 0002 01       		.byte	0x1
 962 0003 25       		.uleb128 0x25
 963 0004 0E       		.uleb128 0xe
 964 0005 13       		.uleb128 0x13
 965 0006 0B       		.uleb128 0xb
 966 0007 03       		.uleb128 0x3
ARM GAS  C:\Users\Vergil\AppData\Local\Temp\ccCZKrLz.s 			page 18


 967 0008 0E       		.uleb128 0xe
 968 0009 1B       		.uleb128 0x1b
 969 000a 0E       		.uleb128 0xe
 970 000b 55       		.uleb128 0x55
 971 000c 06       		.uleb128 0x6
 972 000d 11       		.uleb128 0x11
 973 000e 01       		.uleb128 0x1
 974 000f 52       		.uleb128 0x52
 975 0010 01       		.uleb128 0x1
 976 0011 10       		.uleb128 0x10
 977 0012 06       		.uleb128 0x6
 978 0013 00       		.byte	0
 979 0014 00       		.byte	0
 980 0015 02       		.uleb128 0x2
 981 0016 24       		.uleb128 0x24
 982 0017 00       		.byte	0
 983 0018 0B       		.uleb128 0xb
 984 0019 0B       		.uleb128 0xb
 985 001a 3E       		.uleb128 0x3e
 986 001b 0B       		.uleb128 0xb
 987 001c 03       		.uleb128 0x3
 988 001d 08       		.uleb128 0x8
 989 001e 00       		.byte	0
 990 001f 00       		.byte	0
 991 0020 03       		.uleb128 0x3
 992 0021 24       		.uleb128 0x24
 993 0022 00       		.byte	0
 994 0023 0B       		.uleb128 0xb
 995 0024 0B       		.uleb128 0xb
 996 0025 3E       		.uleb128 0x3e
 997 0026 0B       		.uleb128 0xb
 998 0027 03       		.uleb128 0x3
 999 0028 0E       		.uleb128 0xe
 1000 0029 00       		.byte	0
 1001 002a 00       		.byte	0
 1002 002b 04       		.uleb128 0x4
 1003 002c 16       		.uleb128 0x16
 1004 002d 00       		.byte	0
 1005 002e 03       		.uleb128 0x3
 1006 002f 0E       		.uleb128 0xe
 1007 0030 3A       		.uleb128 0x3a
 1008 0031 0B       		.uleb128 0xb
 1009 0032 3B       		.uleb128 0x3b
 1010 0033 0B       		.uleb128 0xb
 1011 0034 49       		.uleb128 0x49
 1012 0035 13       		.uleb128 0x13
 1013 0036 00       		.byte	0
 1014 0037 00       		.byte	0
 1015 0038 05       		.uleb128 0x5
 1016 0039 35       		.uleb128 0x35
 1017 003a 00       		.byte	0
 1018 003b 49       		.uleb128 0x49
 1019 003c 13       		.uleb128 0x13
 1020 003d 00       		.byte	0
 1021 003e 00       		.byte	0
 1022 003f 06       		.uleb128 0x6
 1023 0040 13       		.uleb128 0x13
ARM GAS  C:\Users\Vergil\AppData\Local\Temp\ccCZKrLz.s 			page 19


 1024 0041 01       		.byte	0x1
 1025 0042 0B       		.uleb128 0xb
 1026 0043 0B       		.uleb128 0xb
 1027 0044 3A       		.uleb128 0x3a
 1028 0045 0B       		.uleb128 0xb
 1029 0046 3B       		.uleb128 0x3b
 1030 0047 0B       		.uleb128 0xb
 1031 0048 01       		.uleb128 0x1
 1032 0049 13       		.uleb128 0x13
 1033 004a 00       		.byte	0
 1034 004b 00       		.byte	0
 1035 004c 07       		.uleb128 0x7
 1036 004d 0D       		.uleb128 0xd
 1037 004e 00       		.byte	0
 1038 004f 03       		.uleb128 0x3
 1039 0050 0E       		.uleb128 0xe
 1040 0051 3A       		.uleb128 0x3a
 1041 0052 0B       		.uleb128 0xb
 1042 0053 3B       		.uleb128 0x3b
 1043 0054 0B       		.uleb128 0xb
 1044 0055 49       		.uleb128 0x49
 1045 0056 13       		.uleb128 0x13
 1046 0057 38       		.uleb128 0x38
 1047 0058 0A       		.uleb128 0xa
 1048 0059 00       		.byte	0
 1049 005a 00       		.byte	0
 1050 005b 08       		.uleb128 0x8
 1051 005c 13       		.uleb128 0x13
 1052 005d 01       		.byte	0x1
 1053 005e 0B       		.uleb128 0xb
 1054 005f 0B       		.uleb128 0xb
 1055 0060 3A       		.uleb128 0x3a
 1056 0061 0B       		.uleb128 0xb
 1057 0062 3B       		.uleb128 0x3b
 1058 0063 05       		.uleb128 0x5
 1059 0064 01       		.uleb128 0x1
 1060 0065 13       		.uleb128 0x13
 1061 0066 00       		.byte	0
 1062 0067 00       		.byte	0
 1063 0068 09       		.uleb128 0x9
 1064 0069 0D       		.uleb128 0xd
 1065 006a 00       		.byte	0
 1066 006b 03       		.uleb128 0x3
 1067 006c 0E       		.uleb128 0xe
 1068 006d 3A       		.uleb128 0x3a
 1069 006e 0B       		.uleb128 0xb
 1070 006f 3B       		.uleb128 0x3b
 1071 0070 05       		.uleb128 0x5
 1072 0071 49       		.uleb128 0x49
 1073 0072 13       		.uleb128 0x13
 1074 0073 38       		.uleb128 0x38
 1075 0074 0A       		.uleb128 0xa
 1076 0075 00       		.byte	0
 1077 0076 00       		.byte	0
 1078 0077 0A       		.uleb128 0xa
 1079 0078 16       		.uleb128 0x16
 1080 0079 00       		.byte	0
ARM GAS  C:\Users\Vergil\AppData\Local\Temp\ccCZKrLz.s 			page 20


 1081 007a 03       		.uleb128 0x3
 1082 007b 0E       		.uleb128 0xe
 1083 007c 3A       		.uleb128 0x3a
 1084 007d 0B       		.uleb128 0xb
 1085 007e 3B       		.uleb128 0x3b
 1086 007f 05       		.uleb128 0x5
 1087 0080 49       		.uleb128 0x49
 1088 0081 13       		.uleb128 0x13
 1089 0082 00       		.byte	0
 1090 0083 00       		.byte	0
 1091 0084 0B       		.uleb128 0xb
 1092 0085 26       		.uleb128 0x26
 1093 0086 00       		.byte	0
 1094 0087 49       		.uleb128 0x49
 1095 0088 13       		.uleb128 0x13
 1096 0089 00       		.byte	0
 1097 008a 00       		.byte	0
 1098 008b 0C       		.uleb128 0xc
 1099 008c 01       		.uleb128 0x1
 1100 008d 01       		.byte	0x1
 1101 008e 49       		.uleb128 0x49
 1102 008f 13       		.uleb128 0x13
 1103 0090 01       		.uleb128 0x1
 1104 0091 13       		.uleb128 0x13
 1105 0092 00       		.byte	0
 1106 0093 00       		.byte	0
 1107 0094 0D       		.uleb128 0xd
 1108 0095 21       		.uleb128 0x21
 1109 0096 00       		.byte	0
 1110 0097 49       		.uleb128 0x49
 1111 0098 13       		.uleb128 0x13
 1112 0099 2F       		.uleb128 0x2f
 1113 009a 0B       		.uleb128 0xb
 1114 009b 00       		.byte	0
 1115 009c 00       		.byte	0
 1116 009d 0E       		.uleb128 0xe
 1117 009e 0D       		.uleb128 0xd
 1118 009f 00       		.byte	0
 1119 00a0 03       		.uleb128 0x3
 1120 00a1 08       		.uleb128 0x8
 1121 00a2 3A       		.uleb128 0x3a
 1122 00a3 0B       		.uleb128 0xb
 1123 00a4 3B       		.uleb128 0x3b
 1124 00a5 05       		.uleb128 0x5
 1125 00a6 49       		.uleb128 0x49
 1126 00a7 13       		.uleb128 0x13
 1127 00a8 38       		.uleb128 0x38
 1128 00a9 0A       		.uleb128 0xa
 1129 00aa 00       		.byte	0
 1130 00ab 00       		.byte	0
 1131 00ac 0F       		.uleb128 0xf
 1132 00ad 2E       		.uleb128 0x2e
 1133 00ae 00       		.byte	0
 1134 00af 03       		.uleb128 0x3
 1135 00b0 0E       		.uleb128 0xe
 1136 00b1 3A       		.uleb128 0x3a
 1137 00b2 0B       		.uleb128 0xb
ARM GAS  C:\Users\Vergil\AppData\Local\Temp\ccCZKrLz.s 			page 21


 1138 00b3 3B       		.uleb128 0x3b
 1139 00b4 0B       		.uleb128 0xb
 1140 00b5 27       		.uleb128 0x27
 1141 00b6 0C       		.uleb128 0xc
 1142 00b7 20       		.uleb128 0x20
 1143 00b8 0B       		.uleb128 0xb
 1144 00b9 00       		.byte	0
 1145 00ba 00       		.byte	0
 1146 00bb 10       		.uleb128 0x10
 1147 00bc 2E       		.uleb128 0x2e
 1148 00bd 01       		.byte	0x1
 1149 00be 3F       		.uleb128 0x3f
 1150 00bf 0C       		.uleb128 0xc
 1151 00c0 03       		.uleb128 0x3
 1152 00c1 0E       		.uleb128 0xe
 1153 00c2 3A       		.uleb128 0x3a
 1154 00c3 0B       		.uleb128 0xb
 1155 00c4 3B       		.uleb128 0x3b
 1156 00c5 0B       		.uleb128 0xb
 1157 00c6 27       		.uleb128 0x27
 1158 00c7 0C       		.uleb128 0xc
 1159 00c8 11       		.uleb128 0x11
 1160 00c9 01       		.uleb128 0x1
 1161 00ca 12       		.uleb128 0x12
 1162 00cb 01       		.uleb128 0x1
 1163 00cc 40       		.uleb128 0x40
 1164 00cd 06       		.uleb128 0x6
 1165 00ce 9742     		.uleb128 0x2117
 1166 00d0 0C       		.uleb128 0xc
 1167 00d1 01       		.uleb128 0x1
 1168 00d2 13       		.uleb128 0x13
 1169 00d3 00       		.byte	0
 1170 00d4 00       		.byte	0
 1171 00d5 11       		.uleb128 0x11
 1172 00d6 1D       		.uleb128 0x1d
 1173 00d7 00       		.byte	0
 1174 00d8 31       		.uleb128 0x31
 1175 00d9 13       		.uleb128 0x13
 1176 00da 52       		.uleb128 0x52
 1177 00db 01       		.uleb128 0x1
 1178 00dc 55       		.uleb128 0x55
 1179 00dd 06       		.uleb128 0x6
 1180 00de 58       		.uleb128 0x58
 1181 00df 0B       		.uleb128 0xb
 1182 00e0 59       		.uleb128 0x59
 1183 00e1 0B       		.uleb128 0xb
 1184 00e2 00       		.byte	0
 1185 00e3 00       		.byte	0
 1186 00e4 12       		.uleb128 0x12
 1187 00e5 898201   		.uleb128 0x4109
 1188 00e8 00       		.byte	0
 1189 00e9 11       		.uleb128 0x11
 1190 00ea 01       		.uleb128 0x1
 1191 00eb 9542     		.uleb128 0x2115
 1192 00ed 0C       		.uleb128 0xc
 1193 00ee 31       		.uleb128 0x31
 1194 00ef 13       		.uleb128 0x13
ARM GAS  C:\Users\Vergil\AppData\Local\Temp\ccCZKrLz.s 			page 22


 1195 00f0 00       		.byte	0
 1196 00f1 00       		.byte	0
 1197 00f2 13       		.uleb128 0x13
 1198 00f3 2E       		.uleb128 0x2e
 1199 00f4 00       		.byte	0
 1200 00f5 3F       		.uleb128 0x3f
 1201 00f6 0C       		.uleb128 0xc
 1202 00f7 03       		.uleb128 0x3
 1203 00f8 0E       		.uleb128 0xe
 1204 00f9 3A       		.uleb128 0x3a
 1205 00fa 0B       		.uleb128 0xb
 1206 00fb 3B       		.uleb128 0x3b
 1207 00fc 0B       		.uleb128 0xb
 1208 00fd 27       		.uleb128 0x27
 1209 00fe 0C       		.uleb128 0xc
 1210 00ff 11       		.uleb128 0x11
 1211 0100 01       		.uleb128 0x1
 1212 0101 12       		.uleb128 0x12
 1213 0102 01       		.uleb128 0x1
 1214 0103 40       		.uleb128 0x40
 1215 0104 0A       		.uleb128 0xa
 1216 0105 9742     		.uleb128 0x2117
 1217 0107 0C       		.uleb128 0xc
 1218 0108 00       		.byte	0
 1219 0109 00       		.byte	0
 1220 010a 14       		.uleb128 0x14
 1221 010b 34       		.uleb128 0x34
 1222 010c 00       		.byte	0
 1223 010d 03       		.uleb128 0x3
 1224 010e 0E       		.uleb128 0xe
 1225 010f 3A       		.uleb128 0x3a
 1226 0110 0B       		.uleb128 0xb
 1227 0111 3B       		.uleb128 0x3b
 1228 0112 05       		.uleb128 0x5
 1229 0113 49       		.uleb128 0x49
 1230 0114 13       		.uleb128 0x13
 1231 0115 3F       		.uleb128 0x3f
 1232 0116 0C       		.uleb128 0xc
 1233 0117 3C       		.uleb128 0x3c
 1234 0118 0C       		.uleb128 0xc
 1235 0119 00       		.byte	0
 1236 011a 00       		.byte	0
 1237 011b 15       		.uleb128 0x15
 1238 011c 2E       		.uleb128 0x2e
 1239 011d 00       		.byte	0
 1240 011e 3F       		.uleb128 0x3f
 1241 011f 0C       		.uleb128 0xc
 1242 0120 03       		.uleb128 0x3
 1243 0121 0E       		.uleb128 0xe
 1244 0122 3A       		.uleb128 0x3a
 1245 0123 0B       		.uleb128 0xb
 1246 0124 3B       		.uleb128 0x3b
 1247 0125 05       		.uleb128 0x5
 1248 0126 27       		.uleb128 0x27
 1249 0127 0C       		.uleb128 0xc
 1250 0128 3C       		.uleb128 0x3c
 1251 0129 0C       		.uleb128 0xc
ARM GAS  C:\Users\Vergil\AppData\Local\Temp\ccCZKrLz.s 			page 23


 1252 012a 00       		.byte	0
 1253 012b 00       		.byte	0
 1254 012c 00       		.byte	0
 1255              		.section	.debug_loc,"",%progbits
 1256              	.Ldebug_loc0:
 1257              	.LLST0:
 1258 0000 00000000 		.4byte	.LFB119
 1259 0004 0A000000 		.4byte	.LCFI0
 1260 0008 0200     		.2byte	0x2
 1261 000a 7D       		.byte	0x7d
 1262 000b 00       		.sleb128 0
 1263 000c 0A000000 		.4byte	.LCFI0
 1264 0010 A6000000 		.4byte	.LFE119
 1265 0014 0200     		.2byte	0x2
 1266 0016 7D       		.byte	0x7d
 1267 0017 0C       		.sleb128 12
 1268 0018 00000000 		.4byte	0
 1269 001c 00000000 		.4byte	0
 1270              		.section	.debug_aranges,"",%progbits
 1271 0000 24000000 		.4byte	0x24
 1272 0004 0200     		.2byte	0x2
 1273 0006 00000000 		.4byte	.Ldebug_info0
 1274 000a 04       		.byte	0x4
 1275 000b 00       		.byte	0
 1276 000c 0000     		.2byte	0
 1277 000e 0000     		.2byte	0
 1278 0010 00000000 		.4byte	.LFB119
 1279 0014 A6000000 		.4byte	.LFE119-.LFB119
 1280 0018 00000000 		.4byte	.LFB120
 1281 001c E2000000 		.4byte	.LFE120-.LFB120
 1282 0020 00000000 		.4byte	0
 1283 0024 00000000 		.4byte	0
 1284              		.section	.debug_ranges,"",%progbits
 1285              	.Ldebug_ranges0:
 1286 0000 66000000 		.4byte	.LBB4
 1287 0004 6E000000 		.4byte	.LBE4
 1288 0008 74000000 		.4byte	.LBB7
 1289 000c A0000000 		.4byte	.LBE7
 1290 0010 00000000 		.4byte	0
 1291 0014 00000000 		.4byte	0
 1292 0018 00000000 		.4byte	.LFB119
 1293 001c A6000000 		.4byte	.LFE119
 1294 0020 00000000 		.4byte	.LFB120
 1295 0024 E2000000 		.4byte	.LFE120
 1296 0028 00000000 		.4byte	0
 1297 002c 00000000 		.4byte	0
 1298              		.section	.debug_line,"",%progbits
 1299              	.Ldebug_line0:
 1300 0000 E9010000 		.section	.debug_str,"MS",%progbits,1
 1300      02004701 
 1300      00000201 
 1300      FB0E0D00 
 1300      01010101 
 1301              	.LASF54:
 1302 0000 41484231 		.ascii	"AHB1LPENR\000"
 1302      4C50454E 
 1302      5200
ARM GAS  C:\Users\Vergil\AppData\Local\Temp\ccCZKrLz.s 			page 24


 1303              	.LASF44:
 1304 000a 41504231 		.ascii	"APB1RSTR\000"
 1304      52535452 
 1304      00
 1305              	.LASF48:
 1306 0013 41484232 		.ascii	"AHB2ENR\000"
 1306      454E5200 
 1307              	.LASF17:
 1308 001b 44454D43 		.ascii	"DEMCR\000"
 1308      5200
 1309              	.LASF3:
 1310 0021 73686F72 		.ascii	"short int\000"
 1310      7420696E 
 1310      7400
 1311              	.LASF13:
 1312 002b 73697A65 		.ascii	"sizetype\000"
 1312      74797065 
 1312      00
 1313              	.LASF61:
 1314 0034 42444352 		.ascii	"BDCR\000"
 1314      00
 1315              	.LASF26:
 1316 0039 50435352 		.ascii	"PCSR\000"
 1316      00
 1317              	.LASF25:
 1318 003e 464F4C44 		.ascii	"FOLDCNT\000"
 1318      434E5400 
 1319              	.LASF64:
 1320 0046 504C4C49 		.ascii	"PLLI2SCFGR\000"
 1320      32534346 
 1320      475200
 1321              	.LASF37:
 1322 0051 5057525F 		.ascii	"PWR_TypeDef\000"
 1322      54797065 
 1322      44656600 
 1323              	.LASF27:
 1324 005d 434D785F 		.ascii	"CMx_DWT\000"
 1324      44575400 
 1325              	.LASF63:
 1326 0065 53534347 		.ascii	"SSCGR\000"
 1326      5200
 1327              	.LASF19:
 1328 006b 4354524C 		.ascii	"CTRL\000"
 1328      00
 1329              	.LASF56:
 1330 0070 41484233 		.ascii	"AHB3LPENR\000"
 1330      4C50454E 
 1330      5200
 1331              	.LASF39:
 1332 007a 43464752 		.ascii	"CFGR\000"
 1332      00
 1333              	.LASF21:
 1334 007f 43504943 		.ascii	"CPICNT\000"
 1334      4E5400
 1335              	.LASF51:
 1336 0086 41504231 		.ascii	"APB1ENR\000"
 1336      454E5200 
ARM GAS  C:\Users\Vergil\AppData\Local\Temp\ccCZKrLz.s 			page 25


 1337              	.LASF15:
 1338 008e 44435253 		.ascii	"DCRSR\000"
 1338      5200
 1339              	.LASF7:
 1340 0094 75696E74 		.ascii	"uint32_t\000"
 1340      33325F74 
 1340      00
 1341              	.LASF71:
 1342 009d 68616C5F 		.ascii	"hal_lld_backup_domain_init\000"
 1342      6C6C645F 
 1342      6261636B 
 1342      75705F64 
 1342      6F6D6169 
 1343              	.LASF16:
 1344 00b8 44435244 		.ascii	"DCRDR\000"
 1344      5200
 1345              	.LASF66:
 1346 00be 44434B43 		.ascii	"DCKCFGR\000"
 1346      46475200 
 1347              	.LASF12:
 1348 00c6 494F5245 		.ascii	"IOREG32\000"
 1348      47333200 
 1349              	.LASF33:
 1350 00ce 4F50544B 		.ascii	"OPTKEYR\000"
 1350      45595200 
 1351              	.LASF9:
 1352 00d6 6C6F6E67 		.ascii	"long long int\000"
 1352      206C6F6E 
 1352      6720696E 
 1352      7400
 1353              	.LASF20:
 1354 00e4 43594343 		.ascii	"CYCCNT\000"
 1354      4E5400
 1355              	.LASF30:
 1356 00eb 43414C49 		.ascii	"CALIB\000"
 1356      4200
 1357              	.LASF68:
 1358 00f1 474E5520 		.ascii	"GNU C 4.7.4 20140401 (release) [ARM/embedded-4_7-br"
 1358      4320342E 
 1358      372E3420 
 1358      32303134 
 1358      30343031 
 1359 0124 616E6368 		.ascii	"anch revision 209195]\000"
 1359      20726576 
 1359      6973696F 
 1359      6E203230 
 1359      39313935 
 1360              	.LASF14:
 1361 013a 44484353 		.ascii	"DHCSR\000"
 1361      5200
 1362              	.LASF5:
 1363 0140 6C6F6E67 		.ascii	"long int\000"
 1363      20696E74 
 1363      00
 1364              	.LASF67:
 1365 0149 5243435F 		.ascii	"RCC_TypeDef\000"
 1365      54797065 
ARM GAS  C:\Users\Vergil\AppData\Local\Temp\ccCZKrLz.s 			page 26


 1365      44656600 
 1366              	.LASF45:
 1367 0155 41504232 		.ascii	"APB2RSTR\000"
 1367      52535452 
 1367      00
 1368              	.LASF73:
 1369 015e 73746D33 		.ascii	"stm32_clock_init\000"
 1369      325F636C 
 1369      6F636B5F 
 1369      696E6974 
 1369      00
 1370              	.LASF35:
 1371 016f 4F505443 		.ascii	"OPTCR1\000"
 1371      523100
 1372              	.LASF49:
 1373 0176 41484233 		.ascii	"AHB3ENR\000"
 1373      454E5200 
 1374              	.LASF32:
 1375 017e 4B455952 		.ascii	"KEYR\000"
 1375      00
 1376              	.LASF22:
 1377 0183 45584343 		.ascii	"EXCCNT\000"
 1377      4E5400
 1378              	.LASF2:
 1379 018a 756E7369 		.ascii	"unsigned char\000"
 1379      676E6564 
 1379      20636861 
 1379      7200
 1380              	.LASF52:
 1381 0198 41504232 		.ascii	"APB2ENR\000"
 1381      454E5200 
 1382              	.LASF1:
 1383 01a0 7369676E 		.ascii	"signed char\000"
 1383      65642063 
 1383      68617200 
 1384              	.LASF10:
 1385 01ac 6C6F6E67 		.ascii	"long long unsigned int\000"
 1385      206C6F6E 
 1385      6720756E 
 1385      7369676E 
 1385      65642069 
 1386              	.LASF70:
 1387 01c3 433A5C43 		.ascii	"C:\\ChibiStudio\\chibios\\demos\\ARMCM4-STM32F401RE"
 1387      68696269 
 1387      53747564 
 1387      696F5C63 
 1387      68696269 
 1388 01f2 2D4E5543 		.ascii	"-NUCLEO-CC3K\000"
 1388      4C454F2D 
 1388      4343334B 
 1388      00
 1389              	.LASF0:
 1390 01ff 756E7369 		.ascii	"unsigned int\000"
 1390      676E6564 
 1390      20696E74 
 1390      00
 1391              	.LASF41:
ARM GAS  C:\Users\Vergil\AppData\Local\Temp\ccCZKrLz.s 			page 27


 1392 020c 41484232 		.ascii	"AHB2RSTR\000"
 1392      52535452 
 1392      00
 1393              	.LASF8:
 1394 0215 6C6F6E67 		.ascii	"long unsigned int\000"
 1394      20756E73 
 1394      69676E65 
 1394      6420696E 
 1394      7400
 1395              	.LASF72:
 1396 0227 68616C5F 		.ascii	"hal_lld_init\000"
 1396      6C6C645F 
 1396      696E6974 
 1396      00
 1397              	.LASF38:
 1398 0234 504C4C43 		.ascii	"PLLCFGR\000"
 1398      46475200 
 1399              	.LASF31:
 1400 023c 53797354 		.ascii	"SysTick_Type\000"
 1400      69636B5F 
 1400      54797065 
 1400      00
 1401              	.LASF4:
 1402 0249 73686F72 		.ascii	"short unsigned int\000"
 1402      7420756E 
 1402      7369676E 
 1402      65642069 
 1402      6E7400
 1403              	.LASF58:
 1404 025c 41504231 		.ascii	"APB1LPENR\000"
 1404      4C50454E 
 1404      5200
 1405              	.LASF28:
 1406 0266 63686172 		.ascii	"char\000"
 1406      00
 1407              	.LASF18:
 1408 026b 434D785F 		.ascii	"CMx_SCS\000"
 1408      53435300 
 1409              	.LASF6:
 1410 0273 696E7433 		.ascii	"int32_t\000"
 1410      325F7400 
 1411              	.LASF11:
 1412 027b 5F426F6F 		.ascii	"_Bool\000"
 1412      6C00
 1413              	.LASF55:
 1414 0281 41484232 		.ascii	"AHB2LPENR\000"
 1414      4C50454E 
 1414      5200
 1415              	.LASF75:
 1416 028b 646D6149 		.ascii	"dmaInit\000"
 1416      6E697400 
 1417              	.LASF43:
 1418 0293 52455345 		.ascii	"RESERVED0\000"
 1418      52564544 
 1418      3000
 1419              	.LASF46:
 1420 029d 52455345 		.ascii	"RESERVED1\000"
ARM GAS  C:\Users\Vergil\AppData\Local\Temp\ccCZKrLz.s 			page 28


 1420      52564544 
 1420      3100
 1421              	.LASF50:
 1422 02a7 52455345 		.ascii	"RESERVED2\000"
 1422      52564544 
 1422      3200
 1423              	.LASF53:
 1424 02b1 52455345 		.ascii	"RESERVED3\000"
 1424      52564544 
 1424      3300
 1425              	.LASF57:
 1426 02bb 52455345 		.ascii	"RESERVED4\000"
 1426      52564544 
 1426      3400
 1427              	.LASF60:
 1428 02c5 52455345 		.ascii	"RESERVED5\000"
 1428      52564544 
 1428      3500
 1429              	.LASF62:
 1430 02cf 52455345 		.ascii	"RESERVED6\000"
 1430      52564544 
 1430      3600
 1431              	.LASF23:
 1432 02d9 534C4545 		.ascii	"SLEEPCNT\000"
 1432      50434E54 
 1432      00
 1433              	.LASF69:
 1434 02e2 2E2E2F2E 		.ascii	"../../os/hal/platforms/STM32F4xx/hal_lld.c\000"
 1434      2E2F6F73 
 1434      2F68616C 
 1434      2F706C61 
 1434      74666F72 
 1435              	.LASF24:
 1436 030d 4C535543 		.ascii	"LSUCNT\000"
 1436      4E5400
 1437              	.LASF29:
 1438 0314 4C4F4144 		.ascii	"LOAD\000"
 1438      00
 1439              	.LASF40:
 1440 0319 41484231 		.ascii	"AHB1RSTR\000"
 1440      52535452 
 1440      00
 1441              	.LASF47:
 1442 0322 41484231 		.ascii	"AHB1ENR\000"
 1442      454E5200 
 1443              	.LASF42:
 1444 032a 41484233 		.ascii	"AHB3RSTR\000"
 1444      52535452 
 1444      00
 1445              	.LASF36:
 1446 0333 464C4153 		.ascii	"FLASH_TypeDef\000"
 1446      485F5479 
 1446      70654465 
 1446      6600
 1447              	.LASF74:
 1448 0341 49544D5F 		.ascii	"ITM_RxBuffer\000"
 1448      52784275 
ARM GAS  C:\Users\Vergil\AppData\Local\Temp\ccCZKrLz.s 			page 29


 1448      66666572 
 1448      00
 1449              	.LASF65:
 1450 034e 504C4C53 		.ascii	"PLLSAICFGR\000"
 1450      41494346 
 1450      475200
 1451              	.LASF59:
 1452 0359 41504232 		.ascii	"APB2LPENR\000"
 1452      4C50454E 
 1452      5200
 1453              	.LASF34:
 1454 0363 4F505443 		.ascii	"OPTCR\000"
 1454      5200
 1455              		.ident	"GCC: (GNU Tools for ARM Embedded Processors) 4.7.4 20140401 (release) [ARM/embedded-4_7-br
ARM GAS  C:\Users\Vergil\AppData\Local\Temp\ccCZKrLz.s 			page 30


DEFINED SYMBOLS
                            *ABS*:00000000 hal_lld.c
C:\Users\Vergil\AppData\Local\Temp\ccCZKrLz.s:21     .text.hal_lld_init:00000000 $t
C:\Users\Vergil\AppData\Local\Temp\ccCZKrLz.s:27     .text.hal_lld_init:00000000 hal_lld_init
C:\Users\Vergil\AppData\Local\Temp\ccCZKrLz.s:145    .text.stm32_clock_init:00000000 $t
C:\Users\Vergil\AppData\Local\Temp\ccCZKrLz.s:151    .text.stm32_clock_init:00000000 stm32_clock_init
                     .debug_frame:00000010 $d

UNDEFINED SYMBOLS
dmaInit
