ARM GAS  C:\Users\Vergil\AppData\Local\Temp\cckr4Mvm.s 			page 1


   1              		.syntax unified
   2              		.cpu cortex-m4
   3              		.eabi_attribute 27, 3
   4              		.eabi_attribute 28, 1
   5              		.fpu fpv4-sp-d16
   6              		.eabi_attribute 20, 1
   7              		.eabi_attribute 21, 1
   8              		.eabi_attribute 23, 3
   9              		.eabi_attribute 24, 1
  10              		.eabi_attribute 25, 1
  11              		.eabi_attribute 26, 1
  12              		.eabi_attribute 30, 2
  13              		.eabi_attribute 34, 1
  14              		.eabi_attribute 18, 4
  15              		.thumb
  16              		.file	"httptypes.cpp"
  17              		.text
  18              	.Ltext0:
  19              		.cfi_sections	.debug_frame
  20              		.section	.text._Z10getConTypePKc,"ax",%progbits
  21              		.align	2
  22              		.p2align 4,,15
  23              		.global	_Z10getConTypePKc
  24              		.thumb
  25              		.thumb_func
  26              		.type	_Z10getConTypePKc, %function
  27              	_Z10getConTypePKc:
  28              	.LFB0:
  29              		.file 1 "C:/ChibiStudio/chibios/demos/ARMCM4-STM32F401RE-NUCLEO-CC3K/openweathermap/httptypes.cpp"
  30              		.loc 1 25 0
  31              		.cfi_startproc
  32              		@ args = 0, pretend = 0, frame = 0
  33              		@ frame_needed = 0, uses_anonymous_args = 0
  34              	.LVL0:
  35 0000 10B5     		push	{r4, lr}
  36              	.LCFI0:
  37              		.cfi_def_cfa_offset 8
  38              		.cfi_offset 4, -8
  39              		.cfi_offset 14, -4
  40              	.LBB2:
  41              		.loc 1 30 0
  42 0002 0B49     		ldr	r1, .L9
  43              	.LBE2:
  44              		.loc 1 25 0
  45 0004 0446     		mov	r4, r0
  46              	.LBB3:
  47              		.loc 1 30 0
  48 0006 FFF7FEFF 		bl	strstr
  49              	.LVL1:
  50 000a 50B9     		cbnz	r0, .L4
  51              	.LVL2:
  52 000c 2046     		mov	r0, r4
  53 000e 0949     		ldr	r1, .L9+4
  54 0010 FFF7FEFF 		bl	strstr
  55              	.LVL3:
  56 0014 40B9     		cbnz	r0, .L5
  57              	.LVL4:
ARM GAS  C:\Users\Vergil\AppData\Local\Temp\cckr4Mvm.s 			page 2


  58 0016 2046     		mov	r0, r4
  59 0018 0749     		ldr	r1, .L9+8
  60 001a FFF7FEFF 		bl	strstr
  61              	.LVL5:
  62 001e 28B9     		cbnz	r0, .L8
  63              	.LBE3:
  64              		.loc 1 34 0
  65 0020 10BD     		pop	{r4, pc}
  66              	.LVL6:
  67              	.L4:
  68              	.LBB4:
  69              		.loc 1 29 0
  70 0022 0020     		movs	r0, #0
  71              	.LVL7:
  72              	.L2:
  73              		.loc 1 30 0 discriminator 1
  74 0024 C0B2     		uxtb	r0, r0
  75              	.LBE4:
  76              		.loc 1 34 0 discriminator 1
  77 0026 10BD     		pop	{r4, pc}
  78              	.LVL8:
  79              	.L5:
  80              	.LBB5:
  81              		.loc 1 29 0
  82 0028 0120     		movs	r0, #1
  83 002a FBE7     		b	.L2
  84              	.LVL9:
  85              	.L8:
  86              		.loc 1 30 0
  87 002c 0220     		movs	r0, #2
  88 002e F9E7     		b	.L2
  89              	.L10:
  90              		.align	2
  91              	.L9:
  92 0030 00000000 		.word	.LC0
  93 0034 08000000 		.word	.LC1
  94 0038 0C000000 		.word	.LC2
  95              	.LBE5:
  96              		.cfi_endproc
  97              	.LFE0:
  98              		.size	_Z10getConTypePKc, .-_Z10getConTypePKc
  99 003c AFF30080 		.section	.text._Z23getTransferEncodingTypePKc,"ax",%progbits
 100              		.align	2
 101              		.p2align 4,,15
 102              		.global	_Z23getTransferEncodingTypePKc
 103              		.thumb
 104              		.thumb_func
 105              		.type	_Z23getTransferEncodingTypePKc, %function
 106              	_Z23getTransferEncodingTypePKc:
 107              	.LFB1:
 108              		.loc 1 37 0
 109              		.cfi_startproc
 110              		@ args = 0, pretend = 0, frame = 0
 111              		@ frame_needed = 0, uses_anonymous_args = 0
 112              	.LVL10:
 113 0000 10B5     		push	{r4, lr}
 114              	.LCFI1:
ARM GAS  C:\Users\Vergil\AppData\Local\Temp\cckr4Mvm.s 			page 3


 115              		.cfi_def_cfa_offset 8
 116              		.cfi_offset 4, -8
 117              		.cfi_offset 14, -4
 118              	.LBB6:
 119              		.loc 1 41 0
 120 0002 1349     		ldr	r1, .L20
 121              	.LBE6:
 122              		.loc 1 37 0
 123 0004 0446     		mov	r4, r0
 124              	.LBB7:
 125              		.loc 1 41 0
 126 0006 FFF7FEFF 		bl	strstr
 127              	.LVL11:
 128 000a A8B9     		cbnz	r0, .L14
 129              	.LVL12:
 130 000c 2046     		mov	r0, r4
 131 000e 1149     		ldr	r1, .L20+4
 132 0010 FFF7FEFF 		bl	strstr
 133              	.LVL13:
 134 0014 98B9     		cbnz	r0, .L15
 135              	.LVL14:
 136 0016 2046     		mov	r0, r4
 137 0018 0F49     		ldr	r1, .L20+8
 138 001a FFF7FEFF 		bl	strstr
 139              	.LVL15:
 140 001e 80B9     		cbnz	r0, .L16
 141              	.LVL16:
 142 0020 2046     		mov	r0, r4
 143 0022 0E49     		ldr	r1, .L20+12
 144 0024 FFF7FEFF 		bl	strstr
 145              	.LVL17:
 146 0028 68B9     		cbnz	r0, .L17
 147              	.LVL18:
 148 002a 2046     		mov	r0, r4
 149 002c 0C49     		ldr	r1, .L20+16
 150 002e FFF7FEFF 		bl	strstr
 151              	.LVL19:
 152 0032 50B9     		cbnz	r0, .L19
 153              		.loc 1 43 0
 154 0034 0520     		movs	r0, #5
 155              	.LBE7:
 156              		.loc 1 44 0
 157 0036 10BD     		pop	{r4, pc}
 158              	.LVL20:
 159              	.L14:
 160              	.LBB8:
 161              		.loc 1 40 0
 162 0038 0020     		movs	r0, #0
 163              	.LVL21:
 164              	.L12:
 165              		.loc 1 41 0 discriminator 1
 166 003a C0B2     		uxtb	r0, r0
 167 003c 10BD     		pop	{r4, pc}
 168              	.LVL22:
 169              	.L15:
 170              		.loc 1 40 0
 171 003e 0120     		movs	r0, #1
ARM GAS  C:\Users\Vergil\AppData\Local\Temp\cckr4Mvm.s 			page 4


 172 0040 FBE7     		b	.L12
 173              	.LVL23:
 174              	.L16:
 175 0042 0220     		movs	r0, #2
 176 0044 F9E7     		b	.L12
 177              	.LVL24:
 178              	.L17:
 179 0046 0320     		movs	r0, #3
 180 0048 F7E7     		b	.L12
 181              	.LVL25:
 182              	.L19:
 183              		.loc 1 41 0
 184 004a 0420     		movs	r0, #4
 185 004c F5E7     		b	.L12
 186              	.L21:
 187 004e 00BF     		.align	2
 188              	.L20:
 189 0050 18000000 		.word	.LC3
 190 0054 20000000 		.word	.LC4
 191 0058 2C000000 		.word	.LC5
 192 005c 34000000 		.word	.LC6
 193 0060 3C000000 		.word	.LC7
 194              	.LBE8:
 195              		.cfi_endproc
 196              	.LFE1:
 197              		.size	_Z23getTransferEncodingTypePKc, .-_Z23getTransferEncodingTypePKc
 198 0064 AFF30080 		.section	.rodata.str1.4,"aMS",%progbits,1
 198      AFF30080 
 198      AFF30080 
 199              		.align	2
 200              	.LC0:
 201 0000 68747470 		.ascii	"http\000"
 201      00
 202 0005 000000   		.space	3
 203              	.LC1:
 204 0008 75647000 		.ascii	"udp\000"
 205              	.LC2:
 206 000c 66696C65 		.ascii	"filehttps\000"
 206      68747470 
 206      7300
 207 0016 0000     		.space	2
 208              	.LC3:
 209 0018 6368756E 		.ascii	"chunked\000"
 209      6B656400 
 210              	.LC4:
 211 0020 636F6D70 		.ascii	"compress\000"
 211      72657373 
 211      00
 212 0029 000000   		.space	3
 213              	.LC5:
 214 002c 6465666C 		.ascii	"deflate\000"
 214      61746500 
 215              	.LC6:
 216 0034 677A6970 		.ascii	"gzip\000"
 216      00
 217 0039 000000   		.space	3
 218              	.LC7:
ARM GAS  C:\Users\Vergil\AppData\Local\Temp\cckr4Mvm.s 			page 5


 219 003c 6964656E 		.ascii	"identity\000"
 219      74697479 
 219      00
 220 0045 000000   		.text
 221              	.Letext0:
 222              		.file 2 "C:/ChibiStudio/chibios/demos/ARMCM4-STM32F401RE-NUCLEO-CC3K/openweathermap/httptypes.h"
 223              		.file 3 "c:\\chibistudio\\tools\\gnu tools arm embedded\\4.7 2014q2\\bin\\../lib/gcc/arm-none-eabi