ARM GAS  C:\Users\Vergil\AppData\Local\Temp\ccYc9IVa.s 			page 1


   1              		.syntax unified
   2              		.cpu cortex-m4
   3              		.eabi_attribute 27, 3
   4              		.eabi_attribute 28, 1
   5              		.fpu fpv4-sp-d16
   6              		.eabi_attribute 20, 1
   7              		.eabi_attribute 21, 1
   8              		.eabi_attribute 23, 3
   9              		.eabi_attribute 24, 1
  10              		.eabi_attribute 25, 1
  11              		.eabi_attribute 26, 1
  12              		.eabi_attribute 30, 2
  13              		.eabi_attribute 34, 1
  14              		.eabi_attribute 18, 4
  15              		.thumb
  16              		.file	"httpclient.cpp"
  17              		.text
  18              	.Ltext0:
  19              		.cfi_sections	.debug_frame
  20              		.section	.text._ZN10HttpClientC2Ev,"ax",%progbits
  21              		.align	2
  22              		.p2align 4,,15
  23              		.global	_ZN10HttpClientC2Ev
  24              		.thumb
  25              		.thumb_func
  26              		.type	_ZN10HttpClientC2Ev, %function
  27              	_ZN10HttpClientC2Ev:
  28              	.LFB133:
  29              		.file 1 "C:/ChibiStudio/chibios/demos/ARMCM4-STM32F401RE-NUCLEO-CC3K/openweathermap/httpclient.cpp
  30              		.loc 1 12 0
  31              		.cfi_startproc
  32              		@ args = 0, pretend = 0, frame = 0
  33              		@ frame_needed = 0, uses_anonymous_args = 0
  34              		@ link register save eliminated.
  35              	.LVL0:
  36              	.LBB5:
  37              		.loc 1 13 0
  38 0000 0022     		movs	r2, #0
  39 0002 0260     		str	r2, [r0, #0]
  40              	.LBE5:
  41              		.loc 1 15 0
  42 0004 7047     		bx	lr
  43              		.cfi_endproc
  44              	.LFE133:
  45              		.size	_ZN10HttpClientC2Ev, .-_ZN10HttpClientC2Ev
  46              		.global	_ZN10HttpClientC1Ev
  47              		.thumb_set _ZN10HttpClientC1Ev,_ZN10HttpClientC2Ev
  48 0006 00BFAFF3 		.section	.text._ZN10HttpClientD2Ev,"ax",%progbits
  48      0080AFF3 
  48      0080
  49              		.align	2
  50              		.p2align 4,,15
  51              		.global	_ZN10HttpClientD2Ev
  52              		.thumb
  53              		.thumb_func
  54              		.type	_ZN10HttpClientD2Ev, %function
  55              	_ZN10HttpClientD2Ev:
ARM GAS  C:\Users\Vergil\AppData\Local\Temp\ccYc9IVa.s 			page 2


  56              	.LFB136:
  57              		.loc 1 17 0
  58              		.cfi_startproc
  59              		@ args = 0, pretend = 0, frame = 0
  60              		@ frame_needed = 0, uses_anonymous_args = 0
  61              		@ link register save eliminated.
  62              	.LVL1:
  63              		.loc 1 19 0
  64 0000 7047     		bx	lr
  65              		.cfi_endproc
  66              	.LFE136:
  67              		.size	_ZN10HttpClientD2Ev, .-_ZN10HttpClientD2Ev
  68              		.global	_ZN10HttpClientD1Ev
  69              		.thumb_set _ZN10HttpClientD1Ev,_ZN10HttpClientD2Ev
  70 0002 00BFAFF3 		.section	.text._Z3getPKcPcji,"ax",%progbits
  70      0080AFF3 
  70      0080AFF3 
  70      0080
  71              		.align	2
  72              		.p2align 4,,15
  73              		.global	_Z3getPKcPcji
  74              		.thumb
  75              		.thumb_func
  76              		.type	_Z3getPKcPcji, %function
  77              	_Z3getPKcPcji:
  78              	.LFB138:
  79              		.loc 1 22 0
  80              		.cfi_startproc
  81              		@ args = 0, pretend = 0, frame = 0
  82              		@ frame_needed = 0, uses_anonymous_args = 0
  83              		@ link register save eliminated.
  84              	.LVL2:
  85              		.loc 1 24 0
  86 0000 0020     		movs	r0, #0
  87              	.LVL3:
  88 0002 7047     		bx	lr
  89              		.cfi_endproc
  90              	.LFE138:
  91              		.size	_Z3getPKcPcji, .-_Z3getPKcPcji
  92 0004 AFF30080 		.section	.text._ZN10HttpClient16createConnectionEPKc,"ax",%progbits
  92      AFF30080 
  92      AFF30080 
  93              		.align	2
  94              		.p2align 4,,15
  95              		.global	_ZN10HttpClient16createConnectionEPKc
  96              		.thumb
  97              		.thumb_func
  98              		.type	_ZN10HttpClient16createConnectionEPKc, %function
  99              	_ZN10HttpClient16createConnectionEPKc:
 100              	.LFB139:
 101              		.loc 1 27 0
 102              		.cfi_startproc
 103              		@ args = 0, pretend = 0, frame = 0
 104              		@ frame_needed = 0, uses_anonymous_args = 0
 105              	.LVL4:
 106 0000 10B5     		push	{r4, lr}
 107              	.LCFI0:
ARM GAS  C:\Users\Vergil\AppData\Local\Temp\ccYc9IVa.s 			page 3


 108              		.cfi_def_cfa_offset 8
 109              		.cfi_offset 4, -8
 110              		.cfi_offset 14, -4
 111              		.loc 1 28 0
 112 0002 FFF7FEFF 		bl	_Z10getConTypePKc
 113              	.LVL5:
 114 0006 10B1     		cbz	r0, .L11
 115              		.loc 1 34 0
 116 0008 0024     		movs	r4, #0
 117              		.loc 1 38 0
 118 000a 2046     		mov	r0, r4
 119 000c 10BD     		pop	{r4, pc}
 120              	.L11:
 121              		.loc 1 30 0
 122 000e 7420     		movs	r0, #116
 123 0010 FFF7FEFF 		bl	_Znwj
 124              	.LVL6:
 125 0014 0446     		mov	r4, r0
 126 0016 FFF7FEFF 		bl	_ZN17HttpTcpConnectionC1Ev
 127              	.LVL7:
 128              		.loc 1 38 0
 129 001a 2046     		mov	r0, r4
 130 001c 10BD     		pop	{r4, pc}
 131              		.cfi_endproc
 132              	.LFE139:
 133              		.size	_ZN10HttpClient16createConnectionEPKc, .-_ZN10HttpClient16createConnectionEPKc
 134 001e 00BF     		.section	.text._ZN10HttpClient11sendHeadersEP14HttpConnectionPKc11HTTP_METHOD,"ax",%progbits
 135              		.align	2
 136              		.p2align 4,,15
 137              		.global	_ZN10HttpClient11sendHeadersEP14HttpConnectionPKc11HTTP_METHOD
 138              		.thumb
 139              		.thumb_func
 140              		.type	_ZN10HttpClient11sendHeadersEP14HttpConnectionPKc11HTTP_METHOD, %function
 141              	_ZN10HttpClient11sendHeadersEP14HttpConnectionPKc11HTTP_METHOD:
 142              	.LFB141:
 143              		.loc 1 113 0
 144              		.cfi_startproc
 145              		@ args = 0, pretend = 0, frame = 128
 146              		@ frame_needed = 0, uses_anonymous_args = 0
 147              	.LVL8:
 148 0000 10B5     		push	{r4, lr}
 149              	.LCFI1:
 150              		.cfi_def_cfa_offset 8
 151              		.cfi_offset 4, -8
 152              		.cfi_offset 14, -4
 153 0002 1046     		mov	r0, r2
 154              	.LVL9:
 155 0004 A2B0     		sub	sp, sp, #136
 156              	.LCFI2:
 157              		.cfi_def_cfa_offset 144
 158              	.LBB6:
 159              		.loc 1 117 0
 160 0006 0C46     		mov	r4, r1
 161 0008 99B1     		cbz	r1, .L14
 162              		.loc 1 121 0
 163 000a 0B4A     		ldr	r2, .L15
 164              	.LVL10:
ARM GAS  C:\Users\Vergil\AppData\Local\Temp\ccYc9IVa.s 			page 4


 165 000c 0B49     		ldr	r1, .L15+4
 166              	.LVL11:
 167 000e 52F82320 		ldr	r2, [r2, r3, lsl #2]
 168 0012 0B4B     		ldr	r3, .L15+8
 169              	.LVL12:
 170 0014 1B68     		ldr	r3, [r3, #0]
 171 0016 0093     		str	r3, [sp, #0]
 172 0018 0346     		mov	r3, r0
 173 001a 02A8     		add	r0, sp, #8
 174              	.LVL13:
 175 001c FFF7FEFF 		bl	sprintf
 176              	.LVL14:
 177              		.loc 1 124 0
 178 0020 2168     		ldr	r1, [r4, #0]
 179              		.loc 1 121 0
 180 0022 0246     		mov	r2, r0
 181              	.LVL15:
 182              		.loc 1 124 0
 183 0024 CB68     		ldr	r3, [r1, #12]
 184 0026 2046     		mov	r0, r4
 185              	.LVL16:
 186 0028 02A9     		add	r1, sp, #8
 187 002a 9847     		blx	r3
 188              	.LVL17:
 189              	.L13:
 190              	.LBE6:
 191              		.loc 1 126 0
 192 002c 40B2     		sxtb	r0, r0
 193 002e 22B0     		add	sp, sp, #136
 194 0030 10BD     		pop	{r4, pc}
 195              	.LVL18:
 196              	.L14:
 197              	.LBB7:
 198              		.loc 1 117 0
 199 0032 FE20     		movs	r0, #254
 200              	.LVL19:
 201 0034 FAE7     		b	.L13
 202              	.L16:
 203 0036 00BF     		.align	2
 204              	.L15:
 205 0038 00000000 		.word	.LANCHOR0
 206 003c 00000000 		.word	.LC0
 207 0040 00000000 		.word	.LANCHOR1
 208              	.LBE7:
 209              		.cfi_endproc
 210              	.LFE141:
 211              		.size	_ZN10HttpClient11sendHeadersEP14HttpConnectionPKc11HTTP_METHOD, .-_ZN10HttpClient11sendHeade
 212 0044 AFF30080 		.section	.text._ZN10HttpClient16parseHttpHeadersEPKcR16HttpResponseInfo,"ax",%progbits
 212      AFF30080 
 212      AFF30080 
 213              		.align	2
 214              		.p2align 4,,15
 215              		.global	_ZN10HttpClient16parseHttpHeadersEPKcR16HttpResponseInfo
 216              		.thumb
 217              		.thumb_func
 218              		.type	_ZN10HttpClient16parseHttpHeadersEPKcR16HttpResponseInfo, %function
 219              	_ZN10HttpClient16parseHttpHeadersEPKcR16HttpResponseInfo:
ARM GAS  C:\Users\Vergil\AppData\Local\Temp\ccYc9IVa.s 			page 5


 220              	.LFB143:
 221              		.loc 1 166 0
 222              		.cfi_startproc
 223              		@ args = 0, pretend = 0, frame = 0
 224              		@ frame_needed = 0, uses_anonymous_args = 0
 225              	.LVL20:
 226 0000 10B5     		push	{r4, lr}
 227              	.LCFI3:
 228              		.cfi_def_cfa_offset 8
 229              		.cfi_offset 4, -8
 230              		.cfi_offset 14, -4
 231              	.LBB8:
 232              		.loc 1 170 0
 233 0002 0846     		mov	r0, r1
 234              	.LVL21:
 235 0004 3A21     		movs	r1, #58
 236              	.LVL22:
 237 0006 FFF7FEFF 		bl	strchr
 238              	.LVL23:
 239              		.loc 1 172 0
 240 000a 0446     		mov	r4, r0
 241 000c 40B1     		cbz	r0, .L19
 242              		.loc 1 174 0
 243 000e 0023     		movs	r3, #0
 244 0010 0370     		strb	r3, [r0, #0]
 245              		.loc 1 175 0
 246 0012 0449     		ldr	r1, .L21
 247 0014 FFF7FEFF 		bl	strcasecmp
 248              	.LVL24:
 249 0018 10B9     		cbnz	r0, .L19
 250              		.loc 1 177 0
 251 001a 601C     		adds	r0, r4, #1
 252 001c FFF7FEFF 		bl	_Z23getTransferEncodingTypePKc
 253              	.LVL25:
 254              	.L19:
 255              	.LBE8:
 256              		.loc 1 198 0
 257 0020 0020     		movs	r0, #0
 258 0022 10BD     		pop	{r4, pc}
 259              	.L22:
 260              		.align	2
 261              	.L21:
 262 0024 1C000000 		.word	.LC1
 263              		.cfi_endproc
 264              	.LFE143:
 265              		.size	_ZN10HttpClient16parseHttpHeadersEPKcR16HttpResponseInfo, .-_ZN10HttpClient16parseHttpHeader
 266 0028 AFF30080 		.section	.text._ZN10HttpClient14receiveHeadersEP14HttpConnectionP8HttpData,"ax",%progbits
 266      AFF30080 
 267              		.align	2
 268              		.p2align 4,,15
 269              		.global	_ZN10HttpClient14receiveHeadersEP14HttpConnectionP8HttpData
 270              		.thumb
 271              		.thumb_func
 272              		.type	_ZN10HttpClient14receiveHeadersEP14HttpConnectionP8HttpData, %function
 273              	_ZN10HttpClient14receiveHeadersEP14HttpConnectionP8HttpData:
 274              	.LFB142:
 275              		.loc 1 129 0
ARM GAS  C:\Users\Vergil\AppData\Local\Temp\ccYc9IVa.s 			page 6


 276              		.cfi_startproc
 277              		@ args = 0, pretend = 0, frame = 128
 278              		@ frame_needed = 0, uses_anonymous_args = 0
 279              	.LVL26:
 280 0000 30B5     		push	{r4, r5, lr}
 281              	.LCFI4:
 282              		.cfi_def_cfa_offset 12
 283              		.cfi_offset 4, -12
 284              		.cfi_offset 5, -8
 285              		.cfi_offset 14, -4
 286              	.LBB9:
 287              		.loc 1 135 0
 288 0002 0C46     		mov	r4, r1
 289              	.LBE9:
 290              		.loc 1 129 0
 291 0004 A1B0     		sub	sp, sp, #132
 292              	.LCFI5:
 293              		.cfi_def_cfa_offset 144
 294              		.loc 1 129 0
 295 0006 0546     		mov	r5, r0
 296              	.LBB10:
 297              		.loc 1 135 0
 298 0008 41B3     		cbz	r1, .L36
 299              		.loc 1 135 0 is_stmt 0 discriminator 1
 300 000a 0B68     		ldr	r3, [r1, #0]
 301 000c 0846     		mov	r0, r1
 302              	.LVL27:
 303 000e 6422     		movs	r2, #100
 304              	.LVL28:
 305 0010 5B69     		ldr	r3, [r3, #20]
 306 0012 07A9     		add	r1, sp, #28
 307              	.LVL29:
 308 0014 9847     		blx	r3
 309              	.LVL30:
 310 0016 0028     		cmp	r0, #0
 311 0018 12DD     		ble	.L39
 312              		.loc 1 138 0 is_stmt 1
 313 001a 07A8     		add	r0, sp, #28
 314              	.LVL31:
 315 001c 1149     		ldr	r1, .L40
 316 001e FFF7FEFF 		bl	strtok
 317              	.LVL32:
 318              		.loc 1 139 0
 319 0022 0346     		mov	r3, r0
 320 0024 20B1     		cbz	r0, .L30
 321              		.loc 1 141 0
 322 0026 01A8     		add	r0, sp, #4
 323              	.LVL33:
 324 0028 1421     		movs	r1, #20
 325 002a 0F4A     		ldr	r2, .L40+4
 326 002c FFF7FEFF 		bl	snprintf
 327              	.LVL34:
 328              	.L30:
 329              		.loc 1 144 0
 330 0030 0020     		movs	r0, #0
 331 0032 0C49     		ldr	r1, .L40
 332 0034 FFF7FEFF 		bl	strtok
ARM GAS  C:\Users\Vergil\AppData\Local\Temp\ccYc9IVa.s 			page 7


 333              	.LVL35:
 334              		.loc 1 145 0
 335 0038 10B1     		cbz	r0, .L39
 336              		.loc 1 146 0
 337 003a FFF7FEFF 		bl	atol
 338              	.LVL36:
 339 003e 0090     		str	r0, [sp, #0]
 340              	.L39:
 341              		.loc 1 157 0 discriminator 2
 342 0040 2068     		ldr	r0, [r4, #0]
 343 0042 6422     		movs	r2, #100
 344 0044 4369     		ldr	r3, [r0, #20]
 345 0046 07A9     		add	r1, sp, #28
 346 0048 2046     		mov	r0, r4
 347 004a 9847     		blx	r3
 348              	.LVL37:
 349 004c 0028     		cmp	r0, #0
 350 004e 05DD     		ble	.L36
 351              		.loc 1 159 0
 352 0050 2846     		mov	r0, r5
 353              	.LVL38:
 354 0052 07A9     		add	r1, sp, #28
 355 0054 6A46     		mov	r2, sp
 356 0056 FFF7FEFF 		bl	_ZN10HttpClient16parseHttpHeadersEPKcR16HttpResponseInfo
 357              	.LVL39:
 358 005a F1E7     		b	.L39
 359              	.L36:
 360              	.LBE10:
 361              		.loc 1 163 0
 362 005c 0020     		movs	r0, #0
 363 005e 21B0     		add	sp, sp, #132
 364 0060 30BD     		pop	{r4, r5, pc}
 365              	.L41:
 366 0062 00BF     		.align	2
 367              	.L40:
 368 0064 34000000 		.word	.LC3
 369 0068 30000000 		.word	.LC2
 370              		.cfi_endproc
 371              	.LFE142:
 372              		.size	_ZN10HttpClient14receiveHeadersEP14HttpConnectionP8HttpData, .-_ZN10HttpClient14receiveHeade
 373 006c AFF30080 		.section	.text._ZN10HttpClient8parseURLEPKcPcjS2_jPtS2_j,"ax",%progbits
 374              		.align	2
 375              		.p2align 4,,15
 376              		.global	_ZN10HttpClient8parseURLEPKcPcjS2_jPtS2_j
 377              		.thumb
 378              		.thumb_func
 379              		.type	_ZN10HttpClient8parseURLEPKcPcjS2_jPtS2_j, %function
 380              	_ZN10HttpClient8parseURLEPKcPcjS2_jPtS2_j:
 381              	.LFB144:
 382              		.loc 1 204 0
 383              		.cfi_startproc
 384              		@ args = 20, pretend = 0, frame = 0
 385              		@ frame_needed = 0, uses_anonymous_args = 0
 386              	.LVL40:
 387 0000 2DE9F047 		push	{r4, r5, r6, r7, r8, r9, sl, lr}
 388              	.LCFI6:
 389              		.cfi_def_cfa_offset 32
ARM GAS  C:\Users\Vergil\AppData\Local\Temp\ccYc9IVa.s 			page 8


 390              		.cfi_offset 4, -32
 391              		.cfi_offset 5, -28
 392              		.cfi_offset 6, -24
 393              		.cfi_offset 7, -20
 394              		.cfi_offset 8, -16
 395              		.cfi_offset 9, -12
 396              		.cfi_offset 10, -8
 397              		.cfi_offset 14, -4
 398              	.LBB11:
 399              		.loc 1 206 0
 400 0004 0846     		mov	r0, r1
 401              	.LVL41:
 402              	.LBE11:
 403              		.loc 1 204 0
 404 0006 82B0     		sub	sp, sp, #8
 405              	.LCFI7:
 406              		.cfi_def_cfa_offset 40
 407              		.loc 1 204 0
 408 0008 0D46     		mov	r5, r1
 409              	.LVL42:
 410              	.LBB12:
 411              		.loc 1 206 0
 412 000a 4E49     		ldr	r1, .L59
 413              	.LVL43:
 414              	.LBE12:
 415              		.loc 1 204 0
 416 000c DDF82880 		ldr	r8, [sp, #40]
 417 0010 0D9F     		ldr	r7, [sp, #52]
 418 0012 9146     		mov	r9, r2
 419 0014 9A46     		mov	sl, r3
 420              	.LBB13:
 421              		.loc 1 206 0
 422 0016 FFF7FEFF 		bl	strstr
 423              	.LVL44:
 424              		.loc 1 207 0
 425 001a 0446     		mov	r4, r0
 426 001c 0028     		cmp	r0, #0
 427 001e 00F08680 		beq	.L54
 428              		.loc 1 213 0
 429 0022 461B     		subs	r6, r0, r5
 430 0024 731C     		adds	r3, r6, #1
 431 0026 5345     		cmp	r3, sl
 432 0028 4FD8     		bhi	.L55
 433              		.loc 1 219 0
 434 002a 2946     		mov	r1, r5
 435 002c 3246     		mov	r2, r6
 436 002e 4846     		mov	r0, r9
 437              	.LVL45:
 438 0030 FFF7FEFF 		bl	memcpy
 439              	.LVL46:
 440              		.loc 1 222 0
 441 0034 0334     		adds	r4, r4, #3
 442              	.LVL47:
 443              		.loc 1 220 0
 444 0036 0020     		movs	r0, #0
 445 0038 09F80600 		strb	r0, [r9, r6]
 446              		.loc 1 224 0
ARM GAS  C:\Users\Vergil\AppData\Local\Temp\ccYc9IVa.s 			page 9


 447 003c 3A21     		movs	r1, #58
 448 003e 2046     		mov	r0, r4
 449 0040 FFF7FEFF 		bl	strchr
 450              	.LVL48:
 451              		.loc 1 225 0
 452 0044 0546     		mov	r5, r0
 453              	.LVL49:
 454 0046 0028     		cmp	r0, #0
 455 0048 30D0     		beq	.L46
 456              		.loc 1 229 0
 457 004a 0130     		adds	r0, r0, #1
 458              	.LVL50:
 459 004c 3E49     		ldr	r1, .L59+4
 460 004e 0C9A     		ldr	r2, [sp, #48]
 461 0050 FFF7FEFF 		bl	sscanf
 462              	.LVL51:
 463 0054 0128     		cmp	r0, #1
 464              		.loc 1 227 0
 465 0056 C4EB0505 		rsb	r5, r4, r5
 466              	.LVL52:
 467              		.loc 1 229 0
 468 005a 5ED1     		bne	.L56
 469              		.loc 1 241 0
 470 005c 2046     		mov	r0, r4
 471 005e 2F21     		movs	r1, #47
 472 0060 FFF7FEFF 		bl	strchr
 473              	.LVL53:
 474 0064 0646     		mov	r6, r0
 475              	.LVL54:
 476              		.loc 1 242 0
 477 0066 002D     		cmp	r5, #0
 478 0068 28D0     		beq	.L48
 479              	.L49:
 480              		.loc 1 247 0
 481 006a 0B98     		ldr	r0, [sp, #44]
 482              	.LVL55:
 483 006c 6B1C     		adds	r3, r5, #1
 484 006e 8342     		cmp	r3, r0
 485 0070 38D8     		bhi	.L57
 486              		.loc 1 253 0
 487 0072 2146     		mov	r1, r4
 488 0074 2A46     		mov	r2, r5
 489 0076 4046     		mov	r0, r8
 490 0078 FFF7FEFF 		bl	memcpy
 491              	.LVL56:
 492              		.loc 1 254 0
 493 007c 0021     		movs	r1, #0
 494 007e 08F80510 		strb	r1, [r8, r5]
 495              		.loc 1 257 0
 496 0082 2046     		mov	r0, r4
 497 0084 2321     		movs	r1, #35
 498 0086 FFF7FEFF 		bl	strchr
 499              	.LVL57:
 500              		.loc 1 258 0
 501 008a C8B1     		cbz	r0, .L51
 502              		.loc 1 260 0
 503 008c 841B     		subs	r4, r0, r6
ARM GAS  C:\Users\Vergil\AppData\Local\Temp\ccYc9IVa.s 			page 10


 504              	.LVL58:
 505              	.L52:
 506              		.loc 1 266 0
 507 008e 0E9A     		ldr	r2, [sp, #56]
 508 0090 631C     		adds	r3, r4, #1
 509 0092 9342     		cmp	r3, r2
 510 0094 33D8     		bhi	.L58
 511              		.loc 1 271 0
 512 0096 3846     		mov	r0, r7
 513 0098 3146     		mov	r1, r6
 514 009a 2246     		mov	r2, r4
 515 009c FFF7FEFF 		bl	memcpy
 516              	.LVL59:
 517              		.loc 1 272 0
 518 00a0 0020     		movs	r0, #0
 519 00a2 3855     		strb	r0, [r7, r4]
 520              	.LVL60:
 521              	.L44:
 522              	.LBE13:
 523              		.loc 1 276 0
 524 00a4 40B2     		sxtb	r0, r0
 525 00a6 02B0     		add	sp, sp, #8
 526 00a8 BDE8F087 		pop	{r4, r5, r6, r7, r8, r9, sl, pc}
 527              	.LVL61:
 528              	.L46:
 529              	.LBB14:
 530              		.loc 1 237 0
 531 00ac 0C9A     		ldr	r2, [sp, #48]
 532 00ae 5021     		movs	r1, #80
 533 00b0 1180     		strh	r1, [r2, #0]	@ movhi
 534              		.loc 1 241 0
 535 00b2 2046     		mov	r0, r4
 536              	.LVL62:
 537 00b4 2F21     		movs	r1, #47
 538 00b6 FFF7FEFF 		bl	strchr
 539              	.LVL63:
 540 00ba 0646     		mov	r6, r0
 541              	.LVL64:
 542              	.L48:
 543              		.loc 1 244 0
 544 00bc 351B     		subs	r5, r6, r4
 545              	.LVL65:
 546 00be D4E7     		b	.L49
 547              	.LVL66:
 548              	.L51:
 549              		.loc 1 263 0
 550 00c0 3046     		mov	r0, r6
 551              	.LVL67:
 552 00c2 FFF7FEFF 		bl	strlen
 553              	.LVL68:
 554 00c6 0446     		mov	r4, r0
 555              	.LVL69:
 556 00c8 E1E7     		b	.L52
 557              	.LVL70:
 558              	.L55:
 559              		.loc 1 215 0
 560 00ca 204A     		ldr	r2, .L59+8
ARM GAS  C:\Users\Vergil\AppData\Local\Temp\ccYc9IVa.s 			page 11


 561 00cc 2049     		ldr	r1, .L59+12
 562 00ce 1068     		ldr	r0, [r2, #0]
 563              	.LVL71:
 564 00d0 204A     		ldr	r2, .L59+16
 565 00d2 C068     		ldr	r0, [r0, #12]
 566 00d4 0193     		str	r3, [sp, #4]
 567 00d6 CDF800A0 		str	sl, [sp, #0]
 568 00da D723     		movs	r3, #215
 569 00dc FFF7FEFF 		bl	fprintf
 570              	.LVL72:
 571              		.loc 1 216 0
 572 00e0 FF20     		movs	r0, #255
 573 00e2 DFE7     		b	.L44
 574              	.LVL73:
 575              	.L57:
 576              		.loc 1 249 0
 577 00e4 194A     		ldr	r2, .L59+8
 578 00e6 1C49     		ldr	r1, .L59+20
 579 00e8 1468     		ldr	r4, [r2, #0]
 580              	.LVL74:
 581 00ea 1A4A     		ldr	r2, .L59+16
 582 00ec E068     		ldr	r0, [r4, #12]
 583 00ee 0B9C     		ldr	r4, [sp, #44]
 584 00f0 0193     		str	r3, [sp, #4]
 585 00f2 0094     		str	r4, [sp, #0]
 586 00f4 F923     		movs	r3, #249
 587 00f6 FFF7FEFF 		bl	fprintf
 588              	.LVL75:
 589              		.loc 1 250 0
 590 00fa FF20     		movs	r0, #255
 591 00fc D2E7     		b	.L44
 592              	.LVL76:
 593              	.L58:
 594              		.loc 1 268 0
 595 00fe 134C     		ldr	r4, .L59+8
 596              	.LVL77:
 597 0100 1649     		ldr	r1, .L59+24
 598 0102 2068     		ldr	r0, [r4, #0]
 599 0104 0E9C     		ldr	r4, [sp, #56]
 600 0106 C068     		ldr	r0, [r0, #12]
 601 0108 124A     		ldr	r2, .L59+16
 602 010a 0193     		str	r3, [sp, #4]
 603 010c 0094     		str	r4, [sp, #0]
 604 010e 4FF48673 		mov	r3, #268
 605              	.LVL78:
 606 0112 FFF7FEFF 		bl	fprintf
 607              	.LVL79:
 608              		.loc 1 269 0
 609 0116 FF20     		movs	r0, #255
 610 0118 C4E7     		b	.L44
 611              	.LVL80:
 612              	.L56:
 613              		.loc 1 231 0
 614 011a 0C4B     		ldr	r3, .L59+8
 615 011c 1049     		ldr	r1, .L59+28
 616 011e 1868     		ldr	r0, [r3, #0]
 617 0120 0C4A     		ldr	r2, .L59+16
ARM GAS  C:\Users\Vergil\AppData\Local\Temp\ccYc9IVa.s 			page 12


 618 0122 C068     		ldr	r0, [r0, #12]
 619 0124 E723     		movs	r3, #231
 620 0126 FFF7FEFF 		bl	fprintf
 621              	.LVL81:
 622              		.loc 1 232 0
 623 012a FF20     		movs	r0, #255
 624 012c BAE7     		b	.L44
 625              	.LVL82:
 626              	.L54:
 627              		.loc 1 209 0
 628 012e 074B     		ldr	r3, .L59+8
 629 0130 0C49     		ldr	r1, .L59+32
 630 0132 1868     		ldr	r0, [r3, #0]
 631              	.LVL83:
 632 0134 074A     		ldr	r2, .L59+16
 633 0136 C068     		ldr	r0, [r0, #12]
 634 0138 D123     		movs	r3, #209
 635 013a FFF7FEFF 		bl	fprintf
 636              	.LVL84:
 637              		.loc 1 210 0
 638 013e FF20     		movs	r0, #255
 639 0140 B0E7     		b	.L44
 640              	.L60:
 641 0142 00BF     		.align	2
 642              	.L59:
 643 0144 38000000 		.word	.LC4
 644 0148 F4000000 		.word	.LC8
 645 014c 00000000 		.word	_impure_ptr
 646 0150 C0000000 		.word	.LC7
 647 0154 64000000 		.word	.LC6
 648 0158 30010000 		.word	.LC10
 649 015c 64010000 		.word	.LC11
 650 0160 F8000000 		.word	.LC9
 651 0164 3C000000 		.word	.LC5
 652              	.LBE14:
 653              		.cfi_endproc
 654              	.LFE144:
 655              		.size	_ZN10HttpClient8parseURLEPKcPcjS2_jPtS2_j, .-_ZN10HttpClient8parseURLEPKcPcjS2_jPtS2_j
 656 0168 AFF30080 		.section	.text._ZN10HttpClient7connectEPKc11HTTP_METHODP8HttpData,"ax",%progbits
 656      AFF30080 
 657              		.align	2
 658              		.p2align 4,,15
 659              		.global	_ZN10HttpClient7connectEPKc11HTTP_METHODP8HttpData
 660              		.thumb
 661              		.thumb_func
 662              		.type	_ZN10HttpClient7connectEPKc11HTTP_METHODP8HttpData, %function
 663              	_ZN10HttpClient7connectEPKc11HTTP_METHODP8HttpData:
 664              	.LFB140:
 665              		.loc 1 41 0
 666              		.cfi_startproc
 667              		@ args = 0, pretend = 0, frame = 312
 668              		@ frame_needed = 0, uses_anonymous_args = 0
 669              	.LVL85:
 670 0000 2DE9F041 		push	{r4, r5, r6, r7, r8, lr}
 671              	.LCFI8:
 672              		.cfi_def_cfa_offset 24
 673              		.cfi_offset 4, -24
ARM GAS  C:\Users\Vergil\AppData\Local\Temp\ccYc9IVa.s 			page 13


 674              		.cfi_offset 5, -20
 675              		.cfi_offset 6, -16
 676              		.cfi_offset 7, -12
 677              		.cfi_offset 8, -8
 678              		.cfi_offset 14, -4
 679 0004 D4B0     		sub	sp, sp, #336
 680              	.LCFI9:
 681              		.cfi_def_cfa_offset 360
 682              		.loc 1 41 0
 683 0006 1E46     		mov	r6, r3
 684              	.LBB19:
 685              		.loc 1 46 0
 686 0008 0DF12103 		add	r3, sp, #33
 687              	.LVL86:
 688 000c 0093     		str	r3, [sp, #0]
 689 000e 6424     		movs	r4, #100
 690 0010 0DF18507 		add	r7, sp, #133
 691 0014 C823     		movs	r3, #200
 692              	.LBE19:
 693              		.loc 1 41 0
 694 0016 9046     		mov	r8, r2
 695              	.LBB22:
 696              		.loc 1 46 0
 697 0018 0DF5A772 		add	r2, sp, #334
 698              	.LVL87:
 699 001c 0194     		str	r4, [sp, #4]
 700 001e 0292     		str	r2, [sp, #8]
 701 0020 0397     		str	r7, [sp, #12]
 702 0022 0493     		str	r3, [sp, #16]
 703 0024 06AA     		add	r2, sp, #24
 704 0026 0823     		movs	r3, #8
 705              	.LBE22:
 706              		.loc 1 41 0
 707 0028 0746     		mov	r7, r0
 708              	.LBB23:
 709              		.loc 1 46 0
 710 002a FFF7FEFF 		bl	_ZN10HttpClient8parseURLEPKcPcjS2_jPtS2_j
 711              	.LVL88:
 712              		.loc 1 47 0
 713 002e 0446     		mov	r4, r0
 714 0030 18B1     		cbz	r0, .L74
 715              	.LVL89:
 716              	.L62:
 717              	.LBE23:
 718              		.loc 1 110 0
 719 0032 60B2     		sxtb	r0, r4
 720 0034 54B0     		add	sp, sp, #336
 721 0036 BDE8F081 		pop	{r4, r5, r6, r7, r8, pc}
 722              	.LVL90:
 723              	.L74:
 724              	.LBB24:
 725              		.loc 1 51 0
 726 003a 344D     		ldr	r5, .L75
 727 003c 3449     		ldr	r1, .L75+4
 728 003e 2868     		ldr	r0, [r5, #0]
 729              	.LVL91:
 730 0040 344A     		ldr	r2, .L75+8
ARM GAS  C:\Users\Vergil\AppData\Local\Temp\ccYc9IVa.s 			page 14


 731 0042 8068     		ldr	r0, [r0, #8]
 732 0044 06AB     		add	r3, sp, #24
 733 0046 0093     		str	r3, [sp, #0]
 734 0048 3323     		movs	r3, #51
 735 004a FFF7FEFF 		bl	fprintf
 736              	.LVL92:
 737              		.loc 1 52 0
 738 004e 2A68     		ldr	r2, [r5, #0]
 739 0050 3149     		ldr	r1, .L75+12
 740 0052 9068     		ldr	r0, [r2, #8]
 741 0054 2F4A     		ldr	r2, .L75+8
 742 0056 0DF12103 		add	r3, sp, #33
 743 005a 0093     		str	r3, [sp, #0]
 744 005c 3423     		movs	r3, #52
 745 005e FFF7FEFF 		bl	fprintf
 746              	.LVL93:
 747              		.loc 1 53 0
 748 0062 2968     		ldr	r1, [r5, #0]
 749 0064 BDF84E31 		ldrh	r3, [sp, #334]
 750 0068 8868     		ldr	r0, [r1, #8]
 751 006a 2A4A     		ldr	r2, .L75+8
 752 006c 2B49     		ldr	r1, .L75+16
 753 006e 0093     		str	r3, [sp, #0]
 754 0070 3523     		movs	r3, #53
 755 0072 FFF7FEFF 		bl	fprintf
 756              	.LVL94:
 757              		.loc 1 54 0
 758 0076 2D68     		ldr	r5, [r5, #0]
 759 0078 2949     		ldr	r1, .L75+20
 760 007a A868     		ldr	r0, [r5, #8]
 761 007c 254A     		ldr	r2, .L75+8
 762 007e 0DF18503 		add	r3, sp, #133
 763 0082 0093     		str	r3, [sp, #0]
 764 0084 3623     		movs	r3, #54
 765 0086 FFF7FEFF 		bl	fprintf
 766              	.LVL95:
 767              		.loc 1 57 0
 768 008a 06A8     		add	r0, sp, #24
 769 008c FFF7FEFF 		bl	_ZN10HttpClient16createConnectionEPKc
 770              	.LVL96:
 771              		.loc 1 58 0
 772 0090 0546     		mov	r5, r0
 773 0092 0028     		cmp	r0, #0
 774 0094 CDD0     		beq	.L62
 775              		.loc 1 61 0
 776 0096 0468     		ldr	r4, [r0, #0]
 777 0098 08A9     		add	r1, sp, #32
 778 009a A268     		ldr	r2, [r4, #8]
 779 009c 9047     		blx	r2
 780              	.LVL97:
 781              		.loc 1 62 0
 782 009e 0446     		mov	r4, r0
 783 00a0 0028     		cmp	r0, #0
 784 00a2 C6D1     		bne	.L62
 785              		.loc 1 66 0
 786 00a4 3846     		mov	r0, r7
 787              	.LVL98:
ARM GAS  C:\Users\Vergil\AppData\Local\Temp\ccYc9IVa.s 			page 15


 788 00a6 2946     		mov	r1, r5
 789 00a8 0DF18502 		add	r2, sp, #133
 790 00ac 4346     		mov	r3, r8
 791 00ae FFF7FEFF 		bl	_ZN10HttpClient11sendHeadersEP14HttpConnectionPKc11HTTP_METHOD
 792              	.LVL99:
 793              		.loc 1 67 0
 794 00b2 0446     		mov	r4, r0
 795 00b4 0028     		cmp	r0, #0
 796 00b6 BCD1     		bne	.L62
 797              		.loc 1 72 0
 798 00b8 3EB1     		cbz	r6, .L65
 799              		.loc 1 75 0
 800 00ba 3168     		ldr	r1, [r6, #0]
 801 00bc 3046     		mov	r0, r6
 802              	.LVL100:
 803 00be 0B68     		ldr	r3, [r1, #0]
 804 00c0 2946     		mov	r1, r5
 805 00c2 9847     		blx	r3
 806              	.LVL101:
 807              		.loc 1 76 0
 808 00c4 0446     		mov	r4, r0
 809 00c6 0028     		cmp	r0, #0
 810 00c8 B3D1     		bne	.L62
 811              	.L65:
 812              	.LVL102:
 813              	.LBB20:
 814              	.LBB21:
 815              		.file 2 "C:/ChibiStudio/chibios/demos/ARMCM4-STM32F401RE-NUCLEO-CC3K/openweathermap/httpconnection
 816              		.loc 2 44 0
 817 00ca 2868     		ldr	r0, [r5, #0]
 818              	.LVL103:
 819 00cc 1549     		ldr	r1, .L75+24
 820 00ce C468     		ldr	r4, [r0, #12]
 821 00d0 0222     		movs	r2, #2
 822 00d2 2846     		mov	r0, r5
 823 00d4 A047     		blx	r4
 824              	.LVL104:
 825              	.LBE21:
 826              	.LBE20:
 827              		.loc 1 83 0
 828 00d6 0446     		mov	r4, r0
 829 00d8 0028     		cmp	r0, #0
 830 00da AAD1     		bne	.L62
 831              		.loc 1 87 0
 832 00dc 3846     		mov	r0, r7
 833 00de 2946     		mov	r1, r5
 834 00e0 3246     		mov	r2, r6
 835 00e2 FFF7FEFF 		bl	_ZN10HttpClient14receiveHeadersEP14HttpConnectionP8HttpData
 836              	.LVL105:
 837              		.loc 1 88 0
 838 00e6 0446     		mov	r4, r0
 839 00e8 0028     		cmp	r0, #0
 840 00ea A2D1     		bne	.L62
 841              		.loc 1 93 0
 842 00ec 2EB1     		cbz	r6, .L66
 843              		.loc 1 95 0
 844 00ee 3268     		ldr	r2, [r6, #0]
ARM GAS  C:\Users\Vergil\AppData\Local\Temp\ccYc9IVa.s 			page 16


 845 00f0 3046     		mov	r0, r6
 846              	.LVL106:
 847 00f2 5368     		ldr	r3, [r2, #4]
 848 00f4 2946     		mov	r1, r5
 849 00f6 9847     		blx	r3
 850              	.LVL107:
 851 00f8 0446     		mov	r4, r0
 852              	.LVL108:
 853              	.L66:
 854              		.loc 1 102 0
 855 00fa 2968     		ldr	r1, [r5, #0]
 856 00fc 2846     		mov	r0, r5
 857 00fe 8A69     		ldr	r2, [r1, #24]
 858 0100 9047     		blx	r2
 859              	.LVL109:
 860              		.loc 1 105 0
 861 0102 2B68     		ldr	r3, [r5, #0]
 862 0104 2846     		mov	r0, r5
 863 0106 5968     		ldr	r1, [r3, #4]
 864 0108 8847     		blx	r1
 865              	.LVL110:
 866 010a 92E7     		b	.L62
 867              	.L76:
 868              		.align	2
 869              	.L75:
 870 010c 00000000 		.word	_impure_ptr
 871 0110 98010000 		.word	.LC12
 872 0114 64000000 		.word	.LC6
 873 0118 B4010000 		.word	.LC13
 874 011c D0010000 		.word	.LC14
 875 0120 EC010000 		.word	.LC15
 876 0124 08020000 		.word	.LC16
 877              	.LBE24:
 878              		.cfi_endproc
 879              	.LFE140:
 880              		.size	_ZN10HttpClient7connectEPKc11HTTP_METHODP8HttpData, .-_ZN10HttpClient7connectEPKc11HTTP_METH
 881              		.global	_ZN10HttpClient9_thishostE
 882 0128 AFF30080 		.section	.data._ZN10HttpClient9_thishostE,"aw",%progbits
 882      AFF30080 
 883              		.align	2
 884              		.set	.LANCHOR1,. + 0
 885              		.type	_ZN10HttpClient9_thishostE, %object
 886              		.size	_ZN10HttpClient9_thishostE, 4
 887              	_ZN10HttpClient9_thishostE:
 888 0000 0C020000 		.word	.LC17
 889              		.section	.rodata._ZL7methods,"a",%progbits
 890              		.align	2
 891              		.set	.LANCHOR0,. + 0
 892              		.type	_ZL7methods, %object
 893              		.size	_ZL7methods, 8
 894              	_ZL7methods:
 895 0000 18020000 		.word	.LC18
 896 0004 1C020000 		.word	.LC19
 897              		.section	.rodata.str1.4,"aMS",%progbits,1
 898              		.align	2
 899              	.LC0:
 900 0000 25732025 		.ascii	"%s %s HTTP/1.1\015\012Host: %s\015\012\000"
ARM GAS  C:\Users\Vergil\AppData\Local\Temp\ccYc9IVa.s 			page 17


 900      73204854 
 900      54502F31 
 900      2E310D0A 
 900      486F7374 
 901 001b 00       		.space	1
 902              	.LC1:
 903 001c 5472616E 		.ascii	"Transfer-Encoding\000"
 903      73666572 
 903      2D456E63 
 903      6F64696E 
 903      6700
 904 002e 0000     		.space	2
 905              	.LC2:
 906 0030 257300   		.ascii	"%s\000"
 907 0033 00       		.space	1
 908              	.LC3:
 909 0034 2000     		.ascii	" \000"
 910 0036 0000     		.space	2
 911              	.LC4:
 912 0038 3A2F2F00 		.ascii	"://\000"
 913              	.LC5:
 914 003c 44454255 		.ascii	"DEBUG %s:%d: Could not find host!\015\012\012\000"
 914      47202573 
 914      3A25643A 
 914      20436F75 
 914      6C64206E 
 915 0061 000000   		.space	3
 916              	.LC6:
 917 0064 433A2F43 		.ascii	"C:/ChibiStudio/chibios/demos/ARMCM4-STM32F401RE-NUC"
 917      68696269 
 917      53747564 
 917      696F2F63 
 917      68696269 
 918 0097 4C454F2D 		.ascii	"LEO-CC3K/openweathermap/httpclient.cpp\000"
 918      4343334B 
 918      2F6F7065 
 918      6E776561 
 918      74686572 
 919 00be 0000     		.space	2
 920              	.LC7:
 921 00c0 44454255 		.ascii	"DEBUG %s:%d: Scheme str is too small (%d >= %d)\015"
 921      47202573 
 921      3A25643A 
 921      20536368 
 921      656D6520 
 922 00f0 0A0A00   		.ascii	"\012\012\000"
 923 00f3 00       		.space	1
 924              	.LC8:
 925 00f4 25687500 		.ascii	"%hu\000"
 926              	.LC9:
 927 00f8 44454255 		.ascii	"DEBUG %s:%d: Could not convert/find port numbers!\015"
 927      47202573 
 927      3A25643A 
 927      20436F75 
 927      6C64206E 
 928 012a 0A0A00   		.ascii	"\012\012\000"
 929 012d 000000   		.space	3
ARM GAS  C:\Users\Vergil\AppData\Local\Temp\ccYc9IVa.s 			page 18


 930              	.LC10:
 931 0130 44454255 		.ascii	"DEBUG %s:%d: Host str is too small (%d >= %d)\015\012"
 931      47202573 
 931      3A25643A 
 931      20486F73 
 931      74207374 
 932 015f 0A00     		.ascii	"\012\000"
 933 0161 000000   		.space	3
 934              	.LC11:
 935 0164 44454255 		.ascii	"DEBUG %s:%d: Path str is too small (%d >= %d)\015\012"
 935      47202573 
 935      3A25643A 
 935      20506174 
 935      68207374 
 936 0193 0A00     		.ascii	"\012\000"
 937 0195 000000   		.space	3
 938              	.LC12:
 939 0198 44454255 		.ascii	"DEBUG %s:%d: scheme [%s]\012\012\000"
 939      47202573 
 939      3A25643A 
 939      20736368 
 939      656D6520 
 940 01b3 00       		.space	1
 941              	.LC13:
 942 01b4 44454255 		.ascii	"DEBUG %s:%d: host [%s]\012\012\000"
 942      47202573 
 942      3A25643A 
 942      20686F73 
 942      74205B25 
 943 01cd 000000   		.space	3
 944              	.LC14:
 945 01d0 44454255 		.ascii	"DEBUG %s:%d: port [%d]\012\012\000"
 945      47202573 
 945      3A25643A 
 945      20706F72 
 945      74205B25 
 946 01e9 000000   		.space	3
 947              	.LC15:
 948 01ec 44454255 		.ascii	"DEBUG %s:%d: path [%s]\012\012\000"
 948      47202573 
 948      3A25643A 
 948      20706174 
 948      68205B25 
 949 0205 000000   		.space	3
 950              	.LC16:
 951 0208 0D0A00   		.ascii	"\015\012\000"
 952 020b 00       		.space	1
 953              	.LC17:
 954 020c 3132372E 		.ascii	"127.0.0.1\000"
 954      302E302E 
 954      3100
 955 0216 0000     		.space	2
 956              	.LC18:
 957 0218 47455400 		.ascii	"GET\000"
 958              	.LC19:
 959 021c 504F5354 		.ascii	"POST\000"
 959      00
ARM GAS  C:\Users\Vergil\AppData\Local\Temp\ccYc9IVa.s 			page 19


 960 0221 000000   		.text
 961              	.Letext0:
 962              		.file 3 "c:\\chibistudio\\tools\\gnu tools arm embedded\\4.7 2014q2\\bin\\../lib/gcc/arm-none-eabi
 963              		.file 4 "c:\\chibistudio\\tools\\gnu tools arm embedded\\4.7 2014q2\\bin\\../lib/gcc/arm-none-eabi
 964              		.file 5 "c:\\chibistudio\\tools\\gnu tools arm embedded\\4.7 2014q2\\bin\\../lib/gcc/arm-none-eabi
 965              		.file 6 "c:\\chibistudio\\tools\\gnu tools arm embedded\\4.7 2014q2\\bin\\../lib/gcc/arm-none-eabi
 966              		.file 7 "c:\\chibistudio\\tools\\gnu tools arm embedded\\4.7 2014q2\\bin\\../lib/gcc/arm-none-eabi
 967              		.file 8 "c:\\chibistudio\\tools\\gnu tools arm embedded\\4.7 2014q2\\bin\\../lib/gcc/arm-none-eabi
 968              		.file 9 "C:/ChibiStudio/chibios/demos/ARMCM4-STM32F401RE-NUCLEO-CC3K/openweathermap/httptypes.h"
 969              		.file 10 "../../os/ports/GCC/ARMCMx/chtypes.h"
 970              		.file 11 "C:/ChibiStudio/chibios/demos/ARMCM4-STM32F401RE-NUCLEO-CC3K/openweathermap/httpdata.h"
 971              		.file 12 "C:/ChibiStudio/chibios/demos/ARMCM4-STM32F401RE-NUCLEO-CC3K/openweathermap/httpclient.h"
 972              		.file 13 "../../os/ports/common/ARMCMx/CMSIS/include/core_cm4.h"
 973              		.file 14 "c:\\chibistudio\\tools\\gnu tools arm embedded\\4.7 2014q2\\bin\\../lib/gcc/arm-none-eab
 974              		.file 15 "c:\\chibistudio\\tools\\gnu tools arm embedded\\4.7 2014q2\\bin\\../lib/gcc/arm-none-eab