ARM GAS  C:\Users\Vergil\AppData\Local\Temp\ccsfdjWl.s 			page 1


   1              		.syntax unified
   2              		.cpu cortex-m4
   3              		.eabi_attribute 27, 3
   4              		.eabi_attribute 28, 1
   5              		.fpu fpv4-sp-d16
   6              		.eabi_attribute 20, 1
   7              		.eabi_attribute 21, 1
   8              		.eabi_attribute 23, 3
   9              		.eabi_attribute 24, 1
  10              		.eabi_attribute 25, 1
  11              		.eabi_attribute 26, 1
  12              		.eabi_attribute 30, 2
  13              		.eabi_attribute 34, 1
  14              		.eabi_attribute 18, 4
  15              		.thumb
  16              		.file	"httpjsondata.cpp"
  17              		.text
  18              	.Ltext0:
  19              		.cfi_sections	.debug_frame
  20              		.section	.text._ZN8HttpData10sendHeaderEP14HttpConnection,"axG",%progbits,_ZN8HttpData10sendHeader
  21              		.align	2
  22              		.p2align 4,,15
  23              		.weak	_ZN8HttpData10sendHeaderEP14HttpConnection
  24              		.thumb
  25              		.thumb_func
  26              		.type	_ZN8HttpData10sendHeaderEP14HttpConnection, %function
  27              	_ZN8HttpData10sendHeaderEP14HttpConnection:
  28              	.LFB129:
  29              		.file 1 "C:/ChibiStudio/chibios/demos/ARMCM4-STM32F401RE-NUCLEO-CC3K/openweathermap/httpdata.h"
  30              		.loc 1 25 0
  31              		.cfi_startproc
  32              		@ args = 0, pretend = 0, frame = 0
  33              		@ frame_needed = 0, uses_anonymous_args = 0
  34              		@ link register save eliminated.
  35              	.LVL0:
  36              		.loc 1 25 0
  37 0000 0020     		movs	r0, #0
  38              	.LVL1:
  39 0002 7047     		bx	lr
  40              		.cfi_endproc
  41              	.LFE129:
  42              		.size	_ZN8HttpData10sendHeaderEP14HttpConnection, .-_ZN8HttpData10sendHeaderEP14HttpConnection
  43 0004 AFF30080 		.section	.text._ZN8HttpData10handleDataEP14HttpConnection,"axG",%progbits,_ZN8HttpData10handleData
  43      AFF30080 
  43      AFF30080 
  44              		.align	2
  45              		.p2align 4,,15
  46              		.weak	_ZN8HttpData10handleDataEP14HttpConnection
  47              		.thumb
  48              		.thumb_func
  49              		.type	_ZN8HttpData10handleDataEP14HttpConnection, %function
  50              	_ZN8HttpData10handleDataEP14HttpConnection:
  51              	.LFB130:
  52              		.loc 1 27 0
  53              		.cfi_startproc
  54              		@ args = 0, pretend = 0, frame = 0
  55              		@ frame_needed = 0, uses_anonymous_args = 0
ARM GAS  C:\Users\Vergil\AppData\Local\Temp\ccsfdjWl.s 			page 2


  56              		@ link register save eliminated.
  57              	.LVL2:
  58              		.loc 1 27 0
  59 0000 0020     		movs	r0, #0
  60              	.LVL3:
  61 0002 7047     		bx	lr
  62              		.cfi_endproc
  63              	.LFE130:
  64              		.size	_ZN8HttpData10handleDataEP14HttpConnection, .-_ZN8HttpData10handleDataEP14HttpConnection
  65 0004 AFF30080 		.section	.text._ZN12HttpJsonData10sendHeaderEP14HttpConnection,"ax",%progbits
  65      AFF30080 
  65      AFF30080 
  66              		.align	2
  67              		.p2align 4,,15
  68              		.global	_ZN12HttpJsonData10sendHeaderEP14HttpConnection
  69              		.thumb
  70              		.thumb_func
  71              		.type	_ZN12HttpJsonData10sendHeaderEP14HttpConnection, %function
  72              	_ZN12HttpJsonData10sendHeaderEP14HttpConnection:
  73              	.LFB140:
  74              		.file 2 "C:/ChibiStudio/chibios/demos/ARMCM4-STM32F401RE-NUCLEO-CC3K/openweathermap/httpjsondata.c
  75              		.loc 2 12 0
  76              		.cfi_startproc
  77              		@ args = 0, pretend = 0, frame = 0
  78              		@ frame_needed = 0, uses_anonymous_args = 0
  79              		@ link register save eliminated.
  80              	.LVL4:
  81              		.loc 2 14 0
  82 0000 0020     		movs	r0, #0
  83              	.LVL5:
  84 0002 7047     		bx	lr
  85              		.cfi_endproc
  86              	.LFE140:
  87              		.size	_ZN12HttpJsonData10sendHeaderEP14HttpConnection, .-_ZN12HttpJsonData10sendHeaderEP14HttpConn
  88 0004 AFF30080 		.section	.text._ZN12HttpJsonData10handleDataEP14HttpConnection,"ax",%progbits
  88      AFF30080 
  88      AFF30080 
  89              		.align	2
  90              		.p2align 4,,15
  91              		.global	_ZN12HttpJsonData10handleDataEP14HttpConnection
  92              		.thumb
  93              		.thumb_func
  94              		.type	_ZN12HttpJsonData10handleDataEP14HttpConnection, %function
  95              	_ZN12HttpJsonData10handleDataEP14HttpConnection:
  96              	.LFB141:
  97              		.loc 2 17 0
  98              		.cfi_startproc
  99              		@ args = 0, pretend = 0, frame = 0
 100              		@ frame_needed = 0, uses_anonymous_args = 0
 101              		@ link register save eliminated.
 102              	.LVL6:
 103              		.loc 2 19 0
 104 0000 0020     		movs	r0, #0
 105              	.LVL7:
 106 0002 7047     		bx	lr
 107              		.cfi_endproc
 108              	.LFE141:
ARM GAS  C:\Users\Vergil\AppData\Local\Temp\ccsfdjWl.s 			page 3


 109              		.size	_ZN12HttpJsonData10handleDataEP14HttpConnection, .-_ZN12HttpJsonData10handleDataEP14HttpConn
 110 0004 AFF30080 		.section	.text._ZN12HttpJsonDataC2Ev,"ax",%progbits
 110      AFF30080 
 110      AFF30080 
 111              		.align	2
 112              		.p2align 4,,15
 113              		.global	_ZN12HttpJsonDataC2Ev
 114              		.thumb
 115              		.thumb_func
 116              		.type	_ZN12HttpJsonDataC2Ev, %function
 117              	_ZN12HttpJsonDataC2Ev:
 118              	.LFB135:
 119              		.loc 2 3 0
 120              		.cfi_startproc
 121              		@ args = 0, pretend = 0, frame = 0
 122              		@ frame_needed = 0, uses_anonymous_args = 0
 123              		@ link register save eliminated.
 124              	.LVL8:
 125              	.LBB9:
 126              		.loc 2 3 0
 127 0000 014B     		ldr	r3, .L6
 128 0002 0360     		str	r3, [r0, #0]
 129              	.LBE9:
 130              		.loc 2 5 0
 131 0004 7047     		bx	lr
 132              	.L7:
 133 0006 00BF     		.align	2
 134              	.L6:
 135 0008 08000000 		.word	.LANCHOR0+8
 136              		.cfi_endproc
 137              	.LFE135:
 138              		.size	_ZN12HttpJsonDataC2Ev, .-_ZN12HttpJsonDataC2Ev
 139              		.global	_ZN12HttpJsonDataC1Ev
 140              		.thumb_set _ZN12HttpJsonDataC1Ev,_ZN12HttpJsonDataC2Ev
 141 000c AFF30080 		.section	.text._ZN12HttpJsonDataD2Ev,"ax",%progbits
 142              		.align	2
 143              		.p2align 4,,15
 144              		.global	_ZN12HttpJsonDataD2Ev
 145              		.thumb
 146              		.thumb_func
 147              		.type	_ZN12HttpJsonDataD2Ev, %function
 148              	_ZN12HttpJsonDataD2Ev:
 149              	.LFB138:
 150              		.loc 2 7 0
 151              		.cfi_startproc
 152              		@ args = 0, pretend = 0, frame = 0
 153              		@ frame_needed = 0, uses_anonymous_args = 0
 154              		@ link register save eliminated.
 155              	.LVL9:
 156              	.LBB10:
 157              		.loc 2 7 0
 158 0000 014B     		ldr	r3, .L9
 159 0002 0360     		str	r3, [r0, #0]
 160              	.LBE10:
 161              		.loc 2 9 0
 162 0004 7047     		bx	lr
 163              	.L10:
ARM GAS  C:\Users\Vergil\AppData\Local\Temp\ccsfdjWl.s 			page 4


 164 0006 00BF     		.align	2
 165              	.L9:
 166 0008 08000000 		.word	.LANCHOR0+8
 167              		.cfi_endproc
 168              	.LFE138:
 169              		.size	_ZN12HttpJsonDataD2Ev, .-_ZN12HttpJsonDataD2Ev
 170              		.global	_ZN12HttpJsonDataD1Ev
 171              		.thumb_set _ZN12HttpJsonDataD1Ev,_ZN12HttpJsonDataD2Ev
 172              		.global	_ZTV12HttpJsonData
 173              		.weak	_ZTV8HttpData
 174 000c AFF30080 		.section	.rodata._ZTV8HttpData,"aG",%progbits,_ZTV8HttpData,comdat
 175              		.align	3
 176              		.type	_ZTV8HttpData, %object
 177              		.size	_ZTV8HttpData, 16
 178              	_ZTV8HttpData:
 179 0000 00000000 		.word	0
 180 0004 00000000 		.word	0
 181 0008 00000000 		.word	_ZN8HttpData10sendHeaderEP14HttpConnection
 182 000c 00000000 		.word	_ZN8HttpData10handleDataEP14HttpConnection
 183              		.section	.rodata._ZTV12HttpJsonData,"a",%progbits
 184              		.align	3
 185              		.set	.LANCHOR0,. + 0
 186              		.type	_ZTV12HttpJsonData, %object
 187              		.size	_ZTV12HttpJsonData, 16
 188              	_ZTV12HttpJsonData:
 189 0000 00000000 		.word	0
 190 0004 00000000 		.word	0
 191 0008 00000000 		.word	_ZN12HttpJsonData10sendHeaderEP14HttpConnection
 192 000c 00000000 		.word	_ZN12HttpJsonData10handleDataEP14HttpConnection
 193              		.text
 194              	.Letext0:
 195              		.file 3 "C:/ChibiStudio/chibios/demos/ARMCM4-STM32F401RE-NUCLEO-CC3K/openweathermap/httptypes.h"
 196              		.file 4 "c:\\chibistudio\\tools\\gnu tools arm embedded\\4.7 2014q2\\bin\\../lib/gcc/arm-none-eabi
 197              		.file 5 "c:\\chibistudio\\tools\\gnu tools arm embedded\\4.7 2014q2\\bin\\../lib/gcc/arm-none-eabi
 198              		.file 6 "../../os/ports/GCC/ARMCMx/chtypes.h"
 199              		.file 7 "C:/ChibiStudio/chibios/demos/ARMCM4-STM32F401RE-NUCLEO-CC3K/openweathermap/httpconnection
 200              		.file 8 "C:/ChibiStudio/chibios/demos/ARMCM4-STM32F401RE-NUCLEO-CC3K/openweathermap/httpjsondata.h
 201              		.file 9 "../../os/ports/common/ARMCMx/CMSIS/include/core_cm4.h"