ARM GAS  C:\Users\Vergil\AppData\Local\Temp\ccSqEO0l.s 			page 1


   1              		.syntax unified
   2              		.cpu cortex-m4
   3              		.eabi_attribute 27, 3
   4              		.eabi_attribute 28, 1
   5              		.fpu fpv4-sp-d16
   6              		.eabi_attribute 20, 1
   7              		.eabi_attribute 21, 1
   8              		.eabi_attribute 23, 3
   9              		.eabi_attribute 24, 1
  10              		.eabi_attribute 25, 1
  11              		.eabi_attribute 26, 1
  12              		.eabi_attribute 30, 2
  13              		.eabi_attribute 34, 1
  14              		.eabi_attribute 18, 4
  15              		.thumb
  16              		.file	"httptcpconnection.cpp"
  17              		.text
  18              	.Ltext0:
  19              		.cfi_sections	.debug_frame
  20              		.section	.text._ZN14HttpConnectionD2Ev,"axG",%progbits,_ZN14HttpConnectionD5Ev,comdat
  21              		.align	2
  22              		.p2align 4,,15
  23              		.weak	_ZN14HttpConnectionD2Ev
  24              		.thumb
  25              		.thumb_func
  26              		.type	_ZN14HttpConnectionD2Ev, %function
  27              	_ZN14HttpConnectionD2Ev:
  28              	.LFB123:
  29              		.file 1 "C:/ChibiStudio/chibios/demos/ARMCM4-STM32F401RE-NUCLEO-CC3K/openweathermap/httpconnection
  30              		.loc 1 28 0
  31              		.cfi_startproc
  32              		@ args = 0, pretend = 0, frame = 0
  33              		@ frame_needed = 0, uses_anonymous_args = 0
  34              		@ link register save eliminated.
  35              	.LVL0:
  36              	.LBB18:
  37              		.loc 1 28 0
  38 0000 014B     		ldr	r3, .L2
  39 0002 0360     		str	r3, [r0, #0]
  40              	.LBE18:
  41 0004 7047     		bx	lr
  42              	.L3:
  43 0006 00BF     		.align	2
  44              	.L2:
  45 0008 08000000 		.word	_ZTV14HttpConnection+8
  46              		.cfi_endproc
  47              	.LFE123:
  48              		.size	_ZN14HttpConnectionD2Ev, .-_ZN14HttpConnectionD2Ev
  49              		.weak	_ZN14HttpConnectionD1Ev
  50              		.thumb_set _ZN14HttpConnectionD1Ev,_ZN14HttpConnectionD2Ev
  51 000c AFF30080 		.section	.text._ZN17HttpTcpConnection10getConTypeEv,"axG",%progbits,_ZN17HttpTcpConnection10getCon
  52              		.align	2
  53              		.p2align 4,,15
  54              		.weak	_ZN17HttpTcpConnection10getConTypeEv
  55              		.thumb
  56              		.thumb_func
  57              		.type	_ZN17HttpTcpConnection10getConTypeEv, %function
ARM GAS  C:\Users\Vergil\AppData\Local\Temp\ccSqEO0l.s 			page 2


  58              	_ZN17HttpTcpConnection10getConTypeEv:
  59              	.LFB129:
  60              		.file 2 "C:/ChibiStudio/chibios/demos/ARMCM4-STM32F401RE-NUCLEO-CC3K/openweathermap/httptcpconnect
  61              		.loc 2 22 0
  62              		.cfi_startproc
  63              		@ args = 0, pretend = 0, frame = 0
  64              		@ frame_needed = 0, uses_anonymous_args = 0
  65              		@ link register save eliminated.
  66              	.LVL1:
  67              		.loc 2 22 0
  68 0000 0020     		movs	r0, #0
  69              	.LVL2:
  70 0002 7047     		bx	lr
  71              		.cfi_endproc
  72              	.LFE129:
  73              		.size	_ZN17HttpTcpConnection10getConTypeEv, .-_ZN17HttpTcpConnection10getConTypeEv
  74 0004 AFF30080 		.section	.text._ZN17HttpTcpConnectionD2Ev,"ax",%progbits
  74      AFF30080 
  74      AFF30080 
  75              		.align	2
  76              		.p2align 4,,15
  77              		.global	_ZN17HttpTcpConnectionD2Ev
  78              		.thumb
  79              		.thumb_func
  80              		.type	_ZN17HttpTcpConnectionD2Ev, %function
  81              	_ZN17HttpTcpConnectionD2Ev:
  82              	.LFB134:
  83              		.file 3 "C:/ChibiStudio/chibios/demos/ARMCM4-STM32F401RE-NUCLEO-CC3K/openweathermap/httptcpconnect
  84              		.loc 3 13 0
  85              		.cfi_startproc
  86              		@ args = 0, pretend = 0, frame = 0
  87              		@ frame_needed = 0, uses_anonymous_args = 0
  88              		@ link register save eliminated.
  89              	.LVL3:
  90              	.LBB19:
  91              	.LBB20:
  92              	.LBB21:
  93              		.loc 1 28 0
  94 0000 014B     		ldr	r3, .L6
  95 0002 0360     		str	r3, [r0, #0]
  96              	.LBE21:
  97              	.LBE20:
  98              	.LBE19:
  99              		.loc 3 15 0
 100 0004 7047     		bx	lr
 101              	.L7:
 102 0006 00BF     		.align	2
 103              	.L6:
 104 0008 08000000 		.word	_ZTV14HttpConnection+8
 105              		.cfi_endproc
 106              	.LFE134:
 107              		.size	_ZN17HttpTcpConnectionD2Ev, .-_ZN17HttpTcpConnectionD2Ev
 108              		.global	_ZN17HttpTcpConnectionD1Ev
 109              		.thumb_set _ZN17HttpTcpConnectionD1Ev,_ZN17HttpTcpConnectionD2Ev
 110 000c AFF30080 		.section	.text._ZN17HttpTcpConnection5closeEv,"ax",%progbits
 111              		.align	2
 112              		.p2align 4,,15
ARM GAS  C:\Users\Vergil\AppData\Local\Temp\ccSqEO0l.s 			page 3


 113              		.global	_ZN17HttpTcpConnection5closeEv
 114              		.thumb
 115              		.thumb_func
 116              		.type	_ZN17HttpTcpConnection5closeEv, %function
 117              	_ZN17HttpTcpConnection5closeEv:
 118              	.LFB146:
 119              		.loc 3 241 0
 120              		.cfi_startproc
 121              		@ args = 0, pretend = 0, frame = 0
 122              		@ frame_needed = 0, uses_anonymous_args = 0
 123              		@ link register save eliminated.
 124              	.LVL4:
 125              		.loc 3 245 0
 126 0000 0020     		movs	r0, #0
 127              	.LVL5:
 128 0002 7047     		bx	lr
 129              		.cfi_endproc
 130              	.LFE146:
 131              		.size	_ZN17HttpTcpConnection5closeEv, .-_ZN17HttpTcpConnection5closeEv
 132 0004 AFF30080 		.section	.text._ZN17HttpTcpConnection4sendEPKcj,"ax",%progbits
 132      AFF30080 
 132      AFF30080 
 133              		.align	2
 134              		.p2align 4,,15
 135              		.global	_ZN17HttpTcpConnection4sendEPKcj
 136              		.thumb
 137              		.thumb_func
 138              		.type	_ZN17HttpTcpConnection4sendEPKcj, %function
 139              	_ZN17HttpTcpConnection4sendEPKcj:
 140              	.LFB138:
 141              		.loc 3 60 0
 142              		.cfi_startproc
 143              		@ args = 0, pretend = 0, frame = 0
 144              		@ frame_needed = 0, uses_anonymous_args = 0
 145              	.LVL6:
 146 0000 2DE9F041 		push	{r4, r5, r6, r7, r8, lr}
 147              	.LCFI0:
 148              		.cfi_def_cfa_offset 24
 149              		.cfi_offset 4, -24
 150              		.cfi_offset 5, -20
 151              		.cfi_offset 6, -16
 152              		.cfi_offset 7, -12
 153              		.cfi_offset 8, -8
 154              		.cfi_offset 14, -4
 155              	.LBB22:
 156              		.loc 3 65 0
 157 0004 0F46     		mov	r7, r1
 158              	.LBE22:
 159              		.loc 3 60 0
 160 0006 8046     		mov	r8, r0
 161 0008 1646     		mov	r6, r2
 162              	.LVL7:
 163              	.LBB23:
 164              		.loc 3 65 0
 165 000a 89B1     		cbz	r1, .L12
 166              		.loc 3 65 0 is_stmt 0 discriminator 2
 167 000c 82B1     		cbz	r2, .L12
ARM GAS  C:\Users\Vergil\AppData\Local\Temp\ccSqEO0l.s 			page 4


 168              		.loc 3 65 0
 169 000e 1546     		mov	r5, r2
 170 0010 0024     		movs	r4, #0
 171 0012 01E0     		b	.L13
 172              	.LVL8:
 173              	.L20:
 174              		.loc 3 67 0 is_stmt 1
 175 0014 A642     		cmp	r6, r4
 176 0016 0FD9     		bls	.L19
 177              	.LVL9:
 178              	.L13:
 179              		.loc 3 69 0
 180 0018 3919     		adds	r1, r7, r4
 181 001a 2A46     		mov	r2, r5
 182 001c 0023     		movs	r3, #0
 183 001e D8F80800 		ldr	r0, [r8, #8]
 184 0022 FFF7FEFF 		bl	send
 185              	.LVL10:
 186              		.loc 3 70 0
 187 0026 0028     		cmp	r0, #0
 188              	.LVL11:
 189              		.loc 3 71 0
 190 0028 0444     		add	r4, r4, r0
 191              	.LVL12:
 192              		.loc 3 72 0
 193 002a C0EB0505 		rsb	r5, r0, r5
 194              	.LVL13:
 195              		.loc 3 70 0
 196 002e F1DA     		bge	.L20
 197              	.LVL14:
 198              	.L12:
 199              		.loc 3 65 0
 200 0030 FC20     		movs	r0, #252
 201              	.LBE23:
 202              		.loc 3 79 0
 203 0032 40B2     		sxtb	r0, r0
 204 0034 BDE8F081 		pop	{r4, r5, r6, r7, r8, pc}
 205              	.LVL15:
 206              	.L19:
 207              	.LBB24:
 208              		.loc 3 78 0
 209 0038 0020     		movs	r0, #0
 210              	.LBE24:
 211              		.loc 3 79 0
 212 003a 40B2     		sxtb	r0, r0
 213 003c BDE8F081 		pop	{r4, r5, r6, r7, r8, pc}
 214              		.cfi_endproc
 215              	.LFE138:
 216              		.size	_ZN17HttpTcpConnection4sendEPKcj, .-_ZN17HttpTcpConnection4sendEPKcj
 217              		.section	.text._ZN17HttpTcpConnection4openER20HttpConnectionParams,"ax",%progbits
 218              		.align	2
 219              		.p2align 4,,15
 220              		.global	_ZN17HttpTcpConnection4openER20HttpConnectionParams
 221              		.thumb
 222              		.thumb_func
 223              		.type	_ZN17HttpTcpConnection4openER20HttpConnectionParams, %function
 224              	_ZN17HttpTcpConnection4openER20HttpConnectionParams:
ARM GAS  C:\Users\Vergil\AppData\Local\Temp\ccSqEO0l.s 			page 5


 225              	.LFB137:
 226              		.loc 3 18 0
 227              		.cfi_startproc
 228              		@ args = 0, pretend = 0, frame = 24
 229              		@ frame_needed = 0, uses_anonymous_args = 0
 230              	.LVL16:
 231 0000 70B5     		push	{r4, r5, r6, lr}
 232              	.LCFI1:
 233              		.cfi_def_cfa_offset 16
 234              		.cfi_offset 4, -16
 235              		.cfi_offset 5, -12
 236              		.cfi_offset 6, -8
 237              		.cfi_offset 14, -4
 238              	.LBB25:
 239              		.loc 3 22 0
 240 0002 B1F82E31 		ldrh	r3, [r1, #302]
 241              	.LBE25:
 242              		.loc 3 18 0
 243 0006 0446     		mov	r4, r0
 244              	.LBB26:
 245              		.loc 3 25 0
 246 0008 0022     		movs	r2, #0
 247 000a 0220     		movs	r0, #2
 248              	.LVL17:
 249              	.LBE26:
 250              		.loc 3 18 0
 251 000c 86B0     		sub	sp, sp, #24
 252              	.LCFI2:
 253              		.cfi_def_cfa_offset 40
 254              		.loc 3 18 0
 255 000e 0D46     		mov	r5, r1
 256              	.LBB27:
 257              		.loc 3 22 0
 258 0010 E360     		str	r3, [r4, #12]
 259              		.loc 3 25 0
 260 0012 0121     		movs	r1, #1
 261              	.LVL18:
 262 0014 FFF7FEFF 		bl	socket
 263              	.LVL19:
 264 0018 0028     		cmp	r0, #0
 265 001a A060     		str	r0, [r4, #8]
 266 001c 3BDB     		blt	.L26
 267              		.loc 3 32 0
 268 001e 0135     		adds	r5, r5, #1
 269              	.LVL20:
 270              		.loc 3 31 0
 271 0020 0021     		movs	r1, #0
 272              		.loc 3 32 0
 273 0022 2846     		mov	r0, r5
 274              		.loc 3 31 0
 275 0024 0291     		str	r1, [sp, #8]
 276 0026 0391     		str	r1, [sp, #12]
 277 0028 0491     		str	r1, [sp, #16]
 278 002a 0591     		str	r1, [sp, #20]
 279              		.loc 3 32 0
 280 002c FFF7FEFF 		bl	strlen
 281              	.LVL21:
ARM GAS  C:\Users\Vergil\AppData\Local\Temp\ccSqEO0l.s 			page 6


 282 0030 01AA     		add	r2, sp, #4
 283 0032 81B2     		uxth	r1, r0
 284 0034 2846     		mov	r0, r5
 285 0036 FFF7FEFF 		bl	gethostbyname
 286              	.LVL22:
 287 003a 0028     		cmp	r0, #0
 288 003c 18DB     		blt	.L27
 289              	.L24:
 290              		.loc 3 40 0
 291 003e E668     		ldr	r6, [r4, #12]
 292              	.LVL23:
 293 0040 019D     		ldr	r5, [sp, #4]
 294              	.LVL24:
 295              		.loc 3 44 0
 296 0042 A068     		ldr	r0, [r4, #8]
 297              		.loc 3 40 0
 298 0044 C6F30722 		ubfx	r2, r6, #8, #8
 299 0048 42EA0623 		orr	r3, r2, r6, lsl #8
 300 004c 2DBA     		rev	r5, r5
 301              		.loc 3 39 0
 302 004e 0226     		movs	r6, #2
 303              		.loc 3 44 0
 304 0050 02A9     		add	r1, sp, #8
 305 0052 1022     		movs	r2, #16
 306              		.loc 3 39 0
 307 0054 ADF80860 		strh	r6, [sp, #8]	@ movhi
 308              		.loc 3 40 0
 309 0058 ADF80A30 		strh	r3, [sp, #10]	@ movhi
 310              		.loc 3 41 0
 311 005c 0395     		str	r5, [sp, #12]
 312              		.loc 3 44 0
 313 005e FFF7FEFF 		bl	connect
 314              	.LVL25:
 315 0062 70B9     		cbnz	r0, .L28
 316              		.loc 3 51 0
 317 0064 0121     		movs	r1, #1
 318 0066 2171     		strb	r1, [r4, #4]
 319              		.loc 3 52 0
 320 0068 6071     		strb	r0, [r4, #5]
 321              	.L23:
 322              	.LBE27:
 323              		.loc 3 56 0
 324 006a 40B2     		sxtb	r0, r0
 325 006c 06B0     		add	sp, sp, #24
 326 006e 70BD     		pop	{r4, r5, r6, pc}
 327              	.LVL26:
 328              	.L27:
 329              	.LBB28:
 330              		.loc 3 35 0
 331 0070 0E48     		ldr	r0, .L29
 332 0072 2946     		mov	r1, r5
 333 0074 FFF7FEFF 		bl	ccprint
 334              	.LVL27:
 335              		.loc 3 36 0
 336 0078 4FF47A70 		mov	r0, #1000
 337 007c FFF7FEFF 		bl	chThdSleep
 338              	.LVL28:
ARM GAS  C:\Users\Vergil\AppData\Local\Temp\ccSqEO0l.s 			page 7


 339 0080 DDE7     		b	.L24
 340              	.LVL29:
 341              	.L28:
 342              		.loc 3 46 0
 343 0082 0B48     		ldr	r0, .L29+4
 344 0084 0B49     		ldr	r1, .L29+8
 345 0086 0368     		ldr	r3, [r0, #0]
 346 0088 0B4A     		ldr	r2, .L29+12
 347 008a D868     		ldr	r0, [r3, #12]
 348 008c 2E23     		movs	r3, #46
 349 008e FFF7FEFF 		bl	fprintf
 350              	.LVL30:
 351              		.loc 3 47 0
 352 0092 FE20     		movs	r0, #254
 353 0094 E9E7     		b	.L23
 354              	.LVL31:
 355              	.L26:
 356              		.loc 3 27 0
 357 0096 064A     		ldr	r2, .L29+4
 358 0098 0849     		ldr	r1, .L29+16
 359 009a 1068     		ldr	r0, [r2, #0]
 360 009c 064A     		ldr	r2, .L29+12
 361 009e C068     		ldr	r0, [r0, #12]
 362 00a0 1B23     		movs	r3, #27
 363 00a2 FFF7FEFF 		bl	fprintf
 364              	.LVL32:
 365              		.loc 3 28 0
 366 00a6 FE20     		movs	r0, #254
 367 00a8 DFE7     		b	.L23
 368              	.L30:
 369 00aa 00BF     		.align	2
 370              	.L29:
 371 00ac 90000000 		.word	.LC2
 372 00b0 00000000 		.word	_impure_ptr
 373 00b4 B4000000 		.word	.LC3
 374 00b8 2C000000 		.word	.LC1
 375 00bc 00000000 		.word	.LC0
 376              	.LBE28:
 377              		.cfi_endproc
 378              	.LFE137:
 379              		.size	_ZN17HttpTcpConnection4openER20HttpConnectionParams, .-_ZN17HttpTcpConnection4openER20HttpCo
 380              		.section	.text._ZN17HttpTcpConnectionD0Ev,"ax",%progbits
 381              		.align	2
 382              		.p2align 4,,15
 383              		.global	_ZN17HttpTcpConnectionD0Ev
 384              		.thumb
 385              		.thumb_func
 386              		.type	_ZN17HttpTcpConnectionD0Ev, %function
 387              	_ZN17HttpTcpConnectionD0Ev:
 388              	.LFB136:
 389              		.loc 3 13 0
 390              		.cfi_startproc
 391              		@ args = 0, pretend = 0, frame = 0
 392              		@ frame_needed = 0, uses_anonymous_args = 0
 393              	.LVL33:
 394              	.LBB29:
 395              	.LBB30:
ARM GAS  C:\Users\Vergil\AppData\Local\Temp\ccSqEO0l.s 			page 8


 396              	.LBB31:
 397              	.LBB32:
 398              		.loc 1 28 0
 399 0000 034B     		ldr	r3, .L32
 400              	.LBE32:
 401              	.LBE31:
 402              	.LBE30:
 403              	.LBE29:
 404              		.loc 3 13 0
 405 0002 10B5     		push	{r4, lr}
 406              	.LCFI3:
 407              		.cfi_def_cfa_offset 8
 408              		.cfi_offset 4, -8
 409              		.cfi_offset 14, -4
 410              		.loc 3 13 0
 411 0004 0446     		mov	r4, r0
 412              	.LVL34:
 413              	.LBB36:
 414              	.LBB35:
 415              	.LBB34:
 416              	.LBB33:
 417              		.loc 1 28 0
 418 0006 0360     		str	r3, [r0, #0]
 419              	.LBE33:
 420              	.LBE34:
 421              	.LBE35:
 422              	.LBE36:
 423              		.loc 3 15 0
 424 0008 FFF7FEFF 		bl	_ZdlPv
 425              	.LVL35:
 426 000c 2046     		mov	r0, r4
 427 000e 10BD     		pop	{r4, pc}
 428              	.L33:
 429              		.align	2
 430              	.L32:
 431 0010 08000000 		.word	_ZTV14HttpConnection+8
 432              		.cfi_endproc
 433              	.LFE136:
 434              		.size	_ZN17HttpTcpConnectionD0Ev, .-_ZN17HttpTcpConnectionD0Ev
 435 0014 AFF30080 		.section	.text._ZN14HttpConnectionD0Ev,"axG",%progbits,_ZN14HttpConnectionD0Ev,comdat
 435      AFF30080 
 435      AFF30080 
 436              		.align	2
 437              		.p2align 4,,15
 438              		.weak	_ZN14HttpConnectionD0Ev
 439              		.thumb
 440              		.thumb_func
 441              		.type	_ZN14HttpConnectionD0Ev, %function
 442              	_ZN14HttpConnectionD0Ev:
 443              	.LFB125:
 444              		.loc 1 28 0
 445              		.cfi_startproc
 446              		@ args = 0, pretend = 0, frame = 0
 447              		@ frame_needed = 0, uses_anonymous_args = 0
 448              	.LVL36:
 449              	.LBB37:
 450              	.LBB38:
ARM GAS  C:\Users\Vergil\AppData\Local\Temp\ccSqEO0l.s 			page 9


 451 0000 034B     		ldr	r3, .L35
 452              	.LBE38:
 453              	.LBE37:
 454 0002 10B5     		push	{r4, lr}
 455              	.LCFI4:
 456              		.cfi_def_cfa_offset 8
 457              		.cfi_offset 4, -8
 458              		.cfi_offset 14, -4
 459              		.loc 1 28 0
 460 0004 0446     		mov	r4, r0
 461              	.LVL37:
 462              	.LBB40:
 463              	.LBB39:
 464 0006 0360     		str	r3, [r0, #0]
 465              	.LBE39:
 466              	.LBE40:
 467 0008 FFF7FEFF 		bl	_ZdlPv
 468              	.LVL38:
 469 000c 2046     		mov	r0, r4
 470 000e 10BD     		pop	{r4, pc}
 471              	.L36:
 472              		.align	2
 473              	.L35:
 474 0010 08000000 		.word	_ZTV14HttpConnection+8
 475              		.cfi_endproc
 476              	.LFE125:
 477              		.size	_ZN14HttpConnectionD0Ev, .-_ZN14HttpConnectionD0Ev
 478 0014 AFF30080 		.section	.text._ZN17HttpTcpConnectionC2Ev,"ax",%progbits
 478      AFF30080 
 478      AFF30080 
 479              		.align	2
 480              		.p2align 4,,15
 481              		.global	_ZN17HttpTcpConnectionC2Ev
 482              		.thumb
 483              		.thumb_func
 484              		.type	_ZN17HttpTcpConnectionC2Ev, %function
 485              	_ZN17HttpTcpConnectionC2Ev:
 486              	.LFB131:
 487              		.loc 3 7 0
 488              		.cfi_startproc
 489              		@ args = 0, pretend = 0, frame = 0
 490              		@ frame_needed = 0, uses_anonymous_args = 0
 491              	.LVL39:
 492              	.LBB41:
 493              		.loc 3 8 0
 494 0000 074B     		ldr	r3, .L38
 495              	.LBB42:
 496              	.LBB43:
 497              		.loc 1 26 0
 498 0002 0021     		movs	r1, #0
 499              	.LBE43:
 500              	.LBE42:
 501              	.LBE41:
 502              		.loc 3 7 0
 503 0004 10B5     		push	{r4, lr}
 504              	.LCFI5:
 505              		.cfi_def_cfa_offset 8
ARM GAS  C:\Users\Vergil\AppData\Local\Temp\ccSqEO0l.s 			page 10


 506              		.cfi_offset 4, -8
 507              		.cfi_offset 14, -4
 508              	.LBB46:
 509              		.loc 3 10 0
 510 0006 6422     		movs	r2, #100
 511              	.LBE46:
 512              		.loc 3 7 0
 513 0008 0446     		mov	r4, r0
 514              	.LVL40:
 515              	.LBB47:
 516              	.LBB45:
 517              	.LBB44:
 518              		.loc 1 26 0
 519 000a 0171     		strb	r1, [r0, #4]
 520 000c 4171     		strb	r1, [r0, #5]
 521              	.LBE44:
 522              	.LBE45:
 523              		.loc 3 8 0
 524 000e 0360     		str	r3, [r0, #0]
 525 0010 8160     		str	r1, [r0, #8]
 526 0012 C160     		str	r1, [r0, #12]
 527              		.loc 3 10 0
 528 0014 00F11000 		add	r0, r0, #16
 529              	.LVL41:
 530 0018 FFF7FEFF 		bl	memset
 531              	.LVL42:
 532              	.LBE47:
 533              		.loc 3 11 0
 534 001c 2046     		mov	r0, r4
 535 001e 10BD     		pop	{r4, pc}
 536              	.L39:
 537              		.align	2
 538              	.L38:
 539 0020 08000000 		.word	.LANCHOR0+8
 540              		.cfi_endproc
 541              	.LFE131:
 542              		.size	_ZN17HttpTcpConnectionC2Ev, .-_ZN17HttpTcpConnectionC2Ev
 543              		.global	_ZN17HttpTcpConnectionC1Ev
 544              		.thumb_set _ZN17HttpTcpConnectionC1Ev,_ZN17HttpTcpConnectionC2Ev
 545 0024 AFF30080 		.section	.text._ZN17HttpTcpConnection15readChunkHeaderEv,"ax",%progbits
 545      AFF30080 
 545      AFF30080 
 546              		.align	2
 547              		.p2align 4,,15
 548              		.global	_ZN17HttpTcpConnection15readChunkHeaderEv
 549              		.thumb
 550              		.thumb_func
 551              		.type	_ZN17HttpTcpConnection15readChunkHeaderEv, %function
 552              	_ZN17HttpTcpConnection15readChunkHeaderEv:
 553              	.LFB141:
 554              		.loc 3 135 0
 555              		.cfi_startproc
 556              		@ args = 0, pretend = 0, frame = 104
 557              		@ frame_needed = 0, uses_anonymous_args = 0
 558              	.LVL43:
 559 0000 10B5     		push	{r4, lr}
 560              	.LCFI6:
ARM GAS  C:\Users\Vergil\AppData\Local\Temp\ccSqEO0l.s 			page 11


 561              		.cfi_def_cfa_offset 8
 562              		.cfi_offset 4, -8
 563              		.cfi_offset 14, -4
 564              	.LBB48:
 565              		.loc 3 145 0
 566 0002 0368     		ldr	r3, [r0, #0]
 567              	.LBE48:
 568              		.loc 3 135 0
 569 0004 9AB0     		sub	sp, sp, #104
 570              	.LCFI7:
 571              		.cfi_def_cfa_offset 112
 572              	.LVL44:
 573              	.LBB49:
 574              		.loc 3 145 0
 575 0006 01AC     		add	r4, sp, #4
 576              	.LVL45:
 577 0008 6422     		movs	r2, #100
 578 000a 5B69     		ldr	r3, [r3, #20]
 579 000c 2146     		mov	r1, r4
 580 000e 9847     		blx	r3
 581              	.LVL46:
 582 0010 0028     		cmp	r0, #0
 583 0012 11DD     		ble	.L43
 584              		.loc 3 148 0
 585 0014 2046     		mov	r0, r4
 586 0016 2021     		movs	r1, #32
 587 0018 FFF7FEFF 		bl	strchr
 588              	.LVL47:
 589              		.loc 3 149 0
 590 001c 28B1     		cbz	r0, .L42
 591              		.loc 3 150 0
 592 001e 001B     		subs	r0, r0, r4
 593              	.LVL48:
 594 0020 1AA9     		add	r1, sp, #104
 595 0022 0A18     		adds	r2, r1, r0
 596 0024 0023     		movs	r3, #0
 597 0026 02F8643C 		strb	r3, [r2, #-100]
 598              	.L42:
 599              		.loc 3 154 0
 600 002a 2046     		mov	r0, r4
 601 002c 0021     		movs	r1, #0
 602 002e 1022     		movs	r2, #16
 603 0030 FFF7FEFF 		bl	strtol
 604              	.LVL49:
 605              	.L41:
 606              	.LBE49:
 607              		.loc 3 158 0
 608 0034 1AB0     		add	sp, sp, #104
 609 0036 10BD     		pop	{r4, pc}
 610              	.LVL50:
 611              	.L43:
 612              	.LBB50:
 613              		.loc 3 157 0
 614 0038 6FF00600 		mvn	r0, #6
 615 003c FAE7     		b	.L41
 616              	.LBE50:
 617              		.cfi_endproc
ARM GAS  C:\Users\Vergil\AppData\Local\Temp\ccSqEO0l.s 			page 12


 618              	.LFE141:
 619              		.size	_ZN17HttpTcpConnection15readChunkHeaderEv, .-_ZN17HttpTcpConnection15readChunkHeaderEv
 620 003e 00BF     		.section	.text._ZN17HttpTcpConnection7rawRecvEPcj,"ax",%progbits
 621              		.align	2
 622              		.p2align 4,,15
 623              		.global	_ZN17HttpTcpConnection7rawRecvEPcj
 624              		.thumb
 625              		.thumb_func
 626              		.type	_ZN17HttpTcpConnection7rawRecvEPcj, %function
 627              	_ZN17HttpTcpConnection7rawRecvEPcj:
 628              	.LFB143:
 629              		.loc 3 184 0
 630              		.cfi_startproc
 631              		@ args = 0, pretend = 0, frame = 0
 632              		@ frame_needed = 0, uses_anonymous_args = 0
 633              	.LVL51:
 634 0000 2DE9F041 		push	{r4, r5, r6, r7, r8, lr}
 635              	.LCFI8:
 636              		.cfi_def_cfa_offset 24
 637              		.cfi_offset 4, -24
 638              		.cfi_offset 5, -20
 639              		.cfi_offset 6, -16
 640              		.cfi_offset 7, -12
 641              		.cfi_offset 8, -8
 642              		.cfi_offset 14, -4
 643              		.loc 3 184 0
 644 0004 1646     		mov	r6, r2
 645              	.LBB51:
 646              		.loc 3 187 0
 647 0006 0F46     		mov	r7, r1
 648              	.LBE51:
 649              		.loc 3 184 0
 650 0008 8046     		mov	r8, r0
 651              	.LBB52:
 652              		.loc 3 185 0
 653 000a 1546     		mov	r5, r2
 654              	.LVL52:
 655              		.loc 3 187 0
 656 000c 91B1     		cbz	r1, .L50
 657              		.loc 3 187 0 is_stmt 0 discriminator 2
 658 000e 8AB1     		cbz	r2, .L50
 659              		.loc 3 187 0
 660 0010 0021     		movs	r1, #0
 661              	.LVL53:
 662 0012 0C46     		mov	r4, r1
 663 0014 01E0     		b	.L51
 664              	.LVL54:
 665              	.L57:
 666              		.loc 3 189 0 is_stmt 1
 667 0016 A642     		cmp	r6, r4
 668 0018 10D9     		bls	.L56
 669              	.LVL55:
 670              	.L51:
 671              		.loc 3 191 0
 672 001a 7918     		adds	r1, r7, r1
 673 001c 2A46     		mov	r2, r5
 674 001e 0023     		movs	r3, #0
ARM GAS  C:\Users\Vergil\AppData\Local\Temp\ccSqEO0l.s 			page 13


 675 0020 D8F80800 		ldr	r0, [r8, #8]
 676 0024 FFF7FEFF 		bl	recv
 677              	.LVL56:
 678              		.loc 3 192 0
 679 0028 0028     		cmp	r0, #0
 680              		.loc 3 193 0
 681 002a 0444     		add	r4, r4, r0
 682              	.LVL57:
 683              		.loc 3 194 0
 684 002c C0EB0505 		rsb	r5, r0, r5
 685              	.LVL58:
 686              		.loc 3 189 0
 687 0030 2146     		mov	r1, r4
 688              		.loc 3 192 0
 689 0032 F0DA     		bge	.L57
 690              	.LVL59:
 691              	.L50:
 692              		.loc 3 187 0
 693 0034 FB20     		movs	r0, #251
 694              	.LBE52:
 695              		.loc 3 201 0
 696 0036 40B2     		sxtb	r0, r0
 697 0038 BDE8F081 		pop	{r4, r5, r6, r7, r8, pc}
 698              	.LVL60:
 699              	.L56:
 700              	.LBB53:
 701              		.loc 3 200 0
 702 003c 0020     		movs	r0, #0
 703              	.LBE53:
 704              		.loc 3 201 0
 705 003e 40B2     		sxtb	r0, r0
 706 0040 BDE8F081 		pop	{r4, r5, r6, r7, r8, pc}
 707              		.cfi_endproc
 708              	.LFE143:
 709              		.size	_ZN17HttpTcpConnection7rawRecvEPcj, .-_ZN17HttpTcpConnection7rawRecvEPcj
 710 0044 AFF30080 		.section	.text._ZN17HttpTcpConnection9recvUntilEPcjc,"ax",%progbits
 710      AFF30080 
 710      AFF30080 
 711              		.align	2
 712              		.p2align 4,,15
 713              		.global	_ZN17HttpTcpConnection9recvUntilEPcjc
 714              		.thumb
 715              		.thumb_func
 716              		.type	_ZN17HttpTcpConnection9recvUntilEPcjc, %function
 717              	_ZN17HttpTcpConnection9recvUntilEPcjc:
 718              	.LFB144:
 719              		.loc 3 204 0
 720              		.cfi_startproc
 721              		@ args = 0, pretend = 0, frame = 8
 722              		@ frame_needed = 0, uses_anonymous_args = 0
 723              	.LVL61:
 724 0000 2DE9F043 		push	{r4, r5, r6, r7, r8, r9, lr}
 725              	.LCFI9:
 726              		.cfi_def_cfa_offset 28
 727              		.cfi_offset 4, -28
 728              		.cfi_offset 5, -24
 729              		.cfi_offset 6, -20
ARM GAS  C:\Users\Vergil\AppData\Local\Temp\ccSqEO0l.s 			page 14


 730              		.cfi_offset 7, -16
 731              		.cfi_offset 8, -12
 732              		.cfi_offset 9, -8
 733              		.cfi_offset 14, -4
 734              	.LBB54:
 735              		.loc 3 206 0
 736 0004 0024     		movs	r4, #0
 737              	.LBE54:
 738              		.loc 3 204 0
 739 0006 83B0     		sub	sp, sp, #12
 740              	.LCFI10:
 741              		.cfi_def_cfa_offset 40
 742 0008 02F1FF3E 		add	lr, r2, #-1
 743              		.loc 3 204 0
 744 000c 0546     		mov	r5, r0
 745 000e 9046     		mov	r8, r2
 746 0010 0F46     		mov	r7, r1
 747              	.LBB55:
 748              		.loc 3 209 0
 749 0012 0122     		movs	r2, #1
 750              	.LVL62:
 751              	.LBE55:
 752              		.loc 3 204 0
 753 0014 1E46     		mov	r6, r3
 754              	.LBB56:
 755              		.loc 3 209 0
 756 0016 8068     		ldr	r0, [r0, #8]
 757              	.LVL63:
 758 0018 0DF10701 		add	r1, sp, #7
 759              	.LVL64:
 760 001c 2346     		mov	r3, r4
 761              	.LVL65:
 762 001e 0EEA0209 		and	r9, lr, r2
 763              	.LVL66:
 764 0022 FFF7FEFF 		bl	recv
 765              	.LVL67:
 766 0026 A042     		cmp	r0, r4
 767 0028 41DD     		ble	.L74
 768              	.LVL68:
 769              		.loc 3 211 0
 770 002a 9DF80730 		ldrb	r3, [sp, #7]	@ zero_extendqisi2
 771 002e B342     		cmp	r3, r6
 772 0030 39D0     		beq	.L61
 773              		.loc 3 215 0
 774 0032 0124     		movs	r4, #1
 775              	.LVL69:
 776              		.loc 3 217 0
 777 0034 A045     		cmp	r8, r4
 778              		.loc 3 214 0
 779 0036 3B70     		strb	r3, [r7, #0]
 780              		.loc 3 217 0
 781 0038 33D9     		bls	.L64
 782 003a B9F1000F 		cmp	r9, #0
 783 003e 10D0     		beq	.L59
 784              		.loc 3 209 0
 785 0040 0023     		movs	r3, #0
 786 0042 A868     		ldr	r0, [r5, #8]
ARM GAS  C:\Users\Vergil\AppData\Local\Temp\ccSqEO0l.s 			page 15


 787              	.LVL70:
 788 0044 0DF10701 		add	r1, sp, #7
 789 0048 2246     		mov	r2, r4
 790 004a FFF7FEFF 		bl	recv
 791              	.LVL71:
 792 004e 0028     		cmp	r0, #0
 793 0050 2DDD     		ble	.L74
 794              		.loc 3 211 0
 795 0052 9DF80700 		ldrb	r0, [sp, #7]	@ zero_extendqisi2
 796 0056 B042     		cmp	r0, r6
 797 0058 25D0     		beq	.L61
 798              		.loc 3 214 0
 799 005a 3855     		strb	r0, [r7, r4]
 800              		.loc 3 215 0
 801 005c 0224     		movs	r4, #2
 802              	.LVL72:
 803              		.loc 3 217 0
 804 005e A045     		cmp	r8, r4
 805 0060 1FD9     		bls	.L64
 806              	.L59:
 807              		.loc 3 209 0 discriminator 1
 808 0062 0122     		movs	r2, #1
 809 0064 0023     		movs	r3, #0
 810 0066 0DF10701 		add	r1, sp, #7
 811 006a A868     		ldr	r0, [r5, #8]
 812 006c FFF7FEFF 		bl	recv
 813              	.LVL73:
 814 0070 0023     		movs	r3, #0
 815 0072 0122     		movs	r2, #1
 816 0074 9842     		cmp	r0, r3
 817 0076 0DF10701 		add	r1, sp, #7
 818 007a 18DD     		ble	.L74
 819              		.loc 3 211 0
 820 007c 9DF80700 		ldrb	r0, [sp, #7]	@ zero_extendqisi2
 821 0080 B042     		cmp	r0, r6
 822 0082 10D0     		beq	.L61
 823              		.loc 3 214 0
 824 0084 3855     		strb	r0, [r7, r4]
 825              		.loc 3 209 0
 826 0086 A868     		ldr	r0, [r5, #8]
 827 0088 FFF7FEFF 		bl	recv
 828              	.LVL74:
 829              		.loc 3 215 0
 830 008c 0134     		adds	r4, r4, #1
 831              	.LVL75:
 832              		.loc 3 209 0
 833 008e 0028     		cmp	r0, #0
 834 0090 0DDD     		ble	.L74
 835              		.loc 3 211 0
 836 0092 9DF80710 		ldrb	r1, [sp, #7]	@ zero_extendqisi2
 837 0096 B142     		cmp	r1, r6
 838 0098 05D0     		beq	.L61
 839              		.loc 3 214 0
 840 009a 3955     		strb	r1, [r7, r4]
 841              		.loc 3 215 0
 842 009c 0134     		adds	r4, r4, #1
 843              	.LVL76:
ARM GAS  C:\Users\Vergil\AppData\Local\Temp\ccSqEO0l.s 			page 16


 844              		.loc 3 217 0
 845 009e A045     		cmp	r8, r4
 846 00a0 DFD8     		bhi	.L59
 847              	.L64:
 848              		.loc 3 219 0
 849 00a2 6FF00504 		mvn	r4, #5
 850              	.LVL77:
 851              	.L61:
 852              	.LBE56:
 853              		.loc 3 228 0
 854 00a6 2046     		mov	r0, r4
 855 00a8 03B0     		add	sp, sp, #12
 856 00aa BDE8F083 		pop	{r4, r5, r6, r7, r8, r9, pc}
 857              	.LVL78:
 858              	.L74:
 859              	.LBB57:
 860              		.loc 3 224 0
 861 00ae 18BF     		it	ne
 862 00b0 6FF00404 		mvnne	r4, #4
 863              	.LVL79:
 864 00b4 F7E7     		b	.L61
 865              	.LBE57:
 866              		.cfi_endproc
 867              	.LFE144:
 868              		.size	_ZN17HttpTcpConnection9recvUntilEPcjc, .-_ZN17HttpTcpConnection9recvUntilEPcjc
 869 00b6 00BFAFF3 		.section	.text._ZN17HttpTcpConnection8readLineEPcj,"ax",%progbits
 869      0080AFF3 
 869      0080
 870              		.align	2
 871              		.p2align 4,,15
 872              		.global	_ZN17HttpTcpConnection8readLineEPcj
 873              		.thumb
 874              		.thumb_func
 875              		.type	_ZN17HttpTcpConnection8readLineEPcj, %function
 876              	_ZN17HttpTcpConnection8readLineEPcj:
 877              	.LFB142:
 878              		.loc 3 161 0
 879              		.cfi_startproc
 880              		@ args = 0, pretend = 0, frame = 0
 881              		@ frame_needed = 0, uses_anonymous_args = 0
 882              	.LVL80:
 883 0000 10B5     		push	{r4, lr}
 884              	.LCFI11:
 885              		.cfi_def_cfa_offset 8
 886              		.cfi_offset 4, -8
 887              		.cfi_offset 14, -4
 888              	.LBB58:
 889              		.loc 3 162 0
 890 0002 0A23     		movs	r3, #10
 891              	.LBE58:
 892              		.loc 3 161 0
 893 0004 0C46     		mov	r4, r1
 894              	.LBB59:
 895              		.loc 3 162 0
 896 0006 FFF7FEFF 		bl	_ZN17HttpTcpConnection9recvUntilEPcjc
 897              	.LVL81:
 898              		.loc 3 165 0
ARM GAS  C:\Users\Vergil\AppData\Local\Temp\ccSqEO0l.s 			page 17


 899 000a 0028     		cmp	r0, #0
 900 000c 03DD     		ble	.L76
 901              		.loc 3 167 0
 902 000e 0138     		subs	r0, r0, #1
 903              	.LVL82:
 904              		.loc 3 168 0
 905 0010 235C     		ldrb	r3, [r4, r0]	@ zero_extendqisi2
 906 0012 0D2B     		cmp	r3, #13
 907 0014 00D0     		beq	.L77
 908              	.L76:
 909              	.LBE59:
 910              		.loc 3 179 0
 911 0016 10BD     		pop	{r4, pc}
 912              	.L77:
 913              	.LBB60:
 914              		.loc 3 171 0
 915 0018 0021     		movs	r1, #0
 916 001a 2154     		strb	r1, [r4, r0]
 917              	.LBE60:
 918              		.loc 3 179 0
 919 001c 10BD     		pop	{r4, pc}
 920              		.cfi_endproc
 921              	.LFE142:
 922              		.size	_ZN17HttpTcpConnection8readLineEPcj, .-_ZN17HttpTcpConnection8readLineEPcj
 923 001e 00BF     		.section	.text._ZN17HttpTcpConnection11consumeLineEv,"ax",%progbits
 924              		.align	2
 925              		.p2align 4,,15
 926              		.global	_ZN17HttpTcpConnection11consumeLineEv
 927              		.thumb
 928              		.thumb_func
 929              		.type	_ZN17HttpTcpConnection11consumeLineEv, %function
 930              	_ZN17HttpTcpConnection11consumeLineEv:
 931              	.LFB145:
 932              		.loc 3 231 0
 933              		.cfi_startproc
 934              		@ args = 0, pretend = 0, frame = 8
 935              		@ frame_needed = 0, uses_anonymous_args = 0
 936              	.LVL83:
 937 0000 10B5     		push	{r4, lr}
 938              	.LCFI12:
 939              		.cfi_def_cfa_offset 8
 940              		.cfi_offset 4, -8
 941              		.cfi_offset 14, -4
 942 0002 0446     		mov	r4, r0
 943 0004 82B0     		sub	sp, sp, #8
 944              	.LCFI13:
 945              		.cfi_def_cfa_offset 16
 946 0006 03E0     		b	.L80
 947              	.LVL84:
 948              	.L82:
 949              	.LBB61:
 950              		.loc 3 235 0
 951 0008 9DF80730 		ldrb	r3, [sp, #7]	@ zero_extendqisi2
 952              	.LVL85:
 953 000c 0A2B     		cmp	r3, #10
 954              	.LVL86:
 955 000e 08D0     		beq	.L78
ARM GAS  C:\Users\Vergil\AppData\Local\Temp\ccSqEO0l.s 			page 18


 956              	.LVL87:
 957              	.L80:
 958              		.loc 3 236 0
 959 0010 0122     		movs	r2, #1
 960 0012 0023     		movs	r3, #0
 961              	.LVL88:
 962 0014 A068     		ldr	r0, [r4, #8]
 963 0016 0DF10701 		add	r1, sp, #7
 964 001a FFF7FEFF 		bl	recv
 965              	.LVL89:
 966 001e 0028     		cmp	r0, #0
 967 0020 F2DC     		bgt	.L82
 968              	.LVL90:
 969              	.L78:
 970              	.LBE61:
 971              		.loc 3 238 0
 972 0022 02B0     		add	sp, sp, #8
 973 0024 10BD     		pop	{r4, pc}
 974              		.cfi_endproc
 975              	.LFE145:
 976              		.size	_ZN17HttpTcpConnection11consumeLineEv, .-_ZN17HttpTcpConnection11consumeLineEv
 977 0026 00BFAFF3 		.section	.text._ZN17HttpTcpConnection11chunkedRecvEPcj,"ax",%progbits
 977      0080AFF3 
 977      0080
 978              		.align	2
 979              		.p2align 4,,15
 980              		.global	_ZN17HttpTcpConnection11chunkedRecvEPcj
 981              		.thumb
 982              		.thumb_func
 983              		.type	_ZN17HttpTcpConnection11chunkedRecvEPcj, %function
 984              	_ZN17HttpTcpConnection11chunkedRecvEPcj:
 985              	.LFB140:
 986              		.loc 3 94 0
 987              		.cfi_startproc
 988              		@ args = 0, pretend = 0, frame = 0
 989              		@ frame_needed = 0, uses_anonymous_args = 0
 990              	.LVL91:
 991 0000 2DE9F843 		push	{r3, r4, r5, r6, r7, r8, r9, lr}
 992              	.LCFI14:
 993              		.cfi_def_cfa_offset 32
 994              		.cfi_offset 3, -32
 995              		.cfi_offset 4, -28
 996              		.cfi_offset 5, -24
 997              		.cfi_offset 6, -20
 998              		.cfi_offset 7, -16
 999              		.cfi_offset 8, -12
 1000              		.cfi_offset 9, -8
 1001              		.cfi_offset 14, -4
 1002              		.loc 3 94 0
 1003 0004 0746     		mov	r7, r0
 1004 0006 8946     		mov	r9, r1
 1005 0008 9046     		mov	r8, r2
 1006              		.loc 3 101 0
 1007 000a 0026     		movs	r6, #0
 1008              	.LVL92:
 1009              	.L86:
 1010              	.LBB62:
ARM GAS  C:\Users\Vergil\AppData\Local\Temp\ccSqEO0l.s 			page 19


 1011              		.loc 3 106 0
 1012 000c 3846     		mov	r0, r7
 1013 000e FFF7FEFF 		bl	_ZN17HttpTcpConnection15readChunkHeaderEv
 1014              	.LVL93:
 1015              		.loc 3 107 0
 1016 0012 051E     		subs	r5, r0, #0
 1017              		.loc 3 119 0
 1018 0014 06EB0504 		add	r4, r6, r5
 1019              		.loc 3 122 0
 1020 0018 09EB0601 		add	r1, r9, r6
 1021 001c 3846     		mov	r0, r7
 1022              	.LVL94:
 1023 001e 2A46     		mov	r2, r5
 1024              		.loc 3 107 0
 1025 0020 11DB     		blt	.L87
 1026              	.LVL95:
 1027              		.loc 3 110 0
 1028 0022 0AD0     		beq	.L90
 1029              		.loc 3 119 0
 1030 0024 4445     		cmp	r4, r8
 1031 0026 10D8     		bhi	.L88
 1032              		.loc 3 122 0
 1033 0028 FFF7FEFF 		bl	_ZN17HttpTcpConnection7rawRecvEPcj
 1034              	.LVL96:
 1035              		.loc 3 123 0
 1036 002c 40B9     		cbnz	r0, .L84
 1037              		.loc 3 104 0
 1038 002e 4445     		cmp	r4, r8
 1039 0030 01D2     		bcs	.L91
 1040              		.loc 3 126 0
 1041 0032 2646     		mov	r6, r4
 1042 0034 EAE7     		b	.L86
 1043              	.L91:
 1044              	.LVL97:
 1045 0036 BDE8F883 		pop	{r3, r4, r5, r6, r7, r8, r9, pc}
 1046              	.LVL98:
 1047              	.L90:
 1048              		.loc 3 113 0
 1049 003a FFF7FEFF 		bl	_ZN17HttpTcpConnection11consumeLineEv
 1050              	.LVL99:
 1051 003e 2846     		mov	r0, r5
 1052              	.LVL100:
 1053              	.L84:
 1054 0040 40B2     		sxtb	r0, r0
 1055              	.LBE62:
 1056              		.loc 3 130 0
 1057 0042 BDE8F883 		pop	{r3, r4, r5, r6, r7, r8, r9, pc}
 1058              	.LVL101:
 1059              	.L87:
 1060              	.LBB63:
 1061              		.loc 3 108 0
 1062 0046 FB20     		movs	r0, #251
 1063              	.LVL102:
 1064 0048 FAE7     		b	.L84
 1065              	.LVL103:
 1066              	.L88:
 1067              		.loc 3 120 0
ARM GAS  C:\Users\Vergil\AppData\Local\Temp\ccSqEO0l.s 			page 20


 1068 004a FA20     		movs	r0, #250
 1069              	.LVL104:
 1070 004c F8E7     		b	.L84
 1071              	.LBE63:
 1072              		.cfi_endproc
 1073              	.LFE140:
 1074              		.size	_ZN17HttpTcpConnection11chunkedRecvEPcj, .-_ZN17HttpTcpConnection11chunkedRecvEPcj
 1075 004e 00BF     		.section	.text._ZN17HttpTcpConnection4recvEPcjb,"ax",%progbits
 1076              		.align	2
 1077              		.p2align 4,,15
 1078              		.global	_ZN17HttpTcpConnection4recvEPcjb
 1079              		.thumb
 1080              		.thumb_func
 1081              		.type	_ZN17HttpTcpConnection4recvEPcjb, %function
 1082              	_ZN17HttpTcpConnection4recvEPcjb:
 1083              	.LFB139:
 1084              		.loc 3 82 0
 1085              		.cfi_startproc
 1086              		@ args = 0, pretend = 0, frame = 0
 1087              		@ frame_needed = 0, uses_anonymous_args = 0
 1088              		@ link register save eliminated.
 1089              	.LVL105:
 1090              		.loc 3 85 0
 1091 0000 0BB9     		cbnz	r3, .L94
 1092              		.loc 3 91 0
 1093              		.loc 3 88 0
 1094 0002 FFF7FEBF 		b	_ZN17HttpTcpConnection7rawRecvEPcj
 1095              	.LVL106:
 1096              	.L94:
 1097              		.loc 3 91 0
 1098              		.loc 3 86 0
 1099 0006 FFF7FEBF 		b	_ZN17HttpTcpConnection11chunkedRecvEPcj
 1100              	.LVL107:
 1101              		.cfi_endproc
 1102              	.LFE139:
 1103              		.size	_ZN17HttpTcpConnection4recvEPcjb, .-_ZN17HttpTcpConnection4recvEPcjb
 1104              		.global	_ZTV17HttpTcpConnection
 1105              		.weak	_ZTV14HttpConnection
 1106 000a 00BFAFF3 		.section	.rodata._ZTV14HttpConnection,"aG",%progbits,_ZTV14HttpConnection,comdat
 1106      0080
 1107              		.align	3
 1108              		.type	_ZTV14HttpConnection, %object
 1109              		.size	_ZTV14HttpConnection, 40
 1110              	_ZTV14HttpConnection:
 1111 0000 00000000 		.word	0
 1112 0004 00000000 		.word	0
 1113 0008 00000000 		.word	_ZN14HttpConnectionD1Ev
 1114 000c 00000000 		.word	_ZN14HttpConnectionD0Ev
 1115 0010 00000000 		.word	__cxa_pure_virtual
 1116 0014 00000000 		.word	__cxa_pure_virtual
 1117 0018 00000000 		.word	__cxa_pure_virtual
 1118 001c 00000000 		.word	__cxa_pure_virtual
 1119 0020 00000000 		.word	__cxa_pure_virtual
 1120 0024 00000000 		.word	__cxa_pure_virtual
 1121              		.section	.rodata.str1.4,"aMS",%progbits,1
 1122              		.align	2
 1123              	.LC0:
ARM GAS  C:\Users\Vergil\AppData\Local\Temp\ccSqEO0l.s 			page 21


 1124 0000 44454255 		.ascii	"DEBUG %s:%d: Error connecting to socket\012\012\000"
 1124      47202573 
 1124      3A25643A 
 1124      20457272 
 1124      6F722063 
 1125 002a 0000     		.space	2
 1126              	.LC1:
 1127 002c 433A2F43 		.ascii	"C:/ChibiStudio/chibios/demos/ARMCM4-STM32F401RE-NUC"
 1127      68696269 
 1127      53747564 
 1127      696F2F63 
 1127      68696269 
 1128 005f 4C454F2D 		.ascii	"LEO-CC3K/openweathermap/httptcpconnection.cpp\000"
 1128      4343334B 
 1128      2F6F7065 
 1128      6E776561 
 1128      74686572 
 1129 008d 000000   		.space	3
 1130              	.LC2:
 1131 0090 4661696C 		.ascii	"Failed resolving address [%s] ...\015\012\000"
 1131      65642072 
 1131      65736F6C 
 1131      76696E67 
 1131      20616464 
 1132              	.LC3:
 1133 00b4 44454255 		.ascii	"DEBUG %s:%d: Error connecting to host address\012\012"
 1133      47202573 
 1133      3A25643A 
 1133      20457272 
 1133      6F722063 
 1134 00e3 00       		.ascii	"\000"
 1135              		.section	.rodata._ZTV17HttpTcpConnection,"a",%progbits
 1136              		.align	3
 1137              		.set	.LANCHOR0,. + 0
 1138              		.type	_ZTV17HttpTcpConnection, %object
 1139              		.size	_ZTV17HttpTcpConnection, 40
 1140              	_ZTV17HttpTcpConnection:
 1141 0000 00000000 		.word	0
 1142 0004 00000000 		.word	0
 1143 0008 00000000 		.word	_ZN17HttpTcpConnectionD1Ev
 1144 000c 00000000 		.word	_ZN17HttpTcpConnectionD0Ev
 1145 0010 00000000 		.word	_ZN17HttpTcpConnection4openER20HttpConnectionParams
 1146 0014 00000000 		.word	_ZN17HttpTcpConnection4sendEPKcj
 1147 0018 00000000 		.word	_ZN17HttpTcpConnection4recvEPcjb
 1148 001c 00000000 		.word	_ZN17HttpTcpConnection8readLineEPcj
 1149 0020 00000000 		.word	_ZN17HttpTcpConnection5closeEv
 1150 0024 00000000 		.word	_ZN17HttpTcpConnection10getConTypeEv
 1151              		.text
 1152              	.Letext0:
 1153              		.file 4 "C:/ChibiStudio/chibios/demos/ARMCM4-STM32F401RE-NUCLEO-CC3K/openweathermap/httptypes.h"
 1154              		.file 5 "c:\\chibistudio\\tools\\gnu tools arm embedded\\4.7 2014q2\\bin\\../lib/gcc/arm-none-eabi
 1155              		.file 6 "c:\\chibistudio\\tools\\gnu tools arm embedded\\4.7 2014q2\\bin\\../lib/gcc/arm-none-eabi
 1156              		.file 7 "c:\\chibistudio\\tools\\gnu tools arm embedded\\4.7 2014q2\\bin\\../lib/gcc/arm-none-eabi
 1157              		.file 8 "c:\\chibistudio\\tools\\gnu tools arm embedded\\4.7 2014q2\\bin\\../lib/gcc/arm-none-eabi
 1158              		.file 9 "c:\\chibistudio\\tools\\gnu tools arm embedded\\4.7 2014q2\\bin\\../lib/gcc/arm-none-eabi
 1159              		.file 10 "../../os/ports/GCC/ARMCMx/chtypes.h"
 1160              		.file 11 "C:\\Users\\Vergil\\ChibiOS_CC3000_SPI/CC3000HostDriver/data_types.h"
ARM GAS  C:\Users\Vergil\AppData\Local\Temp\ccSqEO0l.s 			page 22


 1161              		.file 12 "C:\\Users\\Vergil\\ChibiOS_CC3000_SPI/CC3000HostDriver/socket.h"
 1162              		.file 13 "c:\\chibistudio\\tools\\gnu tools arm embedded\\4.7 2014q2\\bin\\../lib/gcc/arm-none-eab
 1163              		.file 14 "../../os/ports/common/ARMCMx/CMSIS/include/core_cm4.h"
 1164              		.file 15 "c:\\chibistudio\\tools\\gnu tools arm embedded\\4.7 2014q2\\bin\\../lib/gcc/arm-none-eab
 1165              		.file 16 "./utility.h"
 1166              		.file 17 "../../os/kernel/include/chthreads.h"
 1167              		.file 18 "c:\\chibistudio\\tools\\gnu tools arm embedded\\4.7 2014q2\\bin\\../lib/gcc/arm-none-eab