ARM GAS  C:\Users\Vergil\AppData\Local\Temp\ccsfdjWl.s 			page 1


   1              		.syntax unified
   2              		.cpu cortex-m4
   3              		.eabi_attribute 27, 3
   4              		.eabi_attribute 28, 1
   5              		.fpu fpv4-sp-d16
   6              		.eabi_attribute 20, 1
   7              		.eabi_attribute 21, 1
   8              		.eabi_attribute 23, 3
   9              		.eabi_attribute 24, 1
  10              		.eabi_attribute 25, 1
  11              		.eabi_attribute 26, 1
  12              		.eabi_attribute 30, 2
  13              		.eabi_attribute 34, 1
  14              		.eabi_attribute 18, 4
  15              		.thumb
  16              		.file	"httpjsondata.cpp"
  17              		.text
  18              	.Ltext0:
  19              		.cfi_sections	.debug_frame
  20              		.section	.text._ZN8HttpData10sendHeaderEP14HttpConnection,"axG",%progbits,_ZN8HttpData10sendHeader
  21              		.align	2
  22              		.p2align 4,,15
  23              		.weak	_ZN8HttpData10sendHeaderEP14HttpConnection
  24              		.thumb
  25              		.thumb_func
  26              		.type	_ZN8HttpData10sendHeaderEP14HttpConnection, %function
  27              	_ZN8HttpData10sendHeaderEP14HttpConnection:
  28              	.LFB129:
  29              		.file 1 "C:/ChibiStudio/chibios/demos/ARMCM4-STM32F401RE-NUCLEO-CC3K/openweathermap/httpdata.h"
  30              		.loc 1 25 0
  31              		.cfi_startproc
  32              		@ args = 0, pretend = 0, frame = 0
  33              		@ frame_needed = 0, uses_anonymous_args = 0
  34              		@ link register save eliminated.
  35              	.LVL0:
  36              		.loc 1 25 0
  37 0000 0020     		movs	r0, #0
  38              	.LVL1:
  39 0002 7047     		bx	lr
  40              		.cfi_endproc
  41              	.LFE129:
  42              		.size	_ZN8HttpData10sendHeaderEP14HttpConnection, .-_ZN8HttpData10sendHeaderEP14HttpConnection
  43 0004 AFF30080 		.section	.text._ZN8HttpData10handleDataEP14HttpConnection,"axG",%progbits,_ZN8HttpData10handleData
  43      AFF30080 
  43      AFF30080 
  44              		.align	2
  45              		.p2align 4,,15
  46              		.weak	_ZN8HttpData10handleDataEP14HttpConnection
  47              		.thumb
  48              		.thumb_func
  49              		.type	_ZN8HttpData10handleDataEP14HttpConnection, %function
  50              	_ZN8HttpData10handleDataEP14HttpConnection:
  51              	.LFB130:
  52              		.loc 1 27 0
  53              		.cfi_startproc
  54              		@ args = 0, pretend = 0, frame = 0
  55              		@ frame_needed = 0, uses_anonymous_args = 0
ARM GAS  C:\Users\Vergil\AppData\Local\Temp\ccsfdjWl.s 			page 2


  56              		@ link register save eliminated.
  57              	.LVL2:
  58              		.loc 1 27 0
  59 0000 0020     		movs	r0, #0
  60              	.LVL3:
  61 0002 7047     		bx	lr
  62              		.cfi_endproc
  63              	.LFE130:
  64              		.size	_ZN8HttpData10handleDataEP14HttpConnection, .-_ZN8HttpData10handleDataEP14HttpConnection
  65 0004 AFF30080 		.section	.text._ZN12HttpJsonData10sendHeaderEP14HttpConnection,"ax",%progbits
  65      AFF30080 
  65      AFF30080 
  66              		.align	2
  67              		.p2align 4,,15
  68              		.global	_ZN12HttpJsonData10sendHeaderEP14HttpConnection
  69              		.thumb
  70              		.thumb_func
  71              		.type	_ZN12HttpJsonData10sendHeaderEP14HttpConnection, %function
  72              	_ZN12HttpJsonData10sendHeaderEP14HttpConnection:
  73              	.LFB140:
  74              		.file 2 "C:/ChibiStudio/chibios/demos/ARMCM4-STM32F401RE-NUCLEO-CC3K/openweathermap/httpjsondata.c
  75              		.loc 2 12 0
  76              		.cfi_startproc
  77              		@ args = 0, pretend = 0, frame = 0
  78              		@ frame_needed = 0, uses_anonymous_args = 0
  79              		@ link register save eliminated.
  80              	.LVL4:
  81              		.loc 2 14 0
  82 0000 0020     		movs	r0, #0
  83              	.LVL5:
  84 0002 7047     		bx	lr
  85              		.cfi_endproc
  86              	.LFE140:
  87              		.size	_ZN12HttpJsonData10sendHeaderEP14HttpConnection, .-_ZN12HttpJsonData10sendHeaderEP14HttpConn
  88 0004 AFF30080 		.section	.text._ZN12HttpJsonData10handleDataEP14HttpConnection,"ax",%progbits
  88      AFF30080 
  88      AFF30080 
  89              		.align	2
  90              		.p2align 4,,15
  91              		.global	_ZN12HttpJsonData10handleDataEP14HttpConnection
  92              		.thumb
  93              		.thumb_func
  94              		.type	_ZN12HttpJsonData10handleDataEP14HttpConnection, %function
  95              	_ZN12HttpJsonData10handleDataEP14HttpConnection:
  96              	.LFB141:
  97              		.loc 2 17 0
  98              		.cfi_startproc
  99              		@ args = 0, pretend = 0, frame = 0
 100              		@ frame_needed = 0, uses_anonymous_args = 0
 101              		@ link register save eliminated.
 102              	.LVL6:
 103              		.loc 2 19 0
 104 0000 0020     		movs	r0, #0
 105              	.LVL7:
 106 0002 7047     		bx	lr
 107              		.cfi_endproc
 108              	.LFE141:
ARM GAS  C:\Users\Vergil\AppData\Local\Temp\ccsfdjWl.s 			page 3


 109              		.size	_ZN12HttpJsonData10handleDataEP14HttpConnection, .-_ZN12HttpJsonData10handleDataEP14HttpConn
 110 0004 AFF30080 		.section	.text._ZN12HttpJsonDataC2Ev,"ax",%progbits
 110      AFF30080 
 110      AFF30080 
 111              		.align	2
 112              		.p2align 4,,15
 113              		.global	_ZN12HttpJsonDataC2Ev
 114              		.thumb
 115              		.thumb_func
 116              		.type	_ZN12HttpJsonDataC2Ev, %function
 117              	_ZN12HttpJsonDataC2Ev:
 118              	.LFB135:
 119              		.loc 2 3 0
 120              		.cfi_startproc
 121              		@ args = 0, pretend = 0, frame = 0
 122              		@ frame_needed = 0, uses_anonymous_args = 0
 123              		@ link register save eliminated.
 124              	.LVL8:
 125              	.LBB9:
 126              		.loc 2 3 0
 127 0000 014B     		ldr	r3, .L6
 128 0002 0360     		str	r3, [r0, #0]
 129              	.LBE9:
 130              		.loc 2 5 0
 131 0004 7047     		bx	lr
 132              	.L7:
 133 0006 00BF     		.align	2
 134              	.L6:
 135 0008 08000000 		.word	.LANCHOR0+8
 136              		.cfi_endproc
 137              	.LFE135:
 138              		.size	_ZN12HttpJsonDataC2Ev, .-_ZN12HttpJsonDataC2Ev
 139              		.global	_ZN12HttpJsonDataC1Ev
 140              		.thumb_set _ZN12HttpJsonDataC1Ev,_ZN12HttpJsonDataC2Ev
 141 000c AFF30080 		.section	.text._ZN12HttpJsonDataD2Ev,"ax",%progbits
 142              		.align	2
 143              		.p2align 4,,15
 144              		.global	_ZN12HttpJsonDataD2Ev
 145              		.thumb
 146              		.thumb_func
 147              		.type	_ZN12HttpJsonDataD2Ev, %function
 148              	_ZN12HttpJsonDataD2Ev:
 149              	.LFB138:
 150              		.loc 2 7 0
 151              		.cfi_startproc
 152              		@ args = 0, pretend = 0, frame = 0
 153              		@ frame_needed = 0, uses_anonymous_args = 0
 154              		@ link register save eliminated.
 155              	.LVL9:
 156              	.LBB10:
 157              		.loc 2 7 0
 158 0000 014B     		ldr	r3, .L9
 159 0002 0360     		str	r3, [r0, #0]
 160              	.LBE10:
 161              		.loc 2 9 0
 162 0004 7047     		bx	lr
 163              	.L10:
ARM GAS  C:\Users\Vergil\AppData\Local\Temp\ccsfdjWl.s 			page 4


 164 0006 00BF     		.align	2
 165              	.L9:
 166 0008 08000000 		.word	.LANCHOR0+8
 167              		.cfi_endproc
 168              	.LFE138:
 169              		.size	_ZN12HttpJsonDataD2Ev, .-_ZN12HttpJsonDataD2Ev
 170              		.global	_ZN12HttpJsonDataD1Ev
 171              		.thumb_set _ZN12HttpJsonDataD1Ev,_ZN12HttpJsonDataD2Ev
 172              		.global	_ZTV12HttpJsonData
 173              		.weak	_ZTV8HttpData
 174 000c AFF30080 		.section	.rodata._ZTV8HttpData,"aG",%progbits,_ZTV8HttpData,comdat
 175              		.align	3
 176              		.type	_ZTV8HttpData, %object
 177              		.size	_ZTV8HttpData, 16
 178              	_ZTV8HttpData:
 179 0000 00000000 		.word	0
 180 0004 00000000 		.word	0
 181 0008 00000000 		.word	_ZN8HttpData10sendHeaderEP14HttpConnection
 182 000c 00000000 		.word	_ZN8HttpData10handleDataEP14HttpConnection
 183              		.section	.rodata._ZTV12HttpJsonData,"a",%progbits
 184              		.align	3
 185              		.set	.LANCHOR0,. + 0
 186              		.type	_ZTV12HttpJsonData, %object
 187              		.size	_ZTV12HttpJsonData, 16
 188              	_ZTV12HttpJsonData:
 189 0000 00000000 		.word	0
 190 0004 00000000 		.word	0
 191 0008 00000000 		.word	_ZN12HttpJsonData10sendHeaderEP14HttpConnection
 192 000c 00000000 		.word	_ZN12HttpJsonData10handleDataEP14HttpConnection
 193              		.text
 194              	.Letext0:
 195              		.file 3 "C:/ChibiStudio/chibios/demos/ARMCM4-STM32F401RE-NUCLEO-CC3K/openweathermap/httptypes.h"
 196              		.file 4 "c:\\chibistudio\\tools\\gnu tools arm embedded\\4.7 2014q2\\bin\\../lib/gcc/arm-none-eabi
 197              		.file 5 "c:\\chibistudio\\tools\\gnu tools arm embedded\\4.7 2014q2\\bin\\../lib/gcc/arm-none-eabi
 198              		.file 6 "../../os/ports/GCC/ARMCMx/chtypes.h"
 199              		.file 7 "C:/ChibiStudio/chibios/demos/ARMCM4-STM32F401RE-NUCLEO-CC3K/openweathermap/httpconnection
 200              		.file 8 "C:/ChibiStudio/chibios/demos/ARMCM4-STM32F401RE-NUCLEO-CC3K/openweathermap/httpjsondata.h
 201              		.file 9 "../../os/ports/common/ARMCMx/CMSIS/include/core_cm4.h"
 202              		.section	.debug_info,"",%progbits
 203              	.Ldebug_info0:
 204 0000 00070000 		.4byte	0x700
 205 0004 0200     		.2byte	0x2
 206 0006 00000000 		.4byte	.Ldebug_abbrev0
 207 000a 04       		.byte	0x4
 208 000b 01       		.uleb128 0x1
 209 000c 6F040000 		.4byte	.LASF68
 210 0010 04       		.byte	0x4
 211 0011 9F010000 		.4byte	.LASF69
 212 0015 76020000 		.4byte	.LASF70
 213 0019 00000000 		.4byte	.Ldebug_ranges0+0
 214 001d 00000000 		.4byte	0
 215 0021 00000000 		.4byte	0
 216 0025 00000000 		.4byte	.Ldebug_line0
 217 0029 02       		.uleb128 0x2
 218 002a 40050000 		.4byte	.LASF8
 219 002e 01       		.byte	0x1
 220 002f 03       		.byte	0x3
ARM GAS  C:\Users\Vergil\AppData\Local\Temp\ccsfdjWl.s 			page 5


 221 0030 0D       		.byte	0xd
 222 0031 66000000 		.4byte	0x66
 223 0035 03       		.uleb128 0x3
 224 0036 5A040000 		.4byte	.LASF0
 225 003a 79       		.sleb128 -7
 226 003b 03       		.uleb128 0x3
 227 003c 0F040000 		.4byte	.LASF1
 228 0040 7A       		.sleb128 -6
 229 0041 03       		.uleb128 0x3
 230 0042 FF030000 		.4byte	.LASF2
 231 0046 7B       		.sleb128 -5
 232 0047 03       		.uleb128 0x3
 233 0048 94000000 		.4byte	.LASF3
 234 004c 7C       		.sleb128 -4
 235 004d 03       		.uleb128 0x3
 236 004e EF040000 		.4byte	.LASF4
 237 0052 7D       		.sleb128 -3
 238 0053 03       		.uleb128 0x3
 239 0054 24040000 		.4byte	.LASF5
 240 0058 7E       		.sleb128 -2
 241 0059 03       		.uleb128 0x3
 242 005a 0A050000 		.4byte	.LASF6
 243 005e 7F       		.sleb128 -1
 244 005f 03       		.uleb128 0x3
 245 0060 1E030000 		.4byte	.LASF7
 246 0064 00       		.sleb128 0
 247 0065 00       		.byte	0
 248 0066 02       		.uleb128 0x2
 249 0067 D4030000 		.4byte	.LASF9
 250 006b 01       		.byte	0x1
 251 006c 03       		.byte	0x3
 252 006d 18       		.byte	0x18
 253 006e 8B000000 		.4byte	0x8b
 254 0072 03       		.uleb128 0x3
 255 0073 FF020000 		.4byte	.LASF10
 256 0077 00       		.sleb128 0
 257 0078 03       		.uleb128 0x3
 258 0079 3C040000 		.4byte	.LASF11
 259 007d 01       		.sleb128 1
 260 007e 03       		.uleb128 0x3
 261 007f B5030000 		.4byte	.LASF12
 262 0083 02       		.sleb128 2
 263 0084 03       		.uleb128 0x3
 264 0085 95010000 		.4byte	.LASF13
 265 0089 03       		.sleb128 3
 266 008a 00       		.byte	0
 267 008b 04       		.uleb128 0x4
 268 008c 01       		.byte	0x1
 269 008d 06       		.byte	0x6
 270 008e 0D010000 		.4byte	.LASF14
 271 0092 04       		.uleb128 0x4
 272 0093 01       		.byte	0x1
 273 0094 08       		.byte	0x8
 274 0095 0F020000 		.4byte	.LASF15
 275 0099 04       		.uleb128 0x4
 276 009a 02       		.byte	0x2
 277 009b 05       		.byte	0x5
ARM GAS  C:\Users\Vergil\AppData\Local\Temp\ccsfdjWl.s 			page 6


 278 009c 7A000000 		.4byte	.LASF16
 279 00a0 04       		.uleb128 0x4
 280 00a1 02       		.byte	0x2
 281 00a2 07       		.byte	0x7
 282 00a3 A2030000 		.4byte	.LASF17
 283 00a7 05       		.uleb128 0x5
 284 00a8 04       		.byte	0x4
 285 00a9 05       		.byte	0x5
 286 00aa 696E7400 		.ascii	"int\000"
 287 00ae 04       		.uleb128 0x4
 288 00af 04       		.byte	0x4
 289 00b0 07       		.byte	0x7
 290 00b1 D3020000 		.4byte	.LASF18
 291 00b5 04       		.uleb128 0x4
 292 00b6 08       		.byte	0x8
 293 00b7 05       		.byte	0x5
 294 00b8 19010000 		.4byte	.LASF19
 295 00bc 04       		.uleb128 0x4
 296 00bd 08       		.byte	0x8
 297 00be 07       		.byte	0x7
 298 00bf 27010000 		.4byte	.LASF20
 299 00c3 04       		.uleb128 0x4
 300 00c4 04       		.byte	0x4
 301 00c5 05       		.byte	0x5
 302 00c6 50010000 		.4byte	.LASF21
 303 00ca 04       		.uleb128 0x4
 304 00cb 04       		.byte	0x4
 305 00cc 07       		.byte	0x7
 306 00cd 8B000000 		.4byte	.LASF22
 307 00d1 06       		.uleb128 0x6
 308 00d2 04       		.byte	0x4
 309 00d3 04       		.uleb128 0x4
 310 00d4 04       		.byte	0x4
 311 00d5 07       		.byte	0x7
 312 00d6 ED020000 		.4byte	.LASF23
 313 00da 07       		.uleb128 0x7
 314 00db 04       		.byte	0x4
 315 00dc E0000000 		.4byte	0xe0
 316 00e0 04       		.uleb128 0x4
 317 00e1 01       		.byte	0x1
 318 00e2 08       		.byte	0x8
 319 00e3 78030000 		.4byte	.LASF24
 320 00e7 07       		.uleb128 0x7
 321 00e8 04       		.byte	0x4
 322 00e9 ED000000 		.4byte	0xed
 323 00ed 08       		.uleb128 0x8
 324 00ee E0000000 		.4byte	0xe0
 325 00f2 09       		.uleb128 0x9
 326 00f3 84000000 		.4byte	.LASF25
 327 00f7 04       		.byte	0x4
 328 00f8 D5       		.byte	0xd5
 329 00f9 AE000000 		.4byte	0xae
 330 00fd 09       		.uleb128 0x9
 331 00fe 93030000 		.4byte	.LASF26
 332 0102 05       		.byte	0x5
 333 0103 4F       		.byte	0x4f
 334 0104 C3000000 		.4byte	0xc3
ARM GAS  C:\Users\Vergil\AppData\Local\Temp\ccsfdjWl.s 			page 7


 335 0108 09       		.uleb128 0x9
 336 0109 9B030000 		.4byte	.LASF27
 337 010d 06       		.byte	0x6
 338 010e 2B       		.byte	0x2b
 339 010f 13010000 		.4byte	0x113
 340 0113 04       		.uleb128 0x4
 341 0114 01       		.byte	0x1
 342 0115 02       		.byte	0x2
 343 0116 08010000 		.4byte	.LASF28
 344 011a 0A       		.uleb128 0xa
 345 011b FD000000 		.4byte	0xfd
 346 011f 0B       		.uleb128 0xb
 347 0120 2B050000 		.4byte	.LASF71
 348 0124 3001     		.2byte	0x130
 349 0126 07       		.byte	0x7
 350 0127 0F       		.byte	0xf
 351 0128 66010000 		.4byte	0x166
 352 012c 0C       		.uleb128 0xc
 353 012d 68000000 		.4byte	.LASF29
 354 0131 07       		.byte	0x7
 355 0132 11       		.byte	0x11
 356 0133 08010000 		.4byte	0x108
 357 0137 02       		.byte	0x2
 358 0138 23       		.byte	0x23
 359 0139 00       		.uleb128 0
 360 013a 0C       		.uleb128 0xc
 361 013b 84050000 		.4byte	.LASF30
 362 013f 07       		.byte	0x7
 363 0140 12       		.byte	0x12
 364 0141 66010000 		.4byte	0x166
 365 0145 02       		.byte	0x2
 366 0146 23       		.byte	0x23
 367 0147 01       		.uleb128 0x1
 368 0148 0C       		.uleb128 0xc
 369 0149 EA040000 		.4byte	.LASF31
 370 014d 07       		.byte	0x7
 371 014e 13       		.byte	0x13
 372 014f 76010000 		.4byte	0x176
 373 0153 02       		.byte	0x2
 374 0154 23       		.byte	0x23
 375 0155 65       		.uleb128 0x65
 376 0156 0C       		.uleb128 0xc
 377 0157 45040000 		.4byte	.LASF32
 378 015b 07       		.byte	0x7
 379 015c 14       		.byte	0x14
 380 015d A0000000 		.4byte	0xa0
 381 0161 03       		.byte	0x3
 382 0162 23       		.byte	0x23
 383 0163 AE02     		.uleb128 0x12e
 384 0165 00       		.byte	0
 385 0166 0D       		.uleb128 0xd
 386 0167 E0000000 		.4byte	0xe0
 387 016b 76010000 		.4byte	0x176
 388 016f 0E       		.uleb128 0xe
 389 0170 CA000000 		.4byte	0xca
 390 0174 63       		.byte	0x63
 391 0175 00       		.byte	0
ARM GAS  C:\Users\Vergil\AppData\Local\Temp\ccsfdjWl.s 			page 8


 392 0176 0D       		.uleb128 0xd
 393 0177 E0000000 		.4byte	0xe0
 394 017b 86010000 		.4byte	0x186
 395 017f 0E       		.uleb128 0xe
 396 0180 CA000000 		.4byte	0xca
 397 0184 C7       		.byte	0xc7
 398 0185 00       		.byte	0
 399 0186 0F       		.uleb128 0xf
 400 0187 E0020000 		.4byte	.LASF33
 401 018b 04       		.byte	0x4
 402 018c 08       		.byte	0x8
 403 018d 0D       		.byte	0xd
 404 018e 54020000 		.4byte	0x254
 405 0192 54020000 		.4byte	0x254
 406 0196 10       		.uleb128 0x10
 407 0197 54020000 		.4byte	0x254
 408 019b 02       		.byte	0x2
 409 019c 23       		.byte	0x23
 410 019d 00       		.uleb128 0
 411 019e 01       		.byte	0x1
 412 019f 11       		.uleb128 0x11
 413 01a0 01       		.byte	0x1
 414 01a1 E0020000 		.4byte	.LASF33
 415 01a5 03030000 		.4byte	0x303
 416 01a9 01       		.byte	0x1
 417 01aa 01       		.byte	0x1
 418 01ab B3010000 		.4byte	0x1b3
 419 01af BF010000 		.4byte	0x1bf
 420 01b3 12       		.uleb128 0x12
 421 01b4 03030000 		.4byte	0x303
 422 01b8 01       		.byte	0x1
 423 01b9 13       		.uleb128 0x13
 424 01ba 09030000 		.4byte	0x309
 425 01be 00       		.byte	0
 426 01bf 14       		.uleb128 0x14
 427 01c0 01       		.byte	0x1
 428 01c1 E0020000 		.4byte	.LASF33
 429 01c5 02       		.byte	0x2
 430 01c6 03       		.byte	0x3
 431 01c7 03030000 		.4byte	0x303
 432 01cb 01       		.byte	0x1
 433 01cc D4010000 		.4byte	0x1d4
 434 01d0 DB010000 		.4byte	0x1db
 435 01d4 12       		.uleb128 0x12
 436 01d5 03030000 		.4byte	0x303
 437 01d9 01       		.byte	0x1
 438 01da 00       		.byte	0
 439 01db 14       		.uleb128 0x14
 440 01dc 01       		.byte	0x1
 441 01dd 59020000 		.4byte	.LASF34
 442 01e1 02       		.byte	0x2
 443 01e2 07       		.byte	0x7
 444 01e3 D1000000 		.4byte	0xd1
 445 01e7 01       		.byte	0x1
 446 01e8 F0010000 		.4byte	0x1f0
 447 01ec FD010000 		.4byte	0x1fd
 448 01f0 12       		.uleb128 0x12
ARM GAS  C:\Users\Vergil\AppData\Local\Temp\ccsfdjWl.s 			page 9


 449 01f1 03030000 		.4byte	0x303
 450 01f5 01       		.byte	0x1
 451 01f6 12       		.uleb128 0x12
 452 01f7 A7000000 		.4byte	0xa7
 453 01fb 01       		.byte	0x1
 454 01fc 00       		.byte	0
 455 01fd 15       		.uleb128 0x15
 456 01fe 01       		.byte	0x1
 457 01ff 4E020000 		.4byte	.LASF36
 458 0203 02       		.byte	0x2
 459 0204 0B       		.byte	0xb
 460 0205 BA040000 		.4byte	.LASF37
 461 0209 29000000 		.4byte	0x29
 462 020d 01       		.byte	0x1
 463 020e 02       		.byte	0x2
 464 020f 10       		.byte	0x10
 465 0210 00       		.uleb128 0
 466 0211 86010000 		.4byte	0x186
 467 0215 01       		.byte	0x1
 468 0216 1E020000 		.4byte	0x21e
 469 021a 2A020000 		.4byte	0x22a
 470 021e 12       		.uleb128 0x12
 471 021f 03030000 		.4byte	0x303
 472 0223 01       		.byte	0x1
 473 0224 13       		.uleb128 0x13
 474 0225 14030000 		.4byte	0x314
 475 0229 00       		.byte	0
 476 022a 16       		.uleb128 0x16
 477 022b 01       		.byte	0x1
 478 022c 04020000 		.4byte	.LASF39
 479 0230 02       		.byte	0x2
 480 0231 10       		.byte	0x10
 481 0232 26030000 		.4byte	.LASF40
 482 0236 29000000 		.4byte	0x29
 483 023a 01       		.byte	0x1
 484 023b 02       		.byte	0x2
 485 023c 10       		.byte	0x10
 486 023d 01       		.uleb128 0x1
 487 023e 86010000 		.4byte	0x186
 488 0242 01       		.byte	0x1
 489 0243 47020000 		.4byte	0x247
 490 0247 12       		.uleb128 0x12
 491 0248 03030000 		.4byte	0x303
 492 024c 01       		.byte	0x1
 493 024d 13       		.uleb128 0x13
 494 024e 14030000 		.4byte	0x314
 495 0252 00       		.byte	0
 496 0253 00       		.byte	0
 497 0254 0F       		.uleb128 0xf
 498 0255 15030000 		.4byte	.LASF35
 499 0259 04       		.byte	0x4
 500 025a 01       		.byte	0x1
 501 025b 15       		.byte	0x15
 502 025c 54020000 		.4byte	0x254
 503 0260 03030000 		.4byte	0x303
 504 0264 17       		.uleb128 0x17
 505 0265 DB000000 		.4byte	.LASF43
ARM GAS  C:\Users\Vergil\AppData\Local\Temp\ccsfdjWl.s 			page 10


 506 0269 1D050000 		.4byte	0x51d
 507 026d 02       		.byte	0x2
 508 026e 23       		.byte	0x23
 509 026f 00       		.uleb128 0
 510 0270 01       		.byte	0x1
 511 0271 11       		.uleb128 0x11
 512 0272 01       		.byte	0x1
 513 0273 15030000 		.4byte	.LASF35
 514 0277 2D050000 		.4byte	0x52d
 515 027b 01       		.byte	0x1
 516 027c 01       		.byte	0x1
 517 027d 85020000 		.4byte	0x285
 518 0281 91020000 		.4byte	0x291
 519 0285 12       		.uleb128 0x12
 520 0286 2D050000 		.4byte	0x52d
 521 028a 01       		.byte	0x1
 522 028b 13       		.uleb128 0x13
 523 028c 33050000 		.4byte	0x533
 524 0290 00       		.byte	0
 525 0291 11       		.uleb128 0x11
 526 0292 01       		.byte	0x1
 527 0293 15030000 		.4byte	.LASF35
 528 0297 2D050000 		.4byte	0x52d
 529 029b 01       		.byte	0x1
 530 029c 01       		.byte	0x1
 531 029d A5020000 		.4byte	0x2a5
 532 02a1 AC020000 		.4byte	0x2ac
 533 02a5 12       		.uleb128 0x12
 534 02a6 2D050000 		.4byte	0x52d
 535 02aa 01       		.byte	0x1
 536 02ab 00       		.byte	0
 537 02ac 15       		.uleb128 0x15
 538 02ad 01       		.byte	0x1
 539 02ae 4E020000 		.4byte	.LASF36
 540 02b2 01       		.byte	0x1
 541 02b3 19       		.byte	0x19
 542 02b4 A4000000 		.4byte	.LASF38
 543 02b8 29000000 		.4byte	0x29
 544 02bc 01       		.byte	0x1
 545 02bd 02       		.byte	0x2
 546 02be 10       		.byte	0x10
 547 02bf 00       		.uleb128 0
 548 02c0 54020000 		.4byte	0x254
 549 02c4 01       		.byte	0x1
 550 02c5 CD020000 		.4byte	0x2cd
 551 02c9 D9020000 		.4byte	0x2d9
 552 02cd 12       		.uleb128 0x12
 553 02ce 2D050000 		.4byte	0x52d
 554 02d2 01       		.byte	0x1
 555 02d3 13       		.uleb128 0x13
 556 02d4 14030000 		.4byte	0x314
 557 02d8 00       		.byte	0
 558 02d9 16       		.uleb128 0x16
 559 02da 01       		.byte	0x1
 560 02db 04020000 		.4byte	.LASF39
 561 02df 01       		.byte	0x1
 562 02e0 1B       		.byte	0x1b
ARM GAS  C:\Users\Vergil\AppData\Local\Temp\ccsfdjWl.s 			page 11


 563 02e1 4C050000 		.4byte	.LASF41
 564 02e5 29000000 		.4byte	0x29
 565 02e9 01       		.byte	0x1
 566 02ea 02       		.byte	0x2
 567 02eb 10       		.byte	0x10
 568 02ec 01       		.uleb128 0x1
 569 02ed 54020000 		.4byte	0x254
 570 02f1 01       		.byte	0x1
 571 02f2 F6020000 		.4byte	0x2f6
 572 02f6 12       		.uleb128 0x12
 573 02f7 2D050000 		.4byte	0x52d
 574 02fb 01       		.byte	0x1
 575 02fc 13       		.uleb128 0x13
 576 02fd 14030000 		.4byte	0x314
 577 0301 00       		.byte	0
 578 0302 00       		.byte	0
 579 0303 07       		.uleb128 0x7
 580 0304 04       		.byte	0x4
 581 0305 86010000 		.4byte	0x186
 582 0309 18       		.uleb128 0x18
 583 030a 04       		.byte	0x4
 584 030b 0F030000 		.4byte	0x30f
 585 030f 08       		.uleb128 0x8
 586 0310 86010000 		.4byte	0x186
 587 0314 07       		.uleb128 0x7
 588 0315 04       		.byte	0x4
 589 0316 1A030000 		.4byte	0x31a
 590 031a 0F       		.uleb128 0xf
 591 031b 67020000 		.4byte	.LASF42
 592 031f 08       		.byte	0x8
 593 0320 07       		.byte	0x7
 594 0321 17       		.byte	0x17
 595 0322 1A030000 		.4byte	0x31a
 596 0326 12050000 		.4byte	0x512
 597 032a 17       		.uleb128 0x17
 598 032b BF030000 		.4byte	.LASF44
 599 032f 1D050000 		.4byte	0x51d
 600 0333 02       		.byte	0x2
 601 0334 23       		.byte	0x23
 602 0335 00       		.uleb128 0
 603 0336 01       		.byte	0x1
 604 0337 19       		.uleb128 0x19
 605 0338 72000000 		.4byte	.LASF45
 606 033c 07       		.byte	0x7
 607 033d 31       		.byte	0x31
 608 033e 08010000 		.4byte	0x108
 609 0342 02       		.byte	0x2
 610 0343 23       		.byte	0x23
 611 0344 04       		.uleb128 0x4
 612 0345 02       		.byte	0x2
 613 0346 19       		.uleb128 0x19
 614 0347 08030000 		.4byte	.LASF46
 615 034b 07       		.byte	0x7
 616 034c 32       		.byte	0x32
 617 034d 08010000 		.4byte	0x108
 618 0351 02       		.byte	0x2
 619 0352 23       		.byte	0x23
ARM GAS  C:\Users\Vergil\AppData\Local\Temp\ccsfdjWl.s 			page 12


 620 0353 05       		.uleb128 0x5
 621 0354 02       		.byte	0x2
 622 0355 14       		.uleb128 0x14
 623 0356 01       		.byte	0x1
 624 0357 67020000 		.4byte	.LASF42
 625 035b 07       		.byte	0x7
 626 035c 1A       		.byte	0x1a
 627 035d 14030000 		.4byte	0x314
 628 0361 01       		.byte	0x1
 629 0362 6A030000 		.4byte	0x36a
 630 0366 71030000 		.4byte	0x371
 631 036a 12       		.uleb128 0x12
 632 036b 14030000 		.4byte	0x314
 633 036f 01       		.byte	0x1
 634 0370 00       		.byte	0
 635 0371 1A       		.uleb128 0x1a
 636 0372 01       		.byte	0x1
 637 0373 1B050000 		.4byte	.LASF72
 638 0377 07       		.byte	0x7
 639 0378 1C       		.byte	0x1c
 640 0379 D1000000 		.4byte	0xd1
 641 037d 01       		.byte	0x1
 642 037e 1A030000 		.4byte	0x31a
 643 0382 01       		.byte	0x1
 644 0383 8B030000 		.4byte	0x38b
 645 0387 98030000 		.4byte	0x398
 646 038b 12       		.uleb128 0x12
 647 038c 14030000 		.4byte	0x314
 648 0390 01       		.byte	0x1
 649 0391 12       		.uleb128 0x12
 650 0392 A7000000 		.4byte	0xa7
 651 0396 01       		.byte	0x1
 652 0397 00       		.byte	0
 653 0398 1B       		.uleb128 0x1b
 654 0399 01       		.byte	0x1
 655 039a 49010000 		.4byte	.LASF47
 656 039e 07       		.byte	0x7
 657 039f 1E       		.byte	0x1e
 658 03a0 4B000000 		.4byte	.LASF49
 659 03a4 08010000 		.4byte	0x108
 660 03a8 01       		.byte	0x1
 661 03a9 B1030000 		.4byte	0x3b1
 662 03ad B8030000 		.4byte	0x3b8
 663 03b1 12       		.uleb128 0x12
 664 03b2 14030000 		.4byte	0x314
 665 03b6 01       		.byte	0x1
 666 03b7 00       		.byte	0
 667 03b8 1B       		.uleb128 0x1b
 668 03b9 01       		.byte	0x1
 669 03ba CF000000 		.4byte	.LASF48
 670 03be 07       		.byte	0x7
 671 03bf 1F       		.byte	0x1f
 672 03c0 28000000 		.4byte	.LASF50
 673 03c4 08010000 		.4byte	0x108
 674 03c8 01       		.byte	0x1
 675 03c9 D1030000 		.4byte	0x3d1
 676 03cd D8030000 		.4byte	0x3d8
ARM GAS  C:\Users\Vergil\AppData\Local\Temp\ccsfdjWl.s 			page 13


 677 03d1 12       		.uleb128 0x12
 678 03d2 14030000 		.4byte	0x314
 679 03d6 01       		.byte	0x1
 680 03d7 00       		.byte	0
 681 03d8 15       		.uleb128 0x15
 682 03d9 01       		.byte	0x1
 683 03da 05050000 		.4byte	.LASF51
 684 03de 07       		.byte	0x7
 685 03df 21       		.byte	0x21
 686 03e0 1D020000 		.4byte	.LASF52
 687 03e4 29000000 		.4byte	0x29
 688 03e8 01       		.byte	0x1
 689 03e9 02       		.byte	0x2
 690 03ea 10       		.byte	0x10
 691 03eb 02       		.uleb128 0x2
 692 03ec 1A030000 		.4byte	0x31a
 693 03f0 01       		.byte	0x1
 694 03f1 F9030000 		.4byte	0x3f9
 695 03f5 05040000 		.4byte	0x405
 696 03f9 12       		.uleb128 0x12
 697 03fa 14030000 		.4byte	0x314
 698 03fe 01       		.byte	0x1
 699 03ff 13       		.uleb128 0x13
 700 0400 3E050000 		.4byte	0x53e
 701 0404 00       		.byte	0
 702 0405 15       		.uleb128 0x15
 703 0406 01       		.byte	0x1
 704 0407 73030000 		.4byte	.LASF53
 705 040b 07       		.byte	0x7
 706 040c 22       		.byte	0x22
 707 040d EA000000 		.4byte	.LASF54
 708 0411 29000000 		.4byte	0x29
 709 0415 01       		.byte	0x1
 710 0416 02       		.byte	0x2
 711 0417 10       		.byte	0x10
 712 0418 03       		.uleb128 0x3
 713 0419 1A030000 		.4byte	0x31a
 714 041d 01       		.byte	0x1
 715 041e 26040000 		.4byte	0x426
 716 0422 37040000 		.4byte	0x437
 717 0426 12       		.uleb128 0x12
 718 0427 14030000 		.4byte	0x314
 719 042b 01       		.byte	0x1
 720 042c 13       		.uleb128 0x13
 721 042d E7000000 		.4byte	0xe7
 722 0431 13       		.uleb128 0x13
 723 0432 F2000000 		.4byte	0xf2
 724 0436 00       		.byte	0
 725 0437 15       		.uleb128 0x15
 726 0438 01       		.byte	0x1
 727 0439 37040000 		.4byte	.LASF55
 728 043d 07       		.byte	0x7
 729 043e 23       		.byte	0x23
 730 043f E1030000 		.4byte	.LASF56
 731 0443 29000000 		.4byte	0x29
 732 0447 01       		.byte	0x1
 733 0448 02       		.byte	0x2
ARM GAS  C:\Users\Vergil\AppData\Local\Temp\ccsfdjWl.s 			page 14


 734 0449 10       		.byte	0x10
 735 044a 04       		.uleb128 0x4
 736 044b 1A030000 		.4byte	0x31a
 737 044f 01       		.byte	0x1
 738 0450 58040000 		.4byte	0x458
 739 0454 6E040000 		.4byte	0x46e
 740 0458 12       		.uleb128 0x12
 741 0459 14030000 		.4byte	0x314
 742 045d 01       		.byte	0x1
 743 045e 13       		.uleb128 0x13
 744 045f DA000000 		.4byte	0xda
 745 0463 13       		.uleb128 0x13
 746 0464 F2000000 		.4byte	0xf2
 747 0468 13       		.uleb128 0x13
 748 0469 13010000 		.4byte	0x113
 749 046d 00       		.byte	0
 750 046e 15       		.uleb128 0x15
 751 046f 01       		.byte	0x1
 752 0470 FB010000 		.4byte	.LASF57
 753 0474 07       		.byte	0x7
 754 0475 25       		.byte	0x25
 755 0476 B2020000 		.4byte	.LASF58
 756 047a A7000000 		.4byte	0xa7
 757 047e 01       		.byte	0x1
 758 047f 02       		.byte	0x2
 759 0480 10       		.byte	0x10
 760 0481 05       		.uleb128 0x5
 761 0482 1A030000 		.4byte	0x31a
 762 0486 01       		.byte	0x1
 763 0487 8F040000 		.4byte	0x48f
 764 048b A0040000 		.4byte	0x4a0
 765 048f 12       		.uleb128 0x12
 766 0490 14030000 		.4byte	0x314
 767 0494 01       		.byte	0x1
 768 0495 13       		.uleb128 0x13
 769 0496 DA000000 		.4byte	0xda
 770 049a 13       		.uleb128 0x13
 771 049b F2000000 		.4byte	0xf2
 772 049f 00       		.byte	0
 773 04a0 15       		.uleb128 0x15
 774 04a1 01       		.byte	0x1
 775 04a2 00000000 		.4byte	.LASF59
 776 04a6 07       		.byte	0x7
 777 04a7 26       		.byte	0x26
 778 04a8 63010000 		.4byte	.LASF60
 779 04ac 29000000 		.4byte	0x29
 780 04b0 01       		.byte	0x1
 781 04b1 02       		.byte	0x2
 782 04b2 10       		.byte	0x10
 783 04b3 06       		.uleb128 0x6
 784 04b4 1A030000 		.4byte	0x31a
 785 04b8 01       		.byte	0x1
 786 04b9 C1040000 		.4byte	0x4c1
 787 04bd C8040000 		.4byte	0x4c8
 788 04c1 12       		.uleb128 0x12
 789 04c2 14030000 		.4byte	0x314
 790 04c6 01       		.byte	0x1
ARM GAS  C:\Users\Vergil\AppData\Local\Temp\ccsfdjWl.s 			page 15


 791 04c7 00       		.byte	0
 792 04c8 15       		.uleb128 0x15
 793 04c9 01       		.byte	0x1
 794 04ca 3E010000 		.4byte	.LASF61
 795 04ce 07       		.byte	0x7
 796 04cf 27       		.byte	0x27
 797 04d0 06000000 		.4byte	.LASF62
 798 04d4 66000000 		.4byte	0x66
 799 04d8 01       		.byte	0x1
 800 04d9 02       		.byte	0x2
 801 04da 10       		.byte	0x10
 802 04db 07       		.uleb128 0x7
 803 04dc 1A030000 		.4byte	0x31a
 804 04e0 01       		.byte	0x1
 805 04e1 E9040000 		.4byte	0x4e9
 806 04e5 F0040000 		.4byte	0x4f0
 807 04e9 12       		.uleb128 0x12
 808 04ea 14030000 		.4byte	0x314
 809 04ee 01       		.byte	0x1
 810 04ef 00       		.byte	0
 811 04f0 1C       		.uleb128 0x1c
 812 04f1 01       		.byte	0x1
 813 04f2 73030000 		.4byte	.LASF53
 814 04f6 07       		.byte	0x7
 815 04f7 29       		.byte	0x29
 816 04f8 56030000 		.4byte	.LASF73
 817 04fc 29000000 		.4byte	0x29
 818 0500 01       		.byte	0x1
 819 0501 05050000 		.4byte	0x505
 820 0505 12       		.uleb128 0x12
 821 0506 14030000 		.4byte	0x314
 822 050a 01       		.byte	0x1
 823 050b 13       		.uleb128 0x13
 824 050c E7000000 		.4byte	0xe7
 825 0510 00       		.byte	0
 826 0511 00       		.byte	0
 827 0512 1D       		.uleb128 0x1d
 828 0513 A7000000 		.4byte	0xa7
 829 0517 1D050000 		.4byte	0x51d
 830 051b 1E       		.uleb128 0x1e
 831 051c 00       		.byte	0
 832 051d 07       		.uleb128 0x7
 833 051e 04       		.byte	0x4
 834 051f 23050000 		.4byte	0x523
 835 0523 1F       		.uleb128 0x1f
 836 0524 04       		.byte	0x4
 837 0525 4A040000 		.4byte	.LASF74
 838 0529 12050000 		.4byte	0x512
 839 052d 07       		.uleb128 0x7
 840 052e 04       		.byte	0x4
 841 052f 54020000 		.4byte	0x254
 842 0533 18       		.uleb128 0x18
 843 0534 04       		.byte	0x4
 844 0535 39050000 		.4byte	0x539
 845 0539 08       		.uleb128 0x8
 846 053a 54020000 		.4byte	0x254
 847 053e 18       		.uleb128 0x18
ARM GAS  C:\Users\Vergil\AppData\Local\Temp\ccsfdjWl.s 			page 16


 848 053f 04       		.byte	0x4
 849 0540 1F010000 		.4byte	0x11f
 850 0544 20       		.uleb128 0x20
 851 0545 71030000 		.4byte	0x371
 852 0549 03       		.byte	0x3
 853 054a 52050000 		.4byte	0x552
 854 054e 67050000 		.4byte	0x567
 855 0552 21       		.uleb128 0x21
 856 0553 89050000 		.4byte	.LASF63
 857 0557 67050000 		.4byte	0x567
 858 055b 01       		.byte	0x1
 859 055c 21       		.uleb128 0x21
 860 055d 59010000 		.4byte	.LASF64
 861 0561 6C050000 		.4byte	0x56c
 862 0565 01       		.byte	0x1
 863 0566 00       		.byte	0
 864 0567 08       		.uleb128 0x8
 865 0568 14030000 		.4byte	0x314
 866 056c 08       		.uleb128 0x8
 867 056d A7000000 		.4byte	0xa7
 868 0571 22       		.uleb128 0x22
 869 0572 91020000 		.4byte	0x291
 870 0576 01       		.byte	0x1
 871 0577 15       		.byte	0x15
 872 0578 03       		.byte	0x3
 873 0579 81050000 		.4byte	0x581
 874 057d 8C050000 		.4byte	0x58c
 875 0581 21       		.uleb128 0x21
 876 0582 89050000 		.4byte	.LASF63
 877 0586 8C050000 		.4byte	0x58c
 878 058a 01       		.byte	0x1
 879 058b 00       		.byte	0
 880 058c 08       		.uleb128 0x8
 881 058d 2D050000 		.4byte	0x52d
 882 0591 23       		.uleb128 0x23
 883 0592 AC020000 		.4byte	0x2ac
 884 0596 00000000 		.4byte	.LFB129
 885 059a 04000000 		.4byte	.LFE129
 886 059e 02       		.byte	0x2
 887 059f 7D       		.byte	0x7d
 888 05a0 00       		.sleb128 0
 889 05a1 AA050000 		.4byte	0x5aa
 890 05a5 01       		.byte	0x1
 891 05a6 C6050000 		.4byte	0x5c6
 892 05aa 24       		.uleb128 0x24
 893 05ab 89050000 		.4byte	.LASF63
 894 05af 8C050000 		.4byte	0x58c
 895 05b3 01       		.byte	0x1
 896 05b4 00000000 		.4byte	.LLST0
 897 05b8 25       		.uleb128 0x25
 898 05b9 8E050000 		.4byte	.LASF65
 899 05bd 01       		.byte	0x1
 900 05be 19       		.byte	0x19
 901 05bf 14030000 		.4byte	0x314
 902 05c3 01       		.byte	0x1
 903 05c4 51       		.byte	0x51
 904 05c5 00       		.byte	0
ARM GAS  C:\Users\Vergil\AppData\Local\Temp\ccsfdjWl.s 			page 17


 905 05c6 23       		.uleb128 0x23
 906 05c7 D9020000 		.4byte	0x2d9
 907 05cb 00000000 		.4byte	.LFB130
 908 05cf 04000000 		.4byte	.LFE130
 909 05d3 02       		.byte	0x2
 910 05d4 7D       		.byte	0x7d
 911 05d5 00       		.sleb128 0
 912 05d6 DF050000 		.4byte	0x5df
 913 05da 01       		.byte	0x1
 914 05db FB050000 		.4byte	0x5fb
 915 05df 24       		.uleb128 0x24
 916 05e0 89050000 		.4byte	.LASF63
 917 05e4 8C050000 		.4byte	0x58c
 918 05e8 01       		.byte	0x1
 919 05e9 21000000 		.4byte	.LLST1
 920 05ed 25       		.uleb128 0x25
 921 05ee 8E050000 		.4byte	.LASF65
 922 05f2 01       		.byte	0x1
 923 05f3 1B       		.byte	0x1b
 924 05f4 14030000 		.4byte	0x314
 925 05f8 01       		.byte	0x1
 926 05f9 51       		.byte	0x51
 927 05fa 00       		.byte	0
 928 05fb 23       		.uleb128 0x23
 929 05fc FD010000 		.4byte	0x1fd
 930 0600 00000000 		.4byte	.LFB140
 931 0604 04000000 		.4byte	.LFE140
 932 0608 02       		.byte	0x2
 933 0609 7D       		.byte	0x7d
 934 060a 00       		.sleb128 0
 935 060b 14060000 		.4byte	0x614
 936 060f 01       		.byte	0x1
 937 0610 30060000 		.4byte	0x630
 938 0614 24       		.uleb128 0x24
 939 0615 89050000 		.4byte	.LASF63
 940 0619 30060000 		.4byte	0x630
 941 061d 01       		.byte	0x1
 942 061e 42000000 		.4byte	.LLST2
 943 0622 25       		.uleb128 0x25
 944 0623 8E050000 		.4byte	.LASF65
 945 0627 02       		.byte	0x2
 946 0628 0B       		.byte	0xb
 947 0629 14030000 		.4byte	0x314
 948 062d 01       		.byte	0x1
 949 062e 51       		.byte	0x51
 950 062f 00       		.byte	0
 951 0630 08       		.uleb128 0x8
 952 0631 03030000 		.4byte	0x303
 953 0635 23       		.uleb128 0x23
 954 0636 2A020000 		.4byte	0x22a
 955 063a 00000000 		.4byte	.LFB141
 956 063e 04000000 		.4byte	.LFE141
 957 0642 02       		.byte	0x2
 958 0643 7D       		.byte	0x7d
 959 0644 00       		.sleb128 0
 960 0645 4E060000 		.4byte	0x64e
 961 0649 01       		.byte	0x1
ARM GAS  C:\Users\Vergil\AppData\Local\Temp\ccsfdjWl.s 			page 18


 962 064a 6A060000 		.4byte	0x66a
 963 064e 24       		.uleb128 0x24
 964 064f 89050000 		.4byte	.LASF63
 965 0653 30060000 		.4byte	0x630
 966 0657 01       		.byte	0x1
 967 0658 63000000 		.4byte	.LLST3
 968 065c 25       		.uleb128 0x25
 969 065d 8E050000 		.4byte	.LASF65
 970 0661 02       		.byte	0x2
 971 0662 10       		.byte	0x10
 972 0663 14030000 		.4byte	0x314
 973 0667 01       		.byte	0x1
 974 0668 51       		.byte	0x51
 975 0669 00       		.byte	0
 976 066a 20       		.uleb128 0x20
 977 066b BF010000 		.4byte	0x1bf
 978 066f 00       		.byte	0
 979 0670 78060000 		.4byte	0x678
 980 0674 83060000 		.4byte	0x683
 981 0678 21       		.uleb128 0x21
 982 0679 89050000 		.4byte	.LASF63
 983 067d 30060000 		.4byte	0x630
 984 0681 01       		.byte	0x1
 985 0682 00       		.byte	0
 986 0683 26       		.uleb128 0x26
 987 0684 6A060000 		.4byte	0x66a
 988 0688 7F010000 		.4byte	.LASF66
 989 068c 00000000 		.4byte	.LFB135
 990 0690 0C000000 		.4byte	.LFE135
 991 0694 02       		.byte	0x2
 992 0695 7D       		.byte	0x7d
 993 0696 00       		.sleb128 0
 994 0697 A0060000 		.4byte	0x6a0
 995 069b 01       		.byte	0x1
 996 069c A8060000 		.4byte	0x6a8
 997 06a0 27       		.uleb128 0x27
 998 06a1 78060000 		.4byte	0x678
 999 06a5 01       		.byte	0x1
 1000 06a6 50       		.byte	0x50
 1001 06a7 00       		.byte	0
 1002 06a8 20       		.uleb128 0x20
 1003 06a9 DB010000 		.4byte	0x1db
 1004 06ad 00       		.byte	0
 1005 06ae B6060000 		.4byte	0x6b6
 1006 06b2 CB060000 		.4byte	0x6cb
 1007 06b6 21       		.uleb128 0x21
 1008 06b7 89050000 		.4byte	.LASF63
 1009 06bb 30060000 		.4byte	0x630
 1010 06bf 01       		.byte	0x1
 1011 06c0 21       		.uleb128 0x21
 1012 06c1 59010000 		.4byte	.LASF64
 1013 06c5 CB060000 		.4byte	0x6cb
 1014 06c9 01       		.byte	0x1
 1015 06ca 00       		.byte	0
 1016 06cb 08       		.uleb128 0x8
 1017 06cc A7000000 		.4byte	0xa7
 1018 06d0 26       		.uleb128 0x26
ARM GAS  C:\Users\Vergil\AppData\Local\Temp\ccsfdjWl.s 			page 19


 1019 06d1 A8060000 		.4byte	0x6a8
 1020 06d5 7D030000 		.4byte	.LASF67
 1021 06d9 00000000 		.4byte	.LFB138
 1022 06dd 0C000000 		.4byte	.LFE138
 1023 06e1 02       		.byte	0x2
 1024 06e2 7D       		.byte	0x7d
 1025 06e3 00       		.sleb128 0
 1026 06e4 ED060000 		.4byte	0x6ed
 1027 06e8 01       		.byte	0x1
 1028 06e9 F5060000 		.4byte	0x6f5
 1029 06ed 27       		.uleb128 0x27
 1030 06ee B6060000 		.4byte	0x6b6
 1031 06f2 01       		.byte	0x1
 1032 06f3 50       		.byte	0x50
 1033 06f4 00       		.byte	0
 1034 06f5 28       		.uleb128 0x28
 1035 06f6 77050000 		.4byte	.LASF75
 1036 06fa 09       		.byte	0x9
 1037 06fb 9806     		.2byte	0x698
 1038 06fd 1A010000 		.4byte	0x11a
 1039 0701 01       		.byte	0x1
 1040 0702 01       		.byte	0x1
 1041 0703 00       		.byte	0
 1042              		.section	.debug_abbrev,"",%progbits
 1043              	.Ldebug_abbrev0:
 1044 0000 01       		.uleb128 0x1
 1045 0001 11       		.uleb128 0x11
 1046 0002 01       		.byte	0x1
 1047 0003 25       		.uleb128 0x25
 1048 0004 0E       		.uleb128 0xe
 1049 0005 13       		.uleb128 0x13
 1050 0006 0B       		.uleb128 0xb
 1051 0007 03       		.uleb128 0x3
 1052 0008 0E       		.uleb128 0xe
 1053 0009 1B       		.uleb128 0x1b
 1054 000a 0E       		.uleb128 0xe
 1055 000b 55       		.uleb128 0x55
 1056 000c 06       		.uleb128 0x6
 1057 000d 11       		.uleb128 0x11
 1058 000e 01       		.uleb128 0x1
 1059 000f 52       		.uleb128 0x52
 1060 0010 01       		.uleb128 0x1
 1061 0011 10       		.uleb128 0x10
 1062 0012 06       		.uleb128 0x6
 1063 0013 00       		.byte	0
 1064 0014 00       		.byte	0
 1065 0015 02       		.uleb128 0x2
 1066 0016 04       		.uleb128 0x4
 1067 0017 01       		.byte	0x1
 1068 0018 03       		.uleb128 0x3
 1069 0019 0E       		.uleb128 0xe
 1070 001a 0B       		.uleb128 0xb
 1071 001b 0B       		.uleb128 0xb
 1072 001c 3A       		.uleb128 0x3a
 1073 001d 0B       		.uleb128 0xb
 1074 001e 3B       		.uleb128 0x3b
 1075 001f 0B       		.uleb128 0xb
ARM GAS  C:\Users\Vergil\AppData\Local\Temp\ccsfdjWl.s 			page 20


 1076 0020 01       		.uleb128 0x1
 1077 0021 13       		.uleb128 0x13
 1078 0022 00       		.byte	0
 1079 0023 00       		.byte	0
 1080 0024 03       		.uleb128 0x3
 1081 0025 28       		.uleb128 0x28
 1082 0026 00       		.byte	0
 1083 0027 03       		.uleb128 0x3
 1084 0028 0E       		.uleb128 0xe
 1085 0029 1C       		.uleb128 0x1c
 1086 002a 0D       		.uleb128 0xd
 1087 002b 00       		.byte	0
 1088 002c 00       		.byte	0
 1089 002d 04       		.uleb128 0x4
 1090 002e 24       		.uleb128 0x24
 1091 002f 00       		.byte	0
 1092 0030 0B       		.uleb128 0xb
 1093 0031 0B       		.uleb128 0xb
 1094 0032 3E       		.uleb128 0x3e
 1095 0033 0B       		.uleb128 0xb
 1096 0034 03       		.uleb128 0x3
 1097 0035 0E       		.uleb128 0xe
 1098 0036 00       		.byte	0
 1099 0037 00       		.byte	0
 1100 0038 05       		.uleb128 0x5
 1101 0039 24       		.uleb128 0x24
 1102 003a 00       		.byte	0
 1103 003b 0B       		.uleb128 0xb
 1104 003c 0B       		.uleb128 0xb
 1105 003d 3E       		.uleb128 0x3e
 1106 003e 0B       		.uleb128 0xb
 1107 003f 03       		.uleb128 0x3
 1108 0040 08       		.uleb128 0x8
 1109 0041 00       		.byte	0
 1110 0042 00       		.byte	0
 1111 0043 06       		.uleb128 0x6
 1112 0044 0F       		.uleb128 0xf
 1113 0045 00       		.byte	0
 1114 0046 0B       		.uleb128 0xb
 1115 0047 0B       		.uleb128 0xb
 1116 0048 00       		.byte	0
 1117 0049 00       		.byte	0
 1118 004a 07       		.uleb128 0x7
 1119 004b 0F       		.uleb128 0xf
 1120 004c 00       		.byte	0
 1121 004d 0B       		.uleb128 0xb
 1122 004e 0B       		.uleb128 0xb
 1123 004f 49       		.uleb128 0x49
 1124 0050 13       		.uleb128 0x13
 1125 0051 00       		.byte	0
 1126 0052 00       		.byte	0
 1127 0053 08       		.uleb128 0x8
 1128 0054 26       		.uleb128 0x26
 1129 0055 00       		.byte	0
 1130 0056 49       		.uleb128 0x49
 1131 0057 13       		.uleb128 0x13
 1132 0058 00       		.byte	0
ARM GAS  C:\Users\Vergil\AppData\Local\Temp\ccsfdjWl.s 			page 21


 1133 0059 00       		.byte	0
 1134 005a 09       		.uleb128 0x9
 1135 005b 16       		.uleb128 0x16
 1136 005c 00       		.byte	0
 1137 005d 03       		.uleb128 0x3
 1138 005e 0E       		.uleb128 0xe
 1139 005f 3A       		.uleb128 0x3a
 1140 0060 0B       		.uleb128 0xb
 1141 0061 3B       		.uleb128 0x3b
 1142 0062 0B       		.uleb128 0xb
 1143 0063 49       		.uleb128 0x49
 1144 0064 13       		.uleb128 0x13
 1145 0065 00       		.byte	0
 1146 0066 00       		.byte	0
 1147 0067 0A       		.uleb128 0xa
 1148 0068 35       		.uleb128 0x35
 1149 0069 00       		.byte	0
 1150 006a 49       		.uleb128 0x49
 1151 006b 13       		.uleb128 0x13
 1152 006c 00       		.byte	0
 1153 006d 00       		.byte	0
 1154 006e 0B       		.uleb128 0xb
 1155 006f 13       		.uleb128 0x13
 1156 0070 01       		.byte	0x1
 1157 0071 03       		.uleb128 0x3
 1158 0072 0E       		.uleb128 0xe
 1159 0073 0B       		.uleb128 0xb
 1160 0074 05       		.uleb128 0x5
 1161 0075 3A       		.uleb128 0x3a
 1162 0076 0B       		.uleb128 0xb
 1163 0077 3B       		.uleb128 0x3b
 1164 0078 0B       		.uleb128 0xb
 1165 0079 01       		.uleb128 0x1
 1166 007a 13       		.uleb128 0x13
 1167 007b 00       		.byte	0
 1168 007c 00       		.byte	0
 1169 007d 0C       		.uleb128 0xc
 1170 007e 0D       		.uleb128 0xd
 1171 007f 00       		.byte	0
 1172 0080 03       		.uleb128 0x3
 1173 0081 0E       		.uleb128 0xe
 1174 0082 3A       		.uleb128 0x3a
 1175 0083 0B       		.uleb128 0xb
 1176 0084 3B       		.uleb128 0x3b
 1177 0085 0B       		.uleb128 0xb
 1178 0086 49       		.uleb128 0x49
 1179 0087 13       		.uleb128 0x13
 1180 0088 38       		.uleb128 0x38
 1181 0089 0A       		.uleb128 0xa
 1182 008a 00       		.byte	0
 1183 008b 00       		.byte	0
 1184 008c 0D       		.uleb128 0xd
 1185 008d 01       		.uleb128 0x1
 1186 008e 01       		.byte	0x1
 1187 008f 49       		.uleb128 0x49
 1188 0090 13       		.uleb128 0x13
 1189 0091 01       		.uleb128 0x1
ARM GAS  C:\Users\Vergil\AppData\Local\Temp\ccsfdjWl.s 			page 22


 1190 0092 13       		.uleb128 0x13
 1191 0093 00       		.byte	0
 1192 0094 00       		.byte	0
 1193 0095 0E       		.uleb128 0xe
 1194 0096 21       		.uleb128 0x21
 1195 0097 00       		.byte	0
 1196 0098 49       		.uleb128 0x49
 1197 0099 13       		.uleb128 0x13
 1198 009a 2F       		.uleb128 0x2f
 1199 009b 0B       		.uleb128 0xb
 1200 009c 00       		.byte	0
 1201 009d 00       		.byte	0
 1202 009e 0F       		.uleb128 0xf
 1203 009f 02       		.uleb128 0x2
 1204 00a0 01       		.byte	0x1
 1205 00a1 03       		.uleb128 0x3
 1206 00a2 0E       		.uleb128 0xe
 1207 00a3 0B       		.uleb128 0xb
 1208 00a4 0B       		.uleb128 0xb
 1209 00a5 3A       		.uleb128 0x3a
 1210 00a6 0B       		.uleb128 0xb
 1211 00a7 3B       		.uleb128 0x3b
 1212 00a8 0B       		.uleb128 0xb
 1213 00a9 1D       		.uleb128 0x1d
 1214 00aa 13       		.uleb128 0x13
 1215 00ab 01       		.uleb128 0x1
 1216 00ac 13       		.uleb128 0x13
 1217 00ad 00       		.byte	0
 1218 00ae 00       		.byte	0
 1219 00af 10       		.uleb128 0x10
 1220 00b0 1C       		.uleb128 0x1c
 1221 00b1 00       		.byte	0
 1222 00b2 49       		.uleb128 0x49
 1223 00b3 13       		.uleb128 0x13
 1224 00b4 38       		.uleb128 0x38
 1225 00b5 0A       		.uleb128 0xa
 1226 00b6 32       		.uleb128 0x32
 1227 00b7 0B       		.uleb128 0xb
 1228 00b8 00       		.byte	0
 1229 00b9 00       		.byte	0
 1230 00ba 11       		.uleb128 0x11
 1231 00bb 2E       		.uleb128 0x2e
 1232 00bc 01       		.byte	0x1
 1233 00bd 3F       		.uleb128 0x3f
 1234 00be 0C       		.uleb128 0xc
 1235 00bf 03       		.uleb128 0x3
 1236 00c0 0E       		.uleb128 0xe
 1237 00c1 49       		.uleb128 0x49
 1238 00c2 13       		.uleb128 0x13
 1239 00c3 34       		.uleb128 0x34
 1240 00c4 0C       		.uleb128 0xc
 1241 00c5 3C       		.uleb128 0x3c
 1242 00c6 0C       		.uleb128 0xc
 1243 00c7 64       		.uleb128 0x64
 1244 00c8 13       		.uleb128 0x13
 1245 00c9 01       		.uleb128 0x1
 1246 00ca 13       		.uleb128 0x13
ARM GAS  C:\Users\Vergil\AppData\Local\Temp\ccsfdjWl.s 			page 23


 1247 00cb 00       		.byte	0
 1248 00cc 00       		.byte	0
 1249 00cd 12       		.uleb128 0x12
 1250 00ce 05       		.uleb128 0x5
 1251 00cf 00       		.byte	0
 1252 00d0 49       		.uleb128 0x49
 1253 00d1 13       		.uleb128 0x13
 1254 00d2 34       		.uleb128 0x34
 1255 00d3 0C       		.uleb128 0xc
 1256 00d4 00       		.byte	0
 1257 00d5 00       		.byte	0
 1258 00d6 13       		.uleb128 0x13
 1259 00d7 05       		.uleb128 0x5
 1260 00d8 00       		.byte	0
 1261 00d9 49       		.uleb128 0x49
 1262 00da 13       		.uleb128 0x13
 1263 00db 00       		.byte	0
 1264 00dc 00       		.byte	0
 1265 00dd 14       		.uleb128 0x14
 1266 00de 2E       		.uleb128 0x2e
 1267 00df 01       		.byte	0x1
 1268 00e0 3F       		.uleb128 0x3f
 1269 00e1 0C       		.uleb128 0xc
 1270 00e2 03       		.uleb128 0x3
 1271 00e3 0E       		.uleb128 0xe
 1272 00e4 3A       		.uleb128 0x3a
 1273 00e5 0B       		.uleb128 0xb
 1274 00e6 3B       		.uleb128 0x3b
 1275 00e7 0B       		.uleb128 0xb
 1276 00e8 49       		.uleb128 0x49
 1277 00e9 13       		.uleb128 0x13
 1278 00ea 3C       		.uleb128 0x3c
 1279 00eb 0C       		.uleb128 0xc
 1280 00ec 64       		.uleb128 0x64
 1281 00ed 13       		.uleb128 0x13
 1282 00ee 01       		.uleb128 0x1
 1283 00ef 13       		.uleb128 0x13
 1284 00f0 00       		.byte	0
 1285 00f1 00       		.byte	0
 1286 00f2 15       		.uleb128 0x15
 1287 00f3 2E       		.uleb128 0x2e
 1288 00f4 01       		.byte	0x1
 1289 00f5 3F       		.uleb128 0x3f
 1290 00f6 0C       		.uleb128 0xc
 1291 00f7 03       		.uleb128 0x3
 1292 00f8 0E       		.uleb128 0xe
 1293 00f9 3A       		.uleb128 0x3a
 1294 00fa 0B       		.uleb128 0xb
 1295 00fb 3B       		.uleb128 0x3b
 1296 00fc 0B       		.uleb128 0xb
 1297 00fd 8740     		.uleb128 0x2007
 1298 00ff 0E       		.uleb128 0xe
 1299 0100 49       		.uleb128 0x49
 1300 0101 13       		.uleb128 0x13
 1301 0102 4C       		.uleb128 0x4c
 1302 0103 0B       		.uleb128 0xb
 1303 0104 4D       		.uleb128 0x4d
ARM GAS  C:\Users\Vergil\AppData\Local\Temp\ccsfdjWl.s 			page 24


 1304 0105 0A       		.uleb128 0xa
 1305 0106 1D       		.uleb128 0x1d
 1306 0107 13       		.uleb128 0x13
 1307 0108 3C       		.uleb128 0x3c
 1308 0109 0C       		.uleb128 0xc
 1309 010a 64       		.uleb128 0x64
 1310 010b 13       		.uleb128 0x13
 1311 010c 01       		.uleb128 0x1
 1312 010d 13       		.uleb128 0x13
 1313 010e 00       		.byte	0
 1314 010f 00       		.byte	0
 1315 0110 16       		.uleb128 0x16
 1316 0111 2E       		.uleb128 0x2e
 1317 0112 01       		.byte	0x1
 1318 0113 3F       		.uleb128 0x3f
 1319 0114 0C       		.uleb128 0xc
 1320 0115 03       		.uleb128 0x3
 1321 0116 0E       		.uleb128 0xe
 1322 0117 3A       		.uleb128 0x3a
 1323 0118 0B       		.uleb128 0xb
 1324 0119 3B       		.uleb128 0x3b
 1325 011a 0B       		.uleb128 0xb
 1326 011b 8740     		.uleb128 0x2007
 1327 011d 0E       		.uleb128 0xe
 1328 011e 49       		.uleb128 0x49
 1329 011f 13       		.uleb128 0x13
 1330 0120 4C       		.uleb128 0x4c
 1331 0121 0B       		.uleb128 0xb
 1332 0122 4D       		.uleb128 0x4d
 1333 0123 0A       		.uleb128 0xa
 1334 0124 1D       		.uleb128 0x1d
 1335 0125 13       		.uleb128 0x13
 1336 0126 3C       		.uleb128 0x3c
 1337 0127 0C       		.uleb128 0xc
 1338 0128 64       		.uleb128 0x64
 1339 0129 13       		.uleb128 0x13
 1340 012a 00       		.byte	0
 1341 012b 00       		.byte	0
 1342 012c 17       		.uleb128 0x17
 1343 012d 0D       		.uleb128 0xd
 1344 012e 00       		.byte	0
 1345 012f 03       		.uleb128 0x3
 1346 0130 0E       		.uleb128 0xe
 1347 0131 49       		.uleb128 0x49
 1348 0132 13       		.uleb128 0x13
 1349 0133 38       		.uleb128 0x38
 1350 0134 0A       		.uleb128 0xa
 1351 0135 34       		.uleb128 0x34
 1352 0136 0C       		.uleb128 0xc
 1353 0137 00       		.byte	0
 1354 0138 00       		.byte	0
 1355 0139 18       		.uleb128 0x18
 1356 013a 10       		.uleb128 0x10
 1357 013b 00       		.byte	0
 1358 013c 0B       		.uleb128 0xb
 1359 013d 0B       		.uleb128 0xb
 1360 013e 49       		.uleb128 0x49
ARM GAS  C:\Users\Vergil\AppData\Local\Temp\ccsfdjWl.s 			page 25


 1361 013f 13       		.uleb128 0x13
 1362 0140 00       		.byte	0
 1363 0141 00       		.byte	0
 1364 0142 19       		.uleb128 0x19
 1365 0143 0D       		.uleb128 0xd
 1366 0144 00       		.byte	0
 1367 0145 03       		.uleb128 0x3
 1368 0146 0E       		.uleb128 0xe
 1369 0147 3A       		.uleb128 0x3a
 1370 0148 0B       		.uleb128 0xb
 1371 0149 3B       		.uleb128 0x3b
 1372 014a 0B       		.uleb128 0xb
 1373 014b 49       		.uleb128 0x49
 1374 014c 13       		.uleb128 0x13
 1375 014d 38       		.uleb128 0x38
 1376 014e 0A       		.uleb128 0xa
 1377 014f 32       		.uleb128 0x32
 1378 0150 0B       		.uleb128 0xb
 1379 0151 00       		.byte	0
 1380 0152 00       		.byte	0
 1381 0153 1A       		.uleb128 0x1a
 1382 0154 2E       		.uleb128 0x2e
 1383 0155 01       		.byte	0x1
 1384 0156 3F       		.uleb128 0x3f
 1385 0157 0C       		.uleb128 0xc
 1386 0158 03       		.uleb128 0x3
 1387 0159 0E       		.uleb128 0xe
 1388 015a 3A       		.uleb128 0x3a
 1389 015b 0B       		.uleb128 0xb
 1390 015c 3B       		.uleb128 0x3b
 1391 015d 0B       		.uleb128 0xb
 1392 015e 49       		.uleb128 0x49
 1393 015f 13       		.uleb128 0x13
 1394 0160 4C       		.uleb128 0x4c
 1395 0161 0B       		.uleb128 0xb
 1396 0162 1D       		.uleb128 0x1d
 1397 0163 13       		.uleb128 0x13
 1398 0164 3C       		.uleb128 0x3c
 1399 0165 0C       		.uleb128 0xc
 1400 0166 64       		.uleb128 0x64
 1401 0167 13       		.uleb128 0x13
 1402 0168 01       		.uleb128 0x1
 1403 0169 13       		.uleb128 0x13
 1404 016a 00       		.byte	0
 1405 016b 00       		.byte	0
 1406 016c 1B       		.uleb128 0x1b
 1407 016d 2E       		.uleb128 0x2e
 1408 016e 01       		.byte	0x1
 1409 016f 3F       		.uleb128 0x3f
 1410 0170 0C       		.uleb128 0xc
 1411 0171 03       		.uleb128 0x3
 1412 0172 0E       		.uleb128 0xe
 1413 0173 3A       		.uleb128 0x3a
 1414 0174 0B       		.uleb128 0xb
 1415 0175 3B       		.uleb128 0x3b
 1416 0176 0B       		.uleb128 0xb
 1417 0177 8740     		.uleb128 0x2007
ARM GAS  C:\Users\Vergil\AppData\Local\Temp\ccsfdjWl.s 			page 26


 1418 0179 0E       		.uleb128 0xe
 1419 017a 49       		.uleb128 0x49
 1420 017b 13       		.uleb128 0x13
 1421 017c 3C       		.uleb128 0x3c
 1422 017d 0C       		.uleb128 0xc
 1423 017e 64       		.uleb128 0x64
 1424 017f 13       		.uleb128 0x13
 1425 0180 01       		.uleb128 0x1
 1426 0181 13       		.uleb128 0x13
 1427 0182 00       		.byte	0
 1428 0183 00       		.byte	0
 1429 0184 1C       		.uleb128 0x1c
 1430 0185 2E       		.uleb128 0x2e
 1431 0186 01       		.byte	0x1
 1432 0187 3F       		.uleb128 0x3f
 1433 0188 0C       		.uleb128 0xc
 1434 0189 03       		.uleb128 0x3
 1435 018a 0E       		.uleb128 0xe
 1436 018b 3A       		.uleb128 0x3a
 1437 018c 0B       		.uleb128 0xb
 1438 018d 3B       		.uleb128 0x3b
 1439 018e 0B       		.uleb128 0xb
 1440 018f 8740     		.uleb128 0x2007
 1441 0191 0E       		.uleb128 0xe
 1442 0192 49       		.uleb128 0x49
 1443 0193 13       		.uleb128 0x13
 1444 0194 3C       		.uleb128 0x3c
 1445 0195 0C       		.uleb128 0xc
 1446 0196 64       		.uleb128 0x64
 1447 0197 13       		.uleb128 0x13
 1448 0198 00       		.byte	0
 1449 0199 00       		.byte	0
 1450 019a 1D       		.uleb128 0x1d
 1451 019b 15       		.uleb128 0x15
 1452 019c 01       		.byte	0x1
 1453 019d 49       		.uleb128 0x49
 1454 019e 13       		.uleb128 0x13
 1455 019f 01       		.uleb128 0x1
 1456 01a0 13       		.uleb128 0x13
 1457 01a1 00       		.byte	0
 1458 01a2 00       		.byte	0
 1459 01a3 1E       		.uleb128 0x1e
 1460 01a4 18       		.uleb128 0x18
 1461 01a5 00       		.byte	0
 1462 01a6 00       		.byte	0
 1463 01a7 00       		.byte	0
 1464 01a8 1F       		.uleb128 0x1f
 1465 01a9 0F       		.uleb128 0xf
 1466 01aa 00       		.byte	0
 1467 01ab 0B       		.uleb128 0xb
 1468 01ac 0B       		.uleb128 0xb
 1469 01ad 03       		.uleb128 0x3
 1470 01ae 0E       		.uleb128 0xe
 1471 01af 49       		.uleb128 0x49
 1472 01b0 13       		.uleb128 0x13
 1473 01b1 00       		.byte	0
 1474 01b2 00       		.byte	0
ARM GAS  C:\Users\Vergil\AppData\Local\Temp\ccsfdjWl.s 			page 27


 1475 01b3 20       		.uleb128 0x20
 1476 01b4 2E       		.uleb128 0x2e
 1477 01b5 01       		.byte	0x1
 1478 01b6 47       		.uleb128 0x47
 1479 01b7 13       		.uleb128 0x13
 1480 01b8 20       		.uleb128 0x20
 1481 01b9 0B       		.uleb128 0xb
 1482 01ba 64       		.uleb128 0x64
 1483 01bb 13       		.uleb128 0x13
 1484 01bc 01       		.uleb128 0x1
 1485 01bd 13       		.uleb128 0x13
 1486 01be 00       		.byte	0
 1487 01bf 00       		.byte	0
 1488 01c0 21       		.uleb128 0x21
 1489 01c1 05       		.uleb128 0x5
 1490 01c2 00       		.byte	0
 1491 01c3 03       		.uleb128 0x3
 1492 01c4 0E       		.uleb128 0xe
 1493 01c5 49       		.uleb128 0x49
 1494 01c6 13       		.uleb128 0x13
 1495 01c7 34       		.uleb128 0x34
 1496 01c8 0C       		.uleb128 0xc
 1497 01c9 00       		.byte	0
 1498 01ca 00       		.byte	0
 1499 01cb 22       		.uleb128 0x22
 1500 01cc 2E       		.uleb128 0x2e
 1501 01cd 01       		.byte	0x1
 1502 01ce 47       		.uleb128 0x47
 1503 01cf 13       		.uleb128 0x13
 1504 01d0 3A       		.uleb128 0x3a
 1505 01d1 0B       		.uleb128 0xb
 1506 01d2 3B       		.uleb128 0x3b
 1507 01d3 0B       		.uleb128 0xb
 1508 01d4 20       		.uleb128 0x20
 1509 01d5 0B       		.uleb128 0xb
 1510 01d6 64       		.uleb128 0x64
 1511 01d7 13       		.uleb128 0x13
 1512 01d8 01       		.uleb128 0x1
 1513 01d9 13       		.uleb128 0x13
 1514 01da 00       		.byte	0
 1515 01db 00       		.byte	0
 1516 01dc 23       		.uleb128 0x23
 1517 01dd 2E       		.uleb128 0x2e
 1518 01de 01       		.byte	0x1
 1519 01df 47       		.uleb128 0x47
 1520 01e0 13       		.uleb128 0x13
 1521 01e1 11       		.uleb128 0x11
 1522 01e2 01       		.uleb128 0x1
 1523 01e3 12       		.uleb128 0x12
 1524 01e4 01       		.uleb128 0x1
 1525 01e5 40       		.uleb128 0x40
 1526 01e6 0A       		.uleb128 0xa
 1527 01e7 64       		.uleb128 0x64
 1528 01e8 13       		.uleb128 0x13
 1529 01e9 9742     		.uleb128 0x2117
 1530 01eb 0C       		.uleb128 0xc
 1531 01ec 01       		.uleb128 0x1
ARM GAS  C:\Users\Vergil\AppData\Local\Temp\ccsfdjWl.s 			page 28


 1532 01ed 13       		.uleb128 0x13
 1533 01ee 00       		.byte	0
 1534 01ef 00       		.byte	0
 1535 01f0 24       		.uleb128 0x24
 1536 01f1 05       		.uleb128 0x5
 1537 01f2 00       		.byte	0
 1538 01f3 03       		.uleb128 0x3
 1539 01f4 0E       		.uleb128 0xe
 1540 01f5 49       		.uleb128 0x49
 1541 01f6 13       		.uleb128 0x13
 1542 01f7 34       		.uleb128 0x34
 1543 01f8 0C       		.uleb128 0xc
 1544 01f9 02       		.uleb128 0x2
 1545 01fa 06       		.uleb128 0x6
 1546 01fb 00       		.byte	0
 1547 01fc 00       		.byte	0
 1548 01fd 25       		.uleb128 0x25
 1549 01fe 05       		.uleb128 0x5
 1550 01ff 00       		.byte	0
 1551 0200 03       		.uleb128 0x3
 1552 0201 0E       		.uleb128 0xe
 1553 0202 3A       		.uleb128 0x3a
 1554 0203 0B       		.uleb128 0xb
 1555 0204 3B       		.uleb128 0x3b
 1556 0205 0B       		.uleb128 0xb
 1557 0206 49       		.uleb128 0x49
 1558 0207 13       		.uleb128 0x13
 1559 0208 02       		.uleb128 0x2
 1560 0209 0A       		.uleb128 0xa
 1561 020a 00       		.byte	0
 1562 020b 00       		.byte	0
 1563 020c 26       		.uleb128 0x26
 1564 020d 2E       		.uleb128 0x2e
 1565 020e 01       		.byte	0x1
 1566 020f 31       		.uleb128 0x31
 1567 0210 13       		.uleb128 0x13
 1568 0211 8740     		.uleb128 0x2007
 1569 0213 0E       		.uleb128 0xe
 1570 0214 11       		.uleb128 0x11
 1571 0215 01       		.uleb128 0x1
 1572 0216 12       		.uleb128 0x12
 1573 0217 01       		.uleb128 0x1
 1574 0218 40       		.uleb128 0x40
 1575 0219 0A       		.uleb128 0xa
 1576 021a 64       		.uleb128 0x64
 1577 021b 13       		.uleb128 0x13
 1578 021c 9742     		.uleb128 0x2117
 1579 021e 0C       		.uleb128 0xc
 1580 021f 01       		.uleb128 0x1
 1581 0220 13       		.uleb128 0x13
 1582 0221 00       		.byte	0
 1583 0222 00       		.byte	0
 1584 0223 27       		.uleb128 0x27
 1585 0224 05       		.uleb128 0x5
 1586 0225 00       		.byte	0
 1587 0226 31       		.uleb128 0x31
 1588 0227 13       		.uleb128 0x13
ARM GAS  C:\Users\Vergil\AppData\Local\Temp\ccsfdjWl.s 			page 29


 1589 0228 02       		.uleb128 0x2
 1590 0229 0A       		.uleb128 0xa
 1591 022a 00       		.byte	0
 1592 022b 00       		.byte	0
 1593 022c 28       		.uleb128 0x28
 1594 022d 34       		.uleb128 0x34
 1595 022e 00       		.byte	0
 1596 022f 03       		.uleb128 0x3
 1597 0230 0E       		.uleb128 0xe
 1598 0231 3A       		.uleb128 0x3a
 1599 0232 0B       		.uleb128 0xb
 1600 0233 3B       		.uleb128 0x3b
 1601 0234 05       		.uleb128 0x5
 1602 0235 49       		.uleb128 0x49
 1603 0236 13       		.uleb128 0x13
 1604 0237 3F       		.uleb128 0x3f
 1605 0238 0C       		.uleb128 0xc
 1606 0239 3C       		.uleb128 0x3c
 1607 023a 0C       		.uleb128 0xc
 1608 023b 00       		.byte	0
 1609 023c 00       		.byte	0
 1610 023d 00       		.byte	0
 1611              		.section	.debug_loc,"",%progbits
 1612              	.Ldebug_loc0:
 1613              	.LLST0:
 1614 0000 00000000 		.4byte	.LVL0
 1615 0004 02000000 		.4byte	.LVL1
 1616 0008 0100     		.2byte	0x1
 1617 000a 50       		.byte	0x50
 1618 000b 02000000 		.4byte	.LVL1
 1619 000f 04000000 		.4byte	.LFE129
 1620 0013 0400     		.2byte	0x4
 1621 0015 F3       		.byte	0xf3
 1622 0016 01       		.uleb128 0x1
 1623 0017 50       		.byte	0x50
 1624 0018 9F       		.byte	0x9f
 1625 0019 00000000 		.4byte	0
 1626 001d 00000000 		.4byte	0
 1627              	.LLST1:
 1628 0021 00000000 		.4byte	.LVL2
 1629 0025 02000000 		.4byte	.LVL3
 1630 0029 0100     		.2byte	0x1
 1631 002b 50       		.byte	0x50
 1632 002c 02000000 		.4byte	.LVL3
 1633 0030 04000000 		.4byte	.LFE130
 1634 0034 0400     		.2byte	0x4
 1635 0036 F3       		.byte	0xf3
 1636 0037 01       		.uleb128 0x1
 1637 0038 50       		.byte	0x50
 1638 0039 9F       		.byte	0x9f
 1639 003a 00000000 		.4byte	0
 1640 003e 00000000 		.4byte	0
 1641              	.LLST2:
 1642 0042 00000000 		.4byte	.LVL4
 1643 0046 02000000 		.4byte	.LVL5
 1644 004a 0100     		.2byte	0x1
 1645 004c 50       		.byte	0x50
ARM GAS  C:\Users\Vergil\AppData\Local\Temp\ccsfdjWl.s 			page 30


 1646 004d 02000000 		.4byte	.LVL5
 1647 0051 04000000 		.4byte	.LFE140
 1648 0055 0400     		.2byte	0x4
 1649 0057 F3       		.byte	0xf3
 1650 0058 01       		.uleb128 0x1
 1651 0059 50       		.byte	0x50
 1652 005a 9F       		.byte	0x9f
 1653 005b 00000000 		.4byte	0
 1654 005f 00000000 		.4byte	0
 1655              	.LLST3:
 1656 0063 00000000 		.4byte	.LVL6
 1657 0067 02000000 		.4byte	.LVL7
 1658 006b 0100     		.2byte	0x1
 1659 006d 50       		.byte	0x50
 1660 006e 02000000 		.4byte	.LVL7
 1661 0072 04000000 		.4byte	.LFE141
 1662 0076 0400     		.2byte	0x4
 1663 0078 F3       		.byte	0xf3
 1664 0079 01       		.uleb128 0x1
 1665 007a 50       		.byte	0x50
 1666 007b 9F       		.byte	0x9f
 1667 007c 00000000 		.4byte	0
 1668 0080 00000000 		.4byte	0
 1669              		.section	.debug_aranges,"",%progbits
 1670 0000 44000000 		.4byte	0x44
 1671 0004 0200     		.2byte	0x2
 1672 0006 00000000 		.4byte	.Ldebug_info0
 1673 000a 04       		.byte	0x4
 1674 000b 00       		.byte	0
 1675 000c 0000     		.2byte	0
 1676 000e 0000     		.2byte	0
 1677 0010 00000000 		.4byte	.LFB129
 1678 0014 04000000 		.4byte	.LFE129-.LFB129
 1679 0018 00000000 		.4byte	.LFB130
 1680 001c 04000000 		.4byte	.LFE130-.LFB130
 1681 0020 00000000 		.4byte	.LFB140
 1682 0024 04000000 		.4byte	.LFE140-.LFB140
 1683 0028 00000000 		.4byte	.LFB141
 1684 002c 04000000 		.4byte	.LFE141-.LFB141
 1685 0030 00000000 		.4byte	.LFB135
 1686 0034 0C000000 		.4byte	.LFE135-.LFB135
 1687 0038 00000000 		.4byte	.LFB138
 1688 003c 0C000000 		.4byte	.LFE138-.LFB138
 1689 0040 00000000 		.4byte	0
 1690 0044 00000000 		.4byte	0
 1691              		.section	.debug_ranges,"",%progbits
 1692              	.Ldebug_ranges0:
 1693 0000 00000000 		.4byte	.LFB129
 1694 0004 04000000 		.4byte	.LFE129
 1695 0008 00000000 		.4byte	.LFB130
 1696 000c 04000000 		.4byte	.LFE130
 1697 0010 00000000 		.4byte	.LFB140
 1698 0014 04000000 		.4byte	.LFE140
 1699 0018 00000000 		.4byte	.LFB141
 1700 001c 04000000 		.4byte	.LFE141
 1701 0020 00000000 		.4byte	.LFB135
 1702 0024 0C000000 		.4byte	.LFE135
ARM GAS  C:\Users\Vergil\AppData\Local\Temp\ccsfdjWl.s 			page 31


 1703 0028 00000000 		.4byte	.LFB138
 1704 002c 0C000000 		.4byte	.LFE138
 1705 0030 00000000 		.4byte	0
 1706 0034 00000000 		.4byte	0
 1707              		.section	.debug_line,"",%progbits
 1708              	.Ldebug_line0:
 1709 0000 77020000 		.section	.debug_str,"MS",%progbits,1
 1709      02000B02 
 1709      00000201 
 1709      FB0E0D00 
 1709      01010101 
 1710              	.LASF59:
 1711 0000 636C6F73 		.ascii	"close\000"
 1711      6500
 1712              	.LASF62:
 1713 0006 5F5A4E31 		.ascii	"_ZN14HttpConnection10getConTypeEv\000"
 1713      34487474 
 1713      70436F6E 
 1713      6E656374 
 1713      696F6E31 
 1714              	.LASF50:
 1715 0028 5F5A4E31 		.ascii	"_ZN14HttpConnection11isConnectedEv\000"
 1715      34487474 
 1715      70436F6E 
 1715      6E656374 
 1715      696F6E31 
 1716              	.LASF49:
 1717 004b 5F5A4E31 		.ascii	"_ZN14HttpConnection6isOpenEv\000"
 1717      34487474 
 1717      70436F6E 
 1717      6E656374 
 1717      696F6E36 
 1718              	.LASF29:
 1719 0068 69734368 		.ascii	"isChunked\000"
 1719      756E6B65 
 1719      6400
 1720              	.LASF45:
 1721 0072 5F69734F 		.ascii	"_isOpen\000"
 1721      70656E00 
 1722              	.LASF16:
 1723 007a 73686F72 		.ascii	"short int\000"
 1723      7420696E 
 1723      7400
 1724              	.LASF25:
 1725 0084 73697A65 		.ascii	"size_t\000"
 1725      5F7400
 1726              	.LASF22:
 1727 008b 73697A65 		.ascii	"sizetype\000"
 1727      74797065 
 1727      00
 1728              	.LASF3:
 1729 0094 48545450 		.ascii	"HTTP_SEND_ERROR\000"
 1729      5F53454E 
 1729      445F4552 
 1729      524F5200 
 1730              	.LASF38:
 1731 00a4 5F5A4E38 		.ascii	"_ZN8HttpData10sendHeaderEP14HttpConnection\000"
ARM GAS  C:\Users\Vergil\AppData\Local\Temp\ccsfdjWl.s 			page 32


 1731      48747470 
 1731      44617461 
 1731      31307365 
 1731      6E644865 
 1732              	.LASF48:
 1733 00cf 6973436F 		.ascii	"isConnected\000"
 1733      6E6E6563 
 1733      74656400 
 1734              	.LASF43:
 1735 00db 5F767074 		.ascii	"_vptr.HttpData\000"
 1735      722E4874 
 1735      74704461 
 1735      746100
 1736              	.LASF54:
 1737 00ea 5F5A4E31 		.ascii	"_ZN14HttpConnection4sendEPKcj\000"
 1737      34487474 
 1737      70436F6E 
 1737      6E656374 
 1737      696F6E34 
 1738              	.LASF28:
 1739 0108 626F6F6C 		.ascii	"bool\000"
 1739      00
 1740              	.LASF14:
 1741 010d 7369676E 		.ascii	"signed char\000"
 1741      65642063 
 1741      68617200 
 1742              	.LASF19:
 1743 0119 6C6F6E67 		.ascii	"long long int\000"
 1743      206C6F6E 
 1743      6720696E 
 1743      7400
 1744              	.LASF20:
 1745 0127 6C6F6E67 		.ascii	"long long unsigned int\000"
 1745      206C6F6E 
 1745      6720756E 
 1745      7369676E 
 1745      65642069 
 1746              	.LASF61:
 1747 013e 67657443 		.ascii	"getConType\000"
 1747      6F6E5479 
 1747      706500
 1748              	.LASF47:
 1749 0149 69734F70 		.ascii	"isOpen\000"
 1749      656E00
 1750              	.LASF21:
 1751 0150 6C6F6E67 		.ascii	"long int\000"
 1751      20696E74 
 1751      00
 1752              	.LASF64:
 1753 0159 5F5F696E 		.ascii	"__in_chrg\000"
 1753      5F636872 
 1753      6700
 1754              	.LASF60:
 1755 0163 5F5A4E31 		.ascii	"_ZN14HttpConnection5closeEv\000"
 1755      34487474 
 1755      70436F6E 
 1755      6E656374 
ARM GAS  C:\Users\Vergil\AppData\Local\Temp\ccsfdjWl.s 			page 33


 1755      696F6E35 
 1756              	.LASF66:
 1757 017f 5F5A4E31 		.ascii	"_ZN12HttpJsonDataC2Ev\000"
 1757      32487474 
 1757      704A736F 
 1757      6E446174 
 1757      61433245 
 1758              	.LASF13:
 1759 0195 48545450 		.ascii	"HTTP_STCP\000"
 1759      5F535443 
 1759      5000
 1760              	.LASF69:
 1761 019f 433A2F43 		.ascii	"C:/ChibiStudio/chibios/demos/ARMCM4-STM32F401RE-NUC"
 1761      68696269 
 1761      53747564 
 1761      696F2F63 
 1761      68696269 
 1762 01d2 4C454F2D 		.ascii	"LEO-CC3K/openweathermap/httpjsondata.cpp\000"
 1762      4343334B 
 1762      2F6F7065 
 1762      6E776561 
 1762      74686572 
 1763              	.LASF57:
 1764 01fb 72656164 		.ascii	"readLine\000"
 1764      4C696E65 
 1764      00
 1765              	.LASF39:
 1766 0204 68616E64 		.ascii	"handleData\000"
 1766      6C654461 
 1766      746100
 1767              	.LASF15:
 1768 020f 756E7369 		.ascii	"unsigned char\000"
 1768      676E6564 
 1768      20636861 
 1768      7200
 1769              	.LASF52:
 1770 021d 5F5A4E31 		.ascii	"_ZN14HttpConnection4openER20HttpConnectionParams\000"
 1770      34487474 
 1770      70436F6E 
 1770      6E656374 
 1770      696F6E34 
 1771              	.LASF36:
 1772 024e 73656E64 		.ascii	"sendHeader\000"
 1772      48656164 
 1772      657200
 1773              	.LASF34:
 1774 0259 7E487474 		.ascii	"~HttpJsonData\000"
 1774      704A736F 
 1774      6E446174 
 1774      6100
 1775              	.LASF42:
 1776 0267 48747470 		.ascii	"HttpConnection\000"
 1776      436F6E6E 
 1776      65637469 
 1776      6F6E00
 1777              	.LASF70:
 1778 0276 433A5C43 		.ascii	"C:\\ChibiStudio\\chibios\\demos\\ARMCM4-STM32F401RE"
ARM GAS  C:\Users\Vergil\AppData\Local\Temp\ccsfdjWl.s 			page 34


 1778      68696269 
 1778      53747564 
 1778      696F5C63 
 1778      68696269 
 1779 02a5 2D4E5543 		.ascii	"-NUCLEO-CC3K\000"
 1779      4C454F2D 
 1779      4343334B 
 1779      00
 1780              	.LASF58:
 1781 02b2 5F5A4E31 		.ascii	"_ZN14HttpConnection8readLineEPcj\000"
 1781      34487474 
 1781      70436F6E 
 1781      6E656374 
 1781      696F6E38 
 1782              	.LASF18:
 1783 02d3 756E7369 		.ascii	"unsigned int\000"
 1783      676E6564 
 1783      20696E74 
 1783      00
 1784              	.LASF33:
 1785 02e0 48747470 		.ascii	"HttpJsonData\000"
 1785      4A736F6E 
 1785      44617461 
 1785      00
 1786              	.LASF23:
 1787 02ed 6C6F6E67 		.ascii	"long unsigned int\000"
 1787      20756E73 
 1787      69676E65 
 1787      6420696E 
 1787      7400
 1788              	.LASF10:
 1789 02ff 48545450 		.ascii	"HTTP_TCP\000"
 1789      5F544350 
 1789      00
 1790              	.LASF46:
 1791 0308 5F697343 		.ascii	"_isConnected\000"
 1791      6F6E6E65 
 1791      63746564 
 1791      00
 1792              	.LASF35:
 1793 0315 48747470 		.ascii	"HttpData\000"
 1793      44617461 
 1793      00
 1794              	.LASF7:
 1795 031e 48545450 		.ascii	"HTTP_OK\000"
 1795      5F4F4B00 
 1796              	.LASF40:
 1797 0326 5F5A4E31 		.ascii	"_ZN12HttpJsonData10handleDataEP14HttpConnection\000"
 1797      32487474 
 1797      704A736F 
 1797      6E446174 
 1797      61313068 
 1798              	.LASF73:
 1799 0356 5F5A4E31 		.ascii	"_ZN14HttpConnection4sendEPKc\000"
 1799      34487474 
 1799      70436F6E 
 1799      6E656374 
ARM GAS  C:\Users\Vergil\AppData\Local\Temp\ccsfdjWl.s 			page 35


 1799      696F6E34 
 1800              	.LASF53:
 1801 0373 73656E64 		.ascii	"send\000"
 1801      00
 1802              	.LASF24:
 1803 0378 63686172 		.ascii	"char\000"
 1803      00
 1804              	.LASF67:
 1805 037d 5F5A4E31 		.ascii	"_ZN12HttpJsonDataD2Ev\000"
 1805      32487474 
 1805      704A736F 
 1805      6E446174 
 1805      61443245 
 1806              	.LASF26:
 1807 0393 696E7433 		.ascii	"int32_t\000"
 1807      325F7400 
 1808              	.LASF27:
 1809 039b 626F6F6C 		.ascii	"bool_t\000"
 1809      5F7400
 1810              	.LASF17:
 1811 03a2 73686F72 		.ascii	"short unsigned int\000"
 1811      7420756E 
 1811      7369676E 
 1811      65642069 
 1811      6E7400
 1812              	.LASF12:
 1813 03b5 48545450 		.ascii	"HTTP_FILE\000"
 1813      5F46494C 
 1813      4500
 1814              	.LASF44:
 1815 03bf 5F767074 		.ascii	"_vptr.HttpConnection\000"
 1815      722E4874 
 1815      7470436F 
 1815      6E6E6563 
 1815      74696F6E 
 1816              	.LASF9:
 1817 03d4 48545450 		.ascii	"HTTP_CONTYPE\000"
 1817      5F434F4E 
 1817      54595045 
 1817      00
 1818              	.LASF56:
 1819 03e1 5F5A4E31 		.ascii	"_ZN14HttpConnection4recvEPcjb\000"
 1819      34487474 
 1819      70436F6E 
 1819      6E656374 
 1819      696F6E34 
 1820              	.LASF2:
 1821 03ff 48545450 		.ascii	"HTTP_RECV_ERROR\000"
 1821      5F524543 
 1821      565F4552 
 1821      524F5200 
 1822              	.LASF1:
 1823 040f 48545450 		.ascii	"HTTP_RECV_BUFF_ERROR\000"
 1823      5F524543 
 1823      565F4255 
 1823      46465F45 
 1823      52524F52 
ARM GAS  C:\Users\Vergil\AppData\Local\Temp\ccsfdjWl.s 			page 36


 1824              	.LASF5:
 1825 0424 48545450 		.ascii	"HTTP_CONNECT_ERROR\000"
 1825      5F434F4E 
 1825      4E454354 
 1825      5F455252 
 1825      4F5200
 1826              	.LASF55:
 1827 0437 72656376 		.ascii	"recv\000"
 1827      00
 1828              	.LASF11:
 1829 043c 48545450 		.ascii	"HTTP_UDP\000"
 1829      5F554450 
 1829      00
 1830              	.LASF32:
 1831 0445 706F7274 		.ascii	"port\000"
 1831      00
 1832              	.LASF74:
 1833 044a 5F5F7674 		.ascii	"__vtbl_ptr_type\000"
 1833      626C5F70 
 1833      74725F74 
 1833      79706500 
 1834              	.LASF0:
 1835 045a 48545450 		.ascii	"HTTP_RECV_CHNK_ERROR\000"
 1835      5F524543 
 1835      565F4348 
 1835      4E4B5F45 
 1835      52524F52 
 1836              	.LASF68:
 1837 046f 474E5520 		.ascii	"GNU C++ 4.7.4 20140401 (release) [ARM/embedded-4_7-"
 1837      432B2B20 
 1837      342E372E 
 1837      34203230 
 1837      31343034 
 1838 04a2 6272616E 		.ascii	"branch revision 209195]\000"
 1838      63682072 
 1838      65766973 
 1838      696F6E20 
 1838      32303931 
 1839              	.LASF37:
 1840 04ba 5F5A4E31 		.ascii	"_ZN12HttpJsonData10sendHeaderEP14HttpConnection\000"
 1840      32487474 
 1840      704A736F 
 1840      6E446174 
 1840      61313073 
 1841              	.LASF31:
 1842 04ea 70617468 		.ascii	"path\000"
 1842      00
 1843              	.LASF4:
 1844 04ef 48545450 		.ascii	"HTTP_SENDHEADER_ERROR\000"
 1844      5F53454E 
 1844      44484541 
 1844      4445525F 
 1844      4552524F 
 1845              	.LASF51:
 1846 0505 6F70656E 		.ascii	"open\000"
 1846      00
 1847              	.LASF6:
ARM GAS  C:\Users\Vergil\AppData\Local\Temp\ccsfdjWl.s 			page 37


 1848 050a 48545450 		.ascii	"HTTP_PARSE_ERROR\000"
 1848      5F504152 
 1848      53455F45 
 1848      52524F52 
 1848      00
 1849              	.LASF72:
 1850 051b 7E487474 		.ascii	"~HttpConnection\000"
 1850      70436F6E 
 1850      6E656374 
 1850      696F6E00 
 1851              	.LASF71:
 1852 052b 48747470 		.ascii	"HttpConnectionParams\000"
 1852      436F6E6E 
 1852      65637469 
 1852      6F6E5061 
 1852      72616D73 
 1853              	.LASF8:
 1854 0540 48545450 		.ascii	"HTTP_RESULT\000"
 1854      5F524553 
 1854      554C5400 
 1855              	.LASF41:
 1856 054c 5F5A4E38 		.ascii	"_ZN8HttpData10handleDataEP14HttpConnection\000"
 1856      48747470 
 1856      44617461 
 1856      31306861 
 1856      6E646C65 
 1857              	.LASF75:
 1858 0577 49544D5F 		.ascii	"ITM_RxBuffer\000"
 1858      52784275 
 1858      66666572 
 1858      00
 1859              	.LASF30:
 1860 0584 686F7374 		.ascii	"host\000"
 1860      00
 1861              	.LASF63:
 1862 0589 74686973 		.ascii	"this\000"
 1862      00
 1863              	.LASF65:
 1864 058e 636F6E6E 		.ascii	"connection\000"
 1864      65637469 
 1864      6F6E00
 1865              		.ident	"GCC: (GNU Tools for ARM Embedded Processors) 4.7.4 20140401 (release) [ARM/embedded-4_7-br
ARM GAS  C:\Users\Vergil\AppData\Local\Temp\ccsfdjWl.s 			page 38


DEFINED SYMBOLS
                            *ABS*:00000000 httpjsondata.cpp
C:\Users\Vergil\AppData\Local\Temp\ccsfdjWl.s:21     .text._ZN8HttpData10sendHeaderEP14HttpConnection:00000000 $t
C:\Users\Vergil\AppData\Local\Temp\ccsfdjWl.s:27     .text._ZN8HttpData10sendHeaderEP14HttpConnection:00000000 _ZN8HttpData10sendHeaderEP14HttpConnection
C:\Users\Vergil\AppData\Local\Temp\ccsfdjWl.s:44     .text._ZN8HttpData10handleDataEP14HttpConnection:00000000 $t
C:\Users\Vergil\AppData\Local\Temp\ccsfdjWl.s:50     .text._ZN8HttpData10handleDataEP14HttpConnection:00000000 _ZN8HttpData10handleDataEP14HttpConnection
C:\Users\Vergil\AppData\Local\Temp\ccsfdjWl.s:66     .text._ZN12HttpJsonData10sendHeaderEP14HttpConnection:00000000 $t
C:\Users\Vergil\AppData\Local\Temp\ccsfdjWl.s:72     .text._ZN12HttpJsonData10sendHeaderEP14HttpConnection:00000000 _ZN12HttpJsonData10sendHeaderEP14HttpConnection
C:\Users\Vergil\AppData\Local\Temp\ccsfdjWl.s:89     .text._ZN12HttpJsonData10handleDataEP14HttpConnection:00000000 $t
C:\Users\Vergil\AppData\Local\Temp\ccsfdjWl.s:95     .text._ZN12HttpJsonData10handleDataEP14HttpConnection:00000000 _ZN12HttpJsonData10handleDataEP14HttpConnection
C:\Users\Vergil\AppData\Local\Temp\ccsfdjWl.s:111    .text._ZN12HttpJsonDataC2Ev:00000000 $t
C:\Users\Vergil\AppData\Local\Temp\ccsfdjWl.s:117    .text._ZN12HttpJsonDataC2Ev:00000000 _ZN12HttpJsonDataC2Ev
C:\Users\Vergil\AppData\Local\Temp\ccsfdjWl.s:135    .text._ZN12HttpJsonDataC2Ev:00000008 $d
C:\Users\Vergil\AppData\Local\Temp\ccsfdjWl.s:117    .text._ZN12HttpJsonDataC2Ev:00000000 _ZN12HttpJsonDataC1Ev
C:\Users\Vergil\AppData\Local\Temp\ccsfdjWl.s:142    .text._ZN12HttpJsonDataD2Ev:00000000 $t
C:\Users\Vergil\AppData\Local\Temp\ccsfdjWl.s:148    .text._ZN12HttpJsonDataD2Ev:00000000 _ZN12HttpJsonDataD2Ev
C:\Users\Vergil\AppData\Local\Temp\ccsfdjWl.s:166    .text._ZN12HttpJsonDataD2Ev:00000008 $d
C:\Users\Vergil\AppData\Local\Temp\ccsfdjWl.s:148    .text._ZN12HttpJsonDataD2Ev:00000000 _ZN12HttpJsonDataD1Ev
C:\Users\Vergil\AppData\Local\Temp\ccsfdjWl.s:188    .rodata._ZTV12HttpJsonData:00000000 _ZTV12HttpJsonData
C:\Users\Vergil\AppData\Local\Temp\ccsfdjWl.s:178    .rodata._ZTV8HttpData:00000000 _ZTV8HttpData
C:\Users\Vergil\AppData\Local\Temp\ccsfdjWl.s:175    .rodata._ZTV8HttpData:00000000 $d
C:\Users\Vergil\AppData\Local\Temp\ccsfdjWl.s:184    .rodata._ZTV12HttpJsonData:00000000 $d
                     .debug_frame:00000010 $d
C:\Users\Vergil\AppData\Local\Temp\ccsfdjWl.s:141    .text._ZN12HttpJsonDataC2Ev:0000000c $t
C:\Users\Vergil\AppData\Local\Temp\ccsfdjWl.s:174    .text._ZN12HttpJsonDataD2Ev:0000000c $t

NO UNDEFINED SYMBOLS
