ARM GAS  C:\Users\Vergil\AppData\Local\Temp\cclQdeJf.s 			page 1


   1              		.syntax unified
   2              		.cpu cortex-m4
   3              		.eabi_attribute 27, 3
   4              		.eabi_attribute 28, 1
   5              		.fpu fpv4-sp-d16
   6              		.eabi_attribute 20, 1
   7              		.eabi_attribute 21, 1
   8              		.eabi_attribute 23, 3
   9              		.eabi_attribute 24, 1
  10              		.eabi_attribute 25, 1
  11              		.eabi_attribute 26, 1
  12              		.eabi_attribute 30, 2
  13              		.eabi_attribute 34, 1
  14              		.eabi_attribute 18, 4
  15              		.thumb
  16              		.file	"i2c.c"
  17              		.text
  18              	.Ltext0:
  19              		.cfi_sections	.debug_frame
  20              		.section	.text.i2cInit,"ax",%progbits
  21              		.align	2
  22              		.p2align 4,,15
  23              		.global	i2cInit
  24              		.thumb
  25              		.thumb_func
  26              		.type	i2cInit, %function
  27              	i2cInit:
  28              	.LFB118:
  29              		.file 1 "../../os/hal/src/i2c.c"
  30              		.loc 1 71 0
  31              		.cfi_startproc
  32              		@ args = 0, pretend = 0, frame = 0
  33              		@ frame_needed = 0, uses_anonymous_args = 0
  34              		@ link register save eliminated.
  35              		.loc 1 73 0
  36              		.loc 1 72 0
  37 0000 FFF7FEBF 		b	i2c_lld_init
  38              	.LVL0:
  39              		.cfi_endproc
  40              	.LFE118:
  41              		.size	i2cInit, .-i2cInit
  42 0004 AFF30080 		.section	.text.i2cObjectInit,"ax",%progbits
  42      AFF30080 
  42      AFF30080 
  43              		.align	2
  44              		.p2align 4,,15
  45              		.global	i2cObjectInit
  46              		.thumb
  47              		.thumb_func
  48              		.type	i2cObjectInit, %function
  49              	i2cObjectInit:
  50              	.LFB119:
  51              		.loc 1 82 0
  52              		.cfi_startproc
  53              		@ args = 0, pretend = 0, frame = 0
  54              		@ frame_needed = 0, uses_anonymous_args = 0
  55              		@ link register save eliminated.
ARM GAS  C:\Users\Vergil\AppData\Local\Temp\cclQdeJf.s 			page 2


  56              	.LVL1:
  57              		.loc 1 84 0
  58 0000 0123     		movs	r3, #1
  59              		.loc 1 85 0
  60 0002 0021     		movs	r1, #0
  61              		.loc 1 84 0
  62 0004 0370     		strb	r3, [r0, #0]
  63              		.loc 1 85 0
  64 0006 4160     		str	r1, [r0, #4]
  65              		.loc 1 89 0
  66 0008 0C30     		adds	r0, r0, #12
  67              	.LVL2:
  68              		.loc 1 98 0
  69              		.loc 1 89 0
  70 000a FFF7FEBF 		b	chMtxInit
  71              	.LVL3:
  72              		.cfi_endproc
  73              	.LFE119:
  74              		.size	i2cObjectInit, .-i2cObjectInit
  75 000e 00BF     		.section	.text.i2cStart,"ax",%progbits
  76              		.align	2
  77              		.p2align 4,,15
  78              		.global	i2cStart
  79              		.thumb
  80              		.thumb_func
  81              		.type	i2cStart, %function
  82              	i2cStart:
  83              	.LFB120:
  84              		.loc 1 108 0
  85              		.cfi_startproc
  86              		@ args = 0, pretend = 0, frame = 0
  87              		@ frame_needed = 0, uses_anonymous_args = 0
  88              	.LVL4:
  89 0000 10B5     		push	{r4, lr}
  90              	.LCFI0:
  91              		.cfi_def_cfa_offset 8
  92              		.cfi_offset 4, -8
  93              		.cfi_offset 14, -4
  94              	.LBB2:
  95              		.loc 1 116 0
  96 0002 2023     		movs	r3, #32
  97              	.LVL5:
  98              	.LBE2:
  99              		.loc 1 108 0
 100 0004 0446     		mov	r4, r0
 101              	.LBB3:
 102              		.loc 1 116 0
 103              	@ 116 "../../os/hal/src/i2c.c" 1
 104 0006 83F31188 		msr     BASEPRI, r3
 105              	@ 0 "" 2
 106              	.LVL6:
 107              		.thumb
 108              	.LBE3:
 109              		.loc 1 117 0
 110 000a 4160     		str	r1, [r0, #4]
 111              		.loc 1 118 0
 112 000c FFF7FEFF 		bl	i2c_lld_start
ARM GAS  C:\Users\Vergil\AppData\Local\Temp\cclQdeJf.s 			page 3


 113              	.LVL7:
 114              		.loc 1 119 0
 115 0010 0223     		movs	r3, #2
 116 0012 2370     		strb	r3, [r4, #0]
 117              	.LBB4:
 118              		.loc 1 120 0
 119 0014 0023     		movs	r3, #0
 120              	.LVL8:
 121              	@ 120 "../../os/hal/src/i2c.c" 1
 122 0016 83F31188 		msr     BASEPRI, r3
 123              	@ 0 "" 2
 124              	.LVL9:
 125              		.thumb
 126 001a 10BD     		pop	{r4, pc}
 127              	.LBE4:
 128              		.cfi_endproc
 129              	.LFE120:
 130              		.size	i2cStart, .-i2cStart
 131 001c AFF30080 		.section	.text.i2cStop,"ax",%progbits
 132              		.align	2
 133              		.p2align 4,,15
 134              		.global	i2cStop
 135              		.thumb
 136              		.thumb_func
 137              		.type	i2cStop, %function
 138              	i2cStop:
 139              	.LFB121:
 140              		.loc 1 130 0
 141              		.cfi_startproc
 142              		@ args = 0, pretend = 0, frame = 0
 143              		@ frame_needed = 0, uses_anonymous_args = 0
 144              	.LVL10:
 145 0000 10B5     		push	{r4, lr}
 146              	.LCFI1:
 147              		.cfi_def_cfa_offset 8
 148              		.cfi_offset 4, -8
 149              		.cfi_offset 14, -4
 150              	.LBB5:
 151              		.loc 1 138 0
 152 0002 2023     		movs	r3, #32
 153              	.LVL11:
 154              	.LBE5:
 155              		.loc 1 130 0
 156 0004 0446     		mov	r4, r0
 157              	.LBB6:
 158              		.loc 1 138 0
 159              	@ 138 "../../os/hal/src/i2c.c" 1
 160 0006 83F31188 		msr     BASEPRI, r3
 161              	@ 0 "" 2
 162              	.LVL12:
 163              		.thumb
 164              	.LBE6:
 165              		.loc 1 139 0
 166 000a FFF7FEFF 		bl	i2c_lld_stop
 167              	.LVL13:
 168              		.loc 1 140 0
 169 000e 0123     		movs	r3, #1
ARM GAS  C:\Users\Vergil\AppData\Local\Temp\cclQdeJf.s 			page 4


 170 0010 2370     		strb	r3, [r4, #0]
 171              	.LBB7:
 172              		.loc 1 141 0
 173 0012 0023     		movs	r3, #0
 174              	.LVL14:
 175              	@ 141 "../../os/hal/src/i2c.c" 1
 176 0014 83F31188 		msr     BASEPRI, r3
 177              	@ 0 "" 2
 178              	.LVL15:
 179              		.thumb
 180 0018 10BD     		pop	{r4, pc}
 181              	.LBE7:
 182              		.cfi_endproc
 183              	.LFE121:
 184              		.size	i2cStop, .-i2cStop
 185 001a 00BFAFF3 		.section	.text.i2cGetErrors,"ax",%progbits
 185      0080
 186              		.align	2
 187              		.p2align 4,,15
 188              		.global	i2cGetErrors
 189              		.thumb
 190              		.thumb_func
 191              		.type	i2cGetErrors, %function
 192              	i2cGetErrors:
 193              	.LFB122:
 194              		.loc 1 152 0
 195              		.cfi_startproc
 196              		@ args = 0, pretend = 0, frame = 0
 197              		@ frame_needed = 0, uses_anonymous_args = 0
 198              		@ link register save eliminated.
 199              	.LVL16:
 200              		.loc 1 157 0
 201 0000 8068     		ldr	r0, [r0, #8]
 202              	.LVL17:
 203 0002 7047     		bx	lr
 204              		.cfi_endproc
 205              	.LFE122:
 206              		.size	i2cGetErrors, .-i2cGetErrors
 207 0004 AFF30080 		.section	.text.i2cMasterTransmitTimeout,"ax",%progbits
 207      AFF30080 
 207      AFF30080 
 208              		.align	2
 209              		.p2align 4,,15
 210              		.global	i2cMasterTransmitTimeout
 211              		.thumb
 212              		.thumb_func
 213              		.type	i2cMasterTransmitTimeout, %function
 214              	i2cMasterTransmitTimeout:
 215              	.LFB123:
 216              		.loc 1 191 0
 217              		.cfi_startproc
 218              		@ args = 12, pretend = 0, frame = 0
 219              		@ frame_needed = 0, uses_anonymous_args = 0
 220              	.LVL18:
 221 0000 70B5     		push	{r4, r5, r6, lr}
 222              	.LCFI2:
 223              		.cfi_def_cfa_offset 16
ARM GAS  C:\Users\Vergil\AppData\Local\Temp\cclQdeJf.s 			page 5


 224              		.cfi_offset 4, -16
 225              		.cfi_offset 5, -12
 226              		.cfi_offset 6, -8
 227              		.cfi_offset 14, -4
 228 0002 1E46     		mov	r6, r3
 229 0004 84B0     		sub	sp, sp, #16
 230              	.LCFI3:
 231              		.cfi_def_cfa_offset 32
 232              		.loc 1 191 0
 233 0006 0446     		mov	r4, r0
 234              	.LBB8:
 235              		.loc 1 203 0
 236 0008 2023     		movs	r3, #32
 237              	.LVL19:
 238              	@ 203 "../../os/hal/src/i2c.c" 1
 239 000a 83F31188 		msr     BASEPRI, r3
 240              	@ 0 "" 2
 241              	.LVL20:
 242              		.thumb
 243              	.LBE8:
 244              		.loc 1 205 0
 245 000e 0325     		movs	r5, #3
 246 0010 0570     		strb	r5, [r0, #0]
 247              		.loc 1 206 0
 248 0012 099D     		ldr	r5, [sp, #36]
 249              		.loc 1 204 0
 250 0014 0023     		movs	r3, #0
 251              	.LVL21:
 252 0016 8360     		str	r3, [r0, #8]
 253              		.loc 1 206 0
 254 0018 089B     		ldr	r3, [sp, #32]
 255 001a 0195     		str	r5, [sp, #4]
 256 001c 0A9D     		ldr	r5, [sp, #40]
 257 001e 0093     		str	r3, [sp, #0]
 258 0020 0295     		str	r5, [sp, #8]
 259 0022 3346     		mov	r3, r6
 260 0024 FFF7FEFF 		bl	i2c_lld_master_transmit_timeout
 261              	.LVL22:
 262              		.loc 1 208 0
 263 0028 431C     		adds	r3, r0, #1
 264 002a 06D0     		beq	.L10
 265              		.loc 1 211 0
 266 002c 0221     		movs	r1, #2
 267 002e 2170     		strb	r1, [r4, #0]
 268              	.L8:
 269              	.LBB9:
 270              		.loc 1 212 0
 271 0030 0023     		movs	r3, #0
 272              	.LVL23:
 273              	@ 212 "../../os/hal/src/i2c.c" 1
 274 0032 83F31188 		msr     BASEPRI, r3
 275              	@ 0 "" 2
 276              	.LVL24:
 277              		.thumb
 278              	.LBE9:
 279              		.loc 1 214 0
 280 0036 04B0     		add	sp, sp, #16
ARM GAS  C:\Users\Vergil\AppData\Local\Temp\cclQdeJf.s 			page 6


 281 0038 70BD     		pop	{r4, r5, r6, pc}
 282              	.LVL25:
 283              	.L10:
 284              		.loc 1 209 0
 285 003a 0522     		movs	r2, #5
 286 003c 2270     		strb	r2, [r4, #0]
 287 003e F7E7     		b	.L8
 288              		.cfi_endproc
 289              	.LFE123:
 290              		.size	i2cMasterTransmitTimeout, .-i2cMasterTransmitTimeout
 291              		.section	.text.i2cMasterReceiveTimeout,"ax",%progbits
 292              		.align	2
 293              		.p2align 4,,15
 294              		.global	i2cMasterReceiveTimeout
 295              		.thumb
 296              		.thumb_func
 297              		.type	i2cMasterReceiveTimeout, %function
 298              	i2cMasterReceiveTimeout:
 299              	.LFB124:
 300              		.loc 1 240 0
 301              		.cfi_startproc
 302              		@ args = 4, pretend = 0, frame = 0
 303              		@ frame_needed = 0, uses_anonymous_args = 0
 304              	.LVL26:
 305 0000 70B5     		push	{r4, r5, r6, lr}
 306              	.LCFI4:
 307              		.cfi_def_cfa_offset 16
 308              		.cfi_offset 4, -16
 309              		.cfi_offset 5, -12
 310              		.cfi_offset 6, -8
 311              		.cfi_offset 14, -4
 312 0002 1E46     		mov	r6, r3
 313 0004 82B0     		sub	sp, sp, #8
 314              	.LCFI5:
 315              		.cfi_def_cfa_offset 24
 316              		.loc 1 240 0
 317 0006 0446     		mov	r4, r0
 318              	.LBB10:
 319              		.loc 1 252 0
 320 0008 2023     		movs	r3, #32
 321              	.LVL27:
 322              	@ 252 "../../os/hal/src/i2c.c" 1
 323 000a 83F31188 		msr     BASEPRI, r3
 324              	@ 0 "" 2
 325              	.LVL28:
 326              		.thumb
 327              	.LBE10:
 328              		.loc 1 254 0
 329 000e 0425     		movs	r5, #4
 330 0010 0570     		strb	r5, [r0, #0]
 331              		.loc 1 255 0
 332 0012 069D     		ldr	r5, [sp, #24]
 333              		.loc 1 253 0
 334 0014 0023     		movs	r3, #0
 335              	.LVL29:
 336 0016 8360     		str	r3, [r0, #8]
 337              		.loc 1 255 0
ARM GAS  C:\Users\Vergil\AppData\Local\Temp\cclQdeJf.s 			page 7


 338 0018 3346     		mov	r3, r6
 339 001a 0095     		str	r5, [sp, #0]
 340 001c FFF7FEFF 		bl	i2c_lld_master_receive_timeout
 341              	.LVL30:
 342              		.loc 1 256 0
 343 0020 431C     		adds	r3, r0, #1
 344 0022 06D0     		beq	.L14
 345              		.loc 1 259 0
 346 0024 0221     		movs	r1, #2
 347 0026 2170     		strb	r1, [r4, #0]
 348              	.L13:
 349              	.LBB11:
 350              		.loc 1 260 0
 351 0028 0023     		movs	r3, #0
 352              	.LVL31:
 353              	@ 260 "../../os/hal/src/i2c.c" 1
 354 002a 83F31188 		msr     BASEPRI, r3
 355              	@ 0 "" 2
 356              	.LVL32:
 357              		.thumb
 358              	.LBE11:
 359              		.loc 1 262 0
 360 002e 02B0     		add	sp, sp, #8
 361 0030 70BD     		pop	{r4, r5, r6, pc}
 362              	.LVL33:
 363              	.L14:
 364              		.loc 1 257 0
 365 0032 0522     		movs	r2, #5
 366 0034 2270     		strb	r2, [r4, #0]
 367 0036 F7E7     		b	.L13
 368              		.cfi_endproc
 369              	.LFE124:
 370              		.size	i2cMasterReceiveTimeout, .-i2cMasterReceiveTimeout
 371 0038 AFF30080 		.section	.text.i2cAcquireBus,"ax",%progbits
 371      AFF30080 
 372              		.align	2
 373              		.p2align 4,,15
 374              		.global	i2cAcquireBus
 375              		.thumb
 376              		.thumb_func
 377              		.type	i2cAcquireBus, %function
 378              	i2cAcquireBus:
 379              	.LFB125:
 380              		.loc 1 276 0
 381              		.cfi_startproc
 382              		@ args = 0, pretend = 0, frame = 0
 383              		@ frame_needed = 0, uses_anonymous_args = 0
 384              		@ link register save eliminated.
 385              	.LVL34:
 386              		.loc 1 281 0
 387 0000 0C30     		adds	r0, r0, #12
 388              	.LVL35:
 389              		.loc 1 285 0
 390              		.loc 1 281 0
 391 0002 FFF7FEBF 		b	chMtxLock
 392              	.LVL36:
 393              		.cfi_endproc
ARM GAS  C:\Users\Vergil\AppData\Local\Temp\cclQdeJf.s 			page 8


 394              	.LFE125:
 395              		.size	i2cAcquireBus, .-i2cAcquireBus
 396 0006 00BFAFF3 		.section	.text.i2cReleaseBus,"ax",%progbits
 396      0080AFF3 
 396      0080
 397              		.align	2
 398              		.p2align 4,,15
 399              		.global	i2cReleaseBus
 400              		.thumb
 401              		.thumb_func
 402              		.type	i2cReleaseBus, %function
 403              	i2cReleaseBus:
 404              	.LFB126:
 405              		.loc 1 296 0
 406              		.cfi_startproc
 407              		@ args = 0, pretend = 0, frame = 0
 408              		@ frame_needed = 0, uses_anonymous_args = 0
 409              		@ link register save eliminated.
 410              	.LVL37:
 411              		.loc 1 305 0
 412              		.loc 1 301 0
 413 0000 FFF7FEBF 		b	chMtxUnlock
 414              	.LVL38:
 415              		.cfi_endproc
 416              	.LFE126:
 417              		.size	i2cReleaseBus, .-i2cReleaseBus
 418 0004 AFF30080 		.text
 418      AFF30080 
 418      AFF30080 
 419              	.Letext0:
 420              		.file 2 "c:\\chibistudio\\tools\\gnu tools arm embedded\\4.7 2014q2\\bin\\../lib/gcc/arm-none-eabi
 421              		.file 3 "c:\\chibistudio\\tools\\gnu tools arm embedded\\4.7 2014q2\\bin\\../lib/gcc/arm-none-eabi
 422              		.file 4 "../../os/ports/GCC/ARMCMx/chtypes.h"
 423              		.file 5 "../../os/kernel/include/chlists.h"
 424              		.file 6 "../../os/kernel/include/chthreads.h"
 425              		.file 7 "../../os/ports/GCC/ARMCMx/chcore_v7m.h"
 426              		.file 8 "../../os/kernel/include/chmtx.h"
 427              		.file 9 "../../os/hal/platforms/STM32F4xx/stm32f4xx.h"
 428              		.file 10 "../../os/hal/platforms/STM32F4xx/stm32_dma.h"
 429              		.file 11 "../../os/hal/include/i2c.h"
 430              		.file 12 "../../os/hal/platforms/STM32/I2Cv1/i2c_lld.h"
 431              		.file 13 "../../os/ports/common/ARMCMx/CMSIS/include/core_cm4.h"