ARM GAS  C:\Users\Vergil\AppData\Local\Temp\ccwNg35D.s 			page 1


   1              		.syntax unified
   2              		.cpu cortex-m4
   3              		.eabi_attribute 27, 3
   4              		.eabi_attribute 28, 1
   5              		.fpu fpv4-sp-d16
   6              		.eabi_attribute 20, 1
   7              		.eabi_attribute 21, 1
   8              		.eabi_attribute 23, 3
   9              		.eabi_attribute 24, 1
  10              		.eabi_attribute 25, 1
  11              		.eabi_attribute 26, 1
  12              		.eabi_attribute 30, 2
  13              		.eabi_attribute 34, 1
  14              		.eabi_attribute 18, 4
  15              		.thumb
  16              		.file	"mmc_spi.c"
  17              		.text
  18              	.Ltext0:
  19              		.cfi_sections	.debug_frame
  20              		.section	.text.mmcGetInfo,"ax",%progbits
  21              		.align	2
  22              		.p2align 4,,15
  23              		.global	mmcGetInfo
  24              		.thumb
  25              		.thumb_func
  26              		.type	mmcGetInfo, %function
  27              	mmcGetInfo:
  28              	.LFB142:
  29              		.file 1 "../../os/hal/src/mmc_spi.c"
  30              		.loc 1 876 0
  31              		.cfi_startproc
  32              		@ args = 0, pretend = 0, frame = 0
  33              		@ frame_needed = 0, uses_anonymous_args = 0
  34              		@ link register save eliminated.
  35              	.LVL0:
  36              		.loc 1 880 0
  37 0000 0379     		ldrb	r3, [r0, #4]	@ zero_extendqisi2
  38 0002 052B     		cmp	r3, #5
  39 0004 01D0     		beq	.L5
  40              		.loc 1 881 0
  41 0006 0120     		movs	r0, #1
  42              	.LVL1:
  43              		.loc 1 887 0
  44 0008 7047     		bx	lr
  45              	.LVL2:
  46              	.L5:
  47              		.loc 1 883 0
  48 000a 806A     		ldr	r0, [r0, #40]
  49              	.LVL3:
  50              		.loc 1 884 0
  51 000c 4FF40072 		mov	r2, #512
  52              		.loc 1 883 0
  53 0010 4860     		str	r0, [r1, #4]
  54              		.loc 1 884 0
  55 0012 0A60     		str	r2, [r1, #0]
  56              		.loc 1 886 0
  57 0014 0020     		movs	r0, #0
ARM GAS  C:\Users\Vergil\AppData\Local\Temp\ccwNg35D.s 			page 2


  58 0016 7047     		bx	lr
  59              		.cfi_endproc
  60              	.LFE142:
  61              		.size	mmcGetInfo, .-mmcGetInfo
  62 0018 AFF30080 		.section	.text.recvr1,"ax",%progbits
  62      AFF30080 
  63              		.align	2
  64              		.p2align 4,,15
  65              		.thumb
  66              		.thumb_func
  67              		.type	recvr1, %function
  68              	recvr1:
  69              	.LFB123:
  70              		.loc 1 220 0
  71              		.cfi_startproc
  72              		@ args = 0, pretend = 0, frame = 8
  73              		@ frame_needed = 0, uses_anonymous_args = 0
  74              	.LVL4:
  75 0000 10B5     		push	{r4, lr}
  76              	.LCFI0:
  77              		.cfi_def_cfa_offset 8
  78              		.cfi_offset 4, -8
  79              		.cfi_offset 14, -4
  80              		.loc 1 225 0
  81 0002 C36A     		ldr	r3, [r0, #44]
  82              		.loc 1 220 0
  83 0004 82B0     		sub	sp, sp, #8
  84              	.LCFI1:
  85              		.cfi_def_cfa_offset 16
  86              		.loc 1 225 0
  87 0006 0121     		movs	r1, #1
  88              		.loc 1 220 0
  89 0008 0446     		mov	r4, r0
  90              		.loc 1 225 0
  91 000a 01AA     		add	r2, sp, #4
  92 000c 1868     		ldr	r0, [r3, #0]
  93              	.LVL5:
  94 000e FFF7FEFF 		bl	spiReceive
  95              	.LVL6:
  96              		.loc 1 226 0
  97 0012 9DF80400 		ldrb	r0, [sp, #4]	@ zero_extendqisi2
  98 0016 FF28     		cmp	r0, #255
  99 0018 4DD1     		bne	.L8
 100              	.LVL7:
 101              		.loc 1 225 0
 102 001a E06A     		ldr	r0, [r4, #44]
 103 001c 0121     		movs	r1, #1
 104 001e 0068     		ldr	r0, [r0, #0]
 105 0020 01AA     		add	r2, sp, #4
 106 0022 FFF7FEFF 		bl	spiReceive
 107              	.LVL8:
 108              		.loc 1 226 0
 109 0026 9DF80400 		ldrb	r0, [sp, #4]	@ zero_extendqisi2
 110 002a FF28     		cmp	r0, #255
 111 002c 43D1     		bne	.L8
 112              	.LVL9:
 113              		.loc 1 225 0
ARM GAS  C:\Users\Vergil\AppData\Local\Temp\ccwNg35D.s 			page 3


 114 002e E26A     		ldr	r2, [r4, #44]
 115 0030 0121     		movs	r1, #1
 116 0032 1068     		ldr	r0, [r2, #0]
 117 0034 01AA     		add	r2, sp, #4
 118 0036 FFF7FEFF 		bl	spiReceive
 119              	.LVL10:
 120              		.loc 1 226 0
 121 003a 9DF80400 		ldrb	r0, [sp, #4]	@ zero_extendqisi2
 122 003e FF28     		cmp	r0, #255
 123 0040 39D1     		bne	.L8
 124              	.LVL11:
 125              		.loc 1 225 0
 126 0042 E36A     		ldr	r3, [r4, #44]
 127 0044 0121     		movs	r1, #1
 128 0046 1868     		ldr	r0, [r3, #0]
 129 0048 01AA     		add	r2, sp, #4
 130 004a FFF7FEFF 		bl	spiReceive
 131              	.LVL12:
 132              		.loc 1 226 0
 133 004e 9DF80400 		ldrb	r0, [sp, #4]	@ zero_extendqisi2
 134 0052 FF28     		cmp	r0, #255
 135 0054 2FD1     		bne	.L8
 136              	.LVL13:
 137              		.loc 1 225 0
 138 0056 E06A     		ldr	r0, [r4, #44]
 139 0058 0121     		movs	r1, #1
 140 005a 0068     		ldr	r0, [r0, #0]
 141 005c 01AA     		add	r2, sp, #4
 142 005e FFF7FEFF 		bl	spiReceive
 143              	.LVL14:
 144              		.loc 1 226 0
 145 0062 9DF80400 		ldrb	r0, [sp, #4]	@ zero_extendqisi2
 146 0066 FF28     		cmp	r0, #255
 147 0068 25D1     		bne	.L8
 148              	.LVL15:
 149              		.loc 1 225 0
 150 006a E26A     		ldr	r2, [r4, #44]
 151 006c 0121     		movs	r1, #1
 152 006e 1068     		ldr	r0, [r2, #0]
 153 0070 01AA     		add	r2, sp, #4
 154 0072 FFF7FEFF 		bl	spiReceive
 155              	.LVL16:
 156              		.loc 1 226 0
 157 0076 9DF80400 		ldrb	r0, [sp, #4]	@ zero_extendqisi2
 158 007a FF28     		cmp	r0, #255
 159 007c 1BD1     		bne	.L8
 160              	.LVL17:
 161              		.loc 1 225 0
 162 007e E36A     		ldr	r3, [r4, #44]
 163 0080 0121     		movs	r1, #1
 164 0082 1868     		ldr	r0, [r3, #0]
 165 0084 01AA     		add	r2, sp, #4
 166 0086 FFF7FEFF 		bl	spiReceive
 167              	.LVL18:
 168              		.loc 1 226 0
 169 008a 9DF80400 		ldrb	r0, [sp, #4]	@ zero_extendqisi2
 170 008e FF28     		cmp	r0, #255
ARM GAS  C:\Users\Vergil\AppData\Local\Temp\ccwNg35D.s 			page 4


 171 0090 11D1     		bne	.L8
 172              	.LVL19:
 173              		.loc 1 225 0
 174 0092 E06A     		ldr	r0, [r4, #44]
 175 0094 0121     		movs	r1, #1
 176 0096 0068     		ldr	r0, [r0, #0]
 177 0098 01AA     		add	r2, sp, #4
 178 009a FFF7FEFF 		bl	spiReceive
 179              	.LVL20:
 180              		.loc 1 226 0
 181 009e 9DF80400 		ldrb	r0, [sp, #4]	@ zero_extendqisi2
 182 00a2 FF28     		cmp	r0, #255
 183 00a4 07D1     		bne	.L8
 184              	.LVL21:
 185              		.loc 1 225 0
 186 00a6 E26A     		ldr	r2, [r4, #44]
 187 00a8 0121     		movs	r1, #1
 188 00aa 1068     		ldr	r0, [r2, #0]
 189 00ac 01AA     		add	r2, sp, #4
 190 00ae FFF7FEFF 		bl	spiReceive
 191              	.LVL22:
 192              		.loc 1 226 0
 193 00b2 9DF80400 		ldrb	r0, [sp, #4]	@ zero_extendqisi2
 194              	.LVL23:
 195              	.L8:
 196              		.loc 1 230 0
 197 00b6 02B0     		add	sp, sp, #8
 198 00b8 10BD     		pop	{r4, pc}
 199              		.cfi_endproc
 200              	.LFE123:
 201              		.size	recvr1, .-recvr1
 202 00ba 00BFAFF3 		.section	.text.wait,"ax",%progbits
 202      0080
 203              		.align	2
 204              		.p2align 4,,15
 205              		.thumb
 206              		.thumb_func
 207              		.type	wait, %function
 208              	wait:
 209              	.LFB121:
 210              		.loc 1 164 0
 211              		.cfi_startproc
 212              		@ args = 0, pretend = 0, frame = 8
 213              		@ frame_needed = 0, uses_anonymous_args = 0
 214              	.LVL24:
 215 0000 10B5     		push	{r4, lr}
 216              	.LCFI2:
 217              		.cfi_def_cfa_offset 8
 218              		.cfi_offset 4, -8
 219              		.cfi_offset 14, -4
 220              		.loc 1 169 0
 221 0002 C36A     		ldr	r3, [r0, #44]
 222              		.loc 1 164 0
 223 0004 82B0     		sub	sp, sp, #8
 224              	.LCFI3:
 225              		.cfi_def_cfa_offset 16
 226              		.loc 1 169 0
ARM GAS  C:\Users\Vergil\AppData\Local\Temp\ccwNg35D.s 			page 5


 227 0006 0121     		movs	r1, #1
 228              		.loc 1 164 0
 229 0008 0446     		mov	r4, r0
 230              		.loc 1 169 0
 231 000a 01AA     		add	r2, sp, #4
 232 000c 1868     		ldr	r0, [r3, #0]
 233              	.LVL25:
 234 000e FFF7FEFF 		bl	spiReceive
 235              	.LVL26:
 236              		.loc 1 170 0
 237 0012 9DF80400 		ldrb	r0, [sp, #4]	@ zero_extendqisi2
 238 0016 FF28     		cmp	r0, #255
 239 0018 00F09880 		beq	.L9
 240              	.LVL27:
 241              		.loc 1 169 0
 242 001c E26A     		ldr	r2, [r4, #44]
 243 001e 0121     		movs	r1, #1
 244 0020 1068     		ldr	r0, [r2, #0]
 245 0022 01AA     		add	r2, sp, #4
 246 0024 FFF7FEFF 		bl	spiReceive
 247              	.LVL28:
 248              		.loc 1 170 0
 249 0028 9DF80410 		ldrb	r1, [sp, #4]	@ zero_extendqisi2
 250 002c FF29     		cmp	r1, #255
 251 002e 00F08D80 		beq	.L9
 252              	.LVL29:
 253              		.loc 1 169 0
 254 0032 E36A     		ldr	r3, [r4, #44]
 255 0034 0121     		movs	r1, #1
 256 0036 1868     		ldr	r0, [r3, #0]
 257 0038 01AA     		add	r2, sp, #4
 258 003a FFF7FEFF 		bl	spiReceive
 259              	.LVL30:
 260              		.loc 1 170 0
 261 003e 9DF80400 		ldrb	r0, [sp, #4]	@ zero_extendqisi2
 262 0042 FF28     		cmp	r0, #255
 263 0044 00F08280 		beq	.L9
 264              	.LVL31:
 265              		.loc 1 169 0
 266 0048 E26A     		ldr	r2, [r4, #44]
 267 004a 0121     		movs	r1, #1
 268 004c 1068     		ldr	r0, [r2, #0]
 269 004e 01AA     		add	r2, sp, #4
 270 0050 FFF7FEFF 		bl	spiReceive
 271              	.LVL32:
 272              		.loc 1 170 0
 273 0054 9DF80410 		ldrb	r1, [sp, #4]	@ zero_extendqisi2
 274 0058 FF29     		cmp	r1, #255
 275 005a 77D0     		beq	.L9
 276              	.LVL33:
 277              		.loc 1 169 0
 278 005c E36A     		ldr	r3, [r4, #44]
 279 005e 0121     		movs	r1, #1
 280 0060 1868     		ldr	r0, [r3, #0]
 281 0062 01AA     		add	r2, sp, #4
 282 0064 FFF7FEFF 		bl	spiReceive
 283              	.LVL34:
ARM GAS  C:\Users\Vergil\AppData\Local\Temp\ccwNg35D.s 			page 6


 284              		.loc 1 170 0
 285 0068 9DF80400 		ldrb	r0, [sp, #4]	@ zero_extendqisi2
 286 006c FF28     		cmp	r0, #255
 287 006e 6DD0     		beq	.L9
 288              	.LVL35:
 289              		.loc 1 169 0
 290 0070 E26A     		ldr	r2, [r4, #44]
 291 0072 0121     		movs	r1, #1
 292 0074 1068     		ldr	r0, [r2, #0]
 293 0076 01AA     		add	r2, sp, #4
 294 0078 FFF7FEFF 		bl	spiReceive
 295              	.LVL36:
 296              		.loc 1 170 0
 297 007c 9DF80410 		ldrb	r1, [sp, #4]	@ zero_extendqisi2
 298 0080 FF29     		cmp	r1, #255
 299 0082 63D0     		beq	.L9
 300              	.LVL37:
 301              		.loc 1 169 0
 302 0084 E36A     		ldr	r3, [r4, #44]
 303 0086 0121     		movs	r1, #1
 304 0088 1868     		ldr	r0, [r3, #0]
 305 008a 01AA     		add	r2, sp, #4
 306 008c FFF7FEFF 		bl	spiReceive
 307              	.LVL38:
 308              		.loc 1 170 0
 309 0090 9DF80400 		ldrb	r0, [sp, #4]	@ zero_extendqisi2
 310 0094 FF28     		cmp	r0, #255
 311 0096 59D0     		beq	.L9
 312              	.LVL39:
 313              		.loc 1 169 0
 314 0098 E26A     		ldr	r2, [r4, #44]
 315 009a 0121     		movs	r1, #1
 316 009c 1068     		ldr	r0, [r2, #0]
 317 009e 01AA     		add	r2, sp, #4
 318 00a0 FFF7FEFF 		bl	spiReceive
 319              	.LVL40:
 320              		.loc 1 170 0
 321 00a4 9DF80410 		ldrb	r1, [sp, #4]	@ zero_extendqisi2
 322 00a8 FF29     		cmp	r1, #255
 323 00aa 4FD0     		beq	.L9
 324              	.LVL41:
 325              		.loc 1 169 0
 326 00ac E36A     		ldr	r3, [r4, #44]
 327 00ae 0121     		movs	r1, #1
 328 00b0 1868     		ldr	r0, [r3, #0]
 329 00b2 01AA     		add	r2, sp, #4
 330 00b4 FFF7FEFF 		bl	spiReceive
 331              	.LVL42:
 332              		.loc 1 170 0
 333 00b8 9DF80400 		ldrb	r0, [sp, #4]	@ zero_extendqisi2
 334 00bc FF28     		cmp	r0, #255
 335 00be 45D0     		beq	.L9
 336              	.LVL43:
 337              		.loc 1 169 0
 338 00c0 E26A     		ldr	r2, [r4, #44]
 339 00c2 0121     		movs	r1, #1
 340 00c4 1068     		ldr	r0, [r2, #0]
ARM GAS  C:\Users\Vergil\AppData\Local\Temp\ccwNg35D.s 			page 7


 341 00c6 01AA     		add	r2, sp, #4
 342 00c8 FFF7FEFF 		bl	spiReceive
 343              	.LVL44:
 344              		.loc 1 170 0
 345 00cc 9DF80410 		ldrb	r1, [sp, #4]	@ zero_extendqisi2
 346 00d0 FF29     		cmp	r1, #255
 347 00d2 3BD0     		beq	.L9
 348              	.LVL45:
 349              		.loc 1 169 0
 350 00d4 E36A     		ldr	r3, [r4, #44]
 351 00d6 0121     		movs	r1, #1
 352 00d8 1868     		ldr	r0, [r3, #0]
 353 00da 01AA     		add	r2, sp, #4
 354 00dc FFF7FEFF 		bl	spiReceive
 355              	.LVL46:
 356              		.loc 1 170 0
 357 00e0 9DF80400 		ldrb	r0, [sp, #4]	@ zero_extendqisi2
 358 00e4 FF28     		cmp	r0, #255
 359 00e6 31D0     		beq	.L9
 360              	.LVL47:
 361              		.loc 1 169 0
 362 00e8 E26A     		ldr	r2, [r4, #44]
 363 00ea 0121     		movs	r1, #1
 364 00ec 1068     		ldr	r0, [r2, #0]
 365 00ee 01AA     		add	r2, sp, #4
 366 00f0 FFF7FEFF 		bl	spiReceive
 367              	.LVL48:
 368              		.loc 1 170 0
 369 00f4 9DF80410 		ldrb	r1, [sp, #4]	@ zero_extendqisi2
 370 00f8 FF29     		cmp	r1, #255
 371 00fa 27D0     		beq	.L9
 372              	.LVL49:
 373              		.loc 1 169 0
 374 00fc E36A     		ldr	r3, [r4, #44]
 375 00fe 0121     		movs	r1, #1
 376 0100 1868     		ldr	r0, [r3, #0]
 377 0102 01AA     		add	r2, sp, #4
 378 0104 FFF7FEFF 		bl	spiReceive
 379              	.LVL50:
 380              		.loc 1 170 0
 381 0108 9DF80400 		ldrb	r0, [sp, #4]	@ zero_extendqisi2
 382 010c FF28     		cmp	r0, #255
 383 010e 1DD0     		beq	.L9
 384              	.LVL51:
 385              		.loc 1 169 0
 386 0110 E26A     		ldr	r2, [r4, #44]
 387 0112 0121     		movs	r1, #1
 388 0114 1068     		ldr	r0, [r2, #0]
 389 0116 01AA     		add	r2, sp, #4
 390 0118 FFF7FEFF 		bl	spiReceive
 391              	.LVL52:
 392              		.loc 1 170 0
 393 011c 9DF80410 		ldrb	r1, [sp, #4]	@ zero_extendqisi2
 394 0120 FF29     		cmp	r1, #255
 395 0122 13D0     		beq	.L9
 396              	.LVL53:
 397              		.loc 1 169 0
ARM GAS  C:\Users\Vergil\AppData\Local\Temp\ccwNg35D.s 			page 8


 398 0124 E36A     		ldr	r3, [r4, #44]
 399 0126 0121     		movs	r1, #1
 400 0128 1868     		ldr	r0, [r3, #0]
 401 012a 01AA     		add	r2, sp, #4
 402 012c FFF7FEFF 		bl	spiReceive
 403              	.LVL54:
 404              		.loc 1 170 0
 405 0130 9DF80400 		ldrb	r0, [sp, #4]	@ zero_extendqisi2
 406 0134 FF28     		cmp	r0, #255
 407 0136 09D0     		beq	.L9
 408              	.LVL55:
 409              		.loc 1 169 0
 410 0138 E26A     		ldr	r2, [r4, #44]
 411 013a 0121     		movs	r1, #1
 412 013c 1068     		ldr	r0, [r2, #0]
 413 013e 01AA     		add	r2, sp, #4
 414 0140 FFF7FEFF 		bl	spiReceive
 415              	.LVL56:
 416              		.loc 1 170 0
 417 0144 9DF80410 		ldrb	r1, [sp, #4]	@ zero_extendqisi2
 418 0148 FF29     		cmp	r1, #255
 419 014a 04D1     		bne	.L65
 420              	.LVL57:
 421              	.L9:
 422              		.loc 1 183 0
 423 014c 02B0     		add	sp, sp, #8
 424 014e 10BD     		pop	{r4, pc}
 425              	.LVL58:
 426              	.L66:
 427              		.loc 1 180 0
 428 0150 0120     		movs	r0, #1
 429 0152 FFF7FEFF 		bl	chThdSleep
 430              	.LVL59:
 431              	.L65:
 432              		.loc 1 175 0
 433 0156 E36A     		ldr	r3, [r4, #44]
 434 0158 0121     		movs	r1, #1
 435 015a 1868     		ldr	r0, [r3, #0]
 436 015c 01AA     		add	r2, sp, #4
 437 015e FFF7FEFF 		bl	spiReceive
 438              	.LVL60:
 439              		.loc 1 176 0
 440 0162 9DF80400 		ldrb	r0, [sp, #4]	@ zero_extendqisi2
 441 0166 FF28     		cmp	r0, #255
 442 0168 F2D1     		bne	.L66
 443 016a EFE7     		b	.L9
 444              		.cfi_endproc
 445              	.LFE121:
 446              		.size	wait, .-wait
 447 016c AFF30080 		.section	.text.send_hdr,"ax",%progbits
 448              		.align	2
 449              		.p2align 4,,15
 450              		.thumb
 451              		.thumb_func
 452              		.type	send_hdr, %function
 453              	send_hdr:
 454              	.LFB122:
ARM GAS  C:\Users\Vergil\AppData\Local\Temp\ccwNg35D.s 			page 9


 455              		.loc 1 194 0
 456              		.cfi_startproc
 457              		@ args = 0, pretend = 0, frame = 8
 458              		@ frame_needed = 0, uses_anonymous_args = 0
 459              	.LVL61:
 460 0000 70B5     		push	{r4, r5, r6, lr}
 461              	.LCFI4:
 462              		.cfi_def_cfa_offset 16
 463              		.cfi_offset 4, -16
 464              		.cfi_offset 5, -12
 465              		.cfi_offset 6, -8
 466              		.cfi_offset 14, -4
 467 0002 82B0     		sub	sp, sp, #8
 468              	.LCFI5:
 469              		.cfi_def_cfa_offset 24
 470              		.loc 1 194 0
 471 0004 1446     		mov	r4, r2
 472 0006 0546     		mov	r5, r0
 473 0008 0E46     		mov	r6, r1
 474              		.loc 1 198 0
 475 000a FFF7FEFF 		bl	wait
 476              	.LVL62:
 477              	.LBB7:
 478              	.LBB8:
 479              		.loc 1 153 0
 480 000e 40F20003 		movw	r3, #:lower16:.LANCHOR0
 481 0012 C0F20003 		movt	r3, #:upper16:.LANCHOR0
 482              	.LBE8:
 483              	.LBE7:
 484              		.loc 1 200 0
 485 0016 46F04001 		orr	r1, r6, #64
 486              		.loc 1 201 0
 487 001a 220E     		lsrs	r2, r4, #24
 488              	.LBB16:
 489              	.LBB9:
 490              		.loc 1 153 0
 491 001c 5E5C     		ldrb	r6, [r3, r1]	@ zero_extendqisi2
 492              	.LBE9:
 493              	.LBE16:
 494              		.loc 1 208 0
 495 001e E86A     		ldr	r0, [r5, #44]
 496              		.loc 1 200 0
 497 0020 8DF80010 		strb	r1, [sp, #0]
 498              	.LBB17:
 499              	.LBB10:
 500              		.loc 1 153 0
 501 0024 82EA4605 		eor	r5, r2, r6, lsl #1
 502              	.LVL63:
 503              	.LBE10:
 504              	.LBE17:
 505              		.loc 1 202 0
 506 0028 210C     		lsrs	r1, r4, #16
 507              	.LBB18:
 508              	.LBB11:
 509              		.loc 1 153 0
 510 002a 5D5D     		ldrb	r5, [r3, r5]	@ zero_extendqisi2
 511              	.LBE11:
ARM GAS  C:\Users\Vergil\AppData\Local\Temp\ccwNg35D.s 			page 10


 512              	.LBE18:
 513              		.loc 1 201 0
 514 002c 8DF80120 		strb	r2, [sp, #1]
 515              	.LBB19:
 516              	.LBB12:
 517              		.loc 1 153 0
 518 0030 CAB2     		uxtb	r2, r1
 519 0032 82EA4505 		eor	r5, r2, r5, lsl #1
 520              	.LBE12:
 521              	.LBE19:
 522              		.loc 1 203 0
 523 0036 220A     		lsrs	r2, r4, #8
 524              	.LBB20:
 525              	.LBB13:
 526              		.loc 1 153 0
 527 0038 5D5D     		ldrb	r5, [r3, r5]	@ zero_extendqisi2
 528              	.LBE13:
 529              	.LBE20:
 530              		.loc 1 202 0
 531 003a 8DF80210 		strb	r1, [sp, #2]
 532              	.LBB21:
 533              	.LBB14:
 534              		.loc 1 153 0
 535 003e D1B2     		uxtb	r1, r2
 536 0040 81EA4505 		eor	r5, r1, r5, lsl #1
 537 0044 E1B2     		uxtb	r1, r4
 538 0046 5D5D     		ldrb	r5, [r3, r5]	@ zero_extendqisi2
 539              	.LBE14:
 540              	.LBE21:
 541              		.loc 1 203 0
 542 0048 8DF80320 		strb	r2, [sp, #3]
 543              	.LBB22:
 544              	.LBB15:
 545              		.loc 1 153 0
 546 004c 81EA4502 		eor	r2, r1, r5, lsl #1
 547              	.LBE15:
 548              	.LBE22:
 549              		.loc 1 204 0
 550 0050 8DF80440 		strb	r4, [sp, #4]
 551              	.LVL64:
 552              		.loc 1 206 0
 553 0054 9B5C     		ldrb	r3, [r3, r2]	@ zero_extendqisi2
 554 0056 5900     		lsls	r1, r3, #1
 555 0058 41F00102 		orr	r2, r1, #1
 556              	.LVL65:
 557 005c 8DF80520 		strb	r2, [sp, #5]
 558              		.loc 1 208 0
 559 0060 0068     		ldr	r0, [r0, #0]
 560 0062 0621     		movs	r1, #6
 561 0064 6A46     		mov	r2, sp
 562 0066 FFF7FEFF 		bl	spiSend
 563              	.LVL66:
 564              		.loc 1 209 0
 565 006a 02B0     		add	sp, sp, #8
 566 006c 70BD     		pop	{r4, r5, r6, pc}
 567              		.cfi_endproc
 568              	.LFE122:
ARM GAS  C:\Users\Vergil\AppData\Local\Temp\ccwNg35D.s 			page 11


 569              		.size	send_hdr, .-send_hdr
 570 006e 00BF     		.section	.text.send_command_R1,"ax",%progbits
 571              		.align	2
 572              		.p2align 4,,15
 573              		.thumb
 574              		.thumb_func
 575              		.type	send_command_R1, %function
 576              	send_command_R1:
 577              	.LFB125:
 578              		.loc 1 262 0
 579              		.cfi_startproc
 580              		@ args = 0, pretend = 0, frame = 0
 581              		@ frame_needed = 0, uses_anonymous_args = 0
 582              	.LVL67:
 583              		.loc 1 266 0
 584 0000 C36A     		ldr	r3, [r0, #44]
 585              		.loc 1 262 0
 586 0002 70B5     		push	{r4, r5, r6, lr}
 587              	.LCFI6:
 588              		.cfi_def_cfa_offset 16
 589              		.cfi_offset 4, -16
 590              		.cfi_offset 5, -12
 591              		.cfi_offset 6, -8
 592              		.cfi_offset 14, -4
 593              		.loc 1 262 0
 594 0004 0446     		mov	r4, r0
 595              		.loc 1 266 0
 596 0006 1868     		ldr	r0, [r3, #0]
 597              	.LVL68:
 598              		.loc 1 262 0
 599 0008 0E46     		mov	r6, r1
 600 000a 1546     		mov	r5, r2
 601              		.loc 1 266 0
 602 000c FFF7FEFF 		bl	spiAcquireBus
 603              	.LVL69:
 604              		.loc 1 268 0
 605 0010 E06A     		ldr	r0, [r4, #44]
 606 0012 0068     		ldr	r0, [r0, #0]
 607 0014 FFF7FEFF 		bl	spiSelect
 608              	.LVL70:
 609              		.loc 1 269 0
 610 0018 2A46     		mov	r2, r5
 611 001a 3146     		mov	r1, r6
 612 001c 2046     		mov	r0, r4
 613 001e FFF7FEFF 		bl	send_hdr
 614              	.LVL71:
 615              		.loc 1 270 0
 616 0022 2046     		mov	r0, r4
 617 0024 FFF7FEFF 		bl	recvr1
 618              	.LVL72:
 619              		.loc 1 271 0
 620 0028 E16A     		ldr	r1, [r4, #44]
 621              		.loc 1 270 0
 622 002a 0546     		mov	r5, r0
 623              	.LVL73:
 624              		.loc 1 271 0
 625 002c 0868     		ldr	r0, [r1, #0]
ARM GAS  C:\Users\Vergil\AppData\Local\Temp\ccwNg35D.s 			page 12


 626              	.LVL74:
 627 002e FFF7FEFF 		bl	spiUnselect
 628              	.LVL75:
 629              		.loc 1 273 0
 630 0032 E26A     		ldr	r2, [r4, #44]
 631 0034 1068     		ldr	r0, [r2, #0]
 632 0036 FFF7FEFF 		bl	spiReleaseBus
 633              	.LVL76:
 634              		.loc 1 277 0
 635 003a 2846     		mov	r0, r5
 636 003c 70BD     		pop	{r4, r5, r6, pc}
 637              		.cfi_endproc
 638              	.LFE125:
 639              		.size	send_command_R1, .-send_command_R1
 640 003e 00BF     		.section	.text.send_command_R3,"ax",%progbits
 641              		.align	2
 642              		.p2align 4,,15
 643              		.thumb
 644              		.thumb_func
 645              		.type	send_command_R3, %function
 646              	send_command_R3:
 647              	.LFB126:
 648              		.loc 1 293 0
 649              		.cfi_startproc
 650              		@ args = 0, pretend = 0, frame = 0
 651              		@ frame_needed = 0, uses_anonymous_args = 0
 652              	.LVL77:
 653 0000 F8B5     		push	{r3, r4, r5, r6, r7, lr}
 654              	.LCFI7:
 655              		.cfi_def_cfa_offset 24
 656              		.cfi_offset 3, -24
 657              		.cfi_offset 4, -20
 658              		.cfi_offset 5, -16
 659              		.cfi_offset 6, -12
 660              		.cfi_offset 7, -8
 661              		.cfi_offset 14, -4
 662              		.loc 1 293 0
 663 0002 0446     		mov	r4, r0
 664              		.loc 1 296 0
 665 0004 C06A     		ldr	r0, [r0, #44]
 666              	.LVL78:
 667 0006 0068     		ldr	r0, [r0, #0]
 668              		.loc 1 293 0
 669 0008 1F46     		mov	r7, r3
 670 000a 0E46     		mov	r6, r1
 671 000c 1546     		mov	r5, r2
 672              		.loc 1 296 0
 673 000e FFF7FEFF 		bl	spiAcquireBus
 674              	.LVL79:
 675              		.loc 1 298 0
 676 0012 E16A     		ldr	r1, [r4, #44]
 677 0014 0868     		ldr	r0, [r1, #0]
 678 0016 FFF7FEFF 		bl	spiSelect
 679              	.LVL80:
 680              		.loc 1 299 0
 681 001a 3146     		mov	r1, r6
 682 001c 2A46     		mov	r2, r5
ARM GAS  C:\Users\Vergil\AppData\Local\Temp\ccwNg35D.s 			page 13


 683 001e 2046     		mov	r0, r4
 684 0020 FFF7FEFF 		bl	send_hdr
 685              	.LVL81:
 686              	.LBB25:
 687              	.LBB26:
 688              		.loc 1 245 0
 689 0024 2046     		mov	r0, r4
 690 0026 FFF7FEFF 		bl	recvr1
 691              	.LVL82:
 692              		.loc 1 246 0
 693 002a E56A     		ldr	r5, [r4, #44]
 694              	.LVL83:
 695 002c 0421     		movs	r1, #4
 696 002e 3A46     		mov	r2, r7
 697              		.loc 1 245 0
 698 0030 0646     		mov	r6, r0
 699              	.LVL84:
 700              		.loc 1 246 0
 701 0032 2868     		ldr	r0, [r5, #0]
 702              	.LVL85:
 703 0034 FFF7FEFF 		bl	spiReceive
 704              	.LVL86:
 705              	.LBE26:
 706              	.LBE25:
 707              		.loc 1 301 0
 708 0038 E36A     		ldr	r3, [r4, #44]
 709 003a 1868     		ldr	r0, [r3, #0]
 710 003c FFF7FEFF 		bl	spiUnselect
 711              	.LVL87:
 712              		.loc 1 303 0
 713 0040 E26A     		ldr	r2, [r4, #44]
 714 0042 1068     		ldr	r0, [r2, #0]
 715 0044 FFF7FEFF 		bl	spiReleaseBus
 716              	.LVL88:
 717              		.loc 1 306 0
 718 0048 3046     		mov	r0, r6
 719 004a F8BD     		pop	{r3, r4, r5, r6, r7, pc}
 720              		.cfi_endproc
 721              	.LFE126:
 722              		.size	send_command_R3, .-send_command_R3
 723 004c AFF30080 		.section	.text.sync,"ax",%progbits
 724              		.align	2
 725              		.p2align 4,,15
 726              		.thumb
 727              		.thumb_func
 728              		.type	sync, %function
 729              	sync:
 730              	.LFB128:
 731              		.loc 1 369 0
 732              		.cfi_startproc
 733              		@ args = 0, pretend = 0, frame = 8
 734              		@ frame_needed = 0, uses_anonymous_args = 0
 735              	.LVL89:
 736 0000 10B5     		push	{r4, lr}
 737              	.LCFI8:
 738              		.cfi_def_cfa_offset 8
 739              		.cfi_offset 4, -8
ARM GAS  C:\Users\Vergil\AppData\Local\Temp\ccwNg35D.s 			page 14


 740              		.cfi_offset 14, -4
 741              		.loc 1 373 0
 742 0002 C36A     		ldr	r3, [r0, #44]
 743              		.loc 1 369 0
 744 0004 0446     		mov	r4, r0
 745 0006 82B0     		sub	sp, sp, #8
 746              	.LCFI9:
 747              		.cfi_def_cfa_offset 16
 748              		.loc 1 373 0
 749 0008 1868     		ldr	r0, [r3, #0]
 750              	.LVL90:
 751 000a FFF7FEFF 		bl	spiAcquireBus
 752              	.LVL91:
 753              		.loc 1 375 0
 754 000e E06A     		ldr	r0, [r4, #44]
 755 0010 0068     		ldr	r0, [r0, #0]
 756 0012 FFF7FEFF 		bl	spiSelect
 757              	.LVL92:
 758 0016 02E0     		b	.L72
 759              	.L73:
 760              		.loc 1 381 0
 761 0018 0120     		movs	r0, #1
 762 001a FFF7FEFF 		bl	chThdSleep
 763              	.LVL93:
 764              	.L72:
 765              		.loc 1 377 0
 766 001e E26A     		ldr	r2, [r4, #44]
 767 0020 0121     		movs	r1, #1
 768 0022 1068     		ldr	r0, [r2, #0]
 769 0024 01AA     		add	r2, sp, #4
 770 0026 FFF7FEFF 		bl	spiReceive
 771              	.LVL94:
 772              		.loc 1 378 0
 773 002a 9DF80410 		ldrb	r1, [sp, #4]	@ zero_extendqisi2
 774 002e FF29     		cmp	r1, #255
 775 0030 F2D1     		bne	.L73
 776              		.loc 1 384 0
 777 0032 E36A     		ldr	r3, [r4, #44]
 778 0034 1868     		ldr	r0, [r3, #0]
 779 0036 FFF7FEFF 		bl	spiUnselect
 780              	.LVL95:
 781              		.loc 1 386 0
 782 003a E06A     		ldr	r0, [r4, #44]
 783 003c 0068     		ldr	r0, [r0, #0]
 784 003e FFF7FEFF 		bl	spiReleaseBus
 785              	.LVL96:
 786              		.loc 1 388 0
 787 0042 02B0     		add	sp, sp, #8
 788 0044 10BD     		pop	{r4, pc}
 789              		.cfi_endproc
 790              	.LFE128:
 791              		.size	sync, .-sync
 792 0046 00BFAFF3 		.section	.text.read_CxD,"ax",%progbits
 792      0080AFF3 
 792      0080
 793              		.align	2
 794              		.p2align 4,,15
ARM GAS  C:\Users\Vergil\AppData\Local\Temp\ccwNg35D.s 			page 15


 795              		.thumb
 796              		.thumb_func
 797              		.type	read_CxD, %function
 798              	read_CxD:
 799              	.LFB127:
 800              		.loc 1 320 0
 801              		.cfi_startproc
 802              		@ args = 0, pretend = 0, frame = 40
 803              		@ frame_needed = 0, uses_anonymous_args = 0
 804              	.LVL97:
 805 0000 2DE9F04F 		push	{r4, r5, r6, r7, r8, r9, sl, fp, lr}
 806              	.LCFI10:
 807              		.cfi_def_cfa_offset 36
 808              		.cfi_offset 4, -36
 809              		.cfi_offset 5, -32
 810              		.cfi_offset 6, -28
 811              		.cfi_offset 7, -24
 812              		.cfi_offset 8, -20
 813              		.cfi_offset 9, -16
 814              		.cfi_offset 10, -12
 815              		.cfi_offset 11, -8
 816              		.cfi_offset 14, -4
 817              		.loc 1 324 0
 818 0004 C36A     		ldr	r3, [r0, #44]
 819              		.loc 1 320 0
 820 0006 0446     		mov	r4, r0
 821 0008 8BB0     		sub	sp, sp, #44
 822              	.LCFI11:
 823              		.cfi_def_cfa_offset 80
 824              		.loc 1 324 0
 825 000a 1868     		ldr	r0, [r3, #0]
 826              	.LVL98:
 827              		.loc 1 320 0
 828 000c 1546     		mov	r5, r2
 829 000e 0E46     		mov	r6, r1
 830              		.loc 1 324 0
 831 0010 FFF7FEFF 		bl	spiAcquireBus
 832              	.LVL99:
 833              		.loc 1 326 0
 834 0014 E06A     		ldr	r0, [r4, #44]
 835 0016 0068     		ldr	r0, [r0, #0]
 836 0018 FFF7FEFF 		bl	spiSelect
 837              	.LVL100:
 838              		.loc 1 327 0
 839 001c 2046     		mov	r0, r4
 840 001e 3146     		mov	r1, r6
 841 0020 0022     		movs	r2, #0
 842 0022 FFF7FEFF 		bl	send_hdr
 843              	.LVL101:
 844              		.loc 1 328 0
 845 0026 2046     		mov	r0, r4
 846 0028 FFF7FEFF 		bl	recvr1
 847              	.LVL102:
 848 002c 0028     		cmp	r0, #0
 849 002e 40F08180 		bne	.L84
 850 0032 42F21076 		movw	r6, #10000
 851 0036 09E0     		b	.L75
ARM GAS  C:\Users\Vergil\AppData\Local\Temp\ccwNg35D.s 			page 16


 852              	.LVL103:
 853              	.L77:
 854              		.loc 1 338 0
 855 0038 E06A     		ldr	r0, [r4, #44]
 856 003a 0068     		ldr	r0, [r0, #0]
 857 003c FFF7FEFF 		bl	spiReceive
 858              	.LVL104:
 859              		.loc 1 339 0
 860 0040 9DF81810 		ldrb	r1, [sp, #24]	@ zero_extendqisi2
 861 0044 FE29     		cmp	r1, #254
 862 0046 0FD0     		beq	.L82
 863              		.loc 1 337 0
 864 0048 013E     		subs	r6, r6, #1
 865 004a 7DD0     		beq	.L85
 866              	.L75:
 867              		.loc 1 338 0
 868 004c E26A     		ldr	r2, [r4, #44]
 869 004e 0121     		movs	r1, #1
 870 0050 1068     		ldr	r0, [r2, #0]
 871 0052 06AA     		add	r2, sp, #24
 872 0054 FFF7FEFF 		bl	spiReceive
 873              	.LVL105:
 874              		.loc 1 339 0
 875 0058 9DF81830 		ldrb	r3, [sp, #24]	@ zero_extendqisi2
 876              		.loc 1 338 0
 877 005c 0121     		movs	r1, #1
 878              		.loc 1 339 0
 879 005e FE2B     		cmp	r3, #254
 880              		.loc 1 338 0
 881 0060 06AA     		add	r2, sp, #24
 882 0062 06F1FF36 		add	r6, r6, #-1
 883              		.loc 1 339 0
 884 0066 E7D1     		bne	.L77
 885              	.L82:
 886              	.LBB27:
 887              		.loc 1 342 0
 888 0068 E76A     		ldr	r7, [r4, #44]
 889 006a 06AA     		add	r2, sp, #24
 890 006c 3868     		ldr	r0, [r7, #0]
 891 006e 1021     		movs	r1, #16
 892 0070 FFF7FEFF 		bl	spiReceive
 893              	.LVL106:
 894              		.loc 1 346 0
 895 0074 9DF81B20 		ldrb	r2, [sp, #27]	@ zero_extendqisi2
 896 0078 9DF81F30 		ldrb	r3, [sp, #31]	@ zero_extendqisi2
 897              		.loc 1 345 0
 898 007c 9DF82560 		ldrb	r6, [sp, #37]	@ zero_extendqisi2
 899 0080 9DF819A0 		ldrb	sl, [sp, #25]	@ zero_extendqisi2
 900 0084 9DF81D80 		ldrb	r8, [sp, #29]	@ zero_extendqisi2
 901 0088 9DF82470 		ldrb	r7, [sp, #36]	@ zero_extendqisi2
 902              		.loc 1 346 0
 903 008c 0292     		str	r2, [sp, #8]
 904 008e 0393     		str	r3, [sp, #12]
 905 0090 9DF82300 		ldrb	r0, [sp, #35]	@ zero_extendqisi2
 906 0094 9DF82710 		ldrb	r1, [sp, #39]	@ zero_extendqisi2
 907              		.loc 1 345 0
 908 0098 9DF818B0 		ldrb	fp, [sp, #24]	@ zero_extendqisi2
ARM GAS  C:\Users\Vergil\AppData\Local\Temp\ccwNg35D.s 			page 17


 909 009c 9DF81C90 		ldrb	r9, [sp, #28]	@ zero_extendqisi2
 910 00a0 029B     		ldr	r3, [sp, #8]
 911 00a2 9DF821E0 		ldrb	lr, [sp, #33]	@ zero_extendqisi2
 912              		.loc 1 346 0
 913 00a6 0490     		str	r0, [sp, #16]
 914              		.loc 1 345 0
 915 00a8 3604     		lsls	r6, r6, #16
 916 00aa 46EA0767 		orr	r7, r6, r7, lsl #24
 917 00ae 4FEA0A4A 		lsl	sl, sl, #16
 918 00b2 039E     		ldr	r6, [sp, #12]
 919              		.loc 1 346 0
 920 00b4 0591     		str	r1, [sp, #20]
 921              		.loc 1 345 0
 922 00b6 4FEA0848 		lsl	r8, r8, #16
 923              		.loc 1 346 0
 924 00ba 9DF81A20 		ldrb	r2, [sp, #26]	@ zero_extendqisi2
 925              		.loc 1 345 0
 926 00be 9DF820C0 		ldrb	ip, [sp, #32]	@ zero_extendqisi2
 927              		.loc 1 346 0
 928 00c2 0192     		str	r2, [sp, #4]
 929              		.loc 1 345 0
 930 00c4 4AEA0B6A 		orr	sl, sl, fp, lsl #24
 931 00c8 48EA0968 		orr	r8, r8, r9, lsl #24
 932 00cc 4FEA0E4E 		lsl	lr, lr, #16
 933 00d0 4AEA030A 		orr	sl, sl, r3
 934 00d4 48EA0608 		orr	r8, r8, r6
 935 00d8 049B     		ldr	r3, [sp, #16]
 936 00da 059E     		ldr	r6, [sp, #20]
 937              		.loc 1 346 0
 938 00dc 9DF82210 		ldrb	r1, [sp, #34]	@ zero_extendqisi2
 939 00e0 9DF81E00 		ldrb	r0, [sp, #30]	@ zero_extendqisi2
 940 00e4 9DF82620 		ldrb	r2, [sp, #38]	@ zero_extendqisi2
 941              		.loc 1 345 0
 942 00e8 4EEA0C6C 		orr	ip, lr, ip, lsl #24
 943 00ec 4CEA030E 		orr	lr, ip, r3
 944 00f0 47EA060C 		orr	ip, r7, r6
 945              		.loc 1 346 0
 946 00f4 019F     		ldr	r7, [sp, #4]
 947 00f6 4AEA0723 		orr	r3, sl, r7, lsl #8
 948 00fa 4EEA0127 		orr	r7, lr, r1, lsl #8
 949              		.loc 1 351 0
 950 00fe D4F82CE0 		ldr	lr, [r4, #44]
 951              		.loc 1 346 0
 952 0102 4CEA0222 		orr	r2, ip, r2, lsl #8
 953 0106 48EA0026 		orr	r6, r8, r0, lsl #8
 954              		.loc 1 351 0
 955 010a 0221     		movs	r1, #2
 956 010c DEF80000 		ldr	r0, [lr, #0]
 957              		.loc 1 345 0
 958 0110 EB60     		str	r3, [r5, #12]
 959              	.LVL107:
 960 0112 85E88400 		stmia	r5, {r2, r7}
 961 0116 AE60     		str	r6, [r5, #8]
 962              	.LVL108:
 963              		.loc 1 351 0
 964 0118 FFF7FEFF 		bl	spiIgnore
 965              	.LVL109:
ARM GAS  C:\Users\Vergil\AppData\Local\Temp\ccwNg35D.s 			page 18


 966              		.loc 1 352 0
 967 011c E06A     		ldr	r0, [r4, #44]
 968 011e 0068     		ldr	r0, [r0, #0]
 969 0120 FFF7FEFF 		bl	spiUnselect
 970              	.LVL110:
 971              		.loc 1 354 0
 972 0124 E16A     		ldr	r1, [r4, #44]
 973 0126 0868     		ldr	r0, [r1, #0]
 974 0128 FFF7FEFF 		bl	spiReleaseBus
 975              	.LVL111:
 976              		.loc 1 356 0
 977 012c 0020     		movs	r0, #0
 978              	.LVL112:
 979              	.L76:
 980              	.LBE27:
 981              		.loc 1 360 0
 982 012e 0BB0     		add	sp, sp, #44
 983 0130 BDE8F08F 		pop	{r4, r5, r6, r7, r8, r9, sl, fp, pc}
 984              	.L84:
 985              		.loc 1 329 0
 986 0134 E26A     		ldr	r2, [r4, #44]
 987 0136 1068     		ldr	r0, [r2, #0]
 988 0138 FFF7FEFF 		bl	spiUnselect
 989              	.LVL113:
 990              		.loc 1 331 0
 991 013c E36A     		ldr	r3, [r4, #44]
 992 013e 1868     		ldr	r0, [r3, #0]
 993 0140 FFF7FEFF 		bl	spiReleaseBus
 994              	.LVL114:
 995              		.loc 1 333 0
 996 0144 0120     		movs	r0, #1
 997 0146 F2E7     		b	.L76
 998              	.L85:
 999              		.loc 1 359 0
 1000 0148 0120     		movs	r0, #1
 1001 014a F0E7     		b	.L76
 1002              		.cfi_endproc
 1003              	.LFE127:
 1004              		.size	read_CxD, .-read_CxD
 1005 014c AFF30080 		.section	.text.mmcConnect,"ax",%progbits
 1006              		.align	2
 1007              		.p2align 4,,15
 1008              		.global	mmcConnect
 1009              		.thumb
 1010              		.thumb_func
 1011              		.type	mmcConnect, %function
 1012              	mmcConnect:
 1013              	.LFB133:
 1014              		.loc 1 472 0
 1015              		.cfi_startproc
 1016              		@ args = 0, pretend = 0, frame = 8
 1017              		@ frame_needed = 0, uses_anonymous_args = 0
 1018              	.LVL115:
 1019 0000 70B5     		push	{r4, r5, r6, lr}
 1020              	.LCFI12:
 1021              		.cfi_def_cfa_offset 16
 1022              		.cfi_offset 4, -16
ARM GAS  C:\Users\Vergil\AppData\Local\Temp\ccwNg35D.s 			page 19


 1023              		.cfi_offset 5, -12
 1024              		.cfi_offset 6, -8
 1025              		.cfi_offset 14, -4
 1026              		.loc 1 486 0
 1027 0002 C36A     		ldr	r3, [r0, #44]
 1028              		.loc 1 472 0
 1029 0004 0446     		mov	r4, r0
 1030              		.loc 1 483 0
 1031 0006 0025     		movs	r5, #0
 1032              		.loc 1 482 0
 1033 0008 0321     		movs	r1, #3
 1034              		.loc 1 472 0
 1035 000a 82B0     		sub	sp, sp, #8
 1036              	.LCFI13:
 1037              		.cfi_def_cfa_offset 24
 1038              		.loc 1 483 0
 1039 000c 80F83050 		strb	r5, [r0, #48]
 1040              		.loc 1 486 0
 1041 0010 1868     		ldr	r0, [r3, #0]
 1042              	.LVL116:
 1043              		.loc 1 482 0
 1044 0012 2171     		strb	r1, [r4, #4]
 1045              		.loc 1 486 0
 1046 0014 FFF7FEFF 		bl	spiAcquireBus
 1047              	.LVL117:
 1048              		.loc 1 489 0
 1049 0018 E06A     		ldr	r0, [r4, #44]
 1050 001a 03C8     		ldmia	r0, {r0, r1}
 1051 001c FFF7FEFF 		bl	spiStart
 1052              	.LVL118:
 1053              		.loc 1 490 0
 1054 0020 E26A     		ldr	r2, [r4, #44]
 1055 0022 1021     		movs	r1, #16
 1056 0024 1068     		ldr	r0, [r2, #0]
 1057 0026 FFF7FEFF 		bl	spiIgnore
 1058              	.LVL119:
 1059              		.loc 1 493 0
 1060 002a E36A     		ldr	r3, [r4, #44]
 1061 002c 1868     		ldr	r0, [r3, #0]
 1062 002e FFF7FEFF 		bl	spiReleaseBus
 1063              	.LVL120:
 1064              		.loc 1 499 0
 1065 0032 2046     		mov	r0, r4
 1066 0034 2946     		mov	r1, r5
 1067 0036 2A46     		mov	r2, r5
 1068 0038 FFF7FEFF 		bl	send_command_R1
 1069              	.LVL121:
 1070 003c 0128     		cmp	r0, #1
 1071 003e 62D0     		beq	.L87
 1072              	.LVL122:
 1073              		.loc 1 503 0
 1074 0040 0A20     		movs	r0, #10
 1075 0042 FFF7FEFF 		bl	chThdSleep
 1076              	.LVL123:
 1077              		.loc 1 499 0
 1078 0046 2046     		mov	r0, r4
 1079 0048 2946     		mov	r1, r5
ARM GAS  C:\Users\Vergil\AppData\Local\Temp\ccwNg35D.s 			page 20


 1080 004a 2A46     		mov	r2, r5
 1081 004c FFF7FEFF 		bl	send_command_R1
 1082              	.LVL124:
 1083 0050 0128     		cmp	r0, #1
 1084 0052 58D0     		beq	.L87
 1085              	.LVL125:
 1086              		.loc 1 503 0
 1087 0054 0A20     		movs	r0, #10
 1088 0056 FFF7FEFF 		bl	chThdSleep
 1089              	.LVL126:
 1090              		.loc 1 499 0
 1091 005a 2046     		mov	r0, r4
 1092 005c 2946     		mov	r1, r5
 1093 005e 2A46     		mov	r2, r5
 1094 0060 FFF7FEFF 		bl	send_command_R1
 1095              	.LVL127:
 1096 0064 0128     		cmp	r0, #1
 1097 0066 4ED0     		beq	.L87
 1098              	.LVL128:
 1099              		.loc 1 503 0
 1100 0068 0A20     		movs	r0, #10
 1101 006a FFF7FEFF 		bl	chThdSleep
 1102              	.LVL129:
 1103              		.loc 1 499 0
 1104 006e 2046     		mov	r0, r4
 1105 0070 2946     		mov	r1, r5
 1106 0072 2A46     		mov	r2, r5
 1107 0074 FFF7FEFF 		bl	send_command_R1
 1108              	.LVL130:
 1109 0078 0128     		cmp	r0, #1
 1110 007a 44D0     		beq	.L87
 1111              	.LVL131:
 1112              		.loc 1 503 0
 1113 007c 0A20     		movs	r0, #10
 1114 007e FFF7FEFF 		bl	chThdSleep
 1115              	.LVL132:
 1116              		.loc 1 499 0
 1117 0082 2046     		mov	r0, r4
 1118 0084 2946     		mov	r1, r5
 1119 0086 2A46     		mov	r2, r5
 1120 0088 FFF7FEFF 		bl	send_command_R1
 1121              	.LVL133:
 1122 008c 0128     		cmp	r0, #1
 1123 008e 3AD0     		beq	.L87
 1124              	.LVL134:
 1125              		.loc 1 503 0
 1126 0090 0A20     		movs	r0, #10
 1127 0092 FFF7FEFF 		bl	chThdSleep
 1128              	.LVL135:
 1129              		.loc 1 499 0
 1130 0096 2046     		mov	r0, r4
 1131 0098 2946     		mov	r1, r5
 1132 009a 2A46     		mov	r2, r5
 1133 009c FFF7FEFF 		bl	send_command_R1
 1134              	.LVL136:
 1135 00a0 0128     		cmp	r0, #1
 1136 00a2 30D0     		beq	.L87
ARM GAS  C:\Users\Vergil\AppData\Local\Temp\ccwNg35D.s 			page 21


 1137              	.LVL137:
 1138              		.loc 1 503 0
 1139 00a4 0A20     		movs	r0, #10
 1140 00a6 FFF7FEFF 		bl	chThdSleep
 1141              	.LVL138:
 1142              		.loc 1 499 0
 1143 00aa 2046     		mov	r0, r4
 1144 00ac 2946     		mov	r1, r5
 1145 00ae 2A46     		mov	r2, r5
 1146 00b0 FFF7FEFF 		bl	send_command_R1
 1147              	.LVL139:
 1148 00b4 0128     		cmp	r0, #1
 1149 00b6 26D0     		beq	.L87
 1150              	.LVL140:
 1151              		.loc 1 503 0
 1152 00b8 0A20     		movs	r0, #10
 1153 00ba FFF7FEFF 		bl	chThdSleep
 1154              	.LVL141:
 1155              		.loc 1 499 0
 1156 00be 2046     		mov	r0, r4
 1157 00c0 2946     		mov	r1, r5
 1158 00c2 2A46     		mov	r2, r5
 1159 00c4 FFF7FEFF 		bl	send_command_R1
 1160              	.LVL142:
 1161 00c8 0128     		cmp	r0, #1
 1162 00ca 1CD0     		beq	.L87
 1163              	.LVL143:
 1164              		.loc 1 503 0
 1165 00cc 0A20     		movs	r0, #10
 1166 00ce FFF7FEFF 		bl	chThdSleep
 1167              	.LVL144:
 1168              		.loc 1 499 0
 1169 00d2 2046     		mov	r0, r4
 1170 00d4 2946     		mov	r1, r5
 1171 00d6 2A46     		mov	r2, r5
 1172 00d8 FFF7FEFF 		bl	send_command_R1
 1173              	.LVL145:
 1174 00dc 0128     		cmp	r0, #1
 1175 00de 12D0     		beq	.L87
 1176              	.LVL146:
 1177              		.loc 1 503 0
 1178 00e0 0A20     		movs	r0, #10
 1179 00e2 FFF7FEFF 		bl	chThdSleep
 1180              	.LVL147:
 1181              		.loc 1 499 0
 1182 00e6 2046     		mov	r0, r4
 1183 00e8 2946     		mov	r1, r5
 1184 00ea 2A46     		mov	r2, r5
 1185 00ec FFF7FEFF 		bl	send_command_R1
 1186              	.LVL148:
 1187 00f0 0128     		cmp	r0, #1
 1188 00f2 08D0     		beq	.L87
 1189              	.LVL149:
 1190              	.L88:
 1191              	.LDL1:
 1192              		.loc 1 570 0
 1193 00f4 E26A     		ldr	r2, [r4, #44]
ARM GAS  C:\Users\Vergil\AppData\Local\Temp\ccwNg35D.s 			page 22


 1194 00f6 1068     		ldr	r0, [r2, #0]
 1195 00f8 FFF7FEFF 		bl	spiStop
 1196              	.LVL150:
 1197              		.loc 1 571 0
 1198 00fc 0223     		movs	r3, #2
 1199 00fe 2371     		strb	r3, [r4, #4]
 1200              		.loc 1 572 0
 1201 0100 0120     		movs	r0, #1
 1202              	.L98:
 1203              		.loc 1 573 0
 1204 0102 02B0     		add	sp, sp, #8
 1205 0104 70BD     		pop	{r4, r5, r6, pc}
 1206              	.L87:
 1207              		.loc 1 510 0
 1208 0106 0821     		movs	r1, #8
 1209 0108 2046     		mov	r0, r4
 1210 010a 4FF4D572 		mov	r2, #426
 1211 010e 01AB     		add	r3, sp, #4
 1212 0110 FFF7FEFF 		bl	send_command_R3
 1213              	.LVL151:
 1214 0114 0528     		cmp	r0, #5
 1215 0116 3FD0     		beq	.L90
 1216 0118 6426     		movs	r6, #100
 1217 011a 1DE0     		b	.L89
 1218              	.L94:
 1219              		.loc 1 523 0
 1220 011c 0A20     		movs	r0, #10
 1221              		.loc 1 521 0
 1222 011e 013E     		subs	r6, r6, #1
 1223 0120 E8D0     		beq	.L88
 1224              		.loc 1 523 0
 1225 0122 FFF7FEFF 		bl	chThdSleep
 1226              	.LVL152:
 1227              		.loc 1 516 0
 1228 0126 3721     		movs	r1, #55
 1229 0128 0022     		movs	r2, #0
 1230 012a 2046     		mov	r0, r4
 1231 012c FFF7FEFF 		bl	send_command_R1
 1232              	.LVL153:
 1233 0130 0128     		cmp	r0, #1
 1234 0132 0546     		mov	r5, r0
 1235 0134 00F08580 		beq	.L155
 1236              	.L152:
 1237              		.loc 1 523 0
 1238 0138 0A20     		movs	r0, #10
 1239 013a FFF7FEFF 		bl	chThdSleep
 1240              	.LVL154:
 1241              		.loc 1 516 0
 1242 013e 3721     		movs	r1, #55
 1243 0140 0022     		movs	r2, #0
 1244 0142 2046     		mov	r0, r4
 1245 0144 FFF7FEFF 		bl	send_command_R1
 1246              	.LVL155:
 1247 0148 0128     		cmp	r0, #1
 1248 014a 0546     		mov	r5, r0
 1249 014c 00F08680 		beq	.L156
 1250              	.L154:
ARM GAS  C:\Users\Vergil\AppData\Local\Temp\ccwNg35D.s 			page 23


 1251              		.loc 1 523 0
 1252 0150 0A20     		movs	r0, #10
 1253 0152 023E     		subs	r6, r6, #2
 1254 0154 FFF7FEFF 		bl	chThdSleep
 1255              	.LVL156:
 1256              	.L89:
 1257              		.loc 1 516 0
 1258 0158 3721     		movs	r1, #55
 1259 015a 0022     		movs	r2, #0
 1260 015c 2046     		mov	r0, r4
 1261 015e FFF7FEFF 		bl	send_command_R1
 1262              	.LVL157:
 1263 0162 0128     		cmp	r0, #1
 1264 0164 0546     		mov	r5, r0
 1265 0166 D9D1     		bne	.L94
 1266              		.loc 1 517 0 discriminator 1
 1267 0168 4FF4D572 		mov	r2, #426
 1268 016c 01AB     		add	r3, sp, #4
 1269 016e 2046     		mov	r0, r4
 1270 0170 2921     		movs	r1, #41
 1271 0172 C4F20002 		movt	r2, 16384
 1272 0176 FFF7FEFF 		bl	send_command_R3
 1273              	.LVL158:
 1274              		.loc 1 516 0 discriminator 1
 1275 017a 0028     		cmp	r0, #0
 1276 017c CED1     		bne	.L94
 1277              	.L93:
 1278              		.loc 1 527 0
 1279 017e 3A21     		movs	r1, #58
 1280 0180 0022     		movs	r2, #0
 1281 0182 2046     		mov	r0, r4
 1282 0184 01AB     		add	r3, sp, #4
 1283 0186 FFF7FEFF 		bl	send_command_R3
 1284              	.LVL159:
 1285              		.loc 1 530 0
 1286 018a 9DF80410 		ldrb	r1, [sp, #4]	@ zero_extendqisi2
 1287 018e 01F04000 		and	r0, r1, #64
 1288 0192 C2B2     		uxtb	r2, r0
 1289 0194 002A     		cmp	r2, #0
 1290 0196 6ED1     		bne	.L157
 1291              	.L90:
 1292              		.loc 1 510 0
 1293 0198 6426     		movs	r6, #100
 1294 019a 1EE0     		b	.L97
 1295              	.LVL160:
 1296              	.L158:
 1297              	.LBB28:
 1298              		.loc 1 540 0
 1299 019c 012D     		cmp	r5, #1
 1300 019e A9D1     		bne	.L88
 1301              		.loc 1 542 0
 1302 01a0 012E     		cmp	r6, #1
 1303 01a2 A7D0     		beq	.L88
 1304              		.loc 1 544 0
 1305 01a4 FFF7FEFF 		bl	chThdSleep
 1306              	.LVL161:
 1307              		.loc 1 537 0
ARM GAS  C:\Users\Vergil\AppData\Local\Temp\ccwNg35D.s 			page 24


 1308 01a8 2946     		mov	r1, r5
 1309 01aa 2046     		mov	r0, r4
 1310 01ac 0022     		movs	r2, #0
 1311 01ae FFF7FEFF 		bl	send_command_R1
 1312              	.LVL162:
 1313              		.loc 1 538 0
 1314 01b2 0546     		mov	r5, r0
 1315              	.LVL163:
 1316              		.loc 1 544 0
 1317 01b4 0A20     		movs	r0, #10
 1318              		.loc 1 538 0
 1319 01b6 CDB1     		cbz	r5, .L96
 1320              		.loc 1 540 0
 1321 01b8 012D     		cmp	r5, #1
 1322 01ba 9BD1     		bne	.L88
 1323              		.loc 1 544 0
 1324 01bc FFF7FEFF 		bl	chThdSleep
 1325              	.LVL164:
 1326              		.loc 1 537 0
 1327 01c0 2046     		mov	r0, r4
 1328 01c2 2946     		mov	r1, r5
 1329 01c4 0022     		movs	r2, #0
 1330 01c6 FFF7FEFF 		bl	send_command_R1
 1331              	.LVL165:
 1332              		.loc 1 538 0
 1333 01ca 0346     		mov	r3, r0
 1334              		.loc 1 544 0
 1335 01cc 0A20     		movs	r0, #10
 1336              		.loc 1 538 0
 1337 01ce 6BB1     		cbz	r3, .L96
 1338              		.loc 1 540 0
 1339 01d0 012B     		cmp	r3, #1
 1340 01d2 8FD1     		bne	.L88
 1341 01d4 033E     		subs	r6, r6, #3
 1342              		.loc 1 544 0
 1343 01d6 FFF7FEFF 		bl	chThdSleep
 1344              	.LVL166:
 1345              	.L97:
 1346              		.loc 1 537 0
 1347 01da 0022     		movs	r2, #0
 1348 01dc 2046     		mov	r0, r4
 1349 01de 0121     		movs	r1, #1
 1350 01e0 FFF7FEFF 		bl	send_command_R1
 1351              	.LVL167:
 1352              		.loc 1 538 0
 1353 01e4 0546     		mov	r5, r0
 1354              		.loc 1 544 0
 1355 01e6 0A20     		movs	r0, #10
 1356              	.LVL168:
 1357              		.loc 1 538 0
 1358 01e8 002D     		cmp	r5, #0
 1359 01ea D7D1     		bne	.L158
 1360              	.L96:
 1361              	.LBE28:
 1362              		.loc 1 548 0
 1363 01ec E06A     		ldr	r0, [r4, #44]
 1364 01ee 8168     		ldr	r1, [r0, #8]
ARM GAS  C:\Users\Vergil\AppData\Local\Temp\ccwNg35D.s 			page 25


 1365 01f0 0068     		ldr	r0, [r0, #0]
 1366 01f2 FFF7FEFF 		bl	spiStart
 1367              	.LVL169:
 1368              		.loc 1 551 0
 1369 01f6 2046     		mov	r0, r4
 1370 01f8 1021     		movs	r1, #16
 1371 01fa 4FF40072 		mov	r2, #512
 1372 01fe FFF7FEFF 		bl	send_command_R1
 1373              	.LVL170:
 1374 0202 0028     		cmp	r0, #0
 1375 0204 7FF476AF 		bne	.L88
 1376              		.loc 1 556 0
 1377 0208 04F11805 		add	r5, r4, #24
 1378 020c 2046     		mov	r0, r4
 1379 020e 0921     		movs	r1, #9
 1380 0210 2A46     		mov	r2, r5
 1381 0212 FFF7FEFF 		bl	read_CxD
 1382              	.LVL171:
 1383 0216 0028     		cmp	r0, #0
 1384 0218 7FF46CAF 		bne	.L88
 1385              		.loc 1 558 0
 1386 021c 2846     		mov	r0, r5
 1387 021e FFF7FEFF 		bl	mmcsdGetCapacity
 1388              	.LVL172:
 1389 0222 A062     		str	r0, [r4, #40]
 1390              		.loc 1 559 0
 1391 0224 0028     		cmp	r0, #0
 1392 0226 3FF465AF 		beq	.L88
 1393              		.loc 1 562 0
 1394 022a 2046     		mov	r0, r4
 1395 022c 0A21     		movs	r1, #10
 1396 022e 04F10802 		add	r2, r4, #8
 1397 0232 FFF7FEFF 		bl	read_CxD
 1398              	.LVL173:
 1399 0236 0028     		cmp	r0, #0
 1400 0238 7FF45CAF 		bne	.L88
 1401              		.loc 1 565 0
 1402 023c 0521     		movs	r1, #5
 1403 023e 2171     		strb	r1, [r4, #4]
 1404 0240 5FE7     		b	.L98
 1405              	.L155:
 1406              		.loc 1 517 0
 1407 0242 4FF4D572 		mov	r2, #426
 1408 0246 01AB     		add	r3, sp, #4
 1409 0248 2921     		movs	r1, #41
 1410 024a C4F20002 		movt	r2, 16384
 1411 024e 2046     		mov	r0, r4
 1412 0250 FFF7FEFF 		bl	send_command_R3
 1413              	.LVL174:
 1414              		.loc 1 516 0
 1415 0254 0028     		cmp	r0, #0
 1416 0256 7FF46FAF 		bne	.L152
 1417 025a 90E7     		b	.L93
 1418              	.L156:
 1419              		.loc 1 517 0
 1420 025c 4FF4D572 		mov	r2, #426
 1421 0260 2921     		movs	r1, #41
ARM GAS  C:\Users\Vergil\AppData\Local\Temp\ccwNg35D.s 			page 26


 1422 0262 C4F20002 		movt	r2, 16384
 1423 0266 01AB     		add	r3, sp, #4
 1424 0268 2046     		mov	r0, r4
 1425 026a FFF7FEFF 		bl	send_command_R3
 1426              	.LVL175:
 1427              		.loc 1 516 0
 1428 026e 0028     		cmp	r0, #0
 1429 0270 7FF46EAF 		bne	.L154
 1430 0274 83E7     		b	.L93
 1431              	.L157:
 1432              		.loc 1 531 0
 1433 0276 84F83050 		strb	r5, [r4, #48]
 1434 027a 8DE7     		b	.L90
 1435              		.cfi_endproc
 1436              	.LFE133:
 1437              		.size	mmcConnect, .-mmcConnect
 1438 027c AFF30080 		.section	.text.mmcSync,"ax",%progbits
 1439              		.align	2
 1440              		.p2align 4,,15
 1441              		.global	mmcSync
 1442              		.thumb
 1443              		.thumb_func
 1444              		.type	mmcSync, %function
 1445              	mmcSync:
 1446              	.LFB141:
 1447              		.loc 1 846 0
 1448              		.cfi_startproc
 1449              		@ args = 0, pretend = 0, frame = 0
 1450              		@ frame_needed = 0, uses_anonymous_args = 0
 1451              	.LVL176:
 1452 0000 38B5     		push	{r3, r4, r5, lr}
 1453              	.LCFI14:
 1454              		.cfi_def_cfa_offset 16
 1455              		.cfi_offset 3, -16
 1456              		.cfi_offset 4, -12
 1457              		.cfi_offset 5, -8
 1458              		.cfi_offset 14, -4
 1459              		.loc 1 850 0
 1460 0002 0579     		ldrb	r5, [r0, #4]	@ zero_extendqisi2
 1461 0004 052D     		cmp	r5, #5
 1462              		.loc 1 846 0
 1463 0006 0446     		mov	r4, r0
 1464              		.loc 1 850 0
 1465 0008 01D0     		beq	.L162
 1466              		.loc 1 851 0
 1467 000a 0120     		movs	r0, #1
 1468              	.LVL177:
 1469              		.loc 1 862 0
 1470 000c 38BD     		pop	{r3, r4, r5, pc}
 1471              	.LVL178:
 1472              	.L162:
 1473              	.LBB31:
 1474              	.LBB32:
 1475              		.loc 1 856 0
 1476 000e C36A     		ldr	r3, [r0, #44]
 1477              		.loc 1 854 0
 1478 0010 0822     		movs	r2, #8
ARM GAS  C:\Users\Vergil\AppData\Local\Temp\ccwNg35D.s 			page 27


 1479              		.loc 1 856 0
 1480 0012 9968     		ldr	r1, [r3, #8]
 1481              		.loc 1 854 0
 1482 0014 0271     		strb	r2, [r0, #4]
 1483              		.loc 1 856 0
 1484 0016 1868     		ldr	r0, [r3, #0]
 1485              	.LVL179:
 1486 0018 FFF7FEFF 		bl	spiStart
 1487              	.LVL180:
 1488              		.loc 1 857 0
 1489 001c 2046     		mov	r0, r4
 1490 001e FFF7FEFF 		bl	sync
 1491              	.LVL181:
 1492              		.loc 1 860 0
 1493 0022 2571     		strb	r5, [r4, #4]
 1494 0024 0020     		movs	r0, #0
 1495 0026 38BD     		pop	{r3, r4, r5, pc}
 1496              	.LBE32:
 1497              	.LBE31:
 1498              		.cfi_endproc
 1499              	.LFE141:
 1500              		.size	mmcSync, .-mmcSync
 1501 0028 AFF30080 		.section	.text.mmcDisconnect,"ax",%progbits
 1501      AFF30080 
 1502              		.align	2
 1503              		.p2align 4,,15
 1504              		.global	mmcDisconnect
 1505              		.thumb
 1506              		.thumb_func
 1507              		.type	mmcDisconnect, %function
 1508              	mmcDisconnect:
 1509              	.LFB134:
 1510              		.loc 1 587 0
 1511              		.cfi_startproc
 1512              		@ args = 0, pretend = 0, frame = 0
 1513              		@ frame_needed = 0, uses_anonymous_args = 0
 1514              	.LVL182:
 1515 0000 10B5     		push	{r4, lr}
 1516              	.LCFI15:
 1517              		.cfi_def_cfa_offset 8
 1518              		.cfi_offset 4, -8
 1519              		.cfi_offset 14, -4
 1520              	.LBB40:
 1521              		.loc 1 591 0
 1522 0002 2023     		movs	r3, #32
 1523              	.LVL183:
 1524              	.LBE40:
 1525              		.loc 1 587 0
 1526 0004 0446     		mov	r4, r0
 1527              	.LBB41:
 1528              		.loc 1 591 0
 1529              	@ 591 "../../os/hal/src/mmc_spi.c" 1
 1530 0006 83F31188 		msr     BASEPRI, r3
 1531              	@ 0 "" 2
 1532              	.LVL184:
 1533              		.thumb
 1534              	.LBE41:
ARM GAS  C:\Users\Vergil\AppData\Local\Temp\ccwNg35D.s 			page 28


 1535              		.loc 1 594 0
 1536 000a 0379     		ldrb	r3, [r0, #4]	@ zero_extendqisi2
 1537              	.LVL185:
 1538 000c 022B     		cmp	r3, #2
 1539 000e 14D0     		beq	.L166
 1540              	.LVL186:
 1541              	.LBB42:
 1542              	.LBB43:
 1543              		.loc 1 598 0
 1544 0010 0420     		movs	r0, #4
 1545              	.LVL187:
 1546 0012 2071     		strb	r0, [r4, #4]
 1547              	.LBB44:
 1548              		.loc 1 599 0
 1549 0014 0023     		movs	r3, #0
 1550              	.LVL188:
 1551              	@ 599 "../../os/hal/src/mmc_spi.c" 1
 1552 0016 83F31188 		msr     BASEPRI, r3
 1553              	@ 0 "" 2
 1554              	.LVL189:
 1555              		.thumb
 1556              	.LBE44:
 1557              		.loc 1 602 0
 1558 001a E26A     		ldr	r2, [r4, #44]
 1559 001c 9168     		ldr	r1, [r2, #8]
 1560 001e 1068     		ldr	r0, [r2, #0]
 1561 0020 FFF7FEFF 		bl	spiStart
 1562              	.LVL190:
 1563              		.loc 1 603 0
 1564 0024 2046     		mov	r0, r4
 1565 0026 FFF7FEFF 		bl	sync
 1566              	.LVL191:
 1567              		.loc 1 605 0
 1568 002a E16A     		ldr	r1, [r4, #44]
 1569 002c 0868     		ldr	r0, [r1, #0]
 1570 002e FFF7FEFF 		bl	spiStop
 1571              	.LVL192:
 1572              		.loc 1 606 0
 1573 0032 0223     		movs	r3, #2
 1574 0034 2371     		strb	r3, [r4, #4]
 1575              	.LBE43:
 1576              	.LBE42:
 1577              		.loc 1 608 0
 1578 0036 0020     		movs	r0, #0
 1579 0038 10BD     		pop	{r4, pc}
 1580              	.LVL193:
 1581              	.L166:
 1582              	.LBB45:
 1583              		.loc 1 595 0
 1584 003a 0023     		movs	r3, #0
 1585              	.LVL194:
 1586              	@ 595 "../../os/hal/src/mmc_spi.c" 1
 1587 003c 83F31188 		msr     BASEPRI, r3
 1588              	@ 0 "" 2
 1589              	.LVL195:
 1590              		.thumb
 1591              	.LBE45:
ARM GAS  C:\Users\Vergil\AppData\Local\Temp\ccwNg35D.s 			page 29


 1592              		.loc 1 608 0
 1593 0040 0020     		movs	r0, #0
 1594              	.LVL196:
 1595 0042 10BD     		pop	{r4, pc}
 1596              		.cfi_endproc
 1597              	.LFE134:
 1598              		.size	mmcDisconnect, .-mmcDisconnect
 1599 0044 AFF30080 		.section	.text.mmcInit,"ax",%progbits
 1599      AFF30080 
 1599      AFF30080 
 1600              		.align	2
 1601              		.p2align 4,,15
 1602              		.global	mmcInit
 1603              		.thumb
 1604              		.thumb_func
 1605              		.type	mmcInit, %function
 1606              	mmcInit:
 1607              	.LFB129:
 1608              		.loc 1 401 0
 1609              		.cfi_startproc
 1610              		@ args = 0, pretend = 0, frame = 0
 1611              		@ frame_needed = 0, uses_anonymous_args = 0
 1612              		@ link register save eliminated.
 1613 0000 7047     		bx	lr
 1614              		.cfi_endproc
 1615              	.LFE129:
 1616              		.size	mmcInit, .-mmcInit
 1617 0002 00BFAFF3 		.section	.text.mmcObjectInit,"ax",%progbits
 1617      0080AFF3 
 1617      0080AFF3 
 1617      0080
 1618              		.align	2
 1619              		.p2align 4,,15
 1620              		.global	mmcObjectInit
 1621              		.thumb
 1622              		.thumb_func
 1623              		.type	mmcObjectInit, %function
 1624              	mmcObjectInit:
 1625              	.LFB130:
 1626              		.loc 1 412 0
 1627              		.cfi_startproc
 1628              		@ args = 0, pretend = 0, frame = 0
 1629              		@ frame_needed = 0, uses_anonymous_args = 0
 1630              		@ link register save eliminated.
 1631              	.LVL197:
 1632              		.loc 1 414 0
 1633 0000 40F20002 		movw	r2, #:lower16:.LANCHOR1
 1634              		.loc 1 416 0
 1635 0004 0023     		movs	r3, #0
 1636              		.loc 1 414 0
 1637 0006 C0F20002 		movt	r2, #:upper16:.LANCHOR1
 1638              		.loc 1 415 0
 1639 000a 0121     		movs	r1, #1
 1640              		.loc 1 414 0
 1641 000c 0260     		str	r2, [r0, #0]
 1642              		.loc 1 415 0
 1643 000e 0171     		strb	r1, [r0, #4]
ARM GAS  C:\Users\Vergil\AppData\Local\Temp\ccwNg35D.s 			page 30


 1644              		.loc 1 416 0
 1645 0010 C362     		str	r3, [r0, #44]
 1646              		.loc 1 417 0
 1647 0012 80F83030 		strb	r3, [r0, #48]
 1648 0016 7047     		bx	lr
 1649              		.cfi_endproc
 1650              	.LFE130:
 1651              		.size	mmcObjectInit, .-mmcObjectInit
 1652 0018 AFF30080 		.section	.text.mmcStart,"ax",%progbits
 1652      AFF30080 
 1653              		.align	2
 1654              		.p2align 4,,15
 1655              		.global	mmcStart
 1656              		.thumb
 1657              		.thumb_func
 1658              		.type	mmcStart, %function
 1659              	mmcStart:
 1660              	.LFB131:
 1661              		.loc 1 428 0
 1662              		.cfi_startproc
 1663              		@ args = 0, pretend = 0, frame = 0
 1664              		@ frame_needed = 0, uses_anonymous_args = 0
 1665              		@ link register save eliminated.
 1666              	.LVL198:
 1667              		.loc 1 435 0
 1668 0000 0223     		movs	r3, #2
 1669              		.loc 1 434 0
 1670 0002 C162     		str	r1, [r0, #44]
 1671              		.loc 1 435 0
 1672 0004 0371     		strb	r3, [r0, #4]
 1673 0006 7047     		bx	lr
 1674              		.cfi_endproc
 1675              	.LFE131:
 1676              		.size	mmcStart, .-mmcStart
 1677 0008 AFF30080 		.section	.text.mmcStop,"ax",%progbits
 1677      AFF30080 
 1678              		.align	2
 1679              		.p2align 4,,15
 1680              		.global	mmcStop
 1681              		.thumb
 1682              		.thumb_func
 1683              		.type	mmcStop, %function
 1684              	mmcStop:
 1685              	.LFB132:
 1686              		.loc 1 445 0
 1687              		.cfi_startproc
 1688              		@ args = 0, pretend = 0, frame = 0
 1689              		@ frame_needed = 0, uses_anonymous_args = 0
 1690              	.LVL199:
 1691              		.loc 1 451 0
 1692 0000 C36A     		ldr	r3, [r0, #44]
 1693              		.loc 1 445 0
 1694 0002 10B5     		push	{r4, lr}
 1695              	.LCFI16:
 1696              		.cfi_def_cfa_offset 8
 1697              		.cfi_offset 4, -8
 1698              		.cfi_offset 14, -4
ARM GAS  C:\Users\Vergil\AppData\Local\Temp\ccwNg35D.s 			page 31


 1699              		.loc 1 445 0
 1700 0004 0446     		mov	r4, r0
 1701              		.loc 1 451 0
 1702 0006 1868     		ldr	r0, [r3, #0]
 1703              	.LVL200:
 1704 0008 FFF7FEFF 		bl	spiStop
 1705              	.LVL201:
 1706              		.loc 1 452 0
 1707 000c 0120     		movs	r0, #1
 1708 000e 2071     		strb	r0, [r4, #4]
 1709 0010 10BD     		pop	{r4, pc}
 1710              		.cfi_endproc
 1711              	.LFE132:
 1712              		.size	mmcStop, .-mmcStop
 1713 0012 00BFAFF3 		.section	.text.mmcStartSequentialRead,"ax",%progbits
 1713      0080AFF3 
 1713      0080AFF3 
 1713      0080
 1714              		.align	2
 1715              		.p2align 4,,15
 1716              		.global	mmcStartSequentialRead
 1717              		.thumb
 1718              		.thumb_func
 1719              		.type	mmcStartSequentialRead, %function
 1720              	mmcStartSequentialRead:
 1721              	.LFB135:
 1722              		.loc 1 622 0
 1723              		.cfi_startproc
 1724              		@ args = 0, pretend = 0, frame = 0
 1725              		@ frame_needed = 0, uses_anonymous_args = 0
 1726              	.LVL202:
 1727 0000 38B5     		push	{r3, r4, r5, lr}
 1728              	.LCFI17:
 1729              		.cfi_def_cfa_offset 16
 1730              		.cfi_offset 3, -16
 1731              		.cfi_offset 4, -12
 1732              		.cfi_offset 5, -8
 1733              		.cfi_offset 14, -4
 1734              		.loc 1 633 0
 1735 0002 C36A     		ldr	r3, [r0, #44]
 1736              		.loc 1 622 0
 1737 0004 0446     		mov	r4, r0
 1738              		.loc 1 629 0
 1739 0006 0622     		movs	r2, #6
 1740 0008 0271     		strb	r2, [r0, #4]
 1741              		.loc 1 622 0
 1742 000a 0D46     		mov	r5, r1
 1743              		.loc 1 633 0
 1744 000c 1868     		ldr	r0, [r3, #0]
 1745              	.LVL203:
 1746 000e 9968     		ldr	r1, [r3, #8]
 1747              	.LVL204:
 1748 0010 FFF7FEFF 		bl	spiStart
 1749              	.LVL205:
 1750              		.loc 1 635 0
 1751 0014 E06A     		ldr	r0, [r4, #44]
 1752 0016 0068     		ldr	r0, [r0, #0]
ARM GAS  C:\Users\Vergil\AppData\Local\Temp\ccwNg35D.s 			page 32


 1753 0018 FFF7FEFF 		bl	spiAcquireBus
 1754              	.LVL206:
 1755              		.loc 1 637 0
 1756 001c E16A     		ldr	r1, [r4, #44]
 1757 001e 0868     		ldr	r0, [r1, #0]
 1758 0020 FFF7FEFF 		bl	spiSelect
 1759              	.LVL207:
 1760              		.loc 1 639 0
 1761 0024 94F83030 		ldrb	r3, [r4, #48]	@ zero_extendqisi2
 1762              		.loc 1 640 0
 1763 0028 2046     		mov	r0, r4
 1764 002a 1221     		movs	r1, #18
 1765              		.loc 1 639 0
 1766 002c 73B1     		cbz	r3, .L172
 1767              		.loc 1 640 0
 1768 002e 2A46     		mov	r2, r5
 1769 0030 FFF7FEFF 		bl	send_hdr
 1770              	.LVL208:
 1771              	.L173:
 1772              		.loc 1 644 0
 1773 0034 2046     		mov	r0, r4
 1774 0036 FFF7FEFF 		bl	recvr1
 1775              	.LVL209:
 1776 003a 30B1     		cbz	r0, .L174
 1777              		.loc 1 645 0
 1778 003c E26A     		ldr	r2, [r4, #44]
 1779 003e 1068     		ldr	r0, [r2, #0]
 1780 0040 FFF7FEFF 		bl	spiStop
 1781              	.LVL210:
 1782              		.loc 1 646 0
 1783 0044 0520     		movs	r0, #5
 1784 0046 2071     		strb	r0, [r4, #4]
 1785              		.loc 1 647 0
 1786 0048 0120     		movs	r0, #1
 1787              	.L174:
 1788              		.loc 1 650 0
 1789 004a 38BD     		pop	{r3, r4, r5, pc}
 1790              	.LVL211:
 1791              	.L172:
 1792              		.loc 1 642 0
 1793 004c 6A02     		lsls	r2, r5, #9
 1794 004e FFF7FEFF 		bl	send_hdr
 1795              	.LVL212:
 1796 0052 EFE7     		b	.L173
 1797              		.cfi_endproc
 1798              	.LFE135:
 1799              		.size	mmcStartSequentialRead, .-mmcStartSequentialRead
 1800 0054 AFF30080 		.section	.text.mmcSequentialRead,"ax",%progbits
 1800      AFF30080 
 1800      AFF30080 
 1801              		.align	2
 1802              		.p2align 4,,15
 1803              		.global	mmcSequentialRead
 1804              		.thumb
 1805              		.thumb_func
 1806              		.type	mmcSequentialRead, %function
 1807              	mmcSequentialRead:
ARM GAS  C:\Users\Vergil\AppData\Local\Temp\ccwNg35D.s 			page 33


 1808              	.LFB136:
 1809              		.loc 1 664 0
 1810              		.cfi_startproc
 1811              		@ args = 0, pretend = 0, frame = 0
 1812              		@ frame_needed = 0, uses_anonymous_args = 0
 1813              	.LVL213:
 1814              		.loc 1 669 0
 1815 0000 0379     		ldrb	r3, [r0, #4]	@ zero_extendqisi2
 1816 0002 062B     		cmp	r3, #6
 1817              		.loc 1 664 0
 1818 0004 70B5     		push	{r4, r5, r6, lr}
 1819              	.LCFI18:
 1820              		.cfi_def_cfa_offset 16
 1821              		.cfi_offset 4, -16
 1822              		.cfi_offset 5, -12
 1823              		.cfi_offset 6, -8
 1824              		.cfi_offset 14, -4
 1825              		.loc 1 664 0
 1826 0006 0646     		mov	r6, r0
 1827 0008 0C46     		mov	r4, r1
 1828              		.loc 1 669 0
 1829 000a 01D0     		beq	.L186
 1830              		.loc 1 670 0
 1831 000c 0120     		movs	r0, #1
 1832              	.LVL214:
 1833              		.loc 1 689 0
 1834 000e 70BD     		pop	{r4, r5, r6, pc}
 1835              	.LVL215:
 1836              	.L186:
 1837              		.loc 1 669 0
 1838 0010 42F21075 		movw	r5, #10000
 1839 0014 08E0     		b	.L179
 1840              	.LVL216:
 1841              	.L178:
 1842              		.loc 1 673 0
 1843 0016 F06A     		ldr	r0, [r6, #44]
 1844 0018 0068     		ldr	r0, [r0, #0]
 1845 001a FFF7FEFF 		bl	spiReceive
 1846              	.LVL217:
 1847              		.loc 1 674 0
 1848 001e 2178     		ldrb	r1, [r4, #0]	@ zero_extendqisi2
 1849 0020 FE29     		cmp	r1, #254
 1850 0022 0ED0     		beq	.L184
 1851              		.loc 1 672 0
 1852 0024 013D     		subs	r5, r5, #1
 1853 0026 1AD0     		beq	.L187
 1854              	.L179:
 1855              		.loc 1 673 0
 1856 0028 F06A     		ldr	r0, [r6, #44]
 1857 002a 0121     		movs	r1, #1
 1858 002c 2246     		mov	r2, r4
 1859 002e 0068     		ldr	r0, [r0, #0]
 1860 0030 FFF7FEFF 		bl	spiReceive
 1861              	.LVL218:
 1862              		.loc 1 674 0
 1863 0034 2378     		ldrb	r3, [r4, #0]	@ zero_extendqisi2
 1864              		.loc 1 673 0
ARM GAS  C:\Users\Vergil\AppData\Local\Temp\ccwNg35D.s 			page 34


 1865 0036 0121     		movs	r1, #1
 1866              		.loc 1 674 0
 1867 0038 FE2B     		cmp	r3, #254
 1868              		.loc 1 673 0
 1869 003a 2246     		mov	r2, r4
 1870 003c 05F1FF35 		add	r5, r5, #-1
 1871              		.loc 1 674 0
 1872 0040 E9D1     		bne	.L178
 1873              	.L184:
 1874              		.loc 1 675 0
 1875 0042 F26A     		ldr	r2, [r6, #44]
 1876 0044 4FF40071 		mov	r1, #512
 1877 0048 1068     		ldr	r0, [r2, #0]
 1878 004a 2246     		mov	r2, r4
 1879 004c FFF7FEFF 		bl	spiReceive
 1880              	.LVL219:
 1881              		.loc 1 677 0
 1882 0050 F36A     		ldr	r3, [r6, #44]
 1883 0052 0221     		movs	r1, #2
 1884 0054 1868     		ldr	r0, [r3, #0]
 1885 0056 FFF7FEFF 		bl	spiIgnore
 1886              	.LVL220:
 1887              		.loc 1 678 0
 1888 005a 0020     		movs	r0, #0
 1889 005c 70BD     		pop	{r4, r5, r6, pc}
 1890              	.L187:
 1891              		.loc 1 682 0
 1892 005e F26A     		ldr	r2, [r6, #44]
 1893 0060 1068     		ldr	r0, [r2, #0]
 1894 0062 FFF7FEFF 		bl	spiUnselect
 1895              	.LVL221:
 1896              		.loc 1 684 0
 1897 0066 F36A     		ldr	r3, [r6, #44]
 1898 0068 1868     		ldr	r0, [r3, #0]
 1899 006a FFF7FEFF 		bl	spiReleaseBus
 1900              	.LVL222:
 1901              		.loc 1 686 0
 1902 006e F06A     		ldr	r0, [r6, #44]
 1903 0070 0068     		ldr	r0, [r0, #0]
 1904 0072 FFF7FEFF 		bl	spiStop
 1905              	.LVL223:
 1906              		.loc 1 687 0
 1907 0076 0521     		movs	r1, #5
 1908 0078 3171     		strb	r1, [r6, #4]
 1909              		.loc 1 688 0
 1910 007a 0120     		movs	r0, #1
 1911 007c 70BD     		pop	{r4, r5, r6, pc}
 1912              		.cfi_endproc
 1913              	.LFE136:
 1914              		.size	mmcSequentialRead, .-mmcSequentialRead
 1915 007e 00BF     		.section	.text.mmcStopSequentialRead,"ax",%progbits
 1916              		.align	2
 1917              		.p2align 4,,15
 1918              		.global	mmcStopSequentialRead
 1919              		.thumb
 1920              		.thumb_func
 1921              		.type	mmcStopSequentialRead, %function
ARM GAS  C:\Users\Vergil\AppData\Local\Temp\ccwNg35D.s 			page 35


 1922              	mmcStopSequentialRead:
 1923              	.LFB137:
 1924              		.loc 1 702 0
 1925              		.cfi_startproc
 1926              		@ args = 0, pretend = 0, frame = 0
 1927              		@ frame_needed = 0, uses_anonymous_args = 0
 1928              	.LVL224:
 1929              		.loc 1 708 0
 1930 0000 0379     		ldrb	r3, [r0, #4]	@ zero_extendqisi2
 1931 0002 062B     		cmp	r3, #6
 1932              		.loc 1 702 0
 1933 0004 10B5     		push	{r4, lr}
 1934              	.LCFI19:
 1935              		.cfi_def_cfa_offset 8
 1936              		.cfi_offset 4, -8
 1937              		.cfi_offset 14, -4
 1938              		.loc 1 702 0
 1939 0006 0446     		mov	r4, r0
 1940              		.loc 1 708 0
 1941 0008 01D0     		beq	.L191
 1942              		.loc 1 709 0
 1943 000a 0120     		movs	r0, #1
 1944              	.LVL225:
 1945              		.loc 1 724 0
 1946 000c 10BD     		pop	{r4, pc}
 1947              	.LVL226:
 1948              	.L191:
 1949              		.loc 1 711 0
 1950 000e C06A     		ldr	r0, [r0, #44]
 1951              	.LVL227:
 1952 0010 094A     		ldr	r2, .L192
 1953 0012 0068     		ldr	r0, [r0, #0]
 1954 0014 0721     		movs	r1, #7
 1955 0016 FFF7FEFF 		bl	spiSend
 1956              	.LVL228:
 1957              		.loc 1 714 0
 1958 001a 2046     		mov	r0, r4
 1959 001c FFF7FEFF 		bl	recvr1
 1960              	.LVL229:
 1961              		.loc 1 717 0
 1962 0020 E16A     		ldr	r1, [r4, #44]
 1963 0022 0868     		ldr	r0, [r1, #0]
 1964 0024 FFF7FEFF 		bl	spiUnselect
 1965              	.LVL230:
 1966              		.loc 1 719 0
 1967 0028 E26A     		ldr	r2, [r4, #44]
 1968 002a 1068     		ldr	r0, [r2, #0]
 1969 002c FFF7FEFF 		bl	spiReleaseBus
 1970              	.LVL231:
 1971              		.loc 1 722 0
 1972 0030 0523     		movs	r3, #5
 1973 0032 2371     		strb	r3, [r4, #4]
 1974              		.loc 1 723 0
 1975 0034 0020     		movs	r0, #0
 1976 0036 10BD     		pop	{r4, pc}
 1977              	.L193:
 1978              		.align	2
ARM GAS  C:\Users\Vergil\AppData\Local\Temp\ccwNg35D.s 			page 36


 1979              	.L192:
 1980 0038 00000000 		.word	.LANCHOR2
 1981              		.cfi_endproc
 1982              	.LFE137:
 1983              		.size	mmcStopSequentialRead, .-mmcStopSequentialRead
 1984 003c AFF30080 		.section	.text.mmc_read,"ax",%progbits
 1985              		.align	2
 1986              		.p2align 4,,15
 1987              		.thumb
 1988              		.thumb_func
 1989              		.type	mmc_read, %function
 1990              	mmc_read:
 1991              	.LFB118:
 1992              		.loc 1 111 0
 1993              		.cfi_startproc
 1994              		@ args = 0, pretend = 0, frame = 0
 1995              		@ frame_needed = 0, uses_anonymous_args = 0
 1996              	.LVL232:
 1997 0000 F8B5     		push	{r3, r4, r5, r6, r7, lr}
 1998              	.LCFI20:
 1999              		.cfi_def_cfa_offset 24
 2000              		.cfi_offset 3, -24
 2001              		.cfi_offset 4, -20
 2002              		.cfi_offset 5, -16
 2003              		.cfi_offset 6, -12
 2004              		.cfi_offset 7, -8
 2005              		.cfi_offset 14, -4
 2006              		.loc 1 111 0
 2007 0002 0746     		mov	r7, r0
 2008 0004 1446     		mov	r4, r2
 2009 0006 1E46     		mov	r6, r3
 2010              		.loc 1 113 0
 2011 0008 FFF7FEFF 		bl	mmcStartSequentialRead
 2012              	.LVL233:
 2013 000c 0028     		cmp	r0, #0
 2014 000e 2DD1     		bne	.L196
 2015              		.loc 1 115 0 discriminator 1
 2016 0010 AEB1     		cbz	r6, .L200
 2017 0012 013E     		subs	r6, r6, #1
 2018              	.LVL234:
 2019              		.loc 1 116 0
 2020 0014 3846     		mov	r0, r7
 2021 0016 2146     		mov	r1, r4
 2022 0018 06F00105 		and	r5, r6, #1
 2023 001c FFF7FEFF 		bl	mmcSequentialRead
 2024              	.LVL235:
 2025 0020 0028     		cmp	r0, #0
 2026 0022 23D1     		bne	.L196
 2027              		.loc 1 118 0
 2028 0024 04F50074 		add	r4, r4, #512
 2029              	.LVL236:
 2030              		.loc 1 115 0
 2031 0028 4EB1     		cbz	r6, .L200
 2032 002a 9DB1     		cbz	r5, .L201
 2033              		.loc 1 116 0
 2034 002c 3846     		mov	r0, r7
 2035 002e 2146     		mov	r1, r4
ARM GAS  C:\Users\Vergil\AppData\Local\Temp\ccwNg35D.s 			page 37


 2036 0030 FFF7FEFF 		bl	mmcSequentialRead
 2037              	.LVL237:
 2038 0034 D0B9     		cbnz	r0, .L196
 2039              		.loc 1 115 0
 2040 0036 013E     		subs	r6, r6, #1
 2041              		.loc 1 118 0
 2042 0038 04F50074 		add	r4, r4, #512
 2043              	.LVL238:
 2044              		.loc 1 115 0
 2045 003c 0AD1     		bne	.L201
 2046              	.L200:
 2047              	.LVL239:
 2048              	.LBB48:
 2049              	.LBB49:
 2050              		.loc 1 121 0
 2051 003e 3846     		mov	r0, r7
 2052              	.LBE49:
 2053              	.LBE48:
 2054              		.loc 1 124 0
 2055 0040 BDE8F840 		pop	{r3, r4, r5, r6, r7, lr}
 2056              	.LBB51:
 2057              	.LBB50:
 2058              		.loc 1 121 0
 2059 0044 FFF7FEBF 		b	mmcStopSequentialRead
 2060              	.LVL240:
 2061              	.L212:
 2062              	.LBE50:
 2063              	.LBE51:
 2064              		.loc 1 116 0
 2065 0048 3846     		mov	r0, r7
 2066 004a FFF7FEFF 		bl	mmcSequentialRead
 2067              	.LVL241:
 2068 004e 68B9     		cbnz	r0, .L196
 2069              		.loc 1 115 0
 2070 0050 013E     		subs	r6, r6, #1
 2071 0052 F4D0     		beq	.L200
 2072              	.L201:
 2073              		.loc 1 116 0
 2074 0054 2146     		mov	r1, r4
 2075 0056 3846     		mov	r0, r7
 2076 0058 FFF7FEFF 		bl	mmcSequentialRead
 2077              	.LVL242:
 2078              		.loc 1 118 0
 2079 005c 04F50075 		add	r5, r4, #512
 2080              		.loc 1 116 0
 2081 0060 2946     		mov	r1, r5
 2082              		.loc 1 119 0
 2083 0062 013E     		subs	r6, r6, #1
 2084              		.loc 1 118 0
 2085 0064 04F58064 		add	r4, r4, #1024
 2086              		.loc 1 116 0
 2087 0068 0028     		cmp	r0, #0
 2088 006a EDD0     		beq	.L212
 2089              	.L196:
 2090              		.loc 1 124 0
 2091 006c 0120     		movs	r0, #1
 2092 006e F8BD     		pop	{r3, r4, r5, r6, r7, pc}
ARM GAS  C:\Users\Vergil\AppData\Local\Temp\ccwNg35D.s 			page 38


 2093              		.cfi_endproc
 2094              	.LFE118:
 2095              		.size	mmc_read, .-mmc_read
 2096              		.section	.text.mmcStartSequentialWrite,"ax",%progbits
 2097              		.align	2
 2098              		.p2align 4,,15
 2099              		.global	mmcStartSequentialWrite
 2100              		.thumb
 2101              		.thumb_func
 2102              		.type	mmcStartSequentialWrite, %function
 2103              	mmcStartSequentialWrite:
 2104              	.LFB138:
 2105              		.loc 1 738 0
 2106              		.cfi_startproc
 2107              		@ args = 0, pretend = 0, frame = 0
 2108              		@ frame_needed = 0, uses_anonymous_args = 0
 2109              	.LVL243:
 2110 0000 38B5     		push	{r3, r4, r5, lr}
 2111              	.LCFI21:
 2112              		.cfi_def_cfa_offset 16
 2113              		.cfi_offset 3, -16
 2114              		.cfi_offset 4, -12
 2115              		.cfi_offset 5, -8
 2116              		.cfi_offset 14, -4
 2117              		.loc 1 747 0
 2118 0002 C36A     		ldr	r3, [r0, #44]
 2119              		.loc 1 738 0
 2120 0004 0446     		mov	r4, r0
 2121              		.loc 1 745 0
 2122 0006 0722     		movs	r2, #7
 2123 0008 0271     		strb	r2, [r0, #4]
 2124              		.loc 1 738 0
 2125 000a 0D46     		mov	r5, r1
 2126              		.loc 1 747 0
 2127 000c 1868     		ldr	r0, [r3, #0]
 2128              	.LVL244:
 2129 000e 9968     		ldr	r1, [r3, #8]
 2130              	.LVL245:
 2131 0010 FFF7FEFF 		bl	spiStart
 2132              	.LVL246:
 2133              		.loc 1 749 0
 2134 0014 E06A     		ldr	r0, [r4, #44]
 2135 0016 0068     		ldr	r0, [r0, #0]
 2136 0018 FFF7FEFF 		bl	spiAcquireBus
 2137              	.LVL247:
 2138              		.loc 1 751 0
 2139 001c E16A     		ldr	r1, [r4, #44]
 2140 001e 0868     		ldr	r0, [r1, #0]
 2141 0020 FFF7FEFF 		bl	spiSelect
 2142              	.LVL248:
 2143              		.loc 1 752 0
 2144 0024 94F83030 		ldrb	r3, [r4, #48]	@ zero_extendqisi2
 2145              		.loc 1 753 0
 2146 0028 2046     		mov	r0, r4
 2147 002a 1921     		movs	r1, #25
 2148              		.loc 1 752 0
 2149 002c 73B1     		cbz	r3, .L214
ARM GAS  C:\Users\Vergil\AppData\Local\Temp\ccwNg35D.s 			page 39


 2150              		.loc 1 753 0
 2151 002e 2A46     		mov	r2, r5
 2152 0030 FFF7FEFF 		bl	send_hdr
 2153              	.LVL249:
 2154              	.L215:
 2155              		.loc 1 758 0
 2156 0034 2046     		mov	r0, r4
 2157 0036 FFF7FEFF 		bl	recvr1
 2158              	.LVL250:
 2159 003a 30B1     		cbz	r0, .L216
 2160              		.loc 1 759 0
 2161 003c E26A     		ldr	r2, [r4, #44]
 2162 003e 1068     		ldr	r0, [r2, #0]
 2163 0040 FFF7FEFF 		bl	spiStop
 2164              	.LVL251:
 2165              		.loc 1 760 0
 2166 0044 0520     		movs	r0, #5
 2167 0046 2071     		strb	r0, [r4, #4]
 2168              		.loc 1 761 0
 2169 0048 0120     		movs	r0, #1
 2170              	.L216:
 2171              		.loc 1 764 0
 2172 004a 38BD     		pop	{r3, r4, r5, pc}
 2173              	.LVL252:
 2174              	.L214:
 2175              		.loc 1 755 0
 2176 004c 6A02     		lsls	r2, r5, #9
 2177 004e FFF7FEFF 		bl	send_hdr
 2178              	.LVL253:
 2179 0052 EFE7     		b	.L215
 2180              		.cfi_endproc
 2181              	.LFE138:
 2182              		.size	mmcStartSequentialWrite, .-mmcStartSequentialWrite
 2183 0054 AFF30080 		.section	.text.mmcSequentialWrite,"ax",%progbits
 2183      AFF30080 
 2183      AFF30080 
 2184              		.align	2
 2185              		.p2align 4,,15
 2186              		.global	mmcSequentialWrite
 2187              		.thumb
 2188              		.thumb_func
 2189              		.type	mmcSequentialWrite, %function
 2190              	mmcSequentialWrite:
 2191              	.LFB139:
 2192              		.loc 1 778 0
 2193              		.cfi_startproc
 2194              		@ args = 0, pretend = 0, frame = 8
 2195              		@ frame_needed = 0, uses_anonymous_args = 0
 2196              	.LVL254:
 2197 0000 30B5     		push	{r4, r5, lr}
 2198              	.LCFI22:
 2199              		.cfi_def_cfa_offset 12
 2200              		.cfi_offset 4, -12
 2201              		.cfi_offset 5, -8
 2202              		.cfi_offset 14, -4
 2203              		.loc 1 784 0
 2204 0002 0379     		ldrb	r3, [r0, #4]	@ zero_extendqisi2
ARM GAS  C:\Users\Vergil\AppData\Local\Temp\ccwNg35D.s 			page 40


 2205 0004 072B     		cmp	r3, #7
 2206              		.loc 1 778 0
 2207 0006 83B0     		sub	sp, sp, #12
 2208              	.LCFI23:
 2209              		.cfi_def_cfa_offset 24
 2210              		.loc 1 778 0
 2211 0008 0446     		mov	r4, r0
 2212 000a 0D46     		mov	r5, r1
 2213              		.loc 1 784 0
 2214 000c 02D0     		beq	.L222
 2215              		.loc 1 785 0
 2216 000e 0120     		movs	r0, #1
 2217              	.LVL255:
 2218              	.L219:
 2219              		.loc 1 804 0
 2220 0010 03B0     		add	sp, sp, #12
 2221 0012 30BD     		pop	{r4, r5, pc}
 2222              	.LVL256:
 2223              	.L222:
 2224              		.loc 1 787 0
 2225 0014 C06A     		ldr	r0, [r0, #44]
 2226              	.LVL257:
 2227 0016 194A     		ldr	r2, .L224
 2228 0018 0068     		ldr	r0, [r0, #0]
 2229 001a 0221     		movs	r1, #2
 2230              	.LVL258:
 2231 001c FFF7FEFF 		bl	spiSend
 2232              	.LVL259:
 2233              		.loc 1 788 0
 2234 0020 E16A     		ldr	r1, [r4, #44]
 2235 0022 2A46     		mov	r2, r5
 2236 0024 0868     		ldr	r0, [r1, #0]
 2237 0026 4FF40071 		mov	r1, #512
 2238 002a FFF7FEFF 		bl	spiSend
 2239              	.LVL260:
 2240              		.loc 1 789 0
 2241 002e E26A     		ldr	r2, [r4, #44]
 2242 0030 0221     		movs	r1, #2
 2243 0032 1068     		ldr	r0, [r2, #0]
 2244 0034 FFF7FEFF 		bl	spiIgnore
 2245              	.LVL261:
 2246              		.loc 1 790 0
 2247 0038 E36A     		ldr	r3, [r4, #44]
 2248 003a 0121     		movs	r1, #1
 2249 003c 1868     		ldr	r0, [r3, #0]
 2250 003e 01AA     		add	r2, sp, #4
 2251 0040 FFF7FEFF 		bl	spiReceive
 2252              	.LVL262:
 2253              		.loc 1 791 0
 2254 0044 9DF80400 		ldrb	r0, [sp, #4]	@ zero_extendqisi2
 2255 0048 00F01F01 		and	r1, r0, #31
 2256 004c 0529     		cmp	r1, #5
 2257 004e 0FD0     		beq	.L223
 2258              		.loc 1 797 0
 2259 0050 E26A     		ldr	r2, [r4, #44]
 2260 0052 1068     		ldr	r0, [r2, #0]
 2261 0054 FFF7FEFF 		bl	spiUnselect
ARM GAS  C:\Users\Vergil\AppData\Local\Temp\ccwNg35D.s 			page 41


 2262              	.LVL263:
 2263              		.loc 1 799 0
 2264 0058 E36A     		ldr	r3, [r4, #44]
 2265 005a 1868     		ldr	r0, [r3, #0]
 2266 005c FFF7FEFF 		bl	spiReleaseBus
 2267              	.LVL264:
 2268              		.loc 1 801 0
 2269 0060 E06A     		ldr	r0, [r4, #44]
 2270 0062 0068     		ldr	r0, [r0, #0]
 2271 0064 FFF7FEFF 		bl	spiStop
 2272              	.LVL265:
 2273              		.loc 1 802 0
 2274 0068 0521     		movs	r1, #5
 2275 006a 2171     		strb	r1, [r4, #4]
 2276              		.loc 1 803 0
 2277 006c 0120     		movs	r0, #1
 2278 006e CFE7     		b	.L219
 2279              	.L223:
 2280              		.loc 1 792 0
 2281 0070 2046     		mov	r0, r4
 2282 0072 FFF7FEFF 		bl	wait
 2283              	.LVL266:
 2284              		.loc 1 793 0
 2285 0076 0020     		movs	r0, #0
 2286 0078 CAE7     		b	.L219
 2287              	.L225:
 2288 007a 00BF     		.align	2
 2289              	.L224:
 2290 007c 00000000 		.word	.LANCHOR3
 2291              		.cfi_endproc
 2292              	.LFE139:
 2293              		.size	mmcSequentialWrite, .-mmcSequentialWrite
 2294              		.section	.text.mmcStopSequentialWrite,"ax",%progbits
 2295              		.align	2
 2296              		.p2align 4,,15
 2297              		.global	mmcStopSequentialWrite
 2298              		.thumb
 2299              		.thumb_func
 2300              		.type	mmcStopSequentialWrite, %function
 2301              	mmcStopSequentialWrite:
 2302              	.LFB140:
 2303              		.loc 1 817 0
 2304              		.cfi_startproc
 2305              		@ args = 0, pretend = 0, frame = 0
 2306              		@ frame_needed = 0, uses_anonymous_args = 0
 2307              	.LVL267:
 2308              		.loc 1 822 0
 2309 0000 0379     		ldrb	r3, [r0, #4]	@ zero_extendqisi2
 2310 0002 072B     		cmp	r3, #7
 2311              		.loc 1 817 0
 2312 0004 10B5     		push	{r4, lr}
 2313              	.LCFI24:
 2314              		.cfi_def_cfa_offset 8
 2315              		.cfi_offset 4, -8
 2316              		.cfi_offset 14, -4
 2317              		.loc 1 817 0
 2318 0006 0446     		mov	r4, r0
ARM GAS  C:\Users\Vergil\AppData\Local\Temp\ccwNg35D.s 			page 42


 2319              		.loc 1 822 0
 2320 0008 01D0     		beq	.L229
 2321              		.loc 1 823 0
 2322 000a 0120     		movs	r0, #1
 2323              	.LVL268:
 2324              		.loc 1 833 0
 2325 000c 10BD     		pop	{r4, pc}
 2326              	.LVL269:
 2327              	.L229:
 2328              		.loc 1 825 0
 2329 000e C06A     		ldr	r0, [r0, #44]
 2330              	.LVL270:
 2331 0010 084A     		ldr	r2, .L230
 2332 0012 0068     		ldr	r0, [r0, #0]
 2333 0014 0221     		movs	r1, #2
 2334 0016 FFF7FEFF 		bl	spiSend
 2335              	.LVL271:
 2336              		.loc 1 826 0
 2337 001a E16A     		ldr	r1, [r4, #44]
 2338 001c 0868     		ldr	r0, [r1, #0]
 2339 001e FFF7FEFF 		bl	spiUnselect
 2340              	.LVL272:
 2341              		.loc 1 828 0
 2342 0022 E26A     		ldr	r2, [r4, #44]
 2343 0024 1068     		ldr	r0, [r2, #0]
 2344 0026 FFF7FEFF 		bl	spiReleaseBus
 2345              	.LVL273:
 2346              		.loc 1 831 0
 2347 002a 0523     		movs	r3, #5
 2348 002c 2371     		strb	r3, [r4, #4]
 2349              		.loc 1 832 0
 2350 002e 0020     		movs	r0, #0
 2351 0030 10BD     		pop	{r4, pc}
 2352              	.L231:
 2353 0032 00BF     		.align	2
 2354              	.L230:
 2355 0034 00000000 		.word	.LANCHOR4
 2356              		.cfi_endproc
 2357              	.LFE140:
 2358              		.size	mmcStopSequentialWrite, .-mmcStopSequentialWrite
 2359 0038 AFF30080 		.section	.text.mmc_write,"ax",%progbits
 2359      AFF30080 
 2360              		.align	2
 2361              		.p2align 4,,15
 2362              		.thumb
 2363              		.thumb_func
 2364              		.type	mmc_write, %function
 2365              	mmc_write:
 2366              	.LFB119:
 2367              		.loc 1 127 0
 2368              		.cfi_startproc
 2369              		@ args = 0, pretend = 0, frame = 0
 2370              		@ frame_needed = 0, uses_anonymous_args = 0
 2371              	.LVL274:
 2372 0000 F8B5     		push	{r3, r4, r5, r6, r7, lr}
 2373              	.LCFI25:
 2374              		.cfi_def_cfa_offset 24
ARM GAS  C:\Users\Vergil\AppData\Local\Temp\ccwNg35D.s 			page 43


 2375              		.cfi_offset 3, -24
 2376              		.cfi_offset 4, -20
 2377              		.cfi_offset 5, -16
 2378              		.cfi_offset 6, -12
 2379              		.cfi_offset 7, -8
 2380              		.cfi_offset 14, -4
 2381              		.loc 1 127 0
 2382 0002 0746     		mov	r7, r0
 2383 0004 1446     		mov	r4, r2
 2384 0006 1E46     		mov	r6, r3
 2385              		.loc 1 129 0
 2386 0008 FFF7FEFF 		bl	mmcStartSequentialWrite
 2387              	.LVL275:
 2388 000c 0028     		cmp	r0, #0
 2389 000e 2DD1     		bne	.L234
 2390              		.loc 1 131 0 discriminator 1
 2391 0010 AEB1     		cbz	r6, .L238
 2392 0012 013E     		subs	r6, r6, #1
 2393              	.LVL276:
 2394              		.loc 1 132 0
 2395 0014 3846     		mov	r0, r7
 2396 0016 2146     		mov	r1, r4
 2397 0018 06F00105 		and	r5, r6, #1
 2398 001c FFF7FEFF 		bl	mmcSequentialWrite
 2399              	.LVL277:
 2400 0020 0028     		cmp	r0, #0
 2401 0022 23D1     		bne	.L234
 2402              		.loc 1 134 0
 2403 0024 04F50074 		add	r4, r4, #512
 2404              	.LVL278:
 2405              		.loc 1 131 0
 2406 0028 4EB1     		cbz	r6, .L238
 2407 002a 9DB1     		cbz	r5, .L239
 2408              		.loc 1 132 0
 2409 002c 3846     		mov	r0, r7
 2410 002e 2146     		mov	r1, r4
 2411 0030 FFF7FEFF 		bl	mmcSequentialWrite
 2412              	.LVL279:
 2413 0034 D0B9     		cbnz	r0, .L234
 2414              		.loc 1 131 0
 2415 0036 013E     		subs	r6, r6, #1
 2416              		.loc 1 134 0
 2417 0038 04F50074 		add	r4, r4, #512
 2418              	.LVL280:
 2419              		.loc 1 131 0
 2420 003c 0AD1     		bne	.L239
 2421              	.L238:
 2422              	.LVL281:
 2423              	.LBB54:
 2424              	.LBB55:
 2425              		.loc 1 137 0
 2426 003e 3846     		mov	r0, r7
 2427              	.LBE55:
 2428              	.LBE54:
 2429              		.loc 1 140 0
 2430 0040 BDE8F840 		pop	{r3, r4, r5, r6, r7, lr}
 2431              	.LBB57:
ARM GAS  C:\Users\Vergil\AppData\Local\Temp\ccwNg35D.s 			page 44


 2432              	.LBB56:
 2433              		.loc 1 137 0
 2434 0044 FFF7FEBF 		b	mmcStopSequentialWrite
 2435              	.LVL282:
 2436              	.L250:
 2437              	.LBE56:
 2438              	.LBE57:
 2439              		.loc 1 132 0
 2440 0048 3846     		mov	r0, r7
 2441 004a FFF7FEFF 		bl	mmcSequentialWrite
 2442              	.LVL283:
 2443 004e 68B9     		cbnz	r0, .L234
 2444              		.loc 1 131 0
 2445 0050 013E     		subs	r6, r6, #1
 2446 0052 F4D0     		beq	.L238
 2447              	.L239:
 2448              		.loc 1 132 0
 2449 0054 2146     		mov	r1, r4
 2450 0056 3846     		mov	r0, r7
 2451 0058 FFF7FEFF 		bl	mmcSequentialWrite
 2452              	.LVL284:
 2453              		.loc 1 134 0
 2454 005c 04F50075 		add	r5, r4, #512
 2455              		.loc 1 132 0
 2456 0060 2946     		mov	r1, r5
 2457              		.loc 1 135 0
 2458 0062 013E     		subs	r6, r6, #1
 2459              		.loc 1 134 0
 2460 0064 04F58064 		add	r4, r4, #1024
 2461              		.loc 1 132 0
 2462 0068 0028     		cmp	r0, #0
 2463 006a EDD0     		beq	.L250
 2464              	.L234:
 2465              		.loc 1 140 0
 2466 006c 0120     		movs	r0, #1
 2467 006e F8BD     		pop	{r3, r4, r5, r6, r7, pc}
 2468              		.cfi_endproc
 2469              	.LFE119:
 2470              		.size	mmc_write, .-mmc_write
 2471              		.section	.text.mmcErase,"ax",%progbits
 2472              		.align	2
 2473              		.p2align 4,,15
 2474              		.global	mmcErase
 2475              		.thumb
 2476              		.thumb_func
 2477              		.type	mmcErase, %function
 2478              	mmcErase:
 2479              	.LFB143:
 2480              		.loc 1 902 0
 2481              		.cfi_startproc
 2482              		@ args = 0, pretend = 0, frame = 0
 2483              		@ frame_needed = 0, uses_anonymous_args = 0
 2484              	.LVL285:
 2485 0000 38B5     		push	{r3, r4, r5, lr}
 2486              	.LCFI26:
 2487              		.cfi_def_cfa_offset 16
 2488              		.cfi_offset 3, -16
ARM GAS  C:\Users\Vergil\AppData\Local\Temp\ccwNg35D.s 			page 45


 2489              		.cfi_offset 4, -12
 2490              		.cfi_offset 5, -8
 2491              		.cfi_offset 14, -4
 2492              		.loc 1 902 0
 2493 0002 0446     		mov	r4, r0
 2494              		.loc 1 910 0
 2495 0004 90F83000 		ldrb	r0, [r0, #48]	@ zero_extendqisi2
 2496              	.LVL286:
 2497              		.loc 1 907 0
 2498 0008 0723     		movs	r3, #7
 2499 000a 2371     		strb	r3, [r4, #4]
 2500              		.loc 1 902 0
 2501 000c 1546     		mov	r5, r2
 2502 000e 0B46     		mov	r3, r1
 2503              		.loc 1 910 0
 2504 0010 08B9     		cbnz	r0, .L252
 2505              		.loc 1 911 0
 2506 0012 4B02     		lsls	r3, r1, #9
 2507              	.LVL287:
 2508              		.loc 1 912 0
 2509 0014 5502     		lsls	r5, r2, #9
 2510              	.LVL288:
 2511              	.L252:
 2512              		.loc 1 915 0
 2513 0016 2046     		mov	r0, r4
 2514 0018 2021     		movs	r1, #32
 2515 001a 1A46     		mov	r2, r3
 2516 001c FFF7FEFF 		bl	send_command_R1
 2517              	.LVL289:
 2518 0020 30B9     		cbnz	r0, .L253
 2519              		.loc 1 918 0
 2520 0022 2A46     		mov	r2, r5
 2521 0024 2046     		mov	r0, r4
 2522 0026 2121     		movs	r1, #33
 2523 0028 FFF7FEFF 		bl	send_command_R1
 2524              	.LVL290:
 2525 002c 0246     		mov	r2, r0
 2526 002e 38B1     		cbz	r0, .L255
 2527              	.L253:
 2528              	.LDL2:
 2529              		.loc 1 929 0
 2530 0030 E26A     		ldr	r2, [r4, #44]
 2531 0032 1068     		ldr	r0, [r2, #0]
 2532 0034 FFF7FEFF 		bl	spiStop
 2533              	.LVL291:
 2534              		.loc 1 930 0
 2535 0038 0520     		movs	r0, #5
 2536 003a 2071     		strb	r0, [r4, #4]
 2537              		.loc 1 931 0
 2538 003c 0120     		movs	r0, #1
 2539              		.loc 1 932 0
 2540 003e 38BD     		pop	{r3, r4, r5, pc}
 2541              	.L255:
 2542              		.loc 1 921 0
 2543 0040 2046     		mov	r0, r4
 2544 0042 2621     		movs	r1, #38
 2545 0044 FFF7FEFF 		bl	send_command_R1
ARM GAS  C:\Users\Vergil\AppData\Local\Temp\ccwNg35D.s 			page 46


 2546              	.LVL292:
 2547 0048 0028     		cmp	r0, #0
 2548 004a F1D1     		bne	.L253
 2549              		.loc 1 924 0
 2550 004c 0521     		movs	r1, #5
 2551 004e 2171     		strb	r1, [r4, #4]
 2552              		.loc 1 925 0
 2553 0050 38BD     		pop	{r3, r4, r5, pc}
 2554              		.cfi_endproc
 2555              	.LFE143:
 2556              		.size	mmcErase, .-mmcErase
 2557 0052 00BFAFF3 		.section	.rodata.crc7_lookup_table,"a",%progbits
 2557      0080AFF3 
 2557      0080AFF3 
 2557      0080
 2558              		.align	2
 2559              		.set	.LANCHOR0,. + 0
 2560              		.type	crc7_lookup_table, %object
 2561              		.size	crc7_lookup_table, 256
 2562              	crc7_lookup_table:
 2563 0000 00       		.byte	0
 2564 0001 09       		.byte	9
 2565 0002 12       		.byte	18
 2566 0003 1B       		.byte	27
 2567 0004 24       		.byte	36
 2568 0005 2D       		.byte	45
 2569 0006 36       		.byte	54
 2570 0007 3F       		.byte	63
 2571 0008 48       		.byte	72
 2572 0009 41       		.byte	65
 2573 000a 5A       		.byte	90
 2574 000b 53       		.byte	83
 2575 000c 6C       		.byte	108
 2576 000d 65       		.byte	101
 2577 000e 7E       		.byte	126
 2578 000f 77       		.byte	119
 2579 0010 19       		.byte	25
 2580 0011 10       		.byte	16
 2581 0012 0B       		.byte	11
 2582 0013 02       		.byte	2
 2583 0014 3D       		.byte	61
 2584 0015 34       		.byte	52
 2585 0016 2F       		.byte	47
 2586 0017 26       		.byte	38
 2587 0018 51       		.byte	81
 2588 0019 58       		.byte	88
 2589 001a 43       		.byte	67
 2590 001b 4A       		.byte	74
 2591 001c 75       		.byte	117
 2592 001d 7C       		.byte	124
 2593 001e 67       		.byte	103
 2594 001f 6E       		.byte	110
 2595 0020 32       		.byte	50
 2596 0021 3B       		.byte	59
 2597 0022 20       		.byte	32
 2598 0023 29       		.byte	41
 2599 0024 16       		.byte	22
ARM GAS  C:\Users\Vergil\AppData\Local\Temp\ccwNg35D.s 			page 47


 2600 0025 1F       		.byte	31
 2601 0026 04       		.byte	4
 2602 0027 0D       		.byte	13
 2603 0028 7A       		.byte	122
 2604 0029 73       		.byte	115
 2605 002a 68       		.byte	104
 2606 002b 61       		.byte	97
 2607 002c 5E       		.byte	94
 2608 002d 57       		.byte	87
 2609 002e 4C       		.byte	76
 2610 002f 45       		.byte	69
 2611 0030 2B       		.byte	43
 2612 0031 22       		.byte	34
 2613 0032 39       		.byte	57
 2614 0033 30       		.byte	48
 2615 0034 0F       		.byte	15
 2616 0035 06       		.byte	6
 2617 0036 1D       		.byte	29
 2618 0037 14       		.byte	20
 2619 0038 63       		.byte	99
 2620 0039 6A       		.byte	106
 2621 003a 71       		.byte	113
 2622 003b 78       		.byte	120
 2623 003c 47       		.byte	71
 2624 003d 4E       		.byte	78
 2625 003e 55       		.byte	85
 2626 003f 5C       		.byte	92
 2627 0040 64       		.byte	100
 2628 0041 6D       		.byte	109
 2629 0042 76       		.byte	118
 2630 0043 7F       		.byte	127
 2631 0044 40       		.byte	64
 2632 0045 49       		.byte	73
 2633 0046 52       		.byte	82
 2634 0047 5B       		.byte	91
 2635 0048 2C       		.byte	44
 2636 0049 25       		.byte	37
 2637 004a 3E       		.byte	62
 2638 004b 37       		.byte	55
 2639 004c 08       		.byte	8
 2640 004d 01       		.byte	1
 2641 004e 1A       		.byte	26
 2642 004f 13       		.byte	19
 2643 0050 7D       		.byte	125
 2644 0051 74       		.byte	116
 2645 0052 6F       		.byte	111
 2646 0053 66       		.byte	102
 2647 0054 59       		.byte	89
 2648 0055 50       		.byte	80
 2649 0056 4B       		.byte	75
 2650 0057 42       		.byte	66
 2651 0058 35       		.byte	53
 2652 0059 3C       		.byte	60
 2653 005a 27       		.byte	39
 2654 005b 2E       		.byte	46
 2655 005c 11       		.byte	17
 2656 005d 18       		.byte	24
ARM GAS  C:\Users\Vergil\AppData\Local\Temp\ccwNg35D.s 			page 48


 2657 005e 03       		.byte	3
 2658 005f 0A       		.byte	10
 2659 0060 56       		.byte	86
 2660 0061 5F       		.byte	95
 2661 0062 44       		.byte	68
 2662 0063 4D       		.byte	77
 2663 0064 72       		.byte	114
 2664 0065 7B       		.byte	123
 2665 0066 60       		.byte	96
 2666 0067 69       		.byte	105
 2667 0068 1E       		.byte	30
 2668 0069 17       		.byte	23
 2669 006a 0C       		.byte	12
 2670 006b 05       		.byte	5
 2671 006c 3A       		.byte	58
 2672 006d 33       		.byte	51
 2673 006e 28       		.byte	40
 2674 006f 21       		.byte	33
 2675 0070 4F       		.byte	79
 2676 0071 46       		.byte	70
 2677 0072 5D       		.byte	93
 2678 0073 54       		.byte	84
 2679 0074 6B       		.byte	107
 2680 0075 62       		.byte	98
 2681 0076 79       		.byte	121
 2682 0077 70       		.byte	112
 2683 0078 07       		.byte	7
 2684 0079 0E       		.byte	14
 2685 007a 15       		.byte	21
 2686 007b 1C       		.byte	28
 2687 007c 23       		.byte	35
 2688 007d 2A       		.byte	42
 2689 007e 31       		.byte	49
 2690 007f 38       		.byte	56
 2691 0080 41       		.byte	65
 2692 0081 48       		.byte	72
 2693 0082 53       		.byte	83
 2694 0083 5A       		.byte	90
 2695 0084 65       		.byte	101
 2696 0085 6C       		.byte	108
 2697 0086 77       		.byte	119
 2698 0087 7E       		.byte	126
 2699 0088 09       		.byte	9
 2700 0089 00       		.byte	0
 2701 008a 1B       		.byte	27
 2702 008b 12       		.byte	18
 2703 008c 2D       		.byte	45
 2704 008d 24       		.byte	36
 2705 008e 3F       		.byte	63
 2706 008f 36       		.byte	54
 2707 0090 58       		.byte	88
 2708 0091 51       		.byte	81
 2709 0092 4A       		.byte	74
 2710 0093 43       		.byte	67
 2711 0094 7C       		.byte	124
 2712 0095 75       		.byte	117
 2713 0096 6E       		.byte	110
ARM GAS  C:\Users\Vergil\AppData\Local\Temp\ccwNg35D.s 			page 49


 2714 0097 67       		.byte	103
 2715 0098 10       		.byte	16
 2716 0099 19       		.byte	25
 2717 009a 02       		.byte	2
 2718 009b 0B       		.byte	11
 2719 009c 34       		.byte	52
 2720 009d 3D       		.byte	61
 2721 009e 26       		.byte	38
 2722 009f 2F       		.byte	47
 2723 00a0 73       		.byte	115
 2724 00a1 7A       		.byte	122
 2725 00a2 61       		.byte	97
 2726 00a3 68       		.byte	104
 2727 00a4 57       		.byte	87
 2728 00a5 5E       		.byte	94
 2729 00a6 45       		.byte	69
 2730 00a7 4C       		.byte	76
 2731 00a8 3B       		.byte	59
 2732 00a9 32       		.byte	50
 2733 00aa 29       		.byte	41
 2734 00ab 20       		.byte	32
 2735 00ac 1F       		.byte	31
 2736 00ad 16       		.byte	22
 2737 00ae 0D       		.byte	13
 2738 00af 04       		.byte	4
 2739 00b0 6A       		.byte	106
 2740 00b1 63       		.byte	99
 2741 00b2 78       		.byte	120
 2742 00b3 71       		.byte	113
 2743 00b4 4E       		.byte	78
 2744 00b5 47       		.byte	71
 2745 00b6 5C       		.byte	92
 2746 00b7 55       		.byte	85
 2747 00b8 22       		.byte	34
 2748 00b9 2B       		.byte	43
 2749 00ba 30       		.byte	48
 2750 00bb 39       		.byte	57
 2751 00bc 06       		.byte	6
 2752 00bd 0F       		.byte	15
 2753 00be 14       		.byte	20
 2754 00bf 1D       		.byte	29
 2755 00c0 25       		.byte	37
 2756 00c1 2C       		.byte	44
 2757 00c2 37       		.byte	55
 2758 00c3 3E       		.byte	62
 2759 00c4 01       		.byte	1
 2760 00c5 08       		.byte	8
 2761 00c6 13       		.byte	19
 2762 00c7 1A       		.byte	26
 2763 00c8 6D       		.byte	109
 2764 00c9 64       		.byte	100
 2765 00ca 7F       		.byte	127
 2766 00cb 76       		.byte	118
 2767 00cc 49       		.byte	73
 2768 00cd 40       		.byte	64
 2769 00ce 5B       		.byte	91
 2770 00cf 52       		.byte	82
ARM GAS  C:\Users\Vergil\AppData\Local\Temp\ccwNg35D.s 			page 50


 2771 00d0 3C       		.byte	60
 2772 00d1 35       		.byte	53
 2773 00d2 2E       		.byte	46
 2774 00d3 27       		.byte	39
 2775 00d4 18       		.byte	24
 2776 00d5 11       		.byte	17
 2777 00d6 0A       		.byte	10
 2778 00d7 03       		.byte	3
 2779 00d8 74       		.byte	116
 2780 00d9 7D       		.byte	125
 2781 00da 66       		.byte	102
 2782 00db 6F       		.byte	111
 2783 00dc 50       		.byte	80
 2784 00dd 59       		.byte	89
 2785 00de 42       		.byte	66
 2786 00df 4B       		.byte	75
 2787 00e0 17       		.byte	23
 2788 00e1 1E       		.byte	30
 2789 00e2 05       		.byte	5
 2790 00e3 0C       		.byte	12
 2791 00e4 33       		.byte	51
 2792 00e5 3A       		.byte	58
 2793 00e6 21       		.byte	33
 2794 00e7 28       		.byte	40
 2795 00e8 5F       		.byte	95
 2796 00e9 56       		.byte	86
 2797 00ea 4D       		.byte	77
 2798 00eb 44       		.byte	68
 2799 00ec 7B       		.byte	123
 2800 00ed 72       		.byte	114
 2801 00ee 69       		.byte	105
 2802 00ef 60       		.byte	96
 2803 00f0 0E       		.byte	14
 2804 00f1 07       		.byte	7
 2805 00f2 1C       		.byte	28
 2806 00f3 15       		.byte	21
 2807 00f4 2A       		.byte	42
 2808 00f5 23       		.byte	35
 2809 00f6 38       		.byte	56
 2810 00f7 31       		.byte	49
 2811 00f8 46       		.byte	70
 2812 00f9 4F       		.byte	79
 2813 00fa 54       		.byte	84
 2814 00fb 5D       		.byte	93
 2815 00fc 62       		.byte	98
 2816 00fd 6B       		.byte	107
 2817 00fe 70       		.byte	112
 2818 00ff 79       		.byte	121
 2819              		.section	.rodata.stop.7391,"a",%progbits
 2820              		.align	2
 2821              		.set	.LANCHOR4,. + 0
 2822              		.type	stop.7391, %object
 2823              		.size	stop.7391, 2
 2824              	stop.7391:
 2825 0000 FD       		.byte	-3
 2826 0001 FF       		.byte	-1
 2827 0002 0000     		.section	.rodata.mmc_vmt,"a",%progbits
ARM GAS  C:\Users\Vergil\AppData\Local\Temp\ccwNg35D.s 			page 51


 2828              		.align	2
 2829              		.set	.LANCHOR1,. + 0
 2830              		.type	mmc_vmt, %object
 2831              		.size	mmc_vmt, 32
 2832              	mmc_vmt:
 2833 0000 00000000 		.word	mmc_lld_is_card_inserted
 2834 0004 00000000 		.word	mmc_lld_is_write_protected
 2835 0008 00000000 		.word	mmcConnect
 2836 000c 00000000 		.word	mmcDisconnect
 2837 0010 00000000 		.word	mmc_read
 2838 0014 00000000 		.word	mmc_write
 2839 0018 00000000 		.word	mmcSync
 2840 001c 00000000 		.word	mmcGetInfo
 2841              		.section	.rodata.stopcmd.7377,"a",%progbits
 2842              		.align	2
 2843              		.set	.LANCHOR2,. + 0
 2844              		.type	stopcmd.7377, %object
 2845              		.size	stopcmd.7377, 7
 2846              	stopcmd.7377:
 2847 0000 4C       		.byte	76
 2848 0001 00       		.byte	0
 2849 0002 00       		.byte	0
 2850 0003 00       		.byte	0
 2851 0004 00       		.byte	0
 2852 0005 01       		.byte	1
 2853 0006 FF       		.byte	-1
 2854 0007 00       		.section	.rodata.start.7386,"a",%progbits
 2855              		.align	2
 2856              		.set	.LANCHOR3,. + 0
 2857              		.type	start.7386, %object
 2858              		.size	start.7386, 2
 2859              	start.7386:
 2860 0000 FF       		.byte	-1
 2861 0001 FC       		.byte	-4
 2862 0002 0000     		.text
 2863              	.Letext0:
 2864              		.file 2 "c:\\chibistudio\\tools\\gnu tools arm embedded\\4.7 2014q2\\bin\\../lib/gcc/arm-none-eabi
 2865              		.file 3 "c:\\chibistudio\\tools\\gnu tools arm embedded\\4.7 2014q2\\bin\\../lib/gcc/arm-none-eabi
 2866              		.file 4 "../../os/ports/GCC/ARMCMx/chtypes.h"
 2867              		.file 5 "../../os/kernel/include/chlists.h"
 2868              		.file 6 "../../os/kernel/include/chthreads.h"
 2869              		.file 7 "../../os/ports/GCC/ARMCMx/chcore_v7m.h"
 2870              		.file 8 "../../os/kernel/include/chmtx.h"
 2871              		.file 9 "../../os/hal/platforms/STM32F4xx/stm32f4xx.h"
 2872              		.file 10 "../../os/hal/platforms/STM32F4xx/stm32_dma.h"
 2873              		.file 11 "../../os/hal/include/io_block.h"
 2874              		.file 12 "../../os/hal/platforms/STM32/GPIOv2/pal_lld.h"
 2875              		.file 13 "../../os/hal/include/spi.h"
 2876              		.file 14 "../../os/hal/platforms/STM32/SPIv1/spi_lld.h"
 2877              		.file 15 "../../os/hal/include/mmc_spi.h"
 2878              		.file 16 "../../os/hal/include/mmcsd.h"
 2879              		.file 17 "../../os/ports/common/ARMCMx/CMSIS/include/core_cm4.h"