ARM GAS  C:\Users\Vergil\AppData\Local\Temp\ccwNg35D.s 			page 1


   1              		.syntax unified
   2              		.cpu cortex-m4
   3              		.eabi_attribute 27, 3
   4              		.eabi_attribute 28, 1
   5              		.fpu fpv4-sp-d16
   6              		.eabi_attribute 20, 1
   7              		.eabi_attribute 21, 1
   8              		.eabi_attribute 23, 3
   9              		.eabi_attribute 24, 1
  10              		.eabi_attribute 25, 1
  11              		.eabi_attribute 26, 1
  12              		.eabi_attribute 30, 2
  13              		.eabi_attribute 34, 1
  14              		.eabi_attribute 18, 4
  15              		.thumb
  16              		.file	"mmc_spi.c"
  17              		.text
  18              	.Ltext0:
  19              		.cfi_sections	.debug_frame
  20              		.section	.text.mmcGetInfo,"ax",%progbits
  21              		.align	2
  22              		.p2align 4,,15
  23              		.global	mmcGetInfo
  24              		.thumb
  25              		.thumb_func
  26              		.type	mmcGetInfo, %function
  27              	mmcGetInfo:
  28              	.LFB142:
  29              		.file 1 "../../os/hal/src/mmc_spi.c"
  30              		.loc 1 876 0
  31              		.cfi_startproc
  32              		@ args = 0, pretend = 0, frame = 0
  33              		@ frame_needed = 0, uses_anonymous_args = 0
  34              		@ link register save eliminated.
  35              	.LVL0:
  36              		.loc 1 880 0
  37 0000 0379     		ldrb	r3, [r0, #4]	@ zero_extendqisi2
  38 0002 052B     		cmp	r3, #5
  39 0004 01D0     		beq	.L5
  40              		.loc 1 881 0
  41 0006 0120     		movs	r0, #1
  42              	.LVL1:
  43              		.loc 1 887 0
  44 0008 7047     		bx	lr
  45              	.LVL2:
  46              	.L5:
  47              		.loc 1 883 0
  48 000a 806A     		ldr	r0, [r0, #40]
  49              	.LVL3:
  50              		.loc 1 884 0
  51 000c 4FF40072 		mov	r2, #512
  52              		.loc 1 883 0
  53 0010 4860     		str	r0, [r1, #4]
  54              		.loc 1 884 0
  55 0012 0A60     		str	r2, [r1, #0]
  56              		.loc 1 886 0
  57 0014 0020     		movs	r0, #0
ARM GAS  C:\Users\Vergil\AppData\Local\Temp\ccwNg35D.s 			page 2


  58 0016 7047     		bx	lr
  59              		.cfi_endproc
  60              	.LFE142:
  61              		.size	mmcGetInfo, .-mmcGetInfo
  62 0018 AFF30080 		.section	.text.recvr1,"ax",%progbits
  62      AFF30080 
  63              		.align	2
  64              		.p2align 4,,15
  65              		.thumb
  66              		.thumb_func
  67              		.type	recvr1, %function
  68              	recvr1:
  69              	.LFB123:
  70              		.loc 1 220 0
  71              		.cfi_startproc
  72              		@ args = 0, pretend = 0, frame = 8
  73              		@ frame_needed = 0, uses_anonymous_args = 0
  74              	.LVL4:
  75 0000 10B5     		push	{r4, lr}
  76              	.LCFI0:
  77              		.cfi_def_cfa_offset 8
  78              		.cfi_offset 4, -8
  79              		.cfi_offset 14, -4
  80              		.loc 1 225 0
  81 0002 C36A     		ldr	r3, [r0, #44]
  82              		.loc 1 220 0
  83 0004 82B0     		sub	sp, sp, #8
  84              	.LCFI1:
  85              		.cfi_def_cfa_offset 16
  86              		.loc 1 225 0
  87 0006 0121     		movs	r1, #1
  88              		.loc 1 220 0
  89 0008 0446     		mov	r4, r0
  90              		.loc 1 225 0
  91 000a 01AA     		add	r2, sp, #4
  92 000c 1868     		ldr	r0, [r3, #0]
  93              	.LVL5:
  94 000e FFF7FEFF 		bl	spiReceive
  95              	.LVL6:
  96              		.loc 1 226 0
  97 0012 9DF80400 		ldrb	r0, [sp, #4]	@ zero_extendqisi2
  98 0016 FF28     		cmp	r0, #255
  99 0018 4DD1     		bne	.L8
 100              	.LVL7:
 101              		.loc 1 225 0
 102 001a E06A     		ldr	r0, [r4, #44]
 103 001c 0121     		movs	r1, #1
 104 001e 0068     		ldr	r0, [r0, #0]
 105 0020 01AA     		add	r2, sp, #4
 106 0022 FFF7FEFF 		bl	spiReceive
 107              	.LVL8:
 108              		.loc 1 226 0
 109 0026 9DF80400 		ldrb	r0, [sp, #4]	@ zero_extendqisi2
 110 002a FF28     		cmp	r0, #255
 111 002c 43D1     		bne	.L8
 112              	.LVL9:
 113              		.loc 1 225 0
ARM GAS  C:\Users\Vergil\AppData\Local\Temp\ccwNg35D.s 			page 3


 114 002e E26A     		ldr	r2, [r4, #44]
 115 0030 0121     		movs	r1, #1
 116 0032 1068     		ldr	r0, [r2, #0]
 117 0034 01AA     		add	r2, sp, #4
 118 0036 FFF7FEFF 		bl	spiReceive
 119              	.LVL10:
 120              		.loc 1 226 0
 121 003a 9DF80400 		ldrb	r0, [sp, #4]	@ zero_extendqisi2
 122 003e FF28     		cmp	r0, #255
 123 0040 39D1     		bne	.L8
 124              	.LVL11:
 125              		.loc 1 225 0
 126 0042 E36A     		ldr	r3, [r4, #44]
 127 0044 0121     		movs	r1, #1
 128 0046 1868     		ldr	r0, [r3, #0]
 129 0048 01AA     		add	r2, sp, #4
 130 004a FFF7FEFF 		bl	spiReceive
 131              	.LVL12:
 132              		.loc 1 226 0
 133 004e 9DF80400 		ldrb	r0, [sp, #4]	@ zero_extendqisi2
 134 0052 FF28     		cmp	r0, #255
 135 0054 2FD1     		bne	.L8
 136              	.LVL13:
 137              		.loc 1 225 0
 138 0056 E06A     		ldr	r0, [r4, #44]
 139 0058 0121     		movs	r1, #1
 140 005a 0068     		ldr	r0, [r0, #0]
 141 005c 01AA     		add	r2, sp, #4
 142 005e FFF7FEFF 		bl	spiReceive
 143              	.LVL14:
 144              		.loc 1 226 0
 145 0062 9DF80400 		ldrb	r0, [sp, #4]	@ zero_extendqisi2
 146 0066 FF28     		cmp	r0, #255
 147 0068 25D1     		bne	.L8
 148              	.LVL15:
 149              		.loc 1 225 0
 150 006a E26A     		ldr	r2, [r4, #44]
 151 006c 0121     		movs	r1, #1
 152 006e 1068     		ldr	r0, [r2, #0]
 153 0070 01AA     		add	r2, sp, #4
 154 0072 FFF7FEFF 		bl	spiReceive
 155              	.LVL16:
 156              		.loc 1 226 0
 157 0076 9DF80400 		ldrb	r0, [sp, #4]	@ zero_extendqisi2
 158 007a FF28     		cmp	r0, #255
 159 007c 1BD1     		bne	.L8
 160              	.LVL17:
 161              		.loc 1 225 0
 162 007e E36A     		ldr	r3, [r4, #44]
 163 0080 0121     		movs	r1, #1
 164 0082 1868     		ldr	r0, [r3, #0]
 165 0084 01AA     		add	r2, sp, #4
 166 0086 FFF7FEFF 		bl	spiReceive
 167              	.LVL18:
 168              		.loc 1 226 0
 169 008a 9DF80400 		ldrb	r0, [sp, #4]	@ zero_extendqisi2
 170 008e FF28     		cmp	r0, #255
ARM GAS  C:\Users\Vergil\AppData\Local\Temp\ccwNg35D.s 			page 4


 171 0090 11D1     		bne	.L8
 172              	.LVL19:
 173              		.loc 1 225 0
 174 0092 E06A     		ldr	r0, [r4, #44]
 175 0094 0121     		movs	r1, #1
 176 0096 0068     		ldr	r0, [r0, #0]
 177 0098 01AA     		add	r2, sp, #4
 178 009a FFF7FEFF 		bl	spiReceive
 179              	.LVL20:
 180              		.loc 1 226 0
 181 009e 9DF80400 		ldrb	r0, [sp, #4]	@ zero_extendqisi2
 182 00a2 FF28     		cmp	r0, #255
 183 00a4 07D1     		bne	.L8
 184              	.LVL21:
 185              		.loc 1 225 0
 186 00a6 E26A     		ldr	r2, [r4, #44]
 187 00a8 0121     		movs	r1, #1
 188 00aa 1068     		ldr	r0, [r2, #0]
 189 00ac 01AA     		add	r2, sp, #4
 190 00ae FFF7FEFF 		bl	spiReceive
 191              	.LVL22:
 192              		.loc 1 226 0
 193 00b2 9DF80400 		ldrb	r0, [sp, #4]	@ zero_extendqisi2
 194              	.LVL23:
 195              	.L8:
 196              		.loc 1 230 0
 197 00b6 02B0     		add	sp, sp, #8
 198 00b8 10BD     		pop	{r4, pc}
 199              		.cfi_endproc
 200              	.LFE123:
 201              		.size	recvr1, .-recvr1
 202 00ba 00BFAFF3 		.section	.text.wait,"ax",%progbits
 202      0080
 203              		.align	2
 204              		.p2align 4,,15
 205              		.thumb
 206              		.thumb_func
 207              		.type	wait, %function
 208              	wait:
 209              	.LFB121:
 210              		.loc 1 164 0
 211              		.cfi_startproc
 212              		@ args = 0, pretend = 0, frame = 8
 213              		@ frame_needed = 0, uses_anonymous_args = 0
 214              	.LVL24:
 215 0000 10B5     		push	{r4, lr}
 216              	.LCFI2:
 217              		.cfi_def_cfa_offset 8
 218              		.cfi_offset 4, -8
 219              		.cfi_offset 14, -4
 220              		.loc 1 169 0
 221 0002 C36A     		ldr	r3, [r0, #44]
 222              		.loc 1 164 0
 223 0004 82B0     		sub	sp, sp, #8
 224              	.LCFI3:
 225              		.cfi_def_cfa_offset 16
 226              		.loc 1 169 0
ARM GAS  C:\Users\Vergil\AppData\Local\Temp\ccwNg35D.s 			page 5


 227 0006 0121     		movs	r1, #1
 228              		.loc 1 164 0
 229 0008 0446     		mov	r4, r0
 230              		.loc 1 169 0
 231 000a 01AA     		add	r2, sp, #4
 232 000c 1868     		ldr	r0, [r3, #0]
 233              	.LVL25:
 234 000e FFF7FEFF 		bl	spiReceive
 235              	.LVL26:
 236              		.loc 1 170 0
 237 0012 9DF80400 		ldrb	r0, [sp, #4]	@ zero_extendqisi2
 238 0016 FF28     		cmp	r0, #255
 239 0018 00F09880 		beq	.L9
 240              	.LVL27:
 241              		.loc 1 169 0
 242 001c E26A     		ldr	r2, [r4, #44]
 243 001e 0121     		movs	r1, #1
 244 0020 1068     		ldr	r0, [r2, #0]
 245 0022 01AA     		add	r2, sp, #4
 246 0024 FFF7FEFF 		bl	spiReceive
 247              	.LVL28:
 248              		.loc 1 170 0
 249 0028 9DF80410 		ldrb	r1, [sp, #4]	@ zero_extendqisi2
 250 002c FF29     		cmp	r1, #255
 251 002e 00F08D80 		beq	.L9
 252              	.LVL29:
 253              		.loc 1 169 0
 254 0032 E36A     		ldr	r3, [r4, #44]
 255 0034 0121     		movs	r1, #1
 256 0036 1868     		ldr	r0, [r3, #0]
 257 0038 01AA     		add	r2, sp, #4
 258 003a FFF7FEFF 		bl	spiReceive
 259              	.LVL30:
 260              		.loc 1 170 0
 261 003e 9DF80400 		ldrb	r0, [sp, #4]	@ zero_extendqisi2
 262 0042 FF28     		cmp	r0, #255
 263 0044 00F08280 		beq	.L9
 264              	.LVL31:
 265              		.loc 1 169 0
 266 0048 E26A     		ldr	r2, [r4, #44]
 267 004a 0121     		movs	r1, #1
 268 004c 1068     		ldr	r0, [r2, #0]
 269 004e 01AA     		add	r2, sp, #4
 270 0050 FFF7FEFF 		bl	spiReceive
 271              	.LVL32:
 272              		.loc 1 170 0
 273 0054 9DF80410 		ldrb	r1, [sp, #4]	@ zero_extendqisi2
 274 0058 FF29     		cmp	r1, #255
 275 005a 77D0     		beq	.L9
 276              	.LVL33:
 277              		.loc 1 169 0
 278 005c E36A     		ldr	r3, [r4, #44]
 279 005e 0121     		movs	r1, #1
 280 0060 1868     		ldr	r0, [r3, #0]
 281 0062 01AA     		add	r2, sp, #4
 282 0064 FFF7FEFF 		bl	spiReceive
 283              	.LVL34:
ARM GAS  C:\Users\Vergil\AppData\Local\Temp\ccwNg35D.s 			page 6


 284              		.loc 1 170 0
 285 0068 9DF80400 		ldrb	r0, [sp, #4]	@ zero_extendqisi2
 286 006c FF28     		cmp	r0, #255
 287 006e 6DD0     		beq	.L9
 288              	.LVL35:
 289              		.loc 1 169 0
 290 0070 E26A     		ldr	r2, [r4, #44]
 291 0072 0121     		movs	r1, #1
 292 0074 1068     		ldr	r0, [r2, #0]
 293 0076 01AA     		add	r2, sp, #4
 294 0078 FFF7FEFF 		bl	spiReceive
 295              	.LVL36:
 296              		.loc 1 170 0
 297 007c 9DF80410 		ldrb	r1, [sp, #4]	@ zero_extendqisi2
 298 0080 FF29     		cmp	r1, #255
 299 0082 63D0     		beq	.L9
 300              	.LVL37:
 301              		.loc 1 169 0
 302 0084 E36A     		ldr	r3, [r4, #44]
 303 0086 0121     		movs	r1, #1
 304 0088 1868     		ldr	r0, [r3, #0]
 305 008a 01AA     		add	r2, sp, #4
 306 008c FFF7FEFF 		bl	spiReceive
 307              	.LVL38:
 308              		.loc 1 170 0
 309 0090 9DF80400 		ldrb	r0, [sp, #4]	@ zero_extendqisi2
 310 0094 FF28     		cmp	r0, #255
 311 0096 59D0     		beq	.L9
 312              	.LVL39:
 313              		.loc 1 169 0
 314 0098 E26A     		ldr	r2, [r4, #44]
 315 009a 0121     		movs	r1, #1
 316 009c 1068     		ldr	r0, [r2, #0]
 317 009e 01AA     		add	r2, sp, #4
 318 00a0 FFF7FEFF 		bl	spiReceive
 319              	.LVL40:
 320              		.loc 1 170 0
 321 00a4 9DF80410 		ldrb	r1, [sp, #4]	@ zero_extendqisi2
 322 00a8 FF29     		cmp	r1, #255
 323 00aa 4FD0     		beq	.L9
 324              	.LVL41:
 325              		.loc 1 169 0
 326 00ac E36A     		ldr	r3, [r4, #44]
 327 00ae 0121     		movs	r1, #1
 328 00b0 1868     		ldr	r0, [r3, #0]
 329 00b2 01AA     		add	r2, sp, #4
 330 00b4 FFF7FEFF 		bl	spiReceive
 331              	.LVL42:
 332              		.loc 1 170 0
 333 00b8 9DF80400 		ldrb	r0, [sp, #4]	@ zero_extendqisi2
 334 00bc FF28     		cmp	r0, #255
 335 00be 45D0     		beq	.L9
 336              	.LVL43:
 337              		.loc 1 169 0
 338 00c0 E26A     		ldr	r2, [r4, #44]
 339 00c2 0121     		movs	r1, #1
 340 00c4 1068     		ldr	r0, [r2, #0]
ARM GAS  C:\Users\Vergil\AppData\Local\Temp\ccwNg35D.s 			page 7


 341 00c6 01AA     		add	r2, sp, #4
 342 00c8 FFF7FEFF 		bl	spiReceive
 343              	.LVL44:
 344              		.loc 1 170 0
 345 00cc 9DF80410 		ldrb	r1, [sp, #4]	@ zero_extendqisi2
 346 00d0 FF29     		cmp	r1, #255
 347 00d2 3BD0     		beq	.L9
 348              	.LVL45:
 349              		.loc 1 169 0
 350 00d4 E36A     		ldr	r3, [r4, #44]
 351 00d6 0121     		movs	r1, #1
 352 00d8 1868     		ldr	r0, [r3, #0]
 353 00da 01AA     		add	r2, sp, #4
 354 00dc FFF7FEFF 		bl	spiReceive
 355              	.LVL46:
 356              		.loc 1 170 0
 357 00e0 9DF80400 		ldrb	r0, [sp, #4]	@ zero_extendqisi2
 358 00e4 FF28     		cmp	r0, #255
 359 00e6 31D0     		beq	.L9
 360              	.LVL47:
 361              		.loc 1 169 0
 362 00e8 E26A     		ldr	r2, [r4, #44]
 363 00ea 0121     		movs	r1, #1
 364 00ec 1068     		ldr	r0, [r2, #0]
 365 00ee 01AA     		add	r2, sp, #4
 366 00f0 FFF7FEFF 		bl	spiReceive
 367              	.LVL48:
 368              		.loc 1 170 0
 369 00f4 9DF80410 		ldrb	r1, [sp, #4]	@ zero_extendqisi2
 370 00f8 FF29     		cmp	r1, #255
 371 00fa 27D0     		beq	.L9
 372              	.LVL49:
 373              		.loc 1 169 0
 374 00fc E36A     		ldr	r3, [r4, #44]
 375 00fe 0121     		movs	r1, #1
 376 0100 1868     		ldr	r0, [r3, #0]
 377 0102 01AA     		add	r2, sp, #4
 378 0104 FFF7FEFF 		bl	spiReceive
 379              	.LVL50:
 380              		.loc 1 170 0
 381 0108 9DF80400 		ldrb	r0, [sp, #4]	@ zero_extendqisi2
 382 010c FF28     		cmp	r0, #255
 383 010e 1DD0     		beq	.L9
 384              	.LVL51:
 385              		.loc 1 169 0
 386 0110 E26A     		ldr	r2, [r4, #44]
 387 0112 0121     		movs	r1, #1
 388 0114 1068     		ldr	r0, [r2, #0]
 389 0116 01AA     		add	r2, sp, #4
 390 0118 FFF7FEFF 		bl	spiReceive
 391              	.LVL52:
 392              		.loc 1 170 0
 393 011c 9DF80410 		ldrb	r1, [sp, #4]	@ zero_extendqisi2
 394 0120 FF29     		cmp	r1, #255
 395 0122 13D0     		beq	.L9
 396              	.LVL53:
 397              		.loc 1 169 0
ARM GAS  C:\Users\Vergil\AppData\Local\Temp\ccwNg35D.s 			page 8


 398 0124 E36A     		ldr	r3, [r4, #44]
 399 0126 0121     		movs	r1, #1
 400 0128 1868     		ldr	r0, [r3, #0]
 401 012a 01AA     		add	r2, sp, #4
 402 012c FFF7FEFF 		bl	spiReceive
 403              	.LVL54:
 404              		.loc 1 170 0
 405 0130 9DF80400 		ldrb	r0, [sp, #4]	@ zero_extendqisi2
 406 0134 FF28     		cmp	r0, #255
 407 0136 09D0     		beq	.L9
 408              	.LVL55:
 409              		.loc 1 169 0
 410 0138 E26A     		ldr	r2, [r4, #44]
 411 013a 0121     		movs	r1, #1
 412 013c 1068     		ldr	r0, [r2, #0]
 413 013e 01AA     		add	r2, sp, #4
 414 0140 FFF7FEFF 		bl	spiReceive
 415              	.LVL56:
 416              		.loc 1 170 0
 417 0144 9DF80410 		ldrb	r1, [sp, #4]	@ zero_extendqisi2
 418 0148 FF29     		cmp	r1, #255
 419 014a 04D1     		bne	.L65
 420              	.LVL57:
 421              	.L9:
 422              		.loc 1 183 0
 423 014c 02B0     		add	sp, sp, #8
 424 014e 10BD     		pop	{r4, pc}
 425              	.LVL58:
 426              	.L66:
 427              		.loc 1 180 0
 428 0150 0120     		movs	r0, #1
 429 0152 FFF7FEFF 		bl	chThdSleep
 430              	.LVL59:
 431              	.L65:
 432              		.loc 1 175 0
 433 0156 E36A     		ldr	r3, [r4, #44]
 434 0158 0121     		movs	r1, #1
 435 015a 1868     		ldr	r0, [r3, #0]
 436 015c 01AA     		add	r2, sp, #4
 437 015e FFF7FEFF 		bl	spiReceive
 438              	.LVL60:
 439              		.loc 1 176 0
 440 0162 9DF80400 		ldrb	r0, [sp, #4]	@ zero_extendqisi2
 441 0166 FF28     		cmp	r0, #255
 442 0168 F2D1     		bne	.L66
 443 016a EFE7     		b	.L9
 444              		.cfi_endproc
 445              	.LFE121:
 446              		.size	wait, .-wait
 447 016c AFF30080 		.section	.text.send_hdr,"ax",%progbits
 448              		.align	2
 449              		.p2align 4,,15
 450              		.thumb
 451              		.thumb_func
 452              		.type	send_hdr, %function
 453              	send_hdr:
 454              	.LFB122:
ARM GAS  C:\Users\Vergil\AppData\Local\Temp\ccwNg35D.s 			page 9


 455              		.loc 1 194 0
 456              		.cfi_startproc
 457              		@ args = 0, pretend = 0, frame = 8
 458              		@ frame_needed = 0, uses_anonymous_args = 0
 459              	.LVL61:
 460 0000 70B5     		push	{r4, r5, r6, lr}
 461              	.LCFI4:
 462              		.cfi_def_cfa_offset 16
 463              		.cfi_offset 4, -16
 464              		.cfi_offset 5, -12
 465              		.cfi_offset 6, -8
 466              		.cfi_offset 14, -4
 467 0002 82B0     		sub	sp, sp, #8
 468              	.LCFI5:
 469              		.cfi_def_cfa_offset 24
 470              		.loc 1 194 0
 471 0004 1446     		mov	r4, r2
 472 0006 0546     		mov	r5, r0
 473 0008 0E46     		mov	r6, r1
 474              		.loc 1 198 0
 475 000a FFF7FEFF 		bl	wait
 476              	.LVL62:
 477              	.LBB7:
 478              	.LBB8:
 479              		.loc 1 153 0
 480 000e 40F20003 		movw	r3, #:lower16:.LANCHOR0
 481 0012 C0F20003 		movt	r3, #:upper16:.LANCHOR0
 482              	.LBE8:
 483              	.LBE7:
 484              		.loc 1 200 0
 485 0016 46F04001 		orr	r1, r6, #64
 486              		.loc 1 201 0
 487 001a 220E     		lsrs	r2, r4, #24
 488              	.LBB16:
 489              	.LBB9:
 490              		.loc 1 153 0
 491 001c 5E5C     		ldrb	r6, [r3, r1]	@ zero_extendqisi2
 492              	.LBE9:
 493              	.LBE16:
 494              		.loc 1 208 0
 495 001e E86A     		ldr	r0, [r5, #44]
 496              		.loc 1 200 0
 497 0020 8DF80010 		strb	r1, [sp, #0]
 498              	.LBB17:
 499              	.LBB10:
 500              		.loc 1 153 0
 501 0024 82EA4605 		eor	r5, r2, r6, lsl #1
 502              	.LVL63:
 503              	.LBE10:
 504              	.LBE17:
 505              		.loc 1 202 0
 506 0028 210C     		lsrs	r1, r4, #16
 507              	.LBB18:
 508              	.LBB11:
 509              		.loc 1 153 0
 510 002a 5D5D     		ldrb	r5, [r3, r5]	@ zero_extendqisi2
 511              	.LBE11:
ARM GAS  C:\Users\Vergil\AppData\Local\Temp\ccwNg35D.s 			page 10


 512              	.LBE18:
 513              		.loc 1 201 0
 514 002c 8DF80120 		strb	r2, [sp, #1]
 515              	.LBB19:
 516              	.LBB12:
 517              		.loc 1 153 0
 518 0030 CAB2     		uxtb	r2, r1
 519 0032 82EA4505 		eor	r5, r2, r5, lsl #1
 520              	.LBE12:
 521              	.LBE19:
 522              		.loc 1 203 0
 523 0036 220A     		lsrs	r2, r4, #8
 524              	.LBB20:
 525              	.LBB13:
 526              		.loc 1 153 0
 527 0038 5D5D     		ldrb	r5, [r3, r5]	@ zero_extendqisi2
 528              	.LBE13:
 529              	.LBE20:
 530              		.loc 1 202 0
 531 003a 8DF80210 		strb	r1, [sp, #2]
 532              	.LBB21:
 533              	.LBB14:
 534              		.loc 1 153 0
 535 003e D1B2     		uxtb	r1, r2
 536 0040 81EA4505 		eor	r5, r1, r5, lsl #1
 537 0044 E1B2     		uxtb	r1, r4
 538 0046 5D5D     		ldrb	r5, [r3, r5]	@ zero_extendqisi2
 539              	.LBE14:
 540              	.LBE21:
 541              		.loc 1 203 0
 542 0048 8DF80320 		strb	r2, [sp, #3]
 543              	.LBB22:
 544              	.LBB15:
 545              		.loc 1 153 0
 546 004c 81EA4502 		eor	r2, r1, r5, lsl #1
 547              	.LBE15:
 548              	.LBE22:
 549              		.loc 1 204 0
 550 0050 8DF80440 		strb	r4, [sp, #4]
 551              	.LVL64:
 552              		.loc 1 206 0
 553 0054 9B5C     		ldrb	r3, [r3, r2]	@ zero_extendqisi2
 554 0056 5900     		lsls	r1, r3, #1
 555 0058 41F00102 		orr	r2, r1, #1
 556              	.LVL65:
 557 005c 8DF80520 		strb	r2, [sp, #5]
 558              		.loc 1 208 0
 559 0060 0068     		ldr	r0, [r0, #0]
 560 0062 0621     		movs	r1, #6
 561 0064 6A46     		mov	r2, sp
 562 0066 FFF7FEFF 		bl	spiSend
 563              	.LVL66:
 564              		.loc 1 209 0
 565 006a 02B0     		add	sp, sp, #8
 566 006c 70BD     		pop	{r4, r5, r6, pc}
 567              		.cfi_endproc
 568              	.LFE122:
ARM GAS  C:\Users\Vergil\AppData\Local\Temp\ccwNg35D.s 			page 11


 569              		.size	send_hdr, .-send_hdr
 570 006e 00BF     		.section	.text.send_command_R1,"ax",%progbits
 571              		.align	2
 572              		.p2align 4,,15
 573              		.thumb
 574              		.thumb_func
 575              		.type	send_command_R1, %function
 576              	send_command_R1:
 577              	.LFB125:
 578              		.loc 1 262 0
 579              		.cfi_startproc
 580              		@ args = 0, pretend = 0, frame = 0
 581              		@ frame_needed = 0, uses_anonymous_args = 0
 582              	.LVL67:
 583              		.loc 1 266 0
 584 0000 C36A     		ldr	r3, [r0, #44]
 585              		.loc 1 262 0
 586 0002 70B5     		push	{r4, r5, r6, lr}
 587              	.LCFI6:
 588              		.cfi_def_cfa_offset 16
 589              		.cfi_offset 4, -16
 590              		.cfi_offset 5, -12
 591              		.cfi_offset 6, -8
 592              		.cfi_offset 14, -4
 593              		.loc 1 262 0
 594 0004 0446     		mov	r4, r0
 595              		.loc 1 266 0
 596 0006 1868     		ldr	r0, [r3, #0]
 597              	.LVL68:
 598              		.loc 1 262 0
 599 0008 0E46     		mov	r6, r1
 600 000a 1546     		mov	r5, r2
 601              		.loc 1 266 0
 602 000c FFF7FEFF 		bl	spiAcquireBus
 603              	.LVL69:
 604              		.loc 1 268 0
 605 0010 E06A     		ldr	r0, [r4, #44]
 606 0012 0068     		ldr	r0, [r0, #0]
 607 0014 FFF7FEFF 		bl	spiSelect
 608              	.LVL70:
 609              		.loc 1 269 0
 610 0018 2A46     		mov	r2, r5
 611 001a 3146     		mov	r1, r6
 612 001c 2046     		mov	r0, r4
 613 001e FFF7FEFF 		bl	send_hdr
 614              	.LVL71:
 615              		.loc 1 270 0
 616 0022 2046     		mov	r0, r4
 617 0024 FFF7FEFF 		bl	recvr1
 618              	.LVL72:
 619              		.loc 1 271 0
 620 0028 E16A     		ldr	r1, [r4, #44]
 621              		.loc 1 270 0
 622 002a 0546     		mov	r5, r0
 623              	.LVL73:
 624              		.loc 1 271 0
 625 002c 0868     		ldr	r0, [r1, #0]
ARM GAS  C:\Users\Vergil\AppData\Local\Temp\ccwNg35D.s 			page 12


 626              	.LVL74:
 627 002e FFF7FEFF 		bl	spiUnselect
 628              	.LVL75:
 629              		.loc 1 273 0
 630 0032 E26A     		ldr	r2, [r4, #44]
 631 0034 1068     		ldr	r0, [r2, #0]
 632 0036 FFF7FEFF 		bl	spiReleaseBus
 633              	.LVL76:
 634              		.loc 1 277 0
 635 003a 2846     		mov	r0, r5
 636 003c 70BD     		pop	{r4, r5, r6, pc}
 637              		.cfi_endproc
 638              	.LFE125:
 639              		.size	send_command_R1, .-send_command_R1
 640 003e 00BF     		.section	.text.send_command_R3,"ax",%progbits
 641              		.align	2
 642              		.p2align 4,,15
 643              		.thumb
 644              		.thumb_func
 645              		.type	send_command_R3, %function
 646              	send_command_R3:
 647              	.LFB126:
 648              		.loc 1 293 0
 649              		.cfi_startproc
 650              		@ args = 0, pretend = 0, frame = 0
 651              		@ frame_needed = 0, uses_anonymous_args = 0
 652              	.LVL77:
 653 0000 F8B5     		push	{r3, r4, r5, r6, r7, lr}
 654              	.LCFI7:
 655              		.cfi_def_cfa_offset 24
 656              		.cfi_offset 3, -24
 657              		.cfi_offset 4, -20
 658              		.cfi_offset 5, -16
 659              		.cfi_offset 6, -12
 660              		.cfi_offset 7, -8
 661              		.cfi_offset 14, -4
 662              		.loc 1 293 0
 663 0002 0446     		mov	r4, r0
 664              		.loc 1 296 0
 665 0004 C06A     		ldr	r0, [r0, #44]
 666              	.LVL78:
 667 0006 0068     		ldr	r0, [r0, #0]
 668              		.loc 1 293 0
 669 0008 1F46     		mov	r7, r3
 670 000a 0E46     		mov	r6, r1
 671 000c 1546     		mov	r5, r2
 672              		.loc 1 296 0
 673 000e FFF7FEFF 		bl	spiAcquireBus
 674              	.LVL79:
 675              		.loc 1 298 0
 676 0012 E16A     		ldr	r1, [r4, #44]
 677 0014 0868     		ldr	r0, [r1, #0]
 678 0016 FFF7FEFF 		bl	spiSelect
 679              	.LVL80:
 680              		.loc 1 299 0
 681 001a 3146     		mov	r1, r6
 682 001c 2A46     		mov	r2, r5
ARM GAS  C:\Users\Vergil\AppData\Local\Temp\ccwNg35D.s 			page 13


 683 001e 2046     		mov	r0, r4
 684 0020 FFF7FEFF 		bl	send_hdr
 685              	.LVL81:
 686              	.LBB25:
 687              	.LBB26:
 688              		.loc 1 245 0
 689 0024 2046     		mov	r0, r4
 690 0026 FFF7FEFF 		bl	recvr1
 691              	.LVL82:
 692              		.loc 1 246 0
 693 002a E56A     		ldr	r5, [r4, #44]
 694              	.LVL83:
 695 002c 0421     		movs	r1, #4
 696 002e 3A46     		mov	r2, r7
 697              		.loc 1 245 0
 698 0030 0646     		mov	r6, r0
 699              	.LVL84:
 700              		.loc 1 246 0
 701 0032 2868     		ldr	r0, [r5, #0]
 702              	.LVL85:
 703 0034 FFF7FEFF 		bl	spiReceive
 704              	.LVL86:
 705              	.LBE26:
 706              	.LBE25:
 707              		.loc 1 301 0
 708 0038 E36A     		ldr	r3, [r4, #44]
 709 003a 1868     		ldr	r0, [r3, #0]
 710 003c FFF7FEFF 		bl	spiUnselect
 711              	.LVL87:
 712              		.loc 1 303 0
 713 0040 E26A     		ldr	r2, [r4, #44]
 714 0042 1068     		ldr	r0, [r2, #0]
 715 0044 FFF7FEFF 		bl	spiReleaseBus
 716              	.LVL88:
 717              		.loc 1 306 0
 718 0048 3046     		mov	r0, r6
 719 004a F8BD     		pop	{r3, r4, r5, r6, r7, pc}
 720              		.cfi_endproc
 721              	.LFE126:
 722              		.size	send_command_R3, .-send_command_R3
 723 004c AFF30080 		.section	.text.sync,"ax",%progbits
 724              		.align	2
 725              		.p2align 4,,15
 726              		.thumb
 727              		.thumb_func
 728              		.type	sync, %function
 729              	sync:
 730              	.LFB128:
 731              		.loc 1 369 0
 732              		.cfi_startproc
 733              		@ args = 0, pretend = 0, frame = 8
 734              		@ frame_needed = 0, uses_anonymous_args = 0
 735              	.LVL89:
 736 0000 10B5     		push	{r4, lr}
 737              	.LCFI8:
 738              		.cfi_def_cfa_offset 8
 739              		.cfi_offset 4, -8
ARM GAS  C:\Users\Vergil\AppData\Local\Temp\ccwNg35D.s 			page 14


 740              		.cfi_offset 14, -4
 741              		.loc 1 373 0
 742 0002 C36A     		ldr	r3, [r0, #44]
 743              		.loc 1 369 0
 744 0004 0446     		mov	r4, r0
 745 0006 82B0     		sub	sp, sp, #8
 746              	.LCFI9:
 747              		.cfi_def_cfa_offset 16
 748              		.loc 1 373 0
 749 0008 1868     		ldr	r0, [r3, #0]
 750              	.LVL90:
 751 000a FFF7FEFF 		bl	spiAcquireBus
 752              	.LVL91:
 753              		.loc 1 375 0
 754 000e E06A     		ldr	r0, [r4, #44]
 755 0010 0068     		ldr	r0, [r0, #0]
 756 0012 FFF7FEFF 		bl	spiSelect
 757              	.LVL92:
 758 0016 02E0     		b	.L72
 759              	.L73:
 760              		.loc 1 381 0
 761 0018 0120     		movs	r0, #1
 762 001a FFF7FEFF 		bl	chThdSleep
 763              	.LVL93:
 764              	.L72:
 765              		.loc 1 377 0
 766 001e E26A     		ldr	r2, [r4, #44]
 767 0020 0121     		movs	r1, #1
 768 0022 1068     		ldr	r0, [r2, #0]
 769 0024 01AA     		add	r2, sp, #4
 770 0026 FFF7FEFF 		bl	spiReceive
 771              	.LVL94:
 772              		.loc 1 378 0
 773 002a 9DF80410 		ldrb	r1, [sp, #4]	@ zero_extendqisi2
 774 002e FF29     		cmp	r1, #255
 775 0030 F2D1     		bne	.L73
 776              		.loc 1 384 0
 777 0032 E36A     		ldr	r3, [r4, #44]
 778 0034 1868     		ldr	r0, [r3, #0]
 779 0036 FFF7FEFF 		bl	spiUnselect
 780              	.LVL95:
 781              		.loc 1 386 0
 782 003a E06A     		ldr	r0, [r4, #44]
 783 003c 0068     		ldr	r0, [r0, #0]
 784 003e FFF7FEFF 		bl	spiReleaseBus
 785              	.LVL96:
 786              		.loc 1 388 0
 787 0042 02B0     		add	sp, sp, #8
 788 0044 10BD     		pop	{r4, pc}
 789              		.cfi_endproc
 790              	.LFE128:
 791              		.size	sync, .-sync
 792 0046 00BFAFF3 		.section	.text.read_CxD,"ax",%progbits
 792      0080AFF3 
 792      0080
 793              		.align	2
 794              		.p2align 4,,15
ARM GAS  C:\Users\Vergil\AppData\Local\Temp\ccwNg35D.s 			page 15


 795              		.thumb
 796              		.thumb_func
 797              		.type	read_CxD, %function
 798              	read_CxD:
 799              	.LFB127:
 800              		.loc 1 320 0
 801              		.cfi_startproc
 802              		@ args = 0, pretend = 0, frame = 40
 803              		@ frame_needed = 0, uses_anonymous_args = 0
 804              	.LVL97:
 805 0000 2DE9F04F 		push	{r4, r5, r6, r7, r8, r9, sl, fp, lr}
 806              	.LCFI10:
 807              		.cfi_def_cfa_offset 36
 808              		.cfi_offset 4, -36
 809              		.cfi_offset 5, -32
 810              		.cfi_offset 6, -28
 811              		.cfi_offset 7, -24
 812              		.cfi_offset 8, -20
 813              		.cfi_offset 9, -16
 814              		.cfi_offset 10, -12
 815              		.cfi_offset 11, -8
 816              		.cfi_offset 14, -4
 817              		.loc 1 324 0
 818 0004 C36A     		ldr	r3, [r0, #44]
 819              		.loc 1 320 0
 820 0006 0446     		mov	r4, r0
 821 0008 8BB0     		sub	sp, sp, #44
 822              	.LCFI11:
 823              		.cfi_def_cfa_offset 80
 824              		.loc 1 324 0
 825 000a 1868     		ldr	r0, [r3, #0]
 826              	.LVL98:
 827              		.loc 1 320 0
 828 000c 1546     		mov	r5, r2
 829 000e 0E46     		mov	r6, r1
 830              		.loc 1 324 0
 831 0010 FFF7FEFF 		bl	spiAcquireBus
 832              	.LVL99:
 833              		.loc 1 326 0
 834 0014 E06A     		ldr	r0, [r4, #44]
 835 0016 0068     		ldr	r0, [r0, #0]
 836 0018 FFF7FEFF 		bl	spiSelect
 837              	.LVL100:
 838              		.loc 1 327 0
 839 001c 2046     		mov	r0, r4
 840 001e 3146     		mov	r1, r6
 841 0020 0022     		movs	r2, #0
 842 0022 FFF7FEFF 		bl	send_hdr
 843              	.LVL101:
 844              		.loc 1 328 0
 845 0026 2046     		mov	r0, r4
 846 0028 FFF7FEFF 		bl	recvr1
 847              	.LVL102:
 848 002c 0028     		cmp	r0, #0
 849 002e 40F08180 		bne	.L84
 850 0032 42F21076 		movw	r6, #10000
 851 0036 09E0     		b	.L75
ARM GAS  C:\Users\Vergil\AppData\Local\Temp\ccwNg35D.s 			page 16


 852              	.LVL103:
 853              	.L77:
 854              		.loc 1 338 0
 855 0038 E06A     		ldr	r0, [r4, #44]
 856 003a 0068     		ldr	r0, [r0, #0]
 857 003c FFF7FEFF 		bl	spiReceive
 858              	.LVL104:
 859              		.loc 1 339 0
 860 0040 9DF81810 		ldrb	r1, [sp, #24]	@ zero_extendqisi2
 861 0044 FE29     		cmp	r1, #254
 862 0046 0FD0     		beq	.L82
 863              		.loc 1 337 0
 864 0048 013E     		subs	r6, r6, #1
 865 004a 7DD0     		beq	.L85
 866              	.L75:
 867              		.loc 1 338 0
 868 004c E26A     		ldr	r2, [r4, #44]
 869 004e 0121     		movs	r1, #1
 870 0050 1068     		ldr	r0, [r2, #0]
 871 0052 06AA     		add	r2, sp, #24
 872 0054 FFF7FEFF 		bl	spiReceive
 873              	.LVL105:
 874              		.loc 1 339 0
 875 0058 9DF81830 		ldrb	r3, [sp, #24]	@ zero_extendqisi2
 876              		.loc 1 338 0
 877 005c 0121     		movs	r1, #1
 878              		.loc 1 339 0
 879 005e FE2B     		cmp	r3, #254
 880              		.loc 1 338 0
 881 0060 06AA     		add	r2, sp, #24
 882 0062 06F1FF36 		add	r6, r6, #-1
 883              		.loc 1 339 0
 884 0066 E7D1     		bne	.L77
 885              	.L82:
 886              	.LBB27:
 887              		.loc 1 342 0
 888 0068 E76A     		ldr	r7, [r4, #44]
 889 006a 06AA     		add	r2, sp, #24
 890 006c 3868     		ldr	r0, [r7, #0]
 891 006e 1021     		movs	r1, #16
 892 0070 FFF7FEFF 		bl	spiReceive
 893              	.LVL106:
 894              		.loc 1 346 0
 895 0074 9DF81B20 		ldrb	r2, [sp, #27]	@ zero_extendqisi2
 896 0078 9DF81F30 		ldrb	r3, [sp, #31]	@ zero_extendqisi2
 897              		.loc 1 345 0
 898 007c 9DF82560 		ldrb	r6, [sp, #37]	@ zero_extendqisi2
 899 0080 9DF819A0 		ldrb	sl, [sp, #25]	@ zero_extendqisi2
 900 0084 9DF81D80 		ldrb	r8, [sp, #29]	@ zero_extendqisi2
 901 0088 9DF82470 		ldrb	r7, [sp, #36]	@ zero_extendqisi2
 902              		.loc 1 346 0
 903 008c 0292     		str	r2, [sp, #8]
 904 008e 0393     		str	r3, [sp, #12]
 905 0090 9DF82300 		ldrb	r0, [sp, #35]	@ zero_extendqisi2
 906 0094 9DF82710 		ldrb	r1, [sp, #39]	@ zero_extendqisi2
 907              		.loc 1 345 0
 908 0098 9DF818B0 		ldrb	fp, [sp, #24]	@ zero_extendqisi2
ARM GAS  C:\Users\Vergil\AppData\Local\Temp\ccwNg35D.s 			page 17


 909 009c 9DF81C90 		ldrb	r9, [sp, #28]	@ zero_extendqisi2
 910 00a0 029B     		ldr	r3, [sp, #8]
 911 00a2 9DF821E0 		ldrb	lr, [sp, #33]	@ zero_extendqisi2
 912              		.loc 1 346 0
 913 00a6 0490     		str	r0, [sp, #16]
 914              		.loc 1 345 0
 915 00a8 3604     		lsls	r6, r6, #16
 916 00aa 46EA0767 		orr	r7, r6, r7, lsl #24
 917 00ae 4FEA0A4A 		lsl	sl, sl, #16
 918 00b2 039E     		ldr	r6, [sp, #12]
 919              		.loc 1 346 0
 920 00b4 0591     		str	r1, [sp, #20]
 921              		.loc 1 345 0
 922 00b6 4FEA0848 		lsl	r8, r8, #16
 923              		.loc 1 346 0
 924 00ba 9DF81A20 		ldrb	r2, [sp, #26]	@ zero_extendqisi2
 925              		.loc 1 345 0
 926 00be 9DF820C0 		ldrb	ip, [sp, #32]	@ zero_extendqisi2
 927              		.loc 1 346 0
 928 00c2 0192     		str	r2, [sp, #4]
 929              		.loc 1 345 0
 930 00c4 4AEA0B6A 		orr	sl, sl, fp, lsl #24
 931 00c8 48EA0968 		orr	r8, r8, r9, lsl #24
 932 00cc 4FEA0E4E 		lsl	lr, lr, #16
 933 00d0 4AEA030A 		orr	sl, sl, r3
 934 00d4 48EA0608 		orr	r8, r8, r6
 935 00d8 049B     		ldr	r3, [sp, #16]
 936 00da 059E     		ldr	r6, [sp, #20]
 937              		.loc 1 346 0
 938 00dc 9DF82210 		ldrb	r1, [sp, #34]	@ zero_extendqisi2
 939 00e0 9DF81E00 		ldrb	r0, [sp, #30]	@ zero_extendqisi2
 940 00e4 9DF82620 		ldrb	r2, [sp, #38]	@ zero_extendqisi2
 941              		.loc 1 345 0
 942 00e8 4EEA0C6C 		orr	ip, lr, ip, lsl #24
 943 00ec 4CEA030E 		orr	lr, ip, r3
 944 00f0 47EA060C 		orr	ip, r7, r6
 945              		.loc 1 346 0
 946 00f4 019F     		ldr	r7, [sp, #4]
 947 00f6 4AEA0723 		orr	r3, sl, r7, lsl #8
 948 00fa 4EEA0127 		orr	r7, lr, r1, lsl #8
 949              		.loc 1 351 0
 950 00fe D4F82CE0 		ldr	lr, [r4, #44]
 951              		.loc 1 346 0
 952 0102 4CEA0222 		orr	r2, ip, r2, lsl #8
 953 0106 48EA0026 		orr	r6, r8, r0, lsl #8
 954              		.loc 1 351 0
 955 010a 0221     		movs	r1, #2
 956 010c DEF80000 		ldr	r0, [lr, #0]
 957              		.loc 1 345 0
 958 0110 EB60     		str	r3, [r5, #12]
 959              	.LVL107:
 960 0112 85E88400 		stmia	r5, {r2, r7}
 961 0116 AE60     		str	r6, [r5, #8]
 962              	.LVL108:
 963              		.loc 1 351 0
 964 0118 FFF7FEFF 		bl	spiIgnore
 965              	.LVL109:
ARM GAS  C:\Users\Vergil\AppData\Local\Temp\ccwNg35D.s 			page 18


 966              		.loc 1 352 0
 967 011c E06A     		ldr	r0, [r4, #44]
 968 011e 0068     		ldr	r0, [r0, #0]
 969 0120 FFF7FEFF 		bl	spiUnselect
 970              	.LVL110:
 971              		.loc 1 354 0
 972 0124 E16A     		ldr	r1, [r4, #44]
 973 0126 0868     		ldr	r0, [r1, #0]
 974 0128 FFF7FEFF 		bl	spiReleaseBus
 975              	.LVL111:
 976              		.loc 1 356 0
 977 012c 0020     		movs	r0, #0
 978              	.LVL112:
 979              	.L76:
 980              	.LBE27:
 981              		.loc 1 360 0
 982 012e 0BB0     		add	sp, sp, #44
 983 0130 BDE8F08F 		pop	{r4, r5, r6, r7, r8, r9, sl, fp, pc}
 984              	.L84:
 985              		.loc 1 329 0
 986 0134 E26A     		ldr	r2, [r4, #44]
 987 0136 1068     		ldr	r0, [r2, #0]
 988 0138 FFF7FEFF 		bl	spiUnselect
 989              	.LVL113:
 990              		.loc 1 331 0
 991 013c E36A     		ldr	r3, [r4, #44]
 992 013e 1868     		ldr	r0, [r3, #0]
 993 0140 FFF7FEFF 		bl	spiReleaseBus
 994              	.LVL114:
 995              		.loc 1 333 0
 996 0144 0120     		movs	r0, #1
 997 0146 F2E7     		b	.L76
 998              	.L85:
 999              		.loc 1 359 0
 1000 0148 0120     		movs	r0, #1
 1001 014a F0E7     		b	.L76
 1002              		.cfi_endproc
 1003              	.LFE127:
 1004              		.size	read_CxD, .-read_CxD
 1005 014c AFF30080 		.section	.text.mmcConnect,"ax",%progbits
 1006              		.align	2
 1007              		.p2align 4,,15
 1008              		.global	mmcConnect
 1009              		.thumb
 1010              		.thumb_func
 1011              		.type	mmcConnect, %function
 1012              	mmcConnect:
 1013              	.LFB133:
 1014              		.loc 1 472 0
 1015              		.cfi_startproc
 1016              		@ args = 0, pretend = 0, frame = 8
 1017              		@ frame_needed = 0, uses_anonymous_args = 0
 1018              	.LVL115:
 1019 0000 70B5     		push	{r4, r5, r6, lr}
 1020              	.LCFI12:
 1021              		.cfi_def_cfa_offset 16
 1022              		.cfi_offset 4, -16
ARM GAS  C:\Users\Vergil\AppData\Local\Temp\ccwNg35D.s 			page 19


 1023              		.cfi_offset 5, -12
 1024              		.cfi_offset 6, -8
 1025              		.cfi_offset 14, -4
 1026              		.loc 1 486 0
 1027 0002 C36A     		ldr	r3, [r0, #44]
 1028              		.loc 1 472 0
 1029 0004 0446     		mov	r4, r0
 1030              		.loc 1 483 0
 1031 0006 0025     		movs	r5, #0
 1032              		.loc 1 482 0
 1033 0008 0321     		movs	r1, #3
 1034              		.loc 1 472 0
 1035 000a 82B0     		sub	sp, sp, #8
 1036              	.LCFI13:
 1037              		.cfi_def_cfa_offset 24
 1038              		.loc 1 483 0
 1039 000c 80F83050 		strb	r5, [r0, #48]
 1040              		.loc 1 486 0
 1041 0010 1868     		ldr	r0, [r3, #0]
 1042              	.LVL116:
 1043              		.loc 1 482 0
 1044 0012 2171     		strb	r1, [r4, #4]
 1045              		.loc 1 486 0
 1046 0014 FFF7FEFF 		bl	spiAcquireBus
 1047              	.LVL117:
 1048              		.loc 1 489 0
 1049 0018 E06A     		ldr	r0, [r4, #44]
 1050 001a 03C8     		ldmia	r0, {r0, r1}
 1051 001c FFF7FEFF 		bl	spiStart
 1052              	.LVL118:
 1053              		.loc 1 490 0
 1054 0020 E26A     		ldr	r2, [r4, #44]
 1055 0022 1021     		movs	r1, #16
 1056 0024 1068     		ldr	r0, [r2, #0]
 1057 0026 FFF7FEFF 		bl	spiIgnore
 1058              	.LVL119:
 1059              		.loc 1 493 0
 1060 002a E36A     		ldr	r3, [r4, #44]
 1061 002c 1868     		ldr	r0, [r3, #0]
 1062 002e FFF7FEFF 		bl	spiReleaseBus
 1063              	.LVL120:
 1064              		.loc 1 499 0
 1065 0032 2046     		mov	r0, r4
 1066 0034 2946     		mov	r1, r5
 1067 0036 2A46     		mov	r2, r5
 1068 0038 FFF7FEFF 		bl	send_command_R1
 1069              	.LVL121:
 1070 003c 0128     		cmp	r0, #1
 1071 003e 62D0     		beq	.L87
 1072              	.LVL122:
 1073              		.loc 1 503 0
 1074 0040 0A20     		movs	r0, #10
 1075 0042 FFF7FEFF 		bl	chThdSleep
 1076              	.LVL123:
 1077              		.loc 1 499 0
 1078 0046 2046     		mov	r0, r4
 1079 0048 2946     		mov	r1, r5
ARM GAS  C:\Users\Vergil\AppData\Local\Temp\ccwNg35D.s 			page 20


 1080 004a 2A46     		mov	r2, r5
 1081 004c FFF7FEFF 		bl	send_command_R1
 1082              	.LVL124:
 1083 0050 0128     		cmp	r0, #1
 1084 0052 58D0     		beq	.L87
 1085              	.LVL125:
 1086              		.loc 1 503 0
 1087 0054 0A20     		movs	r0, #10
 1088 0056 FFF7FEFF 		bl	chThdSleep
 1089              	.LVL126:
 1090              		.loc 1 499 0
 1091 005a 2046     		mov	r0, r4
 1092 005c 2946     		mov	r1, r5
 1093 005e 2A46     		mov	r2, r5
 1094 0060 FFF7FEFF 		bl	send_command_R1
 1095              	.LVL127:
 1096 0064 0128     		cmp	r0, #1
 1097 0066 4ED0     		beq	.L87
 1098              	.LVL128:
 1099              		.loc 1 503 0
 1100 0068 0A20     		movs	r0, #10
 1101 006a FFF7FEFF 		bl	chThdSleep
 1102              	.LVL129:
 1103              		.loc 1 499 0
 1104 006e 2046     		mov	r0, r4
 1105 0070 2946     		mov	r1, r5
 1106 0072 2A46     		mov	r2, r5
 1107 0074 FFF7FEFF 		bl	send_command_R1
 1108              	.LVL130:
 1109 0078 0128     		cmp	r0, #1
 1110 007a 44D0     		beq	.L87
 1111              	.LVL131:
 1112              		.loc 1 503 0
 1113 007c 0A20     		movs	r0, #10
 1114 007e FFF7FEFF 		bl	chThdSleep
 1115              	.LVL132:
 1116              		.loc 1 499 0
 1117 0082 2046     		mov	r0, r4
 1118 0084 2946     		mov	r1, r5
 1119 0086 2A46     		mov	r2, r5
 1120 0088 FFF7FEFF 		bl	send_command_R1
 1121              	.LVL133:
 1122 008c 0128     		cmp	r0, #1
 1123 008e 3AD0     		beq	.L87
 1124              	.LVL134:
 1125              		.loc 1 503 0
 1126 0090 0A20     		movs	r0, #10
 1127 0092 FFF7FEFF 		bl	chThdSleep
 1128              	.LVL135:
 1129              		.loc 1 499 0
 1130 0096 2046     		mov	r0, r4
 1131 0098 2946     		mov	r1, r5
 1132 009a 2A46     		mov	r2, r5
 1133 009c FFF7FEFF 		bl	send_command_R1
 1134              	.LVL136:
 1135 00a0 0128     		cmp	r0, #1
 1136 00a2 30D0     		beq	.L87
ARM GAS  C:\Users\Vergil\AppData\Local\Temp\ccwNg35D.s 			page 21


 1137              	.LVL137:
 1138              		.loc 1 503 0
 1139 00a4 0A20     		movs	r0, #10
 1140 00a6 FFF7FEFF 		bl	chThdSleep
 1141              	.LVL138:
 1142              		.loc 1 499 0
 1143 00aa 2046     		mov	r0, r4
 1144 00ac 2946     		mov	r1, r5
 1145 00ae 2A46     		mov	r2, r5
 1146 00b0 FFF7FEFF 		bl	send_command_R1
 1147              	.LVL139:
 1148 00b4 0128     		cmp	r0, #1
 1149 00b6 26D0     		beq	.L87
 1150              	.LVL140:
 1151              		.loc 1 503 0
 1152 00b8 0A20     		movs	r0, #10
 1153 00ba FFF7FEFF 		bl	chThdSleep
 1154              	.LVL141:
 1155              		.loc 1 499 0
 1156 00be 2046     		mov	r0, r4
 1157 00c0 2946     		mov	r1, r5
 1158 00c2 2A46     		mov	r2, r5
 1159 00c4 FFF7FEFF 		bl	send_command_R1
 1160              	.LVL142:
 1161 00c8 0128     		cmp	r0, #1
 1162 00ca 1CD0     		beq	.L87
 1163              	.LVL143:
 1164              		.loc 1 503 0
 1165 00cc 0A20     		movs	r0, #10
 1166 00ce FFF7FEFF 		bl	chThdSleep
 1167              	.LVL144:
 1168              		.loc 1 499 0
 1169 00d2 2046     		mov	r0, r4
 1170 00d4 2946     		mov	r1, r5
 1171 00d6 2A46     		mov	r2, r5
 1172 00d8 FFF7FEFF 		bl	send_command_R1
 1173              	.LVL145:
 1174 00dc 0128     		cmp	r0, #1
 1175 00de 12D0     		beq	.L87
 1176              	.LVL146:
 1177              		.loc 1 503 0
 1178 00e0 0A20     		movs	r0, #10
 1179 00e2 FFF7FEFF 		bl	chThdSleep
 1180              	.LVL147:
 1181              		.loc 1 499 0
 1182 00e6 2046     		mov	r0, r4
 1183 00e8 2946     		mov	r1, r5
 1184 00ea 2A46     		mov	r2, r5
 1185 00ec FFF7FEFF 		bl	send_command_R1
 1186              	.LVL148:
 1187 00f0 0128     		cmp	r0, #1
 1188 00f2 08D0     		beq	.L87
 1189              	.LVL149:
 1190              	.L88:
 1191              	.LDL1:
 1192              		.loc 1 570 0
 1193 00f4 E26A     		ldr	r2, [r4, #44]
ARM GAS  C:\Users\Vergil\AppData\Local\Temp\ccwNg35D.s 			page 22


 1194 00f6 1068     		ldr	r0, [r2, #0]
 1195 00f8 FFF7FEFF 		bl	spiStop
 1196              	.LVL150:
 1197              		.loc 1 571 0
 1198 00fc 0223     		movs	r3, #2
 1199 00fe 2371     		strb	r3, [r4, #4]
 1200              		.loc 1 572 0
 1201 0100 0120     		movs	r0, #1
 1202              	.L98:
 1203              		.loc 1 573 0
 1204 0102 02B0     		add	sp, sp, #8
 1205 0104 70BD     		pop	{r4, r5, r6, pc}
 1206              	.L87:
 1207              		.loc 1 510 0
 1208 0106 0821     		movs	r1, #8
 1209 0108 2046     		mov	r0, r4
 1210 010a 4FF4D572 		mov	r2, #426
 1211 010e 01AB     		add	r3, sp, #4
 1212 0110 FFF7FEFF 		bl	send_command_R3
 1213              	.LVL151:
 1214 0114 0528     		cmp	r0, #5
 1215 0116 3FD0     		beq	.L90
 1216 0118 6426     		movs	r6, #100
 1217 011a 1DE0     		b	.L89
 1218              	.L94:
 1219              		.loc 1 523 0
 1220 011c 0A20     		movs	r0, #10
 1221              		.loc 1 521 0
 1222 011e 013E     		subs	r6, r6, #1
 1223 0120 E8D0     		beq	.L88
 1224              		.loc 1 523 0
 1225 0122 FFF7FEFF 		bl	chThdSleep
 1226              	.LVL152:
 1227              		.loc 1 516 0
 1228 0126 3721     		movs	r1, #55
 1229 0128 0022     		movs	r2, #0
 1230 012a 2046     		mov	r0, r4
 1231 012c FFF7FEFF 		bl	send_command_R1
 1232              	.LVL153:
 1233 0130 0128     		cmp	r0, #1
 1234 0132 0546     		mov	r5, r0
 1235 0134 00F08580 		beq	.L155
 1236              	.L152:
 1237              		.loc 1 523 0
 1238 0138 0A20     		movs	r0, #10
 1239 013a FFF7FEFF 		bl	chThdSleep
 1240              	.LVL154:
 1241              		.loc 1 516 0
 1242 013e 3721     		movs	r1, #55
 1243 0140 0022     		movs	r2, #0
 1244 0142 2046     		mov	r0, r4
 1245 0144 FFF7FEFF 		bl	send_command_R1
 1246              	.LVL155:
 1247 0148 0128     		cmp	r0, #1
 1248 014a 0546     		mov	r5, r0
 1249 014c 00F08680 		beq	.L156
 1250              	.L154:
ARM GAS  C:\Users\Vergil\AppData\Local\Temp\ccwNg35D.s 			page 23


 1251              		.loc 1 523 0
 1252 0150 0A20     		movs	r0, #10
 1253 0152 023E     		subs	r6, r6, #2
 1254 0154 FFF7FEFF 		bl	chThdSleep
 1255              	.LVL156:
 1256              	.L89:
 1257              		.loc 1 516 0
 1258 0158 3721     		movs	r1, #55
 1259 015a 0022     		movs	r2, #0
 1260 015c 2046     		mov	r0, r4
 1261 015e FFF7FEFF 		bl	send_command_R1
 1262              	.LVL157:
 1263 0162 0128     		cmp	r0, #1
 1264 0164 0546     		mov	r5, r0
 1265 0166 D9D1     		bne	.L94
 1266              		.loc 1 517 0 discriminator 1
 1267 0168 4FF4D572 		mov	r2, #426
 1268 016c 01AB     		add	r3, sp, #4
 1269 016e 2046     		mov	r0, r4
 1270 0170 2921     		movs	r1, #41
 1271 0172 C4F20002 		movt	r2, 16384
 1272 0176 FFF7FEFF 		bl	send_command_R3
 1273              	.LVL158:
 1274              		.loc 1 516 0 discriminator 1
 1275 017a 0028     		cmp	r0, #0
 1276 017c CED1     		bne	.L94
 1277              	.L93:
 1278              		.loc 1 527 0
 1279 017e 3A21     		movs	r1, #58
 1280 0180 0022     		movs	r2, #0
 1281 0182 2046     		mov	r0, r4
 1282 0184 01AB     		add	r3, sp, #4
 1283 0186 FFF7FEFF 		bl	send_command_R3
 1284              	.LVL159:
 1285              		.loc 1 530 0
 1286 018a 9DF80410 		ldrb	r1, [sp, #4]	@ zero_extendqisi2
 1287 018e 01F04000 		and	r0, r1, #64
 1288 0192 C2B2     		uxtb	r2, r0
 1289 0194 002A     		cmp	r2, #0
 1290 0196 6ED1     		bne	.L157
 1291              	.L90:
 1292              		.loc 1 510 0
 1293 0198 6426     		movs	r6, #100
 1294 019a 1EE0     		b	.L97
 1295              	.LVL160:
 1296              	.L158:
 1297              	.LBB28:
 1298              		.loc 1 540 0
 1299 019c 012D     		cmp	r5, #1
 1300 019e A9D1     		bne	.L88
 1301              		.loc 1 542 0
 1302 01a0 012E     		cmp	r6, #1
 1303 01a2 A7D0     		beq	.L88
 1304              		.loc 1 544 0
 1305 01a4 FFF7FEFF 		bl	chThdSleep
 1306              	.LVL161:
 1307              		.loc 1 537 0
ARM GAS  C:\Users\Vergil\AppData\Local\Temp\ccwNg35D.s 			page 24


 1308 01a8 2946     		mov	r1, r5
 1309 01aa 2046     		mov	r0, r4
 1310 01ac 0022     		movs	r2, #0
 1311 01ae FFF7FEFF 		bl	send_command_R1
 1312              	.LVL162:
 1313              		.loc 1 538 0
 1314 01b2 0546     		mov	r5, r0
 1315              	.LVL163:
 1316              		.loc 1 544 0
 1317 01b4 0A20     		movs	r0, #10
 1318              		.loc 1 538 0
 1319 01b6 CDB1     		cbz	r5, .L96
 1320              		.loc 1 540 0
 1321 01b8 012D     		cmp	r5, #1
 1322 01ba 9BD1     		bne	.L88
 1323              		.loc 1 544 0
 1324 01bc FFF7FEFF 		bl	chThdSleep
 1325              	.LVL164:
 1326              		.loc 1 537 0
 1327 01c0 2046     		mov	r0, r4
 1328 01c2 2946     		mov	r1, r5
 1329 01c4 0022     		movs	r2, #0
 1330 01c6 FFF7FEFF 		bl	send_command_R1
 1331              	.LVL165:
 1332              		.loc 1 538 0
 1333 01ca 0346     		mov	r3, r0
 1334              		.loc 1 544 0
 1335 01cc 0A20     		movs	r0, #10
 1336              		.loc 1 538 0
 1337 01ce 6BB1     		cbz	r3, .L96
 1338              		.loc 1 540 0
 1339 01d0 012B     		cmp	r3, #1
 1340 01d2 8FD1     		bne	.L88
 1341 01d4 033E     		subs	r6, r6, #3
 1342              		.loc 1 544 0
 1343 01d6 FFF7FEFF 		bl	chThdSleep
 1344              	.LVL166:
 1345              	.L97:
 1346              		.loc 1 537 0
 1347 01da 0022     		movs	r2, #0
 1348 01dc 2046     		mov	r0, r4
 1349 01de 0121     		movs	r1, #1
 1350 01e0 FFF7FEFF 		bl	send_command_R1
 1351              	.LVL167:
 1352              		.loc 1 538 0
 1353 01e4 0546     		mov	r5, r0
 1354              		.loc 1 544 0
 1355 01e6 0A20     		movs	r0, #10
 1356              	.LVL168:
 1357              		.loc 1 538 0
 1358 01e8 002D     		cmp	r5, #0
 1359 01ea D7D1     		bne	.L158
 1360              	.L96:
 1361              	.LBE28:
 1362              		.loc 1 548 0
 1363 01ec E06A     		ldr	r0, [r4, #44]
 1364 01ee 8168     		ldr	r1, [r0, #8]
ARM GAS  C:\Users\Vergil\AppData\Local\Temp\ccwNg35D.s 			page 25


 1365 01f0 0068     		ldr	r0, [r0, #0]
 1366 01f2 FFF7FEFF 		bl	spiStart
 1367              	.LVL169:
 1368              		.loc 1 551 0
 1369 01f6 2046     		mov	r0, r4
 1370 01f8 1021     		movs	r1, #16
 1371 01fa 4FF40072 		mov	r2, #512
 1372 01fe FFF7FEFF 		bl	send_command_R1
 1373              	.LVL170:
 1374 0202 0028     		cmp	r0, #0
 1375 0204 7FF476AF 		bne	.L88
 1376              		.loc 1 556 0
 1377 0208 04F11805 		add	r5, r4, #24
 1378 020c 2046     		mov	r0, r4
 1379 020e 0921     		movs	r1, #9
 1380 0210 2A46     		mov	r2, r5
 1381 0212 FFF7FEFF 		bl	read_CxD
 1382              	.LVL171:
 1383 0216 0028     		cmp	r0, #0
 1384 0218 7FF46CAF 		bne	.L88
 1385              		.loc 1 558 0
 1386 021c 2846     		mov	r0, r5
 1387 021e FFF7FEFF 		bl	mmcsdGetCapacity
 1388              	.LVL172:
 1389 0222 A062     		str	r0, [r4, #40]
 1390              		.loc 1 559 0
 1391 0224 0028     		cmp	r0, #0
 1392 0226 3FF465AF 		beq	.L88
 1393              		.loc 1 562 0
 1394 022a 2046     		mov	r0, r4
 1395 022c 0A21     		movs	r1, #10
 1396 022e 04F10802 		add	r2, r4, #8
 1397 0232 FFF7FEFF 		bl	read_CxD
 1398              	.LVL173:
 1399 0236 0028     		cmp	r0, #0
 1400 0238 7FF45CAF 		bne	.L88
 1401              		.loc 1 565 0
 1402 023c 0521     		movs	r1, #5
 1403 023e 2171     		strb	r1, [r4, #4]
 1404 0240 5FE7     		b	.L98
 1405              	.L155:
 1406              		.loc 1 517 0
 1407 0242 4FF4D572 		mov	r2, #426
 1408 0246 01AB     		add	r3, sp, #4
 1409 0248 2921     		movs	r1, #41
 1410 024a C4F20002 		movt	r2, 16384
 1411 024e 2046     		mov	r0, r4
 1412 0250 FFF7FEFF 		bl	send_command_R3
 1413              	.LVL174:
 1414              		.loc 1 516 0
 1415 0254 0028     		cmp	r0, #0
 1416 0256 7FF46FAF 		bne	.L152
 1417 025a 90E7     		b	.L93
 1418              	.L156:
 1419              		.loc 1 517 0
 1420 025c 4FF4D572 		mov	r2, #426
 1421 0260 2921     		movs	r1, #41
ARM GAS  C:\Users\Vergil\AppData\Local\Temp\ccwNg35D.s 			page 26


 1422 0262 C4F20002 		movt	r2, 16384
 1423 0266 01AB     		add	r3, sp, #4
 1424 0268 2046     		mov	r0, r4
 1425 026a FFF7FEFF 		bl	send_command_R3
 1426              	.LVL175:
 1427              		.loc 1 516 0
 1428 026e 0028     		cmp	r0, #0
 1429 0270 7FF46EAF 		bne	.L154
 1430 0274 83E7     		b	.L93
 1431              	.L157:
 1432              		.loc 1 531 0
 1433 0276 84F83050 		strb	r5, [r4, #48]
 1434 027a 8DE7     		b	.L90
 1435              		.cfi_endproc
 1436              	.LFE133:
 1437              		.size	mmcConnect, .-mmcConnect
 1438 027c AFF30080 		.section	.text.mmcSync,"ax",%progbits
 1439              		.align	2
 1440              		.p2align 4,,15
 1441              		.global	mmcSync
 1442              		.thumb
 1443              		.thumb_func
 1444              		.type	mmcSync, %function
 1445              	mmcSync:
 1446              	.LFB141:
 1447              		.loc 1 846 0
 1448              		.cfi_startproc
 1449              		@ args = 0, pretend = 0, frame = 0
 1450              		@ frame_needed = 0, uses_anonymous_args = 0
 1451              	.LVL176:
 1452 0000 38B5     		push	{r3, r4, r5, lr}
 1453              	.LCFI14:
 1454              		.cfi_def_cfa_offset 16
 1455              		.cfi_offset 3, -16
 1456              		.cfi_offset 4, -12
 1457              		.cfi_offset 5, -8
 1458              		.cfi_offset 14, -4
 1459              		.loc 1 850 0
 1460 0002 0579     		ldrb	r5, [r0, #4]	@ zero_extendqisi2
 1461 0004 052D     		cmp	r5, #5
 1462              		.loc 1 846 0
 1463 0006 0446     		mov	r4, r0
 1464              		.loc 1 850 0
 1465 0008 01D0     		beq	.L162
 1466              		.loc 1 851 0
 1467 000a 0120     		movs	r0, #1
 1468              	.LVL177:
 1469              		.loc 1 862 0
 1470 000c 38BD     		pop	{r3, r4, r5, pc}
 1471              	.LVL178:
 1472              	.L162:
 1473              	.LBB31:
 1474              	.LBB32:
 1475              		.loc 1 856 0
 1476 000e C36A     		ldr	r3, [r0, #44]
 1477              		.loc 1 854 0
 1478 0010 0822     		movs	r2, #8
ARM GAS  C:\Users\Vergil\AppData\Local\Temp\ccwNg35D.s 			page 27


 1479              		.loc 1 856 0
 1480 0012 9968     		ldr	r1, [r3, #8]
 1481              		.loc 1 854 0
 1482 0014 0271     		strb	r2, [r0, #4]
 1483              		.loc 1 856 0
 1484 0016 1868     		ldr	r0, [r3, #0]
 1485              	.LVL179:
 1486 0018 FFF7FEFF 		bl	spiStart
 1487              	.LVL180:
 1488              		.loc 1 857 0
 1489 001c 2046     		mov	r0, r4
 1490 001e FFF7FEFF 		bl	sync
 1491              	.LVL181:
 1492              		.loc 1 860 0
 1493 0022 2571     		strb	r5, [r4, #4]
 1494 0024 0020     		movs	r0, #0
 1495 0026 38BD     		pop	{r3, r4, r5, pc}
 1496              	.LBE32:
 1497              	.LBE31:
 1498              		.cfi_endproc
 1499              	.LFE141:
 1500              		.size	mmcSync, .-mmcSync
 1501 0028 AFF30080 		.section	.text.mmcDisconnect,"ax",%progbits
 1501      AFF30080 
 1502              		.align	2
 1503              		.p2align 4,,15
 1504              		.global	mmcDisconnect
 1505              		.thumb
 1506              		.thumb_func
 1507              		.type	mmcDisconnect, %function
 1508              	mmcDisconnect:
 1509              	.LFB134:
 1510              		.loc 1 587 0
 1511              		.cfi_startproc
 1512              		@ args = 0, pretend = 0, frame = 0
 1513              		@ frame_needed = 0, uses_anonymous_args = 0
 1514              	.LVL182:
 1515 0000 10B5     		push	{r4, lr}
 1516              	.LCFI15:
 1517              		.cfi_def_cfa_offset 8
 1518              		.cfi_offset 4, -8
 1519              		.cfi_offset 14, -4
 1520              	.LBB40:
 1521              		.loc 1 591 0
 1522 0002 2023     		movs	r3, #32
 1523              	.LVL183:
 1524              	.LBE40:
 1525              		.loc 1 587 0
 1526 0004 0446     		mov	r4, r0
 1527              	.LBB41:
 1528              		.loc 1 591 0
 1529              	@ 591 "../../os/hal/src/mmc_spi.c" 1
 1530 0006 83F31188 		msr     BASEPRI, r3
 1531              	@ 0 "" 2
 1532              	.LVL184:
 1533              		.thumb
 1534              	.LBE41:
ARM GAS  C:\Users\Vergil\AppData\Local\Temp\ccwNg35D.s 			page 28


 1535              		.loc 1 594 0
 1536 000a 0379     		ldrb	r3, [r0, #4]	@ zero_extendqisi2
 1537              	.LVL185:
 1538 000c 022B     		cmp	r3, #2
 1539 000e 14D0     		beq	.L166
 1540              	.LVL186:
 1541              	.LBB42:
 1542              	.LBB43:
 1543              		.loc 1 598 0
 1544 0010 0420     		movs	r0, #4
 1545              	.LVL187:
 1546 0012 2071     		strb	r0, [r4, #4]
 1547              	.LBB44:
 1548              		.loc 1 599 0
 1549 0014 0023     		movs	r3, #0
 1550              	.LVL188:
 1551              	@ 599 "../../os/hal/src/mmc_spi.c" 1
 1552 0016 83F31188 		msr     BASEPRI, r3
 1553              	@ 0 "" 2
 1554              	.LVL189:
 1555              		.thumb
 1556              	.LBE44:
 1557              		.loc 1 602 0
 1558 001a E26A     		ldr	r2, [r4, #44]
 1559 001c 9168     		ldr	r1, [r2, #8]
 1560 001e 1068     		ldr	r0, [r2, #0]
 1561 0020 FFF7FEFF 		bl	spiStart
 1562              	.LVL190:
 1563              		.loc 1 603 0
 1564 0024 2046     		mov	r0, r4
 1565 0026 FFF7FEFF 		bl	sync
 1566              	.LVL191:
 1567              		.loc 1 605 0
 1568 002a E16A     		ldr	r1, [r4, #44]
 1569 002c 0868     		ldr	r0, [r1, #0]
 1570 002e FFF7FEFF 		bl	spiStop
 1571              	.LVL192:
 1572              		.loc 1 606 0
 1573 0032 0223     		movs	r3, #2
 1574 0034 2371     		strb	r3, [r4, #4]
 1575              	.LBE43:
 1576              	.LBE42:
 1577              		.loc 1 608 0
 1578 0036 0020     		movs	r0, #0
 1579 0038 10BD     		pop	{r4, pc}
 1580              	.LVL193:
 1581              	.L166:
 1582              	.LBB45:
 1583              		.loc 1 595 0
 1584 003a 0023     		movs	r3, #0
 1585              	.LVL194:
 1586              	@ 595 "../../os/hal/src/mmc_spi.c" 1
 1587 003c 83F31188 		msr     BASEPRI, r3
 1588              	@ 0 "" 2
 1589              	.LVL195:
 1590              		.thumb
 1591              	.LBE45:
ARM GAS  C:\Users\Vergil\AppData\Local\Temp\ccwNg35D.s 			page 29


 1592              		.loc 1 608 0
 1593 0040 0020     		movs	r0, #0
 1594              	.LVL196:
 1595 0042 10BD     		pop	{r4, pc}
 1596              		.cfi_endproc
 1597              	.LFE134:
 1598              		.size	mmcDisconnect, .-mmcDisconnect
 1599 0044 AFF30080 		.section	.text.mmcInit,"ax",%progbits
 1599      AFF30080 
 1599      AFF30080 
 1600              		.align	2
 1601              		.p2align 4,,15
 1602              		.global	mmcInit
 1603              		.thumb
 1604              		.thumb_func
 1605              		.type	mmcInit, %function
 1606              	mmcInit:
 1607              	.LFB129:
 1608              		.loc 1 401 0
 1609              		.cfi_startproc
 1610              		@ args = 0, pretend = 0, frame = 0
 1611              		@ frame_needed = 0, uses_anonymous_args = 0
 1612              		@ link register save eliminated.
 1613 0000 7047     		bx	lr
 1614              		.cfi_endproc
 1615              	.LFE129:
 1616              		.size	mmcInit, .-mmcInit
 1617 0002 00BFAFF3 		.section	.text.mmcObjectInit,"ax",%progbits
 1617      0080AFF3 
 1617      0080AFF3 
 1617      0080
 1618              		.align	2
 1619              		.p2align 4,,15
 1620              		.global	mmcObjectInit
 1621              		.thumb
 1622              		.thumb_func
 1623              		.type	mmcObjectInit, %function
 1624              	mmcObjectInit:
 1625              	.LFB130:
 1626              		.loc 1 412 0
 1627              		.cfi_startproc
 1628              		@ args = 0, pretend = 0, frame = 0
 1629              		@ frame_needed = 0, uses_anonymous_args = 0
 1630              		@ link register save eliminated.
 1631              	.LVL197:
 1632              		.loc 1 414 0
 1633 0000 40F20002 		movw	r2, #:lower16:.LANCHOR1
 1634              		.loc 1 416 0
 1635 0004 0023     		movs	r3, #0
 1636              		.loc 1 414 0
 1637 0006 C0F20002 		movt	r2, #:upper16:.LANCHOR1
 1638              		.loc 1 415 0
 1639 000a 0121     		movs	r1, #1
 1640              		.loc 1 414 0
 1641 000c 0260     		str	r2, [r0, #0]
 1642              		.loc 1 415 0
 1643 000e 0171     		strb	r1, [r0, #4]
ARM GAS  C:\Users\Vergil\AppData\Local\Temp\ccwNg35D.s 			page 30


 1644              		.loc 1 416 0
 1645 0010 C362     		str	r3, [r0, #44]
 1646              		.loc 1 417 0
 1647 0012 80F83030 		strb	r3, [r0, #48]
 1648 0016 7047     		bx	lr
 1649              		.cfi_endproc
 1650              	.LFE130:
 1651              		.size	mmcObjectInit, .-mmcObjectInit
 1652 0018 AFF30080 		.section	.text.mmcStart,"ax",%progbits
 1652      AFF30080 
 1653              		.align	2
 1654              		.p2align 4,,15
 1655              		.global	mmcStart
 1656              		.thumb
 1657              		.thumb_func
 1658              		.type	mmcStart, %function
 1659              	mmcStart:
 1660              	.LFB131:
 1661              		.loc 1 428 0
 1662              		.cfi_startproc
 1663              		@ args = 0, pretend = 0, frame = 0
 1664              		@ frame_needed = 0, uses_anonymous_args = 0
 1665              		@ link register save eliminated.
 1666              	.LVL198:
 1667              		.loc 1 435 0
 1668 0000 0223     		movs	r3, #2
 1669              		.loc 1 434 0
 1670 0002 C162     		str	r1, [r0, #44]
 1671              		.loc 1 435 0
 1672 0004 0371     		strb	r3, [r0, #4]
 1673 0006 7047     		bx	lr
 1674              		.cfi_endproc
 1675              	.LFE131:
 1676              		.size	mmcStart, .-mmcStart
 1677 0008 AFF30080 		.section	.text.mmcStop,"ax",%progbits
 1677      AFF30080 
 1678              		.align	2
 1679              		.p2align 4,,15
 1680              		.global	mmcStop
 1681              		.thumb
 1682              		.thumb_func
 1683              		.type	mmcStop, %function
 1684              	mmcStop:
 1685              	.LFB132:
 1686              		.loc 1 445 0
 1687              		.cfi_startproc
 1688              		@ args = 0, pretend = 0, frame = 0
 1689              		@ frame_needed = 0, uses_anonymous_args = 0
 1690              	.LVL199:
 1691              		.loc 1 451 0
 1692 0000 C36A     		ldr	r3, [r0, #44]
 1693              		.loc 1 445 0
 1694 0002 10B5     		push	{r4, lr}
 1695              	.LCFI16:
 1696              		.cfi_def_cfa_offset 8
 1697              		.cfi_offset 4, -8
 1698              		.cfi_offset 14, -4
ARM GAS  C:\Users\Vergil\AppData\Local\Temp\ccwNg35D.s 			page 31


 1699              		.loc 1 445 0
 1700 0004 0446     		mov	r4, r0
 1701              		.loc 1 451 0
 1702 0006 1868     		ldr	r0, [r3, #0]
 1703              	.LVL200:
 1704 0008 FFF7FEFF 		bl	spiStop
 1705              	.LVL201:
 1706              		.loc 1 452 0
 1707 000c 0120     		movs	r0, #1
 1708 000e 2071     		strb	r0, [r4, #4]
 1709 0010 10BD     		pop	{r4, pc}
 1710              		.cfi_endproc
 1711              	.LFE132:
 1712              		.size	mmcStop, .-mmcStop
 1713 0012 00BFAFF3 		.section	.text.mmcStartSequentialRead,"ax",%progbits
 1713      0080AFF3 
 1713      0080AFF3 
 1713      0080
 1714              		.align	2
 1715              		.p2align 4,,15
 1716              		.global	mmcStartSequentialRead
 1717              		.thumb
 1718              		.thumb_func
 1719              		.type	mmcStartSequentialRead, %function
 1720              	mmcStartSequentialRead:
 1721              	.LFB135:
 1722              		.loc 1 622 0
 1723              		.cfi_startproc
 1724              		@ args = 0, pretend = 0, frame = 0
 1725              		@ frame_needed = 0, uses_anonymous_args = 0
 1726              	.LVL202:
 1727 0000 38B5     		push	{r3, r4, r5, lr}
 1728              	.LCFI17:
 1729              		.cfi_def_cfa_offset 16
 1730              		.cfi_offset 3, -16
 1731              		.cfi_offset 4, -12
 1732              		.cfi_offset 5, -8
 1733              		.cfi_offset 14, -4
 1734              		.loc 1 633 0
 1735 0002 C36A     		ldr	r3, [r0, #44]
 1736              		.loc 1 622 0
 1737 0004 0446     		mov	r4, r0
 1738              		.loc 1 629 0
 1739 0006 0622     		movs	r2, #6
 1740 0008 0271     		strb	r2, [r0, #4]
 1741              		.loc 1 622 0
 1742 000a 0D46     		mov	r5, r1
 1743              		.loc 1 633 0
 1744 000c 1868     		ldr	r0, [r3, #0]
 1745              	.LVL203:
 1746 000e 9968     		ldr	r1, [r3, #8]
 1747              	.LVL204:
 1748 0010 FFF7FEFF 		bl	spiStart
 1749              	.LVL205:
 1750              		.loc 1 635 0
 1751 0014 E06A     		ldr	r0, [r4, #44]
 1752 0016 0068     		ldr	r0, [r0, #0]
ARM GAS  C:\Users\Vergil\AppData\Local\Temp\ccwNg35D.s 			page 32


 1753 0018 FFF7FEFF 		bl	spiAcquireBus
 1754              	.LVL206:
 1755              		.loc 1 637 0
 1756 001c E16A     		ldr	r1, [r4, #44]
 1757 001e 0868     		ldr	r0, [r1, #0]
 1758 0020 FFF7FEFF 		bl	spiSelect
 1759              	.LVL207:
 1760              		.loc 1 639 0
 1761 0024 94F83030 		ldrb	r3, [r4, #48]	@ zero_extendqisi2
 1762              		.loc 1 640 0
 1763 0028 2046     		mov	r0, r4
 1764 002a 1221     		movs	r1, #18
 1765              		.loc 1 639 0
 1766 002c 73B1     		cbz	r3, .L172
 1767              		.loc 1 640 0
 1768 002e 2A46     		mov	r2, r5
 1769 0030 FFF7FEFF 		bl	send_hdr
 1770              	.LVL208:
 1771              	.L173:
 1772              		.loc 1 644 0
 1773 0034 2046     		mov	r0, r4
 1774 0036 FFF7FEFF 		bl	recvr1
 1775              	.LVL209:
 1776 003a 30B1     		cbz	r0, .L174
 1777              		.loc 1 645 0
 1778 003c E26A     		ldr	r2, [r4, #44]
 1779 003e 1068     		ldr	r0, [r2, #0]
 1780 0040 FFF7FEFF 		bl	spiStop
 1781              	.LVL210:
 1782              		.loc 1 646 0
 1783 0044 0520     		movs	r0, #5
 1784 0046 2071     		strb	r0, [r4, #4]
 1785              		.loc 1 647 0
 1786 0048 0120     		movs	r0, #1
 1787              	.L174:
 1788              		.loc 1 650 0
 1789 004a 38BD     		pop	{r3, r4, r5, pc}
 1790              	.LVL211:
 1791              	.L172:
 1792              		.loc 1 642 0
 1793 004c 6A02     		lsls	r2, r5, #9
 1794 004e FFF7FEFF 		bl	send_hdr
 1795              	.LVL212:
 1796 0052 EFE7     		b	.L173
 1797              		.cfi_endproc
 1798              	.LFE135:
 1799              		.size	mmcStartSequentialRead, .-mmcStartSequentialRead
 1800 0054 AFF30080 		.section	.text.mmcSequentialRead,"ax",%progbits
 1800      AFF30080 
 1800      AFF30080 
 1801              		.align	2
 1802              		.p2align 4,,15
 1803              		.global	mmcSequentialRead
 1804              		.thumb
 1805              		.thumb_func
 1806              		.type	mmcSequentialRead, %function
 1807              	mmcSequentialRead:
ARM GAS  C:\Users\Vergil\AppData\Local\Temp\ccwNg35D.s 			page 33


 1808              	.LFB136:
 1809              		.loc 1 664 0
 1810              		.cfi_startproc
 1811              		@ args = 0, pretend = 0, frame = 0
 1812              		@ frame_needed = 0, uses_anonymous_args = 0
 1813              	.LVL213:
 1814              		.loc 1 669 0
 1815 0000 0379     		ldrb	r3, [r0, #4]	@ zero_extendqisi2
 1816 0002 062B     		cmp	r3, #6
 1817              		.loc 1 664 0
 1818 0004 70B5     		push	{r4, r5, r6, lr}
 1819              	.LCFI18:
 1820              		.cfi_def_cfa_offset 16
 1821              		.cfi_offset 4, -16
 1822              		.cfi_offset 5, -12
 1823              		.cfi_offset 6, -8
 1824              		.cfi_offset 14, -4
 1825              		.loc 1 664 0
 1826 0006 0646     		mov	r6, r0
 1827 0008 0C46     		mov	r4, r1
 1828              		.loc 1 669 0
 1829 000a 01D0     		beq	.L186
 1830              		.loc 1 670 0
 1831 000c 0120     		movs	r0, #1
 1832              	.LVL214:
 1833              		.loc 1 689 0
 1834 000e 70BD     		pop	{r4, r5, r6, pc}
 1835              	.LVL215:
 1836              	.L186:
 1837              		.loc 1 669 0
 1838 0010 42F21075 		movw	r5, #10000
 1839 0014 08E0     		b	.L179
 1840              	.LVL216:
 1841              	.L178:
 1842              		.loc 1 673 0
 1843 0016 F06A     		ldr	r0, [r6, #44]
 1844 0018 0068     		ldr	r0, [r0, #0]
 1845 001a FFF7FEFF 		bl	spiReceive
 1846              	.LVL217:
 1847              		.loc 1 674 0
 1848 001e 2178     		ldrb	r1, [r4, #0]	@ zero_extendqisi2
 1849 0020 FE29     		cmp	r1, #254
 1850 0022 0ED0     		beq	.L184
 1851              		.loc 1 672 0
 1852 0024 013D     		subs	r5, r5, #1
 1853 0026 1AD0     		beq	.L187
 1854              	.L179:
 1855              		.loc 1 673 0
 1856 0028 F06A     		ldr	r0, [r6, #44]
 1857 002a 0121     		movs	r1, #1
 1858 002c 2246     		mov	r2, r4
 1859 002e 0068     		ldr	r0, [r0, #0]
 1860 0030 FFF7FEFF 		bl	spiReceive
 1861              	.LVL218:
 1862              		.loc 1 674 0
 1863 0034 2378     		ldrb	r3, [r4, #0]	@ zero_extendqisi2
 1864              		.loc 1 673 0
ARM GAS  C:\Users\Vergil\AppData\Local\Temp\ccwNg35D.s 			page 34


 1865 0036 0121     		movs	r1, #1
 1866              		.loc 1 674 0
 1867 0038 FE2B     		cmp	r3, #254
 1868              		.loc 1 673 0
 1869 003a 2246     		mov	r2, r4
 1870 003c 05F1FF35 		add	r5, r5, #-1
 1871              		.loc 1 674 0
 1872 0040 E9D1     		bne	.L178
 1873              	.L184:
 1874              		.loc 1 675 0
 1875 0042 F26A     		ldr	r2, [r6, #44]
 1876 0044 4FF40071 		mov	r1, #512
 1877 0048 1068     		ldr	r0, [r2, #0]
 1878 004a 2246     		mov	r2, r4
 1879 004c FFF7FEFF 		bl	spiReceive
 1880              	.LVL219:
 1881              		.loc 1 677 0
 1882 0050 F36A     		ldr	r3, [r6, #44]
 1883 0052 0221     		movs	r1, #2
 1884 0054 1868     		ldr	r0, [r3, #0]
 1885 0056 FFF7FEFF 		bl	spiIgnore
 1886              	.LVL220:
 1887              		.loc 1 678 0
 1888 005a 0020     		movs	r0, #0
 1889 005c 70BD     		pop	{r4, r5, r6, pc}
 1890              	.L187:
 1891              		.loc 1 682 0
 1892 005e F26A     		ldr	r2, [r6, #44]
 1893 0060 1068     		ldr	r0, [r2, #0]
 1894 0062 FFF7FEFF 		bl	spiUnselect
 1895              	.LVL221:
 1896              		.loc 1 684 0
 1897 0066 F36A     		ldr	r3, [r6, #44]
 1898 0068 1868     		ldr	r0, [r3, #0]
 1899 006a FFF7FEFF 		bl	spiReleaseBus
 1900              	.LVL222:
 1901              		.loc 1 686 0
 1902 006e F06A     		ldr	r0, [r6, #44]
 1903 0070 0068     		ldr	r0, [r0, #0]
 1904 0072 FFF7FEFF 		bl	spiStop
 1905              	.LVL223:
 1906              		.loc 1 687 0
 1907 0076 0521     		movs	r1, #5
 1908 0078 3171     		strb	r1, [r6, #4]
 1909              		.loc 1 688 0
 1910 007a 0120     		movs	r0, #1
 1911 007c 70BD     		pop	{r4, r5, r6, pc}
 1912              		.cfi_endproc
 1913              	.LFE136:
 1914              		.size	mmcSequentialRead, .-mmcSequentialRead
 1915 007e 00BF     		.section	.text.mmcStopSequentialRead,"ax",%progbits
 1916              		.align	2
 1917              		.p2align 4,,15
 1918              		.global	mmcStopSequentialRead
 1919              		.thumb
 1920              		.thumb_func
 1921              		.type	mmcStopSequentialRead, %function
ARM GAS  C:\Users\Vergil\AppData\Local\Temp\ccwNg35D.s 			page 35


 1922              	mmcStopSequentialRead:
 1923              	.LFB137:
 1924              		.loc 1 702 0
 1925              		.cfi_startproc
 1926              		@ args = 0, pretend = 0, frame = 0
 1927              		@ frame_needed = 0, uses_anonymous_args = 0
 1928              	.LVL224:
 1929              		.loc 1 708 0
 1930 0000 0379     		ldrb	r3, [r0, #4]	@ zero_extendqisi2
 1931 0002 062B     		cmp	r3, #6
 1932              		.loc 1 702 0
 1933 0004 10B5     		push	{r4, lr}
 1934              	.LCFI19:
 1935              		.cfi_def_cfa_offset 8
 1936              		.cfi_offset 4, -8
 1937              		.cfi_offset 14, -4
 1938              		.loc 1 702 0
 1939 0006 0446     		mov	r4, r0
 1940              		.loc 1 708 0
 1941 0008 01D0     		beq	.L191
 1942              		.loc 1 709 0
 1943 000a 0120     		movs	r0, #1
 1944              	.LVL225:
 1945              		.loc 1 724 0
 1946 000c 10BD     		pop	{r4, pc}
 1947              	.LVL226:
 1948              	.L191:
 1949              		.loc 1 711 0
 1950 000e C06A     		ldr	r0, [r0, #44]
 1951              	.LVL227:
 1952 0010 094A     		ldr	r2, .L192
 1953 0012 0068     		ldr	r0, [r0, #0]
 1954 0014 0721     		movs	r1, #7
 1955 0016 FFF7FEFF 		bl	spiSend
 1956              	.LVL228:
 1957              		.loc 1 714 0
 1958 001a 2046     		mov	r0, r4
 1959 001c FFF7FEFF 		bl	recvr1
 1960              	.LVL229:
 1961              		.loc 1 717 0
 1962 0020 E16A     		ldr	r1, [r4, #44]
 1963 0022 0868     		ldr	r0, [r1, #0]
 1964 0024 FFF7FEFF 		bl	spiUnselect
 1965              	.LVL230:
 1966              		.loc 1 719 0
 1967 0028 E26A     		ldr	r2, [r4, #44]
 1968 002a 1068     		ldr	r0, [r2, #0]
 1969 002c FFF7FEFF 		bl	spiReleaseBus
 1970              	.LVL231:
 1971              		.loc 1 722 0
 1972 0030 0523     		movs	r3, #5
 1973 0032 2371     		strb	r3, [r4, #4]
 1974              		.loc 1 723 0
 1975 0034 0020     		movs	r0, #0
 1976 0036 10BD     		pop	{r4, pc}
 1977              	.L193:
 1978              		.align	2
ARM GAS  C:\Users\Vergil\AppData\Local\Temp\ccwNg35D.s 			page 36


 1979              	.L192:
 1980 0038 00000000 		.word	.LANCHOR2
 1981              		.cfi_endproc
 1982              	.LFE137:
 1983              		.size	mmcStopSequentialRead, .-mmcStopSequentialRead
 1984 003c AFF30080 		.section	.text.mmc_read,"ax",%progbits
 1985              		.align	2
 1986              		.p2align 4,,15
 1987              		.thumb
 1988              		.thumb_func
 1989              		.type	mmc_read, %function
 1990              	mmc_read:
 1991              	.LFB118:
 1992              		.loc 1 111 0
 1993              		.cfi_startproc
 1994              		@ args = 0, pretend = 0, frame = 0
 1995              		@ frame_needed = 0, uses_anonymous_args = 0
 1996              	.LVL232:
 1997 0000 F8B5     		push	{r3, r4, r5, r6, r7, lr}
 1998              	.LCFI20:
 1999              		.cfi_def_cfa_offset 24
 2000              		.cfi_offset 3, -24
 2001              		.cfi_offset 4, -20
 2002              		.cfi_offset 5, -16
 2003              		.cfi_offset 6, -12
 2004              		.cfi_offset 7, -8
 2005              		.cfi_offset 14, -4
 2006              		.loc 1 111 0
 2007 0002 0746     		mov	r7, r0
 2008 0004 1446     		mov	r4, r2
 2009 0006 1E46     		mov	r6, r3
 2010              		.loc 1 113 0
 2011 0008 FFF7FEFF 		bl	mmcStartSequentialRead
 2012              	.LVL233:
 2013 000c 0028     		cmp	r0, #0
 2014 000e 2DD1     		bne	.L196
 2015              		.loc 1 115 0 discriminator 1
 2016 0010 AEB1     		cbz	r6, .L200
 2017 0012 013E     		subs	r6, r6, #1
 2018              	.LVL234:
 2019              		.loc 1 116 0
 2020 0014 3846     		mov	r0, r7
 2021 0016 2146     		mov	r1, r4
 2022 0018 06F00105 		and	r5, r6, #1
 2023 001c FFF7FEFF 		bl	mmcSequentialRead
 2024              	.LVL235:
 2025 0020 0028     		cmp	r0, #0
 2026 0022 23D1     		bne	.L196
 2027              		.loc 1 118 0
 2028 0024 04F50074 		add	r4, r4, #512
 2029              	.LVL236:
 2030              		.loc 1 115 0
 2031 0028 4EB1     		cbz	r6, .L200
 2032 002a 9DB1     		cbz	r5, .L201
 2033              		.loc 1 116 0
 2034 002c 3846     		mov	r0, r7
 2035 002e 2146     		mov	r1, r4
ARM GAS  C:\Users\Vergil\AppData\Local\Temp\ccwNg35D.s 			page 37


 2036 0030 FFF7FEFF 		bl	mmcSequentialRead
 2037              	.LVL237:
 2038 0034 D0B9     		cbnz	r0, .L196
 2039              		.loc 1 115 0
 2040 0036 013E     		subs	r6, r6, #1
 2041              		.loc 1 118 0
 2042 0038 04F50074 		add	r4, r4, #512
 2043              	.LVL238:
 2044              		.loc 1 115 0
 2045 003c 0AD1     		bne	.L201
 2046              	.L200:
 2047              	.LVL239:
 2048              	.LBB48:
 2049              	.LBB49:
 2050              		.loc 1 121 0
 2051 003e 3846     		mov	r0, r7
 2052              	.LBE49:
 2053              	.LBE48:
 2054              		.loc 1 124 0
 2055 0040 BDE8F840 		pop	{r3, r4, r5, r6, r7, lr}
 2056              	.LBB51:
 2057              	.LBB50:
 2058              		.loc 1 121 0
 2059 0044 FFF7FEBF 		b	mmcStopSequentialRead
 2060              	.LVL240:
 2061              	.L212:
 2062              	.LBE50:
 2063              	.LBE51:
 2064              		.loc 1 116 0
 2065 0048 3846     		mov	r0, r7
 2066 004a FFF7FEFF 		bl	mmcSequentialRead
 2067              	.LVL241:
 2068 004e 68B9     		cbnz	r0, .L196
 2069              		.loc 1 115 0
 2070 0050 013E     		subs	r6, r6, #1
 2071 0052 F4D0     		beq	.L200
 2072              	.L201:
 2073              		.loc 1 116 0
 2074 0054 2146     		mov	r1, r4
 2075 0056 3846     		mov	r0, r7
 2076 0058 FFF7FEFF 		bl	mmcSequentialRead
 2077              	.LVL242:
 2078              		.loc 1 118 0
 2079 005c 04F50075 		add	r5, r4, #512
 2080              		.loc 1 116 0
 2081 0060 2946     		mov	r1, r5
 2082              		.loc 1 119 0
 2083 0062 013E     		subs	r6, r6, #1
 2084              		.loc 1 118 0
 2085 0064 04F58064 		add	r4, r4, #1024
 2086              		.loc 1 116 0
 2087 0068 0028     		cmp	r0, #0
 2088 006a EDD0     		beq	.L212
 2089              	.L196:
 2090              		.loc 1 124 0
 2091 006c 0120     		movs	r0, #1
 2092 006e F8BD     		pop	{r3, r4, r5, r6, r7, pc}
ARM GAS  C:\Users\Vergil\AppData\Local\Temp\ccwNg35D.s 			page 38


 2093              		.cfi_endproc
 2094              	.LFE118:
 2095              		.size	mmc_read, .-mmc_read
 2096              		.section	.text.mmcStartSequentialWrite,"ax",%progbits
 2097              		.align	2
 2098              		.p2align 4,,15
 2099              		.global	mmcStartSequentialWrite
 2100              		.thumb
 2101              		.thumb_func
 2102              		.type	mmcStartSequentialWrite, %function
 2103              	mmcStartSequentialWrite:
 2104              	.LFB138:
 2105              		.loc 1 738 0
 2106              		.cfi_startproc
 2107              		@ args = 0, pretend = 0, frame = 0
 2108              		@ frame_needed = 0, uses_anonymous_args = 0
 2109              	.LVL243:
 2110 0000 38B5     		push	{r3, r4, r5, lr}
 2111              	.LCFI21:
 2112              		.cfi_def_cfa_offset 16
 2113              		.cfi_offset 3, -16
 2114              		.cfi_offset 4, -12
 2115              		.cfi_offset 5, -8
 2116              		.cfi_offset 14, -4
 2117              		.loc 1 747 0
 2118 0002 C36A     		ldr	r3, [r0, #44]
 2119              		.loc 1 738 0
 2120 0004 0446     		mov	r4, r0
 2121              		.loc 1 745 0
 2122 0006 0722     		movs	r2, #7
 2123 0008 0271     		strb	r2, [r0, #4]
 2124              		.loc 1 738 0
 2125 000a 0D46     		mov	r5, r1
 2126              		.loc 1 747 0
 2127 000c 1868     		ldr	r0, [r3, #0]
 2128              	.LVL244:
 2129 000e 9968     		ldr	r1, [r3, #8]
 2130              	.LVL245:
 2131 0010 FFF7FEFF 		bl	spiStart
 2132              	.LVL246:
 2133              		.loc 1 749 0
 2134 0014 E06A     		ldr	r0, [r4, #44]
 2135 0016 0068     		ldr	r0, [r0, #0]
 2136 0018 FFF7FEFF 		bl	spiAcquireBus
 2137              	.LVL247:
 2138              		.loc 1 751 0
 2139 001c E16A     		ldr	r1, [r4, #44]
 2140 001e 0868     		ldr	r0, [r1, #0]
 2141 0020 FFF7FEFF 		bl	spiSelect
 2142              	.LVL248:
 2143              		.loc 1 752 0
 2144 0024 94F83030 		ldrb	r3, [r4, #48]	@ zero_extendqisi2
 2145              		.loc 1 753 0
 2146 0028 2046     		mov	r0, r4
 2147 002a 1921     		movs	r1, #25
 2148              		.loc 1 752 0
 2149 002c 73B1     		cbz	r3, .L214
ARM GAS  C:\Users\Vergil\AppData\Local\Temp\ccwNg35D.s 			page 39


 2150              		.loc 1 753 0
 2151 002e 2A46     		mov	r2, r5
 2152 0030 FFF7FEFF 		bl	send_hdr
 2153              	.LVL249:
 2154              	.L215:
 2155              		.loc 1 758 0
 2156 0034 2046     		mov	r0, r4
 2157 0036 FFF7FEFF 		bl	recvr1
 2158              	.LVL250:
 2159 003a 30B1     		cbz	r0, .L216
 2160              		.loc 1 759 0
 2161 003c E26A     		ldr	r2, [r4, #44]
 2162 003e 1068     		ldr	r0, [r2, #0]
 2163 0040 FFF7FEFF 		bl	spiStop
 2164              	.LVL251:
 2165              		.loc 1 760 0
 2166 0044 0520     		movs	r0, #5
 2167 0046 2071     		strb	r0, [r4, #4]
 2168              		.loc 1 761 0
 2169 0048 0120     		movs	r0, #1
 2170              	.L216:
 2171              		.loc 1 764 0
 2172 004a 38BD     		pop	{r3, r4, r5, pc}
 2173              	.LVL252:
 2174              	.L214:
 2175              		.loc 1 755 0
 2176 004c 6A02     		lsls	r2, r5, #9
 2177 004e FFF7FEFF 		bl	send_hdr
 2178              	.LVL253:
 2179 0052 EFE7     		b	.L215
 2180              		.cfi_endproc
 2181              	.LFE138:
 2182              		.size	mmcStartSequentialWrite, .-mmcStartSequentialWrite
 2183 0054 AFF30080 		.section	.text.mmcSequentialWrite,"ax",%progbits
 2183      AFF30080 
 2183      AFF30080 
 2184              		.align	2
 2185              		.p2align 4,,15
 2186              		.global	mmcSequentialWrite
 2187              		.thumb
 2188              		.thumb_func
 2189              		.type	mmcSequentialWrite, %function
 2190              	mmcSequentialWrite:
 2191              	.LFB139:
 2192              		.loc 1 778 0
 2193              		.cfi_startproc
 2194              		@ args = 0, pretend = 0, frame = 8
 2195              		@ frame_needed = 0, uses_anonymous_args = 0
 2196              	.LVL254:
 2197 0000 30B5     		push	{r4, r5, lr}
 2198              	.LCFI22:
 2199              		.cfi_def_cfa_offset 12
 2200              		.cfi_offset 4, -12
 2201              		.cfi_offset 5, -8
 2202              		.cfi_offset 14, -4
 2203              		.loc 1 784 0
 2204 0002 0379     		ldrb	r3, [r0, #4]	@ zero_extendqisi2
ARM GAS  C:\Users\Vergil\AppData\Local\Temp\ccwNg35D.s 			page 40


 2205 0004 072B     		cmp	r3, #7
 2206              		.loc 1 778 0
 2207 0006 83B0     		sub	sp, sp, #12
 2208              	.LCFI23:
 2209              		.cfi_def_cfa_offset 24
 2210              		.loc 1 778 0
 2211 0008 0446     		mov	r4, r0
 2212 000a 0D46     		mov	r5, r1
 2213              		.loc 1 784 0
 2214 000c 02D0     		beq	.L222
 2215              		.loc 1 785 0
 2216 000e 0120     		movs	r0, #1
 2217              	.LVL255:
 2218              	.L219:
 2219              		.loc 1 804 0
 2220 0010 03B0     		add	sp, sp, #12
 2221 0012 30BD     		pop	{r4, r5, pc}
 2222              	.LVL256:
 2223              	.L222:
 2224              		.loc 1 787 0
 2225 0014 C06A     		ldr	r0, [r0, #44]
 2226              	.LVL257:
 2227 0016 194A     		ldr	r2, .L224
 2228 0018 0068     		ldr	r0, [r0, #0]
 2229 001a 0221     		movs	r1, #2
 2230              	.LVL258:
 2231 001c FFF7FEFF 		bl	spiSend
 2232              	.LVL259:
 2233              		.loc 1 788 0
 2234 0020 E16A     		ldr	r1, [r4, #44]
 2235 0022 2A46     		mov	r2, r5
 2236 0024 0868     		ldr	r0, [r1, #0]
 2237 0026 4FF40071 		mov	r1, #512
 2238 002a FFF7FEFF 		bl	spiSend
 2239              	.LVL260:
 2240              		.loc 1 789 0
 2241 002e E26A     		ldr	r2, [r4, #44]
 2242 0030 0221     		movs	r1, #2
 2243 0032 1068     		ldr	r0, [r2, #0]
 2244 0034 FFF7FEFF 		bl	spiIgnore
 2245              	.LVL261:
 2246              		.loc 1 790 0
 2247 0038 E36A     		ldr	r3, [r4, #44]
 2248 003a 0121     		movs	r1, #1
 2249 003c 1868     		ldr	r0, [r3, #0]
 2250 003e 01AA     		add	r2, sp, #4
 2251 0040 FFF7FEFF 		bl	spiReceive
 2252              	.LVL262:
 2253              		.loc 1 791 0
 2254 0044 9DF80400 		ldrb	r0, [sp, #4]	@ zero_extendqisi2
 2255 0048 00F01F01 		and	r1, r0, #31
 2256 004c 0529     		cmp	r1, #5
 2257 004e 0FD0     		beq	.L223
 2258              		.loc 1 797 0
 2259 0050 E26A     		ldr	r2, [r4, #44]
 2260 0052 1068     		ldr	r0, [r2, #0]
 2261 0054 FFF7FEFF 		bl	spiUnselect
ARM GAS  C:\Users\Vergil\AppData\Local\Temp\ccwNg35D.s 			page 41


 2262              	.LVL263:
 2263              		.loc 1 799 0
 2264 0058 E36A     		ldr	r3, [r4, #44]
 2265 005a 1868     		ldr	r0, [r3, #0]
 2266 005c FFF7FEFF 		bl	spiReleaseBus
 2267              	.LVL264:
 2268              		.loc 1 801 0
 2269 0060 E06A     		ldr	r0, [r4, #44]
 2270 0062 0068     		ldr	r0, [r0, #0]
 2271 0064 FFF7FEFF 		bl	spiStop
 2272              	.LVL265:
 2273              		.loc 1 802 0
 2274 0068 0521     		movs	r1, #5
 2275 006a 2171     		strb	r1, [r4, #4]
 2276              		.loc 1 803 0
 2277 006c 0120     		movs	r0, #1
 2278 006e CFE7     		b	.L219
 2279              	.L223:
 2280              		.loc 1 792 0
 2281 0070 2046     		mov	r0, r4
 2282 0072 FFF7FEFF 		bl	wait
 2283              	.LVL266:
 2284              		.loc 1 793 0
 2285 0076 0020     		movs	r0, #0
 2286 0078 CAE7     		b	.L219
 2287              	.L225:
 2288 007a 00BF     		.align	2
 2289              	.L224:
 2290 007c 00000000 		.word	.LANCHOR3
 2291              		.cfi_endproc
 2292              	.LFE139:
 2293              		.size	mmcSequentialWrite, .-mmcSequentialWrite
 2294              		.section	.text.mmcStopSequentialWrite,"ax",%progbits
 2295              		.align	2
 2296              		.p2align 4,,15
 2297              		.global	mmcStopSequentialWrite
 2298              		.thumb
 2299              		.thumb_func
 2300              		.type	mmcStopSequentialWrite, %function
 2301              	mmcStopSequentialWrite:
 2302              	.LFB140:
 2303              		.loc 1 817 0
 2304              		.cfi_startproc
 2305              		@ args = 0, pretend = 0, frame = 0
 2306              		@ frame_needed = 0, uses_anonymous_args = 0
 2307              	.LVL267:
 2308              		.loc 1 822 0
 2309 0000 0379     		ldrb	r3, [r0, #4]	@ zero_extendqisi2
 2310 0002 072B     		cmp	r3, #7
 2311              		.loc 1 817 0
 2312 0004 10B5     		push	{r4, lr}
 2313              	.LCFI24:
 2314              		.cfi_def_cfa_offset 8
 2315              		.cfi_offset 4, -8
 2316              		.cfi_offset 14, -4
 2317              		.loc 1 817 0
 2318 0006 0446     		mov	r4, r0
ARM GAS  C:\Users\Vergil\AppData\Local\Temp\ccwNg35D.s 			page 42


 2319              		.loc 1 822 0
 2320 0008 01D0     		beq	.L229
 2321              		.loc 1 823 0
 2322 000a 0120     		movs	r0, #1
 2323              	.LVL268:
 2324              		.loc 1 833 0
 2325 000c 10BD     		pop	{r4, pc}
 2326              	.LVL269:
 2327              	.L229:
 2328              		.loc 1 825 0
 2329 000e C06A     		ldr	r0, [r0, #44]
 2330              	.LVL270:
 2331 0010 084A     		ldr	r2, .L230
 2332 0012 0068     		ldr	r0, [r0, #0]
 2333 0014 0221     		movs	r1, #2
 2334 0016 FFF7FEFF 		bl	spiSend
 2335              	.LVL271:
 2336              		.loc 1 826 0
 2337 001a E16A     		ldr	r1, [r4, #44]
 2338 001c 0868     		ldr	r0, [r1, #0]
 2339 001e FFF7FEFF 		bl	spiUnselect
 2340              	.LVL272:
 2341              		.loc 1 828 0
 2342 0022 E26A     		ldr	r2, [r4, #44]
 2343 0024 1068     		ldr	r0, [r2, #0]
 2344 0026 FFF7FEFF 		bl	spiReleaseBus
 2345              	.LVL273:
 2346              		.loc 1 831 0
 2347 002a 0523     		movs	r3, #5
 2348 002c 2371     		strb	r3, [r4, #4]
 2349              		.loc 1 832 0
 2350 002e 0020     		movs	r0, #0
 2351 0030 10BD     		pop	{r4, pc}
 2352              	.L231:
 2353 0032 00BF     		.align	2
 2354              	.L230:
 2355 0034 00000000 		.word	.LANCHOR4
 2356              		.cfi_endproc
 2357              	.LFE140:
 2358              		.size	mmcStopSequentialWrite, .-mmcStopSequentialWrite
 2359 0038 AFF30080 		.section	.text.mmc_write,"ax",%progbits
 2359      AFF30080 
 2360              		.align	2
 2361              		.p2align 4,,15
 2362              		.thumb
 2363              		.thumb_func
 2364              		.type	mmc_write, %function
 2365              	mmc_write:
 2366              	.LFB119:
 2367              		.loc 1 127 0
 2368              		.cfi_startproc
 2369              		@ args = 0, pretend = 0, frame = 0
 2370              		@ frame_needed = 0, uses_anonymous_args = 0
 2371              	.LVL274:
 2372 0000 F8B5     		push	{r3, r4, r5, r6, r7, lr}
 2373              	.LCFI25:
 2374              		.cfi_def_cfa_offset 24
ARM GAS  C:\Users\Vergil\AppData\Local\Temp\ccwNg35D.s 			page 43


 2375              		.cfi_offset 3, -24
 2376              		.cfi_offset 4, -20
 2377              		.cfi_offset 5, -16
 2378              		.cfi_offset 6, -12
 2379              		.cfi_offset 7, -8
 2380              		.cfi_offset 14, -4
 2381              		.loc 1 127 0
 2382 0002 0746     		mov	r7, r0
 2383 0004 1446     		mov	r4, r2
 2384 0006 1E46     		mov	r6, r3
 2385              		.loc 1 129 0
 2386 0008 FFF7FEFF 		bl	mmcStartSequentialWrite
 2387              	.LVL275:
 2388 000c 0028     		cmp	r0, #0
 2389 000e 2DD1     		bne	.L234
 2390              		.loc 1 131 0 discriminator 1
 2391 0010 AEB1     		cbz	r6, .L238
 2392 0012 013E     		subs	r6, r6, #1
 2393              	.LVL276:
 2394              		.loc 1 132 0
 2395 0014 3846     		mov	r0, r7
 2396 0016 2146     		mov	r1, r4
 2397 0018 06F00105 		and	r5, r6, #1
 2398 001c FFF7FEFF 		bl	mmcSequentialWrite
 2399              	.LVL277:
 2400 0020 0028     		cmp	r0, #0
 2401 0022 23D1     		bne	.L234
 2402              		.loc 1 134 0
 2403 0024 04F50074 		add	r4, r4, #512
 2404              	.LVL278:
 2405              		.loc 1 131 0
 2406 0028 4EB1     		cbz	r6, .L238
 2407 002a 9DB1     		cbz	r5, .L239
 2408              		.loc 1 132 0
 2409 002c 3846     		mov	r0, r7
 2410 002e 2146     		mov	r1, r4
 2411 0030 FFF7FEFF 		bl	mmcSequentialWrite
 2412              	.LVL279:
 2413 0034 D0B9     		cbnz	r0, .L234
 2414              		.loc 1 131 0
 2415 0036 013E     		subs	r6, r6, #1
 2416              		.loc 1 134 0
 2417 0038 04F50074 		add	r4, r4, #512
 2418              	.LVL280:
 2419              		.loc 1 131 0
 2420 003c 0AD1     		bne	.L239
 2421              	.L238:
 2422              	.LVL281:
 2423              	.LBB54:
 2424              	.LBB55:
 2425              		.loc 1 137 0
 2426 003e 3846     		mov	r0, r7
 2427              	.LBE55:
 2428              	.LBE54:
 2429              		.loc 1 140 0
 2430 0040 BDE8F840 		pop	{r3, r4, r5, r6, r7, lr}
 2431              	.LBB57:
ARM GAS  C:\Users\Vergil\AppData\Local\Temp\ccwNg35D.s 			page 44


 2432              	.LBB56:
 2433              		.loc 1 137 0
 2434 0044 FFF7FEBF 		b	mmcStopSequentialWrite
 2435              	.LVL282:
 2436              	.L250:
 2437              	.LBE56:
 2438              	.LBE57:
 2439              		.loc 1 132 0
 2440 0048 3846     		mov	r0, r7
 2441 004a FFF7FEFF 		bl	mmcSequentialWrite
 2442              	.LVL283:
 2443 004e 68B9     		cbnz	r0, .L234
 2444              		.loc 1 131 0
 2445 0050 013E     		subs	r6, r6, #1
 2446 0052 F4D0     		beq	.L238
 2447              	.L239:
 2448              		.loc 1 132 0
 2449 0054 2146     		mov	r1, r4
 2450 0056 3846     		mov	r0, r7
 2451 0058 FFF7FEFF 		bl	mmcSequentialWrite
 2452              	.LVL284:
 2453              		.loc 1 134 0
 2454 005c 04F50075 		add	r5, r4, #512
 2455              		.loc 1 132 0
 2456 0060 2946     		mov	r1, r5
 2457              		.loc 1 135 0
 2458 0062 013E     		subs	r6, r6, #1
 2459              		.loc 1 134 0
 2460 0064 04F58064 		add	r4, r4, #1024
 2461              		.loc 1 132 0
 2462 0068 0028     		cmp	r0, #0
 2463 006a EDD0     		beq	.L250
 2464              	.L234:
 2465              		.loc 1 140 0
 2466 006c 0120     		movs	r0, #1
 2467 006e F8BD     		pop	{r3, r4, r5, r6, r7, pc}
 2468              		.cfi_endproc
 2469              	.LFE119:
 2470              		.size	mmc_write, .-mmc_write
 2471              		.section	.text.mmcErase,"ax",%progbits
 2472              		.align	2
 2473              		.p2align 4,,15
 2474              		.global	mmcErase
 2475              		.thumb
 2476              		.thumb_func
 2477              		.type	mmcErase, %function
 2478              	mmcErase:
 2479              	.LFB143:
 2480              		.loc 1 902 0
 2481              		.cfi_startproc
 2482              		@ args = 0, pretend = 0, frame = 0
 2483              		@ frame_needed = 0, uses_anonymous_args = 0
 2484              	.LVL285:
 2485 0000 38B5     		push	{r3, r4, r5, lr}
 2486              	.LCFI26:
 2487              		.cfi_def_cfa_offset 16
 2488              		.cfi_offset 3, -16
ARM GAS  C:\Users\Vergil\AppData\Local\Temp\ccwNg35D.s 			page 45


 2489              		.cfi_offset 4, -12
 2490              		.cfi_offset 5, -8
 2491              		.cfi_offset 14, -4
 2492              		.loc 1 902 0
 2493 0002 0446     		mov	r4, r0
 2494              		.loc 1 910 0
 2495 0004 90F83000 		ldrb	r0, [r0, #48]	@ zero_extendqisi2
 2496              	.LVL286:
 2497              		.loc 1 907 0
 2498 0008 0723     		movs	r3, #7
 2499 000a 2371     		strb	r3, [r4, #4]
 2500              		.loc 1 902 0
 2501 000c 1546     		mov	r5, r2
 2502 000e 0B46     		mov	r3, r1
 2503              		.loc 1 910 0
 2504 0010 08B9     		cbnz	r0, .L252
 2505              		.loc 1 911 0
 2506 0012 4B02     		lsls	r3, r1, #9
 2507              	.LVL287:
 2508              		.loc 1 912 0
 2509 0014 5502     		lsls	r5, r2, #9
 2510              	.LVL288:
 2511              	.L252:
 2512              		.loc 1 915 0
 2513 0016 2046     		mov	r0, r4
 2514 0018 2021     		movs	r1, #32
 2515 001a 1A46     		mov	r2, r3
 2516 001c FFF7FEFF 		bl	send_command_R1
 2517              	.LVL289:
 2518 0020 30B9     		cbnz	r0, .L253
 2519              		.loc 1 918 0
 2520 0022 2A46     		mov	r2, r5
 2521 0024 2046     		mov	r0, r4
 2522 0026 2121     		movs	r1, #33
 2523 0028 FFF7FEFF 		bl	send_command_R1
 2524              	.LVL290:
 2525 002c 0246     		mov	r2, r0
 2526 002e 38B1     		cbz	r0, .L255
 2527              	.L253:
 2528              	.LDL2:
 2529              		.loc 1 929 0
 2530 0030 E26A     		ldr	r2, [r4, #44]
 2531 0032 1068     		ldr	r0, [r2, #0]
 2532 0034 FFF7FEFF 		bl	spiStop
 2533              	.LVL291:
 2534              		.loc 1 930 0
 2535 0038 0520     		movs	r0, #5
 2536 003a 2071     		strb	r0, [r4, #4]
 2537              		.loc 1 931 0
 2538 003c 0120     		movs	r0, #1
 2539              		.loc 1 932 0
 2540 003e 38BD     		pop	{r3, r4, r5, pc}
 2541              	.L255:
 2542              		.loc 1 921 0
 2543 0040 2046     		mov	r0, r4
 2544 0042 2621     		movs	r1, #38
 2545 0044 FFF7FEFF 		bl	send_command_R1
ARM GAS  C:\Users\Vergil\AppData\Local\Temp\ccwNg35D.s 			page 46


 2546              	.LVL292:
 2547 0048 0028     		cmp	r0, #0
 2548 004a F1D1     		bne	.L253
 2549              		.loc 1 924 0
 2550 004c 0521     		movs	r1, #5
 2551 004e 2171     		strb	r1, [r4, #4]
 2552              		.loc 1 925 0
 2553 0050 38BD     		pop	{r3, r4, r5, pc}
 2554              		.cfi_endproc
 2555              	.LFE143:
 2556              		.size	mmcErase, .-mmcErase
 2557 0052 00BFAFF3 		.section	.rodata.crc7_lookup_table,"a",%progbits
 2557      0080AFF3 
 2557      0080AFF3 
 2557      0080
 2558              		.align	2
 2559              		.set	.LANCHOR0,. + 0
 2560              		.type	crc7_lookup_table, %object
 2561              		.size	crc7_lookup_table, 256
 2562              	crc7_lookup_table:
 2563 0000 00       		.byte	0
 2564 0001 09       		.byte	9
 2565 0002 12       		.byte	18
 2566 0003 1B       		.byte	27
 2567 0004 24       		.byte	36
 2568 0005 2D       		.byte	45
 2569 0006 36       		.byte	54
 2570 0007 3F       		.byte	63
 2571 0008 48       		.byte	72
 2572 0009 41       		.byte	65
 2573 000a 5A       		.byte	90
 2574 000b 53       		.byte	83
 2575 000c 6C       		.byte	108
 2576 000d 65       		.byte	101
 2577 000e 7E       		.byte	126
 2578 000f 77       		.byte	119
 2579 0010 19       		.byte	25
 2580 0011 10       		.byte	16
 2581 0012 0B       		.byte	11
 2582 0013 02       		.byte	2
 2583 0014 3D       		.byte	61
 2584 0015 34       		.byte	52
 2585 0016 2F       		.byte	47
 2586 0017 26       		.byte	38
 2587 0018 51       		.byte	81
 2588 0019 58       		.byte	88
 2589 001a 43       		.byte	67
 2590 001b 4A       		.byte	74
 2591 001c 75       		.byte	117
 2592 001d 7C       		.byte	124
 2593 001e 67       		.byte	103
 2594 001f 6E       		.byte	110
 2595 0020 32       		.byte	50
 2596 0021 3B       		.byte	59
 2597 0022 20       		.byte	32
 2598 0023 29       		.byte	41
 2599 0024 16       		.byte	22
ARM GAS  C:\Users\Vergil\AppData\Local\Temp\ccwNg35D.s 			page 47


 2600 0025 1F       		.byte	31
 2601 0026 04       		.byte	4
 2602 0027 0D       		.byte	13
 2603 0028 7A       		.byte	122
 2604 0029 73       		.byte	115
 2605 002a 68       		.byte	104
 2606 002b 61       		.byte	97
 2607 002c 5E       		.byte	94
 2608 002d 57       		.byte	87
 2609 002e 4C       		.byte	76
 2610 002f 45       		.byte	69
 2611 0030 2B       		.byte	43
 2612 0031 22       		.byte	34
 2613 0032 39       		.byte	57
 2614 0033 30       		.byte	48
 2615 0034 0F       		.byte	15
 2616 0035 06       		.byte	6
 2617 0036 1D       		.byte	29
 2618 0037 14       		.byte	20
 2619 0038 63       		.byte	99
 2620 0039 6A       		.byte	106
 2621 003a 71       		.byte	113
 2622 003b 78       		.byte	120
 2623 003c 47       		.byte	71
 2624 003d 4E       		.byte	78
 2625 003e 55       		.byte	85
 2626 003f 5C       		.byte	92
 2627 0040 64       		.byte	100
 2628 0041 6D       		.byte	109
 2629 0042 76       		.byte	118
 2630 0043 7F       		.byte	127
 2631 0044 40       		.byte	64
 2632 0045 49       		.byte	73
 2633 0046 52       		.byte	82
 2634 0047 5B       		.byte	91
 2635 0048 2C       		.byte	44
 2636 0049 25       		.byte	37
 2637 004a 3E       		.byte	62
 2638 004b 37       		.byte	55
 2639 004c 08       		.byte	8
 2640 004d 01       		.byte	1
 2641 004e 1A       		.byte	26
 2642 004f 13       		.byte	19
 2643 0050 7D       		.byte	125
 2644 0051 74       		.byte	116
 2645 0052 6F       		.byte	111
 2646 0053 66       		.byte	102
 2647 0054 59       		.byte	89
 2648 0055 50       		.byte	80
 2649 0056 4B       		.byte	75
 2650 0057 42       		.byte	66
 2651 0058 35       		.byte	53
 2652 0059 3C       		.byte	60
 2653 005a 27       		.byte	39
 2654 005b 2E       		.byte	46
 2655 005c 11       		.byte	17
 2656 005d 18       		.byte	24
ARM GAS  C:\Users\Vergil\AppData\Local\Temp\ccwNg35D.s 			page 48


 2657 005e 03       		.byte	3
 2658 005f 0A       		.byte	10
 2659 0060 56       		.byte	86
 2660 0061 5F       		.byte	95
 2661 0062 44       		.byte	68
 2662 0063 4D       		.byte	77
 2663 0064 72       		.byte	114
 2664 0065 7B       		.byte	123
 2665 0066 60       		.byte	96
 2666 0067 69       		.byte	105
 2667 0068 1E       		.byte	30
 2668 0069 17       		.byte	23
 2669 006a 0C       		.byte	12
 2670 006b 05       		.byte	5
 2671 006c 3A       		.byte	58
 2672 006d 33       		.byte	51
 2673 006e 28       		.byte	40
 2674 006f 21       		.byte	33
 2675 0070 4F       		.byte	79
 2676 0071 46       		.byte	70
 2677 0072 5D       		.byte	93
 2678 0073 54       		.byte	84
 2679 0074 6B       		.byte	107
 2680 0075 62       		.byte	98
 2681 0076 79       		.byte	121
 2682 0077 70       		.byte	112
 2683 0078 07       		.byte	7
 2684 0079 0E       		.byte	14
 2685 007a 15       		.byte	21
 2686 007b 1C       		.byte	28
 2687 007c 23       		.byte	35
 2688 007d 2A       		.byte	42
 2689 007e 31       		.byte	49
 2690 007f 38       		.byte	56
 2691 0080 41       		.byte	65
 2692 0081 48       		.byte	72
 2693 0082 53       		.byte	83
 2694 0083 5A       		.byte	90
 2695 0084 65       		.byte	101
 2696 0085 6C       		.byte	108
 2697 0086 77       		.byte	119
 2698 0087 7E       		.byte	126
 2699 0088 09       		.byte	9
 2700 0089 00       		.byte	0
 2701 008a 1B       		.byte	27
 2702 008b 12       		.byte	18
 2703 008c 2D       		.byte	45
 2704 008d 24       		.byte	36
 2705 008e 3F       		.byte	63
 2706 008f 36       		.byte	54
 2707 0090 58       		.byte	88
 2708 0091 51       		.byte	81
 2709 0092 4A       		.byte	74
 2710 0093 43       		.byte	67
 2711 0094 7C       		.byte	124
 2712 0095 75       		.byte	117
 2713 0096 6E       		.byte	110
ARM GAS  C:\Users\Vergil\AppData\Local\Temp\ccwNg35D.s 			page 49


 2714 0097 67       		.byte	103
 2715 0098 10       		.byte	16
 2716 0099 19       		.byte	25
 2717 009a 02       		.byte	2
 2718 009b 0B       		.byte	11
 2719 009c 34       		.byte	52
 2720 009d 3D       		.byte	61
 2721 009e 26       		.byte	38
 2722 009f 2F       		.byte	47
 2723 00a0 73       		.byte	115
 2724 00a1 7A       		.byte	122
 2725 00a2 61       		.byte	97
 2726 00a3 68       		.byte	104
 2727 00a4 57       		.byte	87
 2728 00a5 5E       		.byte	94
 2729 00a6 45       		.byte	69
 2730 00a7 4C       		.byte	76
 2731 00a8 3B       		.byte	59
 2732 00a9 32       		.byte	50
 2733 00aa 29       		.byte	41
 2734 00ab 20       		.byte	32
 2735 00ac 1F       		.byte	31
 2736 00ad 16       		.byte	22
 2737 00ae 0D       		.byte	13
 2738 00af 04       		.byte	4
 2739 00b0 6A       		.byte	106
 2740 00b1 63       		.byte	99
 2741 00b2 78       		.byte	120
 2742 00b3 71       		.byte	113
 2743 00b4 4E       		.byte	78
 2744 00b5 47       		.byte	71
 2745 00b6 5C       		.byte	92
 2746 00b7 55       		.byte	85
 2747 00b8 22       		.byte	34
 2748 00b9 2B       		.byte	43
 2749 00ba 30       		.byte	48
 2750 00bb 39       		.byte	57
 2751 00bc 06       		.byte	6
 2752 00bd 0F       		.byte	15
 2753 00be 14       		.byte	20
 2754 00bf 1D       		.byte	29
 2755 00c0 25       		.byte	37
 2756 00c1 2C       		.byte	44
 2757 00c2 37       		.byte	55
 2758 00c3 3E       		.byte	62
 2759 00c4 01       		.byte	1
 2760 00c5 08       		.byte	8
 2761 00c6 13       		.byte	19
 2762 00c7 1A       		.byte	26
 2763 00c8 6D       		.byte	109
 2764 00c9 64       		.byte	100
 2765 00ca 7F       		.byte	127
 2766 00cb 76       		.byte	118
 2767 00cc 49       		.byte	73
 2768 00cd 40       		.byte	64
 2769 00ce 5B       		.byte	91
 2770 00cf 52       		.byte	82
ARM GAS  C:\Users\Vergil\AppData\Local\Temp\ccwNg35D.s 			page 50


 2771 00d0 3C       		.byte	60
 2772 00d1 35       		.byte	53
 2773 00d2 2E       		.byte	46
 2774 00d3 27       		.byte	39
 2775 00d4 18       		.byte	24
 2776 00d5 11       		.byte	17
 2777 00d6 0A       		.byte	10
 2778 00d7 03       		.byte	3
 2779 00d8 74       		.byte	116
 2780 00d9 7D       		.byte	125
 2781 00da 66       		.byte	102
 2782 00db 6F       		.byte	111
 2783 00dc 50       		.byte	80
 2784 00dd 59       		.byte	89
 2785 00de 42       		.byte	66
 2786 00df 4B       		.byte	75
 2787 00e0 17       		.byte	23
 2788 00e1 1E       		.byte	30
 2789 00e2 05       		.byte	5
 2790 00e3 0C       		.byte	12
 2791 00e4 33       		.byte	51
 2792 00e5 3A       		.byte	58
 2793 00e6 21       		.byte	33
 2794 00e7 28       		.byte	40
 2795 00e8 5F       		.byte	95
 2796 00e9 56       		.byte	86
 2797 00ea 4D       		.byte	77
 2798 00eb 44       		.byte	68
 2799 00ec 7B       		.byte	123
 2800 00ed 72       		.byte	114
 2801 00ee 69       		.byte	105
 2802 00ef 60       		.byte	96
 2803 00f0 0E       		.byte	14
 2804 00f1 07       		.byte	7
 2805 00f2 1C       		.byte	28
 2806 00f3 15       		.byte	21
 2807 00f4 2A       		.byte	42
 2808 00f5 23       		.byte	35
 2809 00f6 38       		.byte	56
 2810 00f7 31       		.byte	49
 2811 00f8 46       		.byte	70
 2812 00f9 4F       		.byte	79
 2813 00fa 54       		.byte	84
 2814 00fb 5D       		.byte	93
 2815 00fc 62       		.byte	98
 2816 00fd 6B       		.byte	107
 2817 00fe 70       		.byte	112
 2818 00ff 79       		.byte	121
 2819              		.section	.rodata.stop.7391,"a",%progbits
 2820              		.align	2
 2821              		.set	.LANCHOR4,. + 0
 2822              		.type	stop.7391, %object
 2823              		.size	stop.7391, 2
 2824              	stop.7391:
 2825 0000 FD       		.byte	-3
 2826 0001 FF       		.byte	-1
 2827 0002 0000     		.section	.rodata.mmc_vmt,"a",%progbits
ARM GAS  C:\Users\Vergil\AppData\Local\Temp\ccwNg35D.s 			page 51


 2828              		.align	2
 2829              		.set	.LANCHOR1,. + 0
 2830              		.type	mmc_vmt, %object
 2831              		.size	mmc_vmt, 32
 2832              	mmc_vmt:
 2833 0000 00000000 		.word	mmc_lld_is_card_inserted
 2834 0004 00000000 		.word	mmc_lld_is_write_protected
 2835 0008 00000000 		.word	mmcConnect
 2836 000c 00000000 		.word	mmcDisconnect
 2837 0010 00000000 		.word	mmc_read
 2838 0014 00000000 		.word	mmc_write
 2839 0018 00000000 		.word	mmcSync
 2840 001c 00000000 		.word	mmcGetInfo
 2841              		.section	.rodata.stopcmd.7377,"a",%progbits
 2842              		.align	2
 2843              		.set	.LANCHOR2,. + 0
 2844              		.type	stopcmd.7377, %object
 2845              		.size	stopcmd.7377, 7
 2846              	stopcmd.7377:
 2847 0000 4C       		.byte	76
 2848 0001 00       		.byte	0
 2849 0002 00       		.byte	0
 2850 0003 00       		.byte	0
 2851 0004 00       		.byte	0
 2852 0005 01       		.byte	1
 2853 0006 FF       		.byte	-1
 2854 0007 00       		.section	.rodata.start.7386,"a",%progbits
 2855              		.align	2
 2856              		.set	.LANCHOR3,. + 0
 2857              		.type	start.7386, %object
 2858              		.size	start.7386, 2
 2859              	start.7386:
 2860 0000 FF       		.byte	-1
 2861 0001 FC       		.byte	-4
 2862 0002 0000     		.text
 2863              	.Letext0:
 2864              		.file 2 "c:\\chibistudio\\tools\\gnu tools arm embedded\\4.7 2014q2\\bin\\../lib/gcc/arm-none-eabi
 2865              		.file 3 "c:\\chibistudio\\tools\\gnu tools arm embedded\\4.7 2014q2\\bin\\../lib/gcc/arm-none-eabi
 2866              		.file 4 "../../os/ports/GCC/ARMCMx/chtypes.h"
 2867              		.file 5 "../../os/kernel/include/chlists.h"
 2868              		.file 6 "../../os/kernel/include/chthreads.h"
 2869              		.file 7 "../../os/ports/GCC/ARMCMx/chcore_v7m.h"
 2870              		.file 8 "../../os/kernel/include/chmtx.h"
 2871              		.file 9 "../../os/hal/platforms/STM32F4xx/stm32f4xx.h"
 2872              		.file 10 "../../os/hal/platforms/STM32F4xx/stm32_dma.h"
 2873              		.file 11 "../../os/hal/include/io_block.h"
 2874              		.file 12 "../../os/hal/platforms/STM32/GPIOv2/pal_lld.h"
 2875              		.file 13 "../../os/hal/include/spi.h"
 2876              		.file 14 "../../os/hal/platforms/STM32/SPIv1/spi_lld.h"
 2877              		.file 15 "../../os/hal/include/mmc_spi.h"
 2878              		.file 16 "../../os/hal/include/mmcsd.h"
 2879              		.file 17 "../../os/ports/common/ARMCMx/CMSIS/include/core_cm4.h"
 2880              		.section	.debug_info,"",%progbits
 2881              	.Ldebug_info0:
 2882 0000 61230000 		.4byte	0x2361
 2883 0004 0200     		.2byte	0x2
 2884 0006 00000000 		.4byte	.Ldebug_abbrev0
ARM GAS  C:\Users\Vergil\AppData\Local\Temp\ccwNg35D.s 			page 52


 2885 000a 04       		.byte	0x4
 2886 000b 01       		.uleb128 0x1
 2887 000c EC040000 		.4byte	.LASF192
 2888 0010 01       		.byte	0x1
 2889 0011 2D060000 		.4byte	.LASF193
 2890 0015 44040000 		.4byte	.LASF194
 2891 0019 C0000000 		.4byte	.Ldebug_ranges0+0xc0
 2892 001d 00000000 		.4byte	0
 2893 0021 00000000 		.4byte	0
 2894 0025 00000000 		.4byte	.Ldebug_line0
 2895 0029 02       		.uleb128 0x2
 2896 002a 01       		.byte	0x1
 2897 002b 06       		.byte	0x6
 2898 002c 8C010000 		.4byte	.LASF0
 2899 0030 02       		.uleb128 0x2
 2900 0031 01       		.byte	0x1
 2901 0032 08       		.byte	0x8
 2902 0033 EA010000 		.4byte	.LASF1
 2903 0037 02       		.uleb128 0x2
 2904 0038 02       		.byte	0x2
 2905 0039 05       		.byte	0x5
 2906 003a 97060000 		.4byte	.LASF2
 2907 003e 02       		.uleb128 0x2
 2908 003f 02       		.byte	0x2
 2909 0040 07       		.byte	0x7
 2910 0041 8E070000 		.4byte	.LASF3
 2911 0045 03       		.uleb128 0x3
 2912 0046 04       		.byte	0x4
 2913 0047 05       		.byte	0x5
 2914 0048 696E7400 		.ascii	"int\000"
 2915 004c 02       		.uleb128 0x2
 2916 004d 04       		.byte	0x4
 2917 004e 07       		.byte	0x7
 2918 004f 0C040000 		.4byte	.LASF4
 2919 0053 02       		.uleb128 0x2
 2920 0054 08       		.byte	0x8
 2921 0055 05       		.byte	0x5
 2922 0056 89030000 		.4byte	.LASF5
 2923 005a 02       		.uleb128 0x2
 2924 005b 08       		.byte	0x8
 2925 005c 07       		.byte	0x7
 2926 005d BF050000 		.4byte	.LASF6
 2927 0061 02       		.uleb128 0x2
 2928 0062 04       		.byte	0x4
 2929 0063 05       		.byte	0x5
 2930 0064 28010000 		.4byte	.LASF7
 2931 0068 02       		.uleb128 0x2
 2932 0069 04       		.byte	0x4
 2933 006a 07       		.byte	0x7
 2934 006b 31000000 		.4byte	.LASF8
 2935 006f 04       		.uleb128 0x4
 2936 0070 04       		.byte	0x4
 2937 0071 02       		.uleb128 0x2
 2938 0072 04       		.byte	0x4
 2939 0073 07       		.byte	0x7
 2940 0074 19030000 		.4byte	.LASF9
 2941 0078 02       		.uleb128 0x2
ARM GAS  C:\Users\Vergil\AppData\Local\Temp\ccwNg35D.s 			page 53


 2942 0079 01       		.byte	0x1
 2943 007a 08       		.byte	0x8
 2944 007b 57020000 		.4byte	.LASF10
 2945 007f 05       		.uleb128 0x5
 2946 0080 04       		.byte	0x4
 2947 0081 85000000 		.4byte	0x85
 2948 0085 06       		.uleb128 0x6
 2949 0086 78000000 		.4byte	0x78
 2950 008a 07       		.uleb128 0x7
 2951 008b 21000000 		.4byte	.LASF11
 2952 008f 02       		.byte	0x2
 2953 0090 D5       		.byte	0xd5
 2954 0091 4C000000 		.4byte	0x4c
 2955 0095 07       		.uleb128 0x7
 2956 0096 A2010000 		.4byte	.LASF12
 2957 009a 03       		.byte	0x3
 2958 009b 2A       		.byte	0x2a
 2959 009c 30000000 		.4byte	0x30
 2960 00a0 07       		.uleb128 0x7
 2961 00a1 DE050000 		.4byte	.LASF13
 2962 00a5 03       		.byte	0x3
 2963 00a6 36       		.byte	0x36
 2964 00a7 3E000000 		.4byte	0x3e
 2965 00ab 07       		.uleb128 0x7
 2966 00ac 73000000 		.4byte	.LASF14
 2967 00b0 03       		.byte	0x3
 2968 00b1 4F       		.byte	0x4f
 2969 00b2 61000000 		.4byte	0x61
 2970 00b6 07       		.uleb128 0x7
 2971 00b7 3E070000 		.4byte	.LASF15
 2972 00bb 03       		.byte	0x3
 2973 00bc 50       		.byte	0x50
 2974 00bd 71000000 		.4byte	0x71
 2975 00c1 07       		.uleb128 0x7
 2976 00c2 C1060000 		.4byte	.LASF16
 2977 00c6 04       		.byte	0x4
 2978 00c7 2B       		.byte	0x2b
 2979 00c8 CC000000 		.4byte	0xcc
 2980 00cc 02       		.uleb128 0x2
 2981 00cd 01       		.byte	0x1
 2982 00ce 02       		.byte	0x2
 2983 00cf 47020000 		.4byte	.LASF17
 2984 00d3 07       		.uleb128 0x7
 2985 00d4 62060000 		.4byte	.LASF18
 2986 00d8 04       		.byte	0x4
 2987 00d9 2C       		.byte	0x2c
 2988 00da 95000000 		.4byte	0x95
 2989 00de 07       		.uleb128 0x7
 2990 00df 55010000 		.4byte	.LASF19
 2991 00e3 04       		.byte	0x4
 2992 00e4 2D       		.byte	0x2d
 2993 00e5 95000000 		.4byte	0x95
 2994 00e9 07       		.uleb128 0x7
 2995 00ea 17070000 		.4byte	.LASF20
 2996 00ee 04       		.byte	0x4
 2997 00ef 2E       		.byte	0x2e
 2998 00f0 95000000 		.4byte	0x95
ARM GAS  C:\Users\Vergil\AppData\Local\Temp\ccwNg35D.s 			page 54


 2999 00f4 07       		.uleb128 0x7
 3000 00f5 ED050000 		.4byte	.LASF21
 3001 00f9 04       		.byte	0x4
 3002 00fa 2F       		.byte	0x2f
 3003 00fb 95000000 		.4byte	0x95
 3004 00ff 07       		.uleb128 0x7
 3005 0100 59000000 		.4byte	.LASF22
 3006 0104 04       		.byte	0x4
 3007 0105 30       		.byte	0x30
 3008 0106 B6000000 		.4byte	0xb6
 3009 010a 07       		.uleb128 0x7
 3010 010b E7050000 		.4byte	.LASF23
 3011 010f 04       		.byte	0x4
 3012 0110 31       		.byte	0x31
 3013 0111 AB000000 		.4byte	0xab
 3014 0115 07       		.uleb128 0x7
 3015 0116 B2010000 		.4byte	.LASF24
 3016 011a 04       		.byte	0x4
 3017 011b 33       		.byte	0x33
 3018 011c B6000000 		.4byte	0xb6
 3019 0120 07       		.uleb128 0x7
 3020 0121 40000000 		.4byte	.LASF25
 3021 0125 04       		.byte	0x4
 3022 0126 35       		.byte	0x35
 3023 0127 B6000000 		.4byte	0xb6
 3024 012b 07       		.uleb128 0x7
 3025 012c E1060000 		.4byte	.LASF26
 3026 0130 05       		.byte	0x5
 3027 0131 2A       		.byte	0x2a
 3028 0132 36010000 		.4byte	0x136
 3029 0136 08       		.uleb128 0x8
 3030 0137 E1060000 		.4byte	.LASF26
 3031 013b 48       		.byte	0x48
 3032 013c 06       		.byte	0x6
 3033 013d 5E       		.byte	0x5e
 3034 013e 5B020000 		.4byte	0x25b
 3035 0142 09       		.uleb128 0x9
 3036 0143 3C010000 		.4byte	.LASF27
 3037 0147 06       		.byte	0x6
 3038 0148 5F       		.byte	0x5f
 3039 0149 80020000 		.4byte	0x280
 3040 014d 02       		.byte	0x2
 3041 014e 23       		.byte	0x23
 3042 014f 00       		.uleb128 0
 3043 0150 09       		.uleb128 0x9
 3044 0151 43010000 		.4byte	.LASF28
 3045 0155 06       		.byte	0x6
 3046 0156 61       		.byte	0x61
 3047 0157 80020000 		.4byte	0x280
 3048 015b 02       		.byte	0x2
 3049 015c 23       		.byte	0x23
 3050 015d 04       		.uleb128 0x4
 3051 015e 09       		.uleb128 0x9
 3052 015f 6C020000 		.4byte	.LASF29
 3053 0163 06       		.byte	0x6
 3054 0164 63       		.byte	0x63
 3055 0165 FF000000 		.4byte	0xff
ARM GAS  C:\Users\Vergil\AppData\Local\Temp\ccwNg35D.s 			page 55


 3056 0169 02       		.byte	0x2
 3057 016a 23       		.byte	0x23
 3058 016b 08       		.uleb128 0x8
 3059 016c 09       		.uleb128 0x9
 3060 016d 4A000000 		.4byte	.LASF30
 3061 0171 06       		.byte	0x6
 3062 0172 64       		.byte	0x64
 3063 0173 3C040000 		.4byte	0x43c
 3064 0177 02       		.byte	0x2
 3065 0178 23       		.byte	0x23
 3066 0179 0C       		.uleb128 0xc
 3067 017a 09       		.uleb128 0x9
 3068 017b 17010000 		.4byte	.LASF31
 3069 017f 06       		.byte	0x6
 3070 0180 66       		.byte	0x66
 3071 0181 80020000 		.4byte	0x280
 3072 0185 02       		.byte	0x2
 3073 0186 23       		.byte	0x23
 3074 0187 10       		.uleb128 0x10
 3075 0188 09       		.uleb128 0x9
 3076 0189 D6050000 		.4byte	.LASF32
 3077 018d 06       		.byte	0x6
 3078 018e 67       		.byte	0x67
 3079 018f 80020000 		.4byte	0x280
 3080 0193 02       		.byte	0x2
 3081 0194 23       		.byte	0x23
 3082 0195 14       		.uleb128 0x14
 3083 0196 09       		.uleb128 0x9
 3084 0197 C3070000 		.4byte	.LASF33
 3085 019b 06       		.byte	0x6
 3086 019c 6E       		.byte	0x6e
 3087 019d 7F000000 		.4byte	0x7f
 3088 01a1 02       		.byte	0x2
 3089 01a2 23       		.byte	0x23
 3090 01a3 18       		.uleb128 0x18
 3091 01a4 09       		.uleb128 0x9
 3092 01a5 EA070000 		.4byte	.LASF34
 3093 01a9 06       		.byte	0x6
 3094 01aa 79       		.byte	0x79
 3095 01ab DE000000 		.4byte	0xde
 3096 01af 02       		.byte	0x2
 3097 01b0 23       		.byte	0x23
 3098 01b1 1C       		.uleb128 0x1c
 3099 01b2 09       		.uleb128 0x9
 3100 01b3 F5030000 		.4byte	.LASF35
 3101 01b7 06       		.byte	0x6
 3102 01b8 7D       		.byte	0x7d
 3103 01b9 D3000000 		.4byte	0xd3
 3104 01bd 02       		.byte	0x2
 3105 01be 23       		.byte	0x23
 3106 01bf 1D       		.uleb128 0x1d
 3107 01c0 09       		.uleb128 0x9
 3108 01c1 9D040000 		.4byte	.LASF36
 3109 01c5 06       		.byte	0x6
 3110 01c6 82       		.byte	0x82
 3111 01c7 E9000000 		.4byte	0xe9
 3112 01cb 02       		.byte	0x2
ARM GAS  C:\Users\Vergil\AppData\Local\Temp\ccwNg35D.s 			page 56


 3113 01cc 23       		.byte	0x23
 3114 01cd 1E       		.uleb128 0x1e
 3115 01ce 09       		.uleb128 0x9
 3116 01cf 98010000 		.4byte	.LASF37
 3117 01d3 06       		.byte	0x6
 3118 01d4 88       		.byte	0x88
 3119 01d5 F4000000 		.4byte	0xf4
 3120 01d9 02       		.byte	0x2
 3121 01da 23       		.byte	0x23
 3122 01db 1F       		.uleb128 0x1f
 3123 01dc 09       		.uleb128 0x9
 3124 01dd E5040000 		.4byte	.LASF38
 3125 01e1 06       		.byte	0x6
 3126 01e2 8F       		.byte	0x8f
 3127 01e3 64040000 		.4byte	0x464
 3128 01e7 02       		.byte	0x2
 3129 01e8 23       		.byte	0x23
 3130 01e9 20       		.uleb128 0x20
 3131 01ea 0A       		.uleb128 0xa
 3132 01eb 705F7500 		.ascii	"p_u\000"
 3133 01ef 06       		.byte	0x6
 3134 01f0 B4       		.byte	0xb4
 3135 01f1 B1040000 		.4byte	0x4b1
 3136 01f5 02       		.byte	0x2
 3137 01f6 23       		.byte	0x23
 3138 01f7 24       		.uleb128 0x24
 3139 01f8 09       		.uleb128 0x9
 3140 01f9 DA030000 		.4byte	.LASF39
 3141 01fd 06       		.byte	0x6
 3142 01fe B9       		.byte	0xb9
 3143 01ff A8020000 		.4byte	0x2a8
 3144 0203 02       		.byte	0x2
 3145 0204 23       		.byte	0x23
 3146 0205 28       		.uleb128 0x28
 3147 0206 09       		.uleb128 0x9
 3148 0207 68000000 		.4byte	.LASF40
 3149 020b 06       		.byte	0x6
 3150 020c BF       		.byte	0xbf
 3151 020d 86020000 		.4byte	0x286
 3152 0211 02       		.byte	0x2
 3153 0212 23       		.byte	0x23
 3154 0213 2C       		.uleb128 0x2c
 3155 0214 09       		.uleb128 0x9
 3156 0215 E4070000 		.4byte	.LASF41
 3157 0219 06       		.byte	0x6
 3158 021a C3       		.byte	0xc3
 3159 021b 0A010000 		.4byte	0x10a
 3160 021f 02       		.byte	0x2
 3161 0220 23       		.byte	0x23
 3162 0221 34       		.uleb128 0x34
 3163 0222 09       		.uleb128 0x9
 3164 0223 D3020000 		.4byte	.LASF42
 3165 0227 06       		.byte	0x6
 3166 0228 C9       		.byte	0xc9
 3167 0229 15010000 		.4byte	0x115
 3168 022d 02       		.byte	0x2
 3169 022e 23       		.byte	0x23
ARM GAS  C:\Users\Vergil\AppData\Local\Temp\ccwNg35D.s 			page 57


 3170 022f 38       		.uleb128 0x38
 3171 0230 09       		.uleb128 0x9
 3172 0231 5E010000 		.4byte	.LASF43
 3173 0235 06       		.byte	0x6
 3174 0236 D0       		.byte	0xd0
 3175 0237 E6040000 		.4byte	0x4e6
 3176 023b 02       		.byte	0x2
 3177 023c 23       		.byte	0x23
 3178 023d 3C       		.uleb128 0x3c
 3179 023e 09       		.uleb128 0x9
 3180 023f 64050000 		.4byte	.LASF44
 3181 0243 06       		.byte	0x6
 3182 0244 D4       		.byte	0xd4
 3183 0245 FF000000 		.4byte	0xff
 3184 0249 02       		.byte	0x2
 3185 024a 23       		.byte	0x23
 3186 024b 40       		.uleb128 0x40
 3187 024c 09       		.uleb128 0x9
 3188 024d 80040000 		.4byte	.LASF45
 3189 0251 06       		.byte	0x6
 3190 0252 DA       		.byte	0xda
 3191 0253 6F000000 		.4byte	0x6f
 3192 0257 02       		.byte	0x2
 3193 0258 23       		.byte	0x23
 3194 0259 44       		.uleb128 0x44
 3195 025a 00       		.byte	0
 3196 025b 0B       		.uleb128 0xb
 3197 025c 08       		.byte	0x8
 3198 025d 05       		.byte	0x5
 3199 025e 61       		.byte	0x61
 3200 025f 80020000 		.4byte	0x280
 3201 0263 09       		.uleb128 0x9
 3202 0264 3C010000 		.4byte	.LASF27
 3203 0268 05       		.byte	0x5
 3204 0269 62       		.byte	0x62
 3205 026a 80020000 		.4byte	0x280
 3206 026e 02       		.byte	0x2
 3207 026f 23       		.byte	0x23
 3208 0270 00       		.uleb128 0
 3209 0271 09       		.uleb128 0x9
 3210 0272 43010000 		.4byte	.LASF28
 3211 0276 05       		.byte	0x5
 3212 0277 64       		.byte	0x64
 3213 0278 80020000 		.4byte	0x280
 3214 027c 02       		.byte	0x2
 3215 027d 23       		.byte	0x23
 3216 027e 04       		.uleb128 0x4
 3217 027f 00       		.byte	0
 3218 0280 05       		.uleb128 0x5
 3219 0281 04       		.byte	0x4
 3220 0282 2B010000 		.4byte	0x12b
 3221 0286 07       		.uleb128 0x7
 3222 0287 6D070000 		.4byte	.LASF46
 3223 028b 05       		.byte	0x5
 3224 028c 66       		.byte	0x66
 3225 028d 5B020000 		.4byte	0x25b
 3226 0291 0B       		.uleb128 0xb
ARM GAS  C:\Users\Vergil\AppData\Local\Temp\ccwNg35D.s 			page 58


 3227 0292 04       		.byte	0x4
 3228 0293 05       		.byte	0x5
 3229 0294 6B       		.byte	0x6b
 3230 0295 A8020000 		.4byte	0x2a8
 3231 0299 09       		.uleb128 0x9
 3232 029a 3C010000 		.4byte	.LASF27
 3233 029e 05       		.byte	0x5
 3234 029f 6D       		.byte	0x6d
 3235 02a0 80020000 		.4byte	0x280
 3236 02a4 02       		.byte	0x2
 3237 02a5 23       		.byte	0x23
 3238 02a6 00       		.uleb128 0
 3239 02a7 00       		.byte	0
 3240 02a8 07       		.uleb128 0x7
 3241 02a9 AE040000 		.4byte	.LASF47
 3242 02ad 05       		.byte	0x5
 3243 02ae 70       		.byte	0x70
 3244 02af 91020000 		.4byte	0x291
 3245 02b3 07       		.uleb128 0x7
 3246 02b4 68010000 		.4byte	.LASF48
 3247 02b8 07       		.byte	0x7
 3248 02b9 E5       		.byte	0xe5
 3249 02ba 6F000000 		.4byte	0x6f
 3250 02be 0C       		.uleb128 0xc
 3251 02bf CC020000 		.4byte	.LASF49
 3252 02c3 64       		.byte	0x64
 3253 02c4 07       		.byte	0x7
 3254 02c5 0C01     		.2byte	0x10c
 3255 02c7 3C040000 		.4byte	0x43c
 3256 02cb 0D       		.uleb128 0xd
 3257 02cc 73313600 		.ascii	"s16\000"
 3258 02d0 07       		.byte	0x7
 3259 02d1 0E01     		.2byte	0x10e
 3260 02d3 B3020000 		.4byte	0x2b3
 3261 02d7 02       		.byte	0x2
 3262 02d8 23       		.byte	0x23
 3263 02d9 00       		.uleb128 0
 3264 02da 0D       		.uleb128 0xd
 3265 02db 73313700 		.ascii	"s17\000"
 3266 02df 07       		.byte	0x7
 3267 02e0 0F01     		.2byte	0x10f
 3268 02e2 B3020000 		.4byte	0x2b3
 3269 02e6 02       		.byte	0x2
 3270 02e7 23       		.byte	0x23
 3271 02e8 04       		.uleb128 0x4
 3272 02e9 0D       		.uleb128 0xd
 3273 02ea 73313800 		.ascii	"s18\000"
 3274 02ee 07       		.byte	0x7
 3275 02ef 1001     		.2byte	0x110
 3276 02f1 B3020000 		.4byte	0x2b3
 3277 02f5 02       		.byte	0x2
 3278 02f6 23       		.byte	0x23
 3279 02f7 08       		.uleb128 0x8
 3280 02f8 0D       		.uleb128 0xd
 3281 02f9 73313900 		.ascii	"s19\000"
 3282 02fd 07       		.byte	0x7
 3283 02fe 1101     		.2byte	0x111
ARM GAS  C:\Users\Vergil\AppData\Local\Temp\ccwNg35D.s 			page 59


 3284 0300 B3020000 		.4byte	0x2b3
 3285 0304 02       		.byte	0x2
 3286 0305 23       		.byte	0x23
 3287 0306 0C       		.uleb128 0xc
 3288 0307 0D       		.uleb128 0xd
 3289 0308 73323000 		.ascii	"s20\000"
 3290 030c 07       		.byte	0x7
 3291 030d 1201     		.2byte	0x112
 3292 030f B3020000 		.4byte	0x2b3
 3293 0313 02       		.byte	0x2
 3294 0314 23       		.byte	0x23
 3295 0315 10       		.uleb128 0x10
 3296 0316 0D       		.uleb128 0xd
 3297 0317 73323100 		.ascii	"s21\000"
 3298 031b 07       		.byte	0x7
 3299 031c 1301     		.2byte	0x113
 3300 031e B3020000 		.4byte	0x2b3
 3301 0322 02       		.byte	0x2
 3302 0323 23       		.byte	0x23
 3303 0324 14       		.uleb128 0x14
 3304 0325 0D       		.uleb128 0xd
 3305 0326 73323200 		.ascii	"s22\000"
 3306 032a 07       		.byte	0x7
 3307 032b 1401     		.2byte	0x114
 3308 032d B3020000 		.4byte	0x2b3
 3309 0331 02       		.byte	0x2
 3310 0332 23       		.byte	0x23
 3311 0333 18       		.uleb128 0x18
 3312 0334 0D       		.uleb128 0xd
 3313 0335 73323300 		.ascii	"s23\000"
 3314 0339 07       		.byte	0x7
 3315 033a 1501     		.2byte	0x115
 3316 033c B3020000 		.4byte	0x2b3
 3317 0340 02       		.byte	0x2
 3318 0341 23       		.byte	0x23
 3319 0342 1C       		.uleb128 0x1c
 3320 0343 0D       		.uleb128 0xd
 3321 0344 73323400 		.ascii	"s24\000"
 3322 0348 07       		.byte	0x7
 3323 0349 1601     		.2byte	0x116
 3324 034b B3020000 		.4byte	0x2b3
 3325 034f 02       		.byte	0x2
 3326 0350 23       		.byte	0x23
 3327 0351 20       		.uleb128 0x20
 3328 0352 0D       		.uleb128 0xd
 3329 0353 73323500 		.ascii	"s25\000"
 3330 0357 07       		.byte	0x7
 3331 0358 1701     		.2byte	0x117
 3332 035a B3020000 		.4byte	0x2b3
 3333 035e 02       		.byte	0x2
 3334 035f 23       		.byte	0x23
 3335 0360 24       		.uleb128 0x24
 3336 0361 0D       		.uleb128 0xd
 3337 0362 73323600 		.ascii	"s26\000"
 3338 0366 07       		.byte	0x7
 3339 0367 1801     		.2byte	0x118
 3340 0369 B3020000 		.4byte	0x2b3
ARM GAS  C:\Users\Vergil\AppData\Local\Temp\ccwNg35D.s 			page 60


 3341 036d 02       		.byte	0x2
 3342 036e 23       		.byte	0x23
 3343 036f 28       		.uleb128 0x28
 3344 0370 0D       		.uleb128 0xd
 3345 0371 73323700 		.ascii	"s27\000"
 3346 0375 07       		.byte	0x7
 3347 0376 1901     		.2byte	0x119
 3348 0378 B3020000 		.4byte	0x2b3
 3349 037c 02       		.byte	0x2
 3350 037d 23       		.byte	0x23
 3351 037e 2C       		.uleb128 0x2c
 3352 037f 0D       		.uleb128 0xd
 3353 0380 73323800 		.ascii	"s28\000"
 3354 0384 07       		.byte	0x7
 3355 0385 1A01     		.2byte	0x11a
 3356 0387 B3020000 		.4byte	0x2b3
 3357 038b 02       		.byte	0x2
 3358 038c 23       		.byte	0x23
 3359 038d 30       		.uleb128 0x30
 3360 038e 0D       		.uleb128 0xd
 3361 038f 73323900 		.ascii	"s29\000"
 3362 0393 07       		.byte	0x7
 3363 0394 1B01     		.2byte	0x11b
 3364 0396 B3020000 		.4byte	0x2b3
 3365 039a 02       		.byte	0x2
 3366 039b 23       		.byte	0x23
 3367 039c 34       		.uleb128 0x34
 3368 039d 0D       		.uleb128 0xd
 3369 039e 73333000 		.ascii	"s30\000"
 3370 03a2 07       		.byte	0x7
 3371 03a3 1C01     		.2byte	0x11c
 3372 03a5 B3020000 		.4byte	0x2b3
 3373 03a9 02       		.byte	0x2
 3374 03aa 23       		.byte	0x23
 3375 03ab 38       		.uleb128 0x38
 3376 03ac 0D       		.uleb128 0xd
 3377 03ad 73333100 		.ascii	"s31\000"
 3378 03b1 07       		.byte	0x7
 3379 03b2 1D01     		.2byte	0x11d
 3380 03b4 B3020000 		.4byte	0x2b3
 3381 03b8 02       		.byte	0x2
 3382 03b9 23       		.byte	0x23
 3383 03ba 3C       		.uleb128 0x3c
 3384 03bb 0D       		.uleb128 0xd
 3385 03bc 723400   		.ascii	"r4\000"
 3386 03bf 07       		.byte	0x7
 3387 03c0 1F01     		.2byte	0x11f
 3388 03c2 B3020000 		.4byte	0x2b3
 3389 03c6 02       		.byte	0x2
 3390 03c7 23       		.byte	0x23
 3391 03c8 40       		.uleb128 0x40
 3392 03c9 0D       		.uleb128 0xd
 3393 03ca 723500   		.ascii	"r5\000"
 3394 03cd 07       		.byte	0x7
 3395 03ce 2001     		.2byte	0x120
 3396 03d0 B3020000 		.4byte	0x2b3
 3397 03d4 02       		.byte	0x2
ARM GAS  C:\Users\Vergil\AppData\Local\Temp\ccwNg35D.s 			page 61


 3398 03d5 23       		.byte	0x23
 3399 03d6 44       		.uleb128 0x44
 3400 03d7 0D       		.uleb128 0xd
 3401 03d8 723600   		.ascii	"r6\000"
 3402 03db 07       		.byte	0x7
 3403 03dc 2101     		.2byte	0x121
 3404 03de B3020000 		.4byte	0x2b3
 3405 03e2 02       		.byte	0x2
 3406 03e3 23       		.byte	0x23
 3407 03e4 48       		.uleb128 0x48
 3408 03e5 0D       		.uleb128 0xd
 3409 03e6 723700   		.ascii	"r7\000"
 3410 03e9 07       		.byte	0x7
 3411 03ea 2201     		.2byte	0x122
 3412 03ec B3020000 		.4byte	0x2b3
 3413 03f0 02       		.byte	0x2
 3414 03f1 23       		.byte	0x23
 3415 03f2 4C       		.uleb128 0x4c
 3416 03f3 0D       		.uleb128 0xd
 3417 03f4 723800   		.ascii	"r8\000"
 3418 03f7 07       		.byte	0x7
 3419 03f8 2301     		.2byte	0x123
 3420 03fa B3020000 		.4byte	0x2b3
 3421 03fe 02       		.byte	0x2
 3422 03ff 23       		.byte	0x23
 3423 0400 50       		.uleb128 0x50
 3424 0401 0D       		.uleb128 0xd
 3425 0402 723900   		.ascii	"r9\000"
 3426 0405 07       		.byte	0x7
 3427 0406 2401     		.2byte	0x124
 3428 0408 B3020000 		.4byte	0x2b3
 3429 040c 02       		.byte	0x2
 3430 040d 23       		.byte	0x23
 3431 040e 54       		.uleb128 0x54
 3432 040f 0D       		.uleb128 0xd
 3433 0410 72313000 		.ascii	"r10\000"
 3434 0414 07       		.byte	0x7
 3435 0415 2501     		.2byte	0x125
 3436 0417 B3020000 		.4byte	0x2b3
 3437 041b 02       		.byte	0x2
 3438 041c 23       		.byte	0x23
 3439 041d 58       		.uleb128 0x58
 3440 041e 0D       		.uleb128 0xd
 3441 041f 72313100 		.ascii	"r11\000"
 3442 0423 07       		.byte	0x7
 3443 0424 2601     		.2byte	0x126
 3444 0426 B3020000 		.4byte	0x2b3
 3445 042a 02       		.byte	0x2
 3446 042b 23       		.byte	0x23
 3447 042c 5C       		.uleb128 0x5c
 3448 042d 0D       		.uleb128 0xd
 3449 042e 6C7200   		.ascii	"lr\000"
 3450 0431 07       		.byte	0x7
 3451 0432 2701     		.2byte	0x127
 3452 0434 B3020000 		.4byte	0x2b3
 3453 0438 02       		.byte	0x2
 3454 0439 23       		.byte	0x23
ARM GAS  C:\Users\Vergil\AppData\Local\Temp\ccwNg35D.s 			page 62


 3455 043a 60       		.uleb128 0x60
 3456 043b 00       		.byte	0
 3457 043c 0C       		.uleb128 0xc
 3458 043d BE010000 		.4byte	.LASF50
 3459 0441 04       		.byte	0x4
 3460 0442 07       		.byte	0x7
 3461 0443 3101     		.2byte	0x131
 3462 0445 59040000 		.4byte	0x459
 3463 0449 0D       		.uleb128 0xd
 3464 044a 72313300 		.ascii	"r13\000"
 3465 044e 07       		.byte	0x7
 3466 044f 3201     		.2byte	0x132
 3467 0451 59040000 		.4byte	0x459
 3468 0455 02       		.byte	0x2
 3469 0456 23       		.byte	0x23
 3470 0457 00       		.uleb128 0
 3471 0458 00       		.byte	0
 3472 0459 05       		.uleb128 0x5
 3473 045a 04       		.byte	0x4
 3474 045b BE020000 		.4byte	0x2be
 3475 045f 0E       		.uleb128 0xe
 3476 0460 B6000000 		.4byte	0xb6
 3477 0464 0E       		.uleb128 0xe
 3478 0465 20010000 		.4byte	0x120
 3479 0469 08       		.uleb128 0x8
 3480 046a 79030000 		.4byte	.LASF51
 3481 046e 10       		.byte	0x10
 3482 046f 08       		.byte	0x8
 3483 0470 2C       		.byte	0x2c
 3484 0471 A0040000 		.4byte	0x4a0
 3485 0475 09       		.uleb128 0x9
 3486 0476 9F030000 		.4byte	.LASF52
 3487 047a 08       		.byte	0x8
 3488 047b 2D       		.byte	0x2d
 3489 047c 86020000 		.4byte	0x286
 3490 0480 02       		.byte	0x2
 3491 0481 23       		.byte	0x23
 3492 0482 00       		.uleb128 0
 3493 0483 09       		.uleb128 0x9
 3494 0484 E1000000 		.4byte	.LASF53
 3495 0488 08       		.byte	0x8
 3496 0489 2F       		.byte	0x2f
 3497 048a 80020000 		.4byte	0x280
 3498 048e 02       		.byte	0x2
 3499 048f 23       		.byte	0x23
 3500 0490 08       		.uleb128 0x8
 3501 0491 09       		.uleb128 0x9
 3502 0492 CA070000 		.4byte	.LASF54
 3503 0496 08       		.byte	0x8
 3504 0497 31       		.byte	0x31
 3505 0498 A0040000 		.4byte	0x4a0
 3506 049c 02       		.byte	0x2
 3507 049d 23       		.byte	0x23
 3508 049e 0C       		.uleb128 0xc
 3509 049f 00       		.byte	0
 3510 04a0 05       		.uleb128 0x5
 3511 04a1 04       		.byte	0x4
ARM GAS  C:\Users\Vergil\AppData\Local\Temp\ccwNg35D.s 			page 63


 3512 04a2 69040000 		.4byte	0x469
 3513 04a6 07       		.uleb128 0x7
 3514 04a7 79030000 		.4byte	.LASF51
 3515 04ab 08       		.byte	0x8
 3516 04ac 33       		.byte	0x33
 3517 04ad 69040000 		.4byte	0x469
 3518 04b1 0F       		.uleb128 0xf
 3519 04b2 04       		.byte	0x4
 3520 04b3 06       		.byte	0x6
 3521 04b4 96       		.byte	0x96
 3522 04b5 E6040000 		.4byte	0x4e6
 3523 04b9 10       		.uleb128 0x10
 3524 04ba 87070000 		.4byte	.LASF55
 3525 04be 06       		.byte	0x6
 3526 04bf 9D       		.byte	0x9d
 3527 04c0 0A010000 		.4byte	0x10a
 3528 04c4 10       		.uleb128 0x10
 3529 04c5 F0000000 		.4byte	.LASF56
 3530 04c9 06       		.byte	0x6
 3531 04ca A4       		.byte	0xa4
 3532 04cb 0A010000 		.4byte	0x10a
 3533 04cf 10       		.uleb128 0x10
 3534 04d0 96020000 		.4byte	.LASF57
 3535 04d4 06       		.byte	0x6
 3536 04d5 AB       		.byte	0xab
 3537 04d6 6F000000 		.4byte	0x6f
 3538 04da 10       		.uleb128 0x10
 3539 04db 0A010000 		.4byte	.LASF58
 3540 04df 06       		.byte	0x6
 3541 04e0 B2       		.byte	0xb2
 3542 04e1 15010000 		.4byte	0x115
 3543 04e5 00       		.byte	0
 3544 04e6 05       		.uleb128 0x5
 3545 04e7 04       		.byte	0x4
 3546 04e8 A6040000 		.4byte	0x4a6
 3547 04ec 05       		.uleb128 0x5
 3548 04ed 04       		.byte	0x4
 3549 04ee 95000000 		.4byte	0x95
 3550 04f2 05       		.uleb128 0x5
 3551 04f3 04       		.byte	0x4
 3552 04f4 F8040000 		.4byte	0x4f8
 3553 04f8 06       		.uleb128 0x6
 3554 04f9 95000000 		.4byte	0x95
 3555 04fd 11       		.uleb128 0x11
 3556 04fe B6000000 		.4byte	0xb6
 3557 0502 0D050000 		.4byte	0x50d
 3558 0506 12       		.uleb128 0x12
 3559 0507 68000000 		.4byte	0x68
 3560 050b 03       		.byte	0x3
 3561 050c 00       		.byte	0
 3562 050d 0E       		.uleb128 0xe
 3563 050e A0000000 		.4byte	0xa0
 3564 0512 0E       		.uleb128 0xe
 3565 0513 AB000000 		.4byte	0xab
 3566 0517 13       		.uleb128 0x13
 3567 0518 18       		.byte	0x18
 3568 0519 09       		.byte	0x9
ARM GAS  C:\Users\Vergil\AppData\Local\Temp\ccwNg35D.s 			page 64


 3569 051a B102     		.2byte	0x2b1
 3570 051c 7A050000 		.4byte	0x57a
 3571 0520 0D       		.uleb128 0xd
 3572 0521 435200   		.ascii	"CR\000"
 3573 0524 09       		.byte	0x9
 3574 0525 B302     		.2byte	0x2b3
 3575 0527 5F040000 		.4byte	0x45f
 3576 052b 02       		.byte	0x2
 3577 052c 23       		.byte	0x23
 3578 052d 00       		.uleb128 0
 3579 052e 14       		.uleb128 0x14
 3580 052f AC070000 		.4byte	.LASF59
 3581 0533 09       		.byte	0x9
 3582 0534 B402     		.2byte	0x2b4
 3583 0536 5F040000 		.4byte	0x45f
 3584 053a 02       		.byte	0x2
 3585 053b 23       		.byte	0x23
 3586 053c 04       		.uleb128 0x4
 3587 053d 0D       		.uleb128 0xd
 3588 053e 50415200 		.ascii	"PAR\000"
 3589 0542 09       		.byte	0x9
 3590 0543 B502     		.2byte	0x2b5
 3591 0545 5F040000 		.4byte	0x45f
 3592 0549 02       		.byte	0x2
 3593 054a 23       		.byte	0x23
 3594 054b 08       		.uleb128 0x8
 3595 054c 14       		.uleb128 0x14
 3596 054d 92060000 		.4byte	.LASF60
 3597 0551 09       		.byte	0x9
 3598 0552 B602     		.2byte	0x2b6
 3599 0554 5F040000 		.4byte	0x45f
 3600 0558 02       		.byte	0x2
 3601 0559 23       		.byte	0x23
 3602 055a 0C       		.uleb128 0xc
 3603 055b 14       		.uleb128 0x14
 3604 055c 00000000 		.4byte	.LASF61
 3605 0560 09       		.byte	0x9
 3606 0561 B702     		.2byte	0x2b7
 3607 0563 5F040000 		.4byte	0x45f
 3608 0567 02       		.byte	0x2
 3609 0568 23       		.byte	0x23
 3610 0569 10       		.uleb128 0x10
 3611 056a 0D       		.uleb128 0xd
 3612 056b 46435200 		.ascii	"FCR\000"
 3613 056f 09       		.byte	0x9
 3614 0570 B802     		.2byte	0x2b8
 3615 0572 5F040000 		.4byte	0x45f
 3616 0576 02       		.byte	0x2
 3617 0577 23       		.byte	0x23
 3618 0578 14       		.uleb128 0x14
 3619 0579 00       		.byte	0
 3620 057a 15       		.uleb128 0x15
 3621 057b D2040000 		.4byte	.LASF62
 3622 057f 09       		.byte	0x9
 3623 0580 B902     		.2byte	0x2b9
 3624 0582 17050000 		.4byte	0x517
 3625 0586 13       		.uleb128 0x13
ARM GAS  C:\Users\Vergil\AppData\Local\Temp\ccwNg35D.s 			page 65


 3626 0587 24       		.byte	0x24
 3627 0588 09       		.byte	0x9
 3628 0589 E304     		.2byte	0x4e3
 3629 058b 9C060000 		.4byte	0x69c
 3630 058f 0D       		.uleb128 0xd
 3631 0590 43523100 		.ascii	"CR1\000"
 3632 0594 09       		.byte	0x9
 3633 0595 E504     		.2byte	0x4e5
 3634 0597 0D050000 		.4byte	0x50d
 3635 059b 02       		.byte	0x2
 3636 059c 23       		.byte	0x23
 3637 059d 00       		.uleb128 0
 3638 059e 14       		.uleb128 0x14
 3639 059f D6010000 		.4byte	.LASF63
 3640 05a3 09       		.byte	0x9
 3641 05a4 E604     		.2byte	0x4e6
 3642 05a6 A0000000 		.4byte	0xa0
 3643 05aa 02       		.byte	0x2
 3644 05ab 23       		.byte	0x23
 3645 05ac 02       		.uleb128 0x2
 3646 05ad 0D       		.uleb128 0xd
 3647 05ae 43523200 		.ascii	"CR2\000"
 3648 05b2 09       		.byte	0x9
 3649 05b3 E704     		.2byte	0x4e7
 3650 05b5 0D050000 		.4byte	0x50d
 3651 05b9 02       		.byte	0x2
 3652 05ba 23       		.byte	0x23
 3653 05bb 04       		.uleb128 0x4
 3654 05bc 14       		.uleb128 0x14
 3655 05bd E0010000 		.4byte	.LASF64
 3656 05c1 09       		.byte	0x9
 3657 05c2 E804     		.2byte	0x4e8
 3658 05c4 A0000000 		.4byte	0xa0
 3659 05c8 02       		.byte	0x2
 3660 05c9 23       		.byte	0x23
 3661 05ca 06       		.uleb128 0x6
 3662 05cb 0D       		.uleb128 0xd
 3663 05cc 535200   		.ascii	"SR\000"
 3664 05cf 09       		.byte	0x9
 3665 05d0 E904     		.2byte	0x4e9
 3666 05d2 0D050000 		.4byte	0x50d
 3667 05d6 02       		.byte	0x2
 3668 05d7 23       		.byte	0x23
 3669 05d8 08       		.uleb128 0x8
 3670 05d9 14       		.uleb128 0x14
 3671 05da 4D020000 		.4byte	.LASF65
 3672 05de 09       		.byte	0x9
 3673 05df EA04     		.2byte	0x4ea
 3674 05e1 A0000000 		.4byte	0xa0
 3675 05e5 02       		.byte	0x2
 3676 05e6 23       		.byte	0x23
 3677 05e7 0A       		.uleb128 0xa
 3678 05e8 0D       		.uleb128 0xd
 3679 05e9 445200   		.ascii	"DR\000"
 3680 05ec 09       		.byte	0x9
 3681 05ed EB04     		.2byte	0x4eb
 3682 05ef 0D050000 		.4byte	0x50d
ARM GAS  C:\Users\Vergil\AppData\Local\Temp\ccwNg35D.s 			page 66


 3683 05f3 02       		.byte	0x2
 3684 05f4 23       		.byte	0x23
 3685 05f5 0C       		.uleb128 0xc
 3686 05f6 14       		.uleb128 0x14
 3687 05f7 F8010000 		.4byte	.LASF66
 3688 05fb 09       		.byte	0x9
 3689 05fc EC04     		.2byte	0x4ec
 3690 05fe A0000000 		.4byte	0xa0
 3691 0602 02       		.byte	0x2
 3692 0603 23       		.byte	0x23
 3693 0604 0E       		.uleb128 0xe
 3694 0605 14       		.uleb128 0x14
 3695 0606 6A060000 		.4byte	.LASF67
 3696 060a 09       		.byte	0x9
 3697 060b ED04     		.2byte	0x4ed
 3698 060d 0D050000 		.4byte	0x50d
 3699 0611 02       		.byte	0x2
 3700 0612 23       		.byte	0x23
 3701 0613 10       		.uleb128 0x10
 3702 0614 14       		.uleb128 0x14
 3703 0615 02020000 		.4byte	.LASF68
 3704 0619 09       		.byte	0x9
 3705 061a EE04     		.2byte	0x4ee
 3706 061c A0000000 		.4byte	0xa0
 3707 0620 02       		.byte	0x2
 3708 0621 23       		.byte	0x23
 3709 0622 12       		.uleb128 0x12
 3710 0623 14       		.uleb128 0x14
 3711 0624 BF030000 		.4byte	.LASF69
 3712 0628 09       		.byte	0x9
 3713 0629 EF04     		.2byte	0x4ef
 3714 062b 0D050000 		.4byte	0x50d
 3715 062f 02       		.byte	0x2
 3716 0630 23       		.byte	0x23
 3717 0631 14       		.uleb128 0x14
 3718 0632 14       		.uleb128 0x14
 3719 0633 0C020000 		.4byte	.LASF70
 3720 0637 09       		.byte	0x9
 3721 0638 F004     		.2byte	0x4f0
 3722 063a A0000000 		.4byte	0xa0
 3723 063e 02       		.byte	0x2
 3724 063f 23       		.byte	0x23
 3725 0640 16       		.uleb128 0x16
 3726 0641 14       		.uleb128 0x14
 3727 0642 4F060000 		.4byte	.LASF71
 3728 0646 09       		.byte	0x9
 3729 0647 F104     		.2byte	0x4f1
 3730 0649 0D050000 		.4byte	0x50d
 3731 064d 02       		.byte	0x2
 3732 064e 23       		.byte	0x23
 3733 064f 18       		.uleb128 0x18
 3734 0650 14       		.uleb128 0x14
 3735 0651 16020000 		.4byte	.LASF72
 3736 0655 09       		.byte	0x9
 3737 0656 F204     		.2byte	0x4f2
 3738 0658 A0000000 		.4byte	0xa0
 3739 065c 02       		.byte	0x2
ARM GAS  C:\Users\Vergil\AppData\Local\Temp\ccwNg35D.s 			page 67


 3740 065d 23       		.byte	0x23
 3741 065e 1A       		.uleb128 0x1a
 3742 065f 14       		.uleb128 0x14
 3743 0660 F9000000 		.4byte	.LASF73
 3744 0664 09       		.byte	0x9
 3745 0665 F304     		.2byte	0x4f3
 3746 0667 0D050000 		.4byte	0x50d
 3747 066b 02       		.byte	0x2
 3748 066c 23       		.byte	0x23
 3749 066d 1C       		.uleb128 0x1c
 3750 066e 14       		.uleb128 0x14
 3751 066f 20020000 		.4byte	.LASF74
 3752 0673 09       		.byte	0x9
 3753 0674 F404     		.2byte	0x4f4
 3754 0676 A0000000 		.4byte	0xa0
 3755 067a 02       		.byte	0x2
 3756 067b 23       		.byte	0x23
 3757 067c 1E       		.uleb128 0x1e
 3758 067d 14       		.uleb128 0x14
 3759 067e 5D070000 		.4byte	.LASF75
 3760 0682 09       		.byte	0x9
 3761 0683 F504     		.2byte	0x4f5
 3762 0685 0D050000 		.4byte	0x50d
 3763 0689 02       		.byte	0x2
 3764 068a 23       		.byte	0x23
 3765 068b 20       		.uleb128 0x20
 3766 068c 14       		.uleb128 0x14
 3767 068d 2A020000 		.4byte	.LASF76
 3768 0691 09       		.byte	0x9
 3769 0692 F604     		.2byte	0x4f6
 3770 0694 A0000000 		.4byte	0xa0
 3771 0698 02       		.byte	0x2
 3772 0699 23       		.byte	0x23
 3773 069a 22       		.uleb128 0x22
 3774 069b 00       		.byte	0
 3775 069c 15       		.uleb128 0x15
 3776 069d 56060000 		.4byte	.LASF77
 3777 06a1 09       		.byte	0x9
 3778 06a2 F704     		.2byte	0x4f7
 3779 06a4 86050000 		.4byte	0x586
 3780 06a8 0B       		.uleb128 0xb
 3781 06a9 0C       		.byte	0xc
 3782 06aa 0A       		.byte	0xa
 3783 06ab DA       		.byte	0xda
 3784 06ac F7060000 		.4byte	0x6f7
 3785 06b0 09       		.uleb128 0x9
 3786 06b1 A2020000 		.4byte	.LASF78
 3787 06b5 0A       		.byte	0xa
 3788 06b6 DB       		.byte	0xdb
 3789 06b7 F7060000 		.4byte	0x6f7
 3790 06bb 02       		.byte	0x2
 3791 06bc 23       		.byte	0x23
 3792 06bd 00       		.uleb128 0
 3793 06be 09       		.uleb128 0x9
 3794 06bf B1070000 		.4byte	.LASF79
 3795 06c3 0A       		.byte	0xa
 3796 06c4 DC       		.byte	0xdc
ARM GAS  C:\Users\Vergil\AppData\Local\Temp\ccwNg35D.s 			page 68


 3797 06c5 FD060000 		.4byte	0x6fd
 3798 06c9 02       		.byte	0x2
 3799 06ca 23       		.byte	0x23
 3800 06cb 04       		.uleb128 0x4
 3801 06cc 09       		.uleb128 0x9
 3802 06cd 5C020000 		.4byte	.LASF80
 3803 06d1 0A       		.byte	0xa
 3804 06d2 DD       		.byte	0xdd
 3805 06d3 95000000 		.4byte	0x95
 3806 06d7 02       		.byte	0x2
 3807 06d8 23       		.byte	0x23
 3808 06d9 08       		.uleb128 0x8
 3809 06da 09       		.uleb128 0x9
 3810 06db 02040000 		.4byte	.LASF81
 3811 06df 0A       		.byte	0xa
 3812 06e0 DF       		.byte	0xdf
 3813 06e1 95000000 		.4byte	0x95
 3814 06e5 02       		.byte	0x2
 3815 06e6 23       		.byte	0x23
 3816 06e7 09       		.uleb128 0x9
 3817 06e8 09       		.uleb128 0x9
 3818 06e9 1C060000 		.4byte	.LASF82
 3819 06ed 0A       		.byte	0xa
 3820 06ee E0       		.byte	0xe0
 3821 06ef 95000000 		.4byte	0x95
 3822 06f3 02       		.byte	0x2
 3823 06f4 23       		.byte	0x23
 3824 06f5 0A       		.uleb128 0xa
 3825 06f6 00       		.byte	0
 3826 06f7 05       		.uleb128 0x5
 3827 06f8 04       		.byte	0x4
 3828 06f9 7A050000 		.4byte	0x57a
 3829 06fd 05       		.uleb128 0x5
 3830 06fe 04       		.byte	0x4
 3831 06ff 5F040000 		.4byte	0x45f
 3832 0703 07       		.uleb128 0x7
 3833 0704 47030000 		.4byte	.LASF83
 3834 0708 0A       		.byte	0xa
 3835 0709 E1       		.byte	0xe1
 3836 070a A8060000 		.4byte	0x6a8
 3837 070e 16       		.uleb128 0x16
 3838 070f 01       		.byte	0x1
 3839 0710 0B       		.byte	0xb
 3840 0711 33       		.byte	0x33
 3841 0712 4D070000 		.4byte	0x74d
 3842 0716 17       		.uleb128 0x17
 3843 0717 3C020000 		.4byte	.LASF84
 3844 071b 00       		.sleb128 0
 3845 071c 17       		.uleb128 0x17
 3846 071d DB070000 		.4byte	.LASF85
 3847 0721 01       		.sleb128 1
 3848 0722 17       		.uleb128 0x17
 3849 0723 86050000 		.4byte	.LASF86
 3850 0727 02       		.sleb128 2
 3851 0728 17       		.uleb128 0x17
 3852 0729 7D020000 		.4byte	.LASF87
 3853 072d 03       		.sleb128 3
ARM GAS  C:\Users\Vergil\AppData\Local\Temp\ccwNg35D.s 			page 69


 3854 072e 17       		.uleb128 0x17
 3855 072f A1060000 		.4byte	.LASF88
 3856 0733 04       		.sleb128 4
 3857 0734 17       		.uleb128 0x17
 3858 0735 8C020000 		.4byte	.LASF89
 3859 0739 05       		.sleb128 5
 3860 073a 17       		.uleb128 0x17
 3861 073b 32070000 		.4byte	.LASF90
 3862 073f 06       		.sleb128 6
 3863 0740 17       		.uleb128 0x17
 3864 0741 5F030000 		.4byte	.LASF91
 3865 0745 07       		.sleb128 7
 3866 0746 17       		.uleb128 0x17
 3867 0747 B3050000 		.4byte	.LASF92
 3868 074b 08       		.sleb128 8
 3869 074c 00       		.byte	0
 3870 074d 07       		.uleb128 0x7
 3871 074e 7B000000 		.4byte	.LASF93
 3872 0752 0B       		.byte	0xb
 3873 0753 3D       		.byte	0x3d
 3874 0754 0E070000 		.4byte	0x70e
 3875 0758 0B       		.uleb128 0xb
 3876 0759 08       		.byte	0x8
 3877 075a 0B       		.byte	0xb
 3878 075b 42       		.byte	0x42
 3879 075c 7D070000 		.4byte	0x77d
 3880 0760 09       		.uleb128 0x9
 3881 0761 DE020000 		.4byte	.LASF94
 3882 0765 0B       		.byte	0xb
 3883 0766 43       		.byte	0x43
 3884 0767 B6000000 		.4byte	0xb6
 3885 076b 02       		.byte	0x2
 3886 076c 23       		.byte	0x23
 3887 076d 00       		.uleb128 0
 3888 076e 09       		.uleb128 0x9
 3889 076f 3C040000 		.4byte	.LASF95
 3890 0773 0B       		.byte	0xb
 3891 0774 44       		.byte	0x44
 3892 0775 B6000000 		.4byte	0xb6
 3893 0779 02       		.byte	0x2
 3894 077a 23       		.byte	0x23
 3895 077b 04       		.uleb128 0x4
 3896 077c 00       		.byte	0
 3897 077d 07       		.uleb128 0x7
 3898 077e 35050000 		.4byte	.LASF96
 3899 0782 0B       		.byte	0xb
 3900 0783 45       		.byte	0x45
 3901 0784 58070000 		.4byte	0x758
 3902 0788 18       		.uleb128 0x18
 3903 0789 01       		.byte	0x1
 3904 078a C1000000 		.4byte	0xc1
 3905 078e 98070000 		.4byte	0x798
 3906 0792 19       		.uleb128 0x19
 3907 0793 6F000000 		.4byte	0x6f
 3908 0797 00       		.byte	0
 3909 0798 05       		.uleb128 0x5
 3910 0799 04       		.byte	0x4
ARM GAS  C:\Users\Vergil\AppData\Local\Temp\ccwNg35D.s 			page 70


 3911 079a 88070000 		.4byte	0x788
 3912 079e 18       		.uleb128 0x18
 3913 079f 01       		.byte	0x1
 3914 07a0 C1000000 		.4byte	0xc1
 3915 07a4 BD070000 		.4byte	0x7bd
 3916 07a8 19       		.uleb128 0x19
 3917 07a9 6F000000 		.4byte	0x6f
 3918 07ad 19       		.uleb128 0x19
 3919 07ae B6000000 		.4byte	0xb6
 3920 07b2 19       		.uleb128 0x19
 3921 07b3 EC040000 		.4byte	0x4ec
 3922 07b7 19       		.uleb128 0x19
 3923 07b8 B6000000 		.4byte	0xb6
 3924 07bc 00       		.byte	0
 3925 07bd 05       		.uleb128 0x5
 3926 07be 04       		.byte	0x4
 3927 07bf 9E070000 		.4byte	0x79e
 3928 07c3 18       		.uleb128 0x18
 3929 07c4 01       		.byte	0x1
 3930 07c5 C1000000 		.4byte	0xc1
 3931 07c9 E2070000 		.4byte	0x7e2
 3932 07cd 19       		.uleb128 0x19
 3933 07ce 6F000000 		.4byte	0x6f
 3934 07d2 19       		.uleb128 0x19
 3935 07d3 B6000000 		.4byte	0xb6
 3936 07d7 19       		.uleb128 0x19
 3937 07d8 F2040000 		.4byte	0x4f2
 3938 07dc 19       		.uleb128 0x19
 3939 07dd B6000000 		.4byte	0xb6
 3940 07e1 00       		.byte	0
 3941 07e2 05       		.uleb128 0x5
 3942 07e3 04       		.byte	0x4
 3943 07e4 C3070000 		.4byte	0x7c3
 3944 07e8 18       		.uleb128 0x18
 3945 07e9 01       		.byte	0x1
 3946 07ea C1000000 		.4byte	0xc1
 3947 07ee FD070000 		.4byte	0x7fd
 3948 07f2 19       		.uleb128 0x19
 3949 07f3 6F000000 		.4byte	0x6f
 3950 07f7 19       		.uleb128 0x19
 3951 07f8 FD070000 		.4byte	0x7fd
 3952 07fc 00       		.byte	0
 3953 07fd 05       		.uleb128 0x5
 3954 07fe 04       		.byte	0x4
 3955 07ff 7D070000 		.4byte	0x77d
 3956 0803 05       		.uleb128 0x5
 3957 0804 04       		.byte	0x4
 3958 0805 E8070000 		.4byte	0x7e8
 3959 0809 0B       		.uleb128 0xb
 3960 080a 04       		.byte	0x4
 3961 080b 0C       		.byte	0xc
 3962 080c 96       		.byte	0x96
 3963 080d 2E080000 		.4byte	0x82e
 3964 0811 0A       		.uleb128 0xa
 3965 0812 73657400 		.ascii	"set\000"
 3966 0816 0C       		.byte	0xc
 3967 0817 97       		.byte	0x97
ARM GAS  C:\Users\Vergil\AppData\Local\Temp\ccwNg35D.s 			page 71


 3968 0818 A0000000 		.4byte	0xa0
 3969 081c 02       		.byte	0x2
 3970 081d 23       		.byte	0x23
 3971 081e 00       		.uleb128 0
 3972 081f 09       		.uleb128 0x9
 3973 0820 07030000 		.4byte	.LASF97
 3974 0824 0C       		.byte	0xc
 3975 0825 98       		.byte	0x98
 3976 0826 A0000000 		.4byte	0xa0
 3977 082a 02       		.byte	0x2
 3978 082b 23       		.byte	0x23
 3979 082c 02       		.uleb128 0x2
 3980 082d 00       		.byte	0
 3981 082e 0F       		.uleb128 0xf
 3982 082f 04       		.byte	0x4
 3983 0830 0C       		.byte	0xc
 3984 0831 94       		.byte	0x94
 3985 0832 49080000 		.4byte	0x849
 3986 0836 1A       		.uleb128 0x1a
 3987 0837 5700     		.ascii	"W\000"
 3988 0839 0C       		.byte	0xc
 3989 083a 95       		.byte	0x95
 3990 083b B6000000 		.4byte	0xb6
 3991 083f 1A       		.uleb128 0x1a
 3992 0840 4800     		.ascii	"H\000"
 3993 0842 0C       		.byte	0xc
 3994 0843 99       		.byte	0x99
 3995 0844 09080000 		.4byte	0x809
 3996 0848 00       		.byte	0
 3997 0849 0B       		.uleb128 0xb
 3998 084a 28       		.byte	0x28
 3999 084b 0C       		.byte	0xc
 4000 084c 8C       		.byte	0x8c
 4001 084d DE080000 		.4byte	0x8de
 4002 0851 09       		.uleb128 0x9
 4003 0852 EF030000 		.4byte	.LASF98
 4004 0856 0C       		.byte	0xc
 4005 0857 8E       		.byte	0x8e
 4006 0858 5F040000 		.4byte	0x45f
 4007 085c 02       		.byte	0x2
 4008 085d 23       		.byte	0x23
 4009 085e 00       		.uleb128 0
 4010 085f 09       		.uleb128 0x9
 4011 0860 48060000 		.4byte	.LASF99
 4012 0864 0C       		.byte	0xc
 4013 0865 8F       		.byte	0x8f
 4014 0866 5F040000 		.4byte	0x45f
 4015 086a 02       		.byte	0x2
 4016 086b 23       		.byte	0x23
 4017 086c 04       		.uleb128 0x4
 4018 086d 09       		.uleb128 0x9
 4019 086e 6B030000 		.4byte	.LASF100
 4020 0872 0C       		.byte	0xc
 4021 0873 90       		.byte	0x90
 4022 0874 5F040000 		.4byte	0x45f
 4023 0878 02       		.byte	0x2
 4024 0879 23       		.byte	0x23
ARM GAS  C:\Users\Vergil\AppData\Local\Temp\ccwNg35D.s 			page 72


 4025 087a 08       		.uleb128 0x8
 4026 087b 09       		.uleb128 0x9
 4027 087c 11010000 		.4byte	.LASF101
 4028 0880 0C       		.byte	0xc
 4029 0881 91       		.byte	0x91
 4030 0882 5F040000 		.4byte	0x45f
 4031 0886 02       		.byte	0x2
 4032 0887 23       		.byte	0x23
 4033 0888 0C       		.uleb128 0xc
 4034 0889 0A       		.uleb128 0xa
 4035 088a 49445200 		.ascii	"IDR\000"
 4036 088e 0C       		.byte	0xc
 4037 088f 92       		.byte	0x92
 4038 0890 5F040000 		.4byte	0x45f
 4039 0894 02       		.byte	0x2
 4040 0895 23       		.byte	0x23
 4041 0896 10       		.uleb128 0x10
 4042 0897 0A       		.uleb128 0xa
 4043 0898 4F445200 		.ascii	"ODR\000"
 4044 089c 0C       		.byte	0xc
 4045 089d 93       		.byte	0x93
 4046 089e 5F040000 		.4byte	0x45f
 4047 08a2 02       		.byte	0x2
 4048 08a3 23       		.byte	0x23
 4049 08a4 14       		.uleb128 0x14
 4050 08a5 09       		.uleb128 0x9
 4051 08a6 D1060000 		.4byte	.LASF102
 4052 08aa 0C       		.byte	0xc
 4053 08ab 9A       		.byte	0x9a
 4054 08ac DE080000 		.4byte	0x8de
 4055 08b0 02       		.byte	0x2
 4056 08b1 23       		.byte	0x23
 4057 08b2 18       		.uleb128 0x18
 4058 08b3 09       		.uleb128 0x9
 4059 08b4 5A030000 		.4byte	.LASF103
 4060 08b8 0C       		.byte	0xc
 4061 08b9 9B       		.byte	0x9b
 4062 08ba 5F040000 		.4byte	0x45f
 4063 08be 02       		.byte	0x2
 4064 08bf 23       		.byte	0x23
 4065 08c0 1C       		.uleb128 0x1c
 4066 08c1 09       		.uleb128 0x9
 4067 08c2 04060000 		.4byte	.LASF104
 4068 08c6 0C       		.byte	0xc
 4069 08c7 9C       		.byte	0x9c
 4070 08c8 5F040000 		.4byte	0x45f
 4071 08cc 02       		.byte	0x2
 4072 08cd 23       		.byte	0x23
 4073 08ce 20       		.uleb128 0x20
 4074 08cf 09       		.uleb128 0x9
 4075 08d0 FF050000 		.4byte	.LASF105
 4076 08d4 0C       		.byte	0xc
 4077 08d5 9D       		.byte	0x9d
 4078 08d6 5F040000 		.4byte	0x45f
 4079 08da 02       		.byte	0x2
 4080 08db 23       		.byte	0x23
 4081 08dc 24       		.uleb128 0x24
ARM GAS  C:\Users\Vergil\AppData\Local\Temp\ccwNg35D.s 			page 73


 4082 08dd 00       		.byte	0
 4083 08de 0E       		.uleb128 0xe
 4084 08df 2E080000 		.4byte	0x82e
 4085 08e3 07       		.uleb128 0x7
 4086 08e4 F1060000 		.4byte	.LASF106
 4087 08e8 0C       		.byte	0xc
 4088 08e9 9E       		.byte	0x9e
 4089 08ea 49080000 		.4byte	0x849
 4090 08ee 07       		.uleb128 0x7
 4091 08ef 4A010000 		.4byte	.LASF107
 4092 08f3 0C       		.byte	0xc
 4093 08f4 FD       		.byte	0xfd
 4094 08f5 F9080000 		.4byte	0x8f9
 4095 08f9 05       		.uleb128 0x5
 4096 08fa 04       		.byte	0x4
 4097 08fb E3080000 		.4byte	0x8e3
 4098 08ff 05       		.uleb128 0x5
 4099 0900 04       		.byte	0x4
 4100 0901 05090000 		.4byte	0x905
 4101 0905 06       		.uleb128 0x6
 4102 0906 03070000 		.4byte	0x703
 4103 090a 11       		.uleb128 0x11
 4104 090b 95000000 		.4byte	0x95
 4105 090f 1A090000 		.4byte	0x91a
 4106 0913 12       		.uleb128 0x12
 4107 0914 68000000 		.4byte	0x68
 4108 0918 0F       		.byte	0xf
 4109 0919 00       		.byte	0
 4110 091a 16       		.uleb128 0x16
 4111 091b 01       		.byte	0x1
 4112 091c 0D       		.byte	0xd
 4113 091d 55       		.byte	0x55
 4114 091e 41090000 		.4byte	0x941
 4115 0922 17       		.uleb128 0x17
 4116 0923 31010000 		.4byte	.LASF108
 4117 0927 00       		.sleb128 0
 4118 0928 17       		.uleb128 0x17
 4119 0929 1F010000 		.4byte	.LASF109
 4120 092d 01       		.sleb128 1
 4121 092e 17       		.uleb128 0x17
 4122 092f 7F030000 		.4byte	.LASF110
 4123 0933 02       		.sleb128 2
 4124 0934 17       		.uleb128 0x17
 4125 0935 31040000 		.4byte	.LASF111
 4126 0939 03       		.sleb128 3
 4127 093a 17       		.uleb128 0x17
 4128 093b 7A070000 		.4byte	.LASF112
 4129 093f 04       		.sleb128 4
 4130 0940 00       		.byte	0
 4131 0941 07       		.uleb128 0x7
 4132 0942 A1070000 		.4byte	.LASF113
 4133 0946 0D       		.byte	0xd
 4134 0947 5B       		.byte	0x5b
 4135 0948 1A090000 		.4byte	0x91a
 4136 094c 15       		.uleb128 0x15
 4137 094d 73020000 		.4byte	.LASF114
 4138 0951 0E       		.byte	0xe
ARM GAS  C:\Users\Vergil\AppData\Local\Temp\ccwNg35D.s 			page 74


 4139 0952 E701     		.2byte	0x1e7
 4140 0954 58090000 		.4byte	0x958
 4141 0958 0C       		.uleb128 0xc
 4142 0959 73020000 		.4byte	.LASF114
 4143 095d 30       		.byte	0x30
 4144 095e 0E       		.byte	0xe
 4145 095f 0B02     		.2byte	0x20b
 4146 0961 ED090000 		.4byte	0x9ed
 4147 0965 14       		.uleb128 0x14
 4148 0966 AC000000 		.4byte	.LASF115
 4149 096a 0E       		.byte	0xe
 4150 096b 0F02     		.2byte	0x20f
 4151 096d 41090000 		.4byte	0x941
 4152 0971 02       		.byte	0x2
 4153 0972 23       		.byte	0x23
 4154 0973 00       		.uleb128 0
 4155 0974 14       		.uleb128 0x14
 4156 0975 A5000000 		.4byte	.LASF116
 4157 0979 0E       		.byte	0xe
 4158 097a 1302     		.2byte	0x213
 4159 097c 630A0000 		.4byte	0xa63
 4160 0980 02       		.byte	0x2
 4161 0981 23       		.byte	0x23
 4162 0982 04       		.uleb128 0x4
 4163 0983 14       		.uleb128 0x14
 4164 0984 8B060000 		.4byte	.LASF117
 4165 0988 0E       		.byte	0xe
 4166 0989 1802     		.2byte	0x218
 4167 098b 80020000 		.4byte	0x280
 4168 098f 02       		.byte	0x2
 4169 0990 23       		.byte	0x23
 4170 0991 08       		.uleb128 0x8
 4171 0992 14       		.uleb128 0x14
 4172 0993 AC030000 		.4byte	.LASF118
 4173 0997 0E       		.byte	0xe
 4174 0998 1F02     		.2byte	0x21f
 4175 099a A6040000 		.4byte	0x4a6
 4176 099e 02       		.byte	0x2
 4177 099f 23       		.byte	0x23
 4178 09a0 0C       		.uleb128 0xc
 4179 09a1 0D       		.uleb128 0xd
 4180 09a2 73706900 		.ascii	"spi\000"
 4181 09a6 0E       		.byte	0xe
 4182 09a7 2B02     		.2byte	0x22b
 4183 09a9 6E0A0000 		.4byte	0xa6e
 4184 09ad 02       		.byte	0x2
 4185 09ae 23       		.byte	0x23
 4186 09af 1C       		.uleb128 0x1c
 4187 09b0 14       		.uleb128 0x14
 4188 09b1 73030000 		.4byte	.LASF119
 4189 09b5 0E       		.byte	0xe
 4190 09b6 2F02     		.2byte	0x22f
 4191 09b8 FF080000 		.4byte	0x8ff
 4192 09bc 02       		.byte	0x2
 4193 09bd 23       		.byte	0x23
 4194 09be 20       		.uleb128 0x20
 4195 09bf 14       		.uleb128 0x14
ARM GAS  C:\Users\Vergil\AppData\Local\Temp\ccwNg35D.s 			page 75


 4196 09c0 E9030000 		.4byte	.LASF120
 4197 09c4 0E       		.byte	0xe
 4198 09c5 3302     		.2byte	0x233
 4199 09c7 FF080000 		.4byte	0x8ff
 4200 09cb 02       		.byte	0x2
 4201 09cc 23       		.byte	0x23
 4202 09cd 24       		.uleb128 0x24
 4203 09ce 14       		.uleb128 0x14
 4204 09cf C6030000 		.4byte	.LASF121
 4205 09d3 0E       		.byte	0xe
 4206 09d4 3702     		.2byte	0x237
 4207 09d6 B6000000 		.4byte	0xb6
 4208 09da 02       		.byte	0x2
 4209 09db 23       		.byte	0x23
 4210 09dc 28       		.uleb128 0x28
 4211 09dd 14       		.uleb128 0x14
 4212 09de D1070000 		.4byte	.LASF122
 4213 09e2 0E       		.byte	0xe
 4214 09e3 3B02     		.2byte	0x23b
 4215 09e5 B6000000 		.4byte	0xb6
 4216 09e9 02       		.byte	0x2
 4217 09ea 23       		.byte	0x23
 4218 09eb 2C       		.uleb128 0x2c
 4219 09ec 00       		.byte	0
 4220 09ed 15       		.uleb128 0x15
 4221 09ee 23040000 		.4byte	.LASF123
 4222 09f2 0E       		.byte	0xe
 4223 09f3 EF01     		.2byte	0x1ef
 4224 09f5 F9090000 		.4byte	0x9f9
 4225 09f9 05       		.uleb128 0x5
 4226 09fa 04       		.byte	0x4
 4227 09fb FF090000 		.4byte	0x9ff
 4228 09ff 1B       		.uleb128 0x1b
 4229 0a00 01       		.byte	0x1
 4230 0a01 0B0A0000 		.4byte	0xa0b
 4231 0a05 19       		.uleb128 0x19
 4232 0a06 0B0A0000 		.4byte	0xa0b
 4233 0a0a 00       		.byte	0
 4234 0a0b 05       		.uleb128 0x5
 4235 0a0c 04       		.byte	0x4
 4236 0a0d 4C090000 		.4byte	0x94c
 4237 0a11 13       		.uleb128 0x13
 4238 0a12 0C       		.byte	0xc
 4239 0a13 0E       		.byte	0xe
 4240 0a14 F401     		.2byte	0x1f4
 4241 0a16 570A0000 		.4byte	0xa57
 4242 0a1a 14       		.uleb128 0x14
 4243 0a1b E9000000 		.4byte	.LASF124
 4244 0a1f 0E       		.byte	0xe
 4245 0a20 F801     		.2byte	0x1f8
 4246 0a22 ED090000 		.4byte	0x9ed
 4247 0a26 02       		.byte	0x2
 4248 0a27 23       		.byte	0x23
 4249 0a28 00       		.uleb128 0
 4250 0a29 14       		.uleb128 0x14
 4251 0a2a 8F000000 		.4byte	.LASF125
 4252 0a2e 0E       		.byte	0xe
ARM GAS  C:\Users\Vergil\AppData\Local\Temp\ccwNg35D.s 			page 76


 4253 0a2f FD01     		.2byte	0x1fd
 4254 0a31 EE080000 		.4byte	0x8ee
 4255 0a35 02       		.byte	0x2
 4256 0a36 23       		.byte	0x23
 4257 0a37 04       		.uleb128 0x4
 4258 0a38 14       		.uleb128 0x14
 4259 0a39 BD070000 		.4byte	.LASF126
 4260 0a3d 0E       		.byte	0xe
 4261 0a3e 0102     		.2byte	0x201
 4262 0a40 A0000000 		.4byte	0xa0
 4263 0a44 02       		.byte	0x2
 4264 0a45 23       		.byte	0x23
 4265 0a46 08       		.uleb128 0x8
 4266 0a47 0D       		.uleb128 0xd
 4267 0a48 63723100 		.ascii	"cr1\000"
 4268 0a4c 0E       		.byte	0xe
 4269 0a4d 0502     		.2byte	0x205
 4270 0a4f A0000000 		.4byte	0xa0
 4271 0a53 02       		.byte	0x2
 4272 0a54 23       		.byte	0x23
 4273 0a55 0A       		.uleb128 0xa
 4274 0a56 00       		.byte	0
 4275 0a57 15       		.uleb128 0x15
 4276 0a58 19040000 		.4byte	.LASF127
 4277 0a5c 0E       		.byte	0xe
 4278 0a5d 0602     		.2byte	0x206
 4279 0a5f 110A0000 		.4byte	0xa11
 4280 0a63 05       		.uleb128 0x5
 4281 0a64 04       		.byte	0x4
 4282 0a65 690A0000 		.4byte	0xa69
 4283 0a69 06       		.uleb128 0x6
 4284 0a6a 570A0000 		.4byte	0xa57
 4285 0a6e 05       		.uleb128 0x5
 4286 0a6f 04       		.byte	0x4
 4287 0a70 9C060000 		.4byte	0x69c
 4288 0a74 0B       		.uleb128 0xb
 4289 0a75 0C       		.byte	0xc
 4290 0a76 0F       		.byte	0xf
 4291 0a77 56       		.byte	0x56
 4292 0a78 A70A0000 		.4byte	0xaa7
 4293 0a7c 09       		.uleb128 0x9
 4294 0a7d D5030000 		.4byte	.LASF128
 4295 0a81 0F       		.byte	0xf
 4296 0a82 5A       		.byte	0x5a
 4297 0a83 0B0A0000 		.4byte	0xa0b
 4298 0a87 02       		.byte	0x2
 4299 0a88 23       		.byte	0x23
 4300 0a89 00       		.uleb128 0
 4301 0a8a 09       		.uleb128 0x9
 4302 0a8b 41030000 		.4byte	.LASF129
 4303 0a8f 0F       		.byte	0xf
 4304 0a90 5E       		.byte	0x5e
 4305 0a91 630A0000 		.4byte	0xa63
 4306 0a95 02       		.byte	0x2
 4307 0a96 23       		.byte	0x23
 4308 0a97 04       		.uleb128 0x4
 4309 0a98 09       		.uleb128 0x9
ARM GAS  C:\Users\Vergil\AppData\Local\Temp\ccwNg35D.s 			page 77


 4310 0a99 2C070000 		.4byte	.LASF130
 4311 0a9d 0F       		.byte	0xf
 4312 0a9e 62       		.byte	0x62
 4313 0a9f 630A0000 		.4byte	0xa63
 4314 0aa3 02       		.byte	0x2
 4315 0aa4 23       		.byte	0x23
 4316 0aa5 08       		.uleb128 0x8
 4317 0aa6 00       		.byte	0
 4318 0aa7 07       		.uleb128 0x7
 4319 0aa8 23060000 		.4byte	.LASF131
 4320 0aac 0F       		.byte	0xf
 4321 0aad 63       		.byte	0x63
 4322 0aae 740A0000 		.4byte	0xa74
 4323 0ab2 08       		.uleb128 0x8
 4324 0ab3 1F070000 		.4byte	.LASF132
 4325 0ab7 20       		.byte	0x20
 4326 0ab8 0F       		.byte	0xf
 4327 0ab9 70       		.byte	0x70
 4328 0aba 2F0B0000 		.4byte	0xb2f
 4329 0abe 09       		.uleb128 0x9
 4330 0abf C4000000 		.4byte	.LASF133
 4331 0ac3 0F       		.byte	0xf
 4332 0ac4 71       		.byte	0x71
 4333 0ac5 98070000 		.4byte	0x798
 4334 0ac9 02       		.byte	0x2
 4335 0aca 23       		.byte	0x23
 4336 0acb 00       		.uleb128 0
 4337 0acc 09       		.uleb128 0x9
 4338 0acd 7F010000 		.4byte	.LASF134
 4339 0ad1 0F       		.byte	0xf
 4340 0ad2 71       		.byte	0x71
 4341 0ad3 98070000 		.4byte	0x798
 4342 0ad7 02       		.byte	0x2
 4343 0ad8 23       		.byte	0x23
 4344 0ad9 04       		.uleb128 0x4
 4345 0ada 09       		.uleb128 0x9
 4346 0adb 97030000 		.4byte	.LASF135
 4347 0adf 0F       		.byte	0xf
 4348 0ae0 71       		.byte	0x71
 4349 0ae1 98070000 		.4byte	0x798
 4350 0ae5 02       		.byte	0x2
 4351 0ae6 23       		.byte	0x23
 4352 0ae7 08       		.uleb128 0x8
 4353 0ae8 09       		.uleb128 0x9
 4354 0ae9 91050000 		.4byte	.LASF136
 4355 0aed 0F       		.byte	0xf
 4356 0aee 71       		.byte	0x71
 4357 0aef 98070000 		.4byte	0x798
 4358 0af3 02       		.byte	0x2
 4359 0af4 23       		.byte	0x23
 4360 0af5 0C       		.uleb128 0xc
 4361 0af6 09       		.uleb128 0x9
 4362 0af7 FD030000 		.4byte	.LASF137
 4363 0afb 0F       		.byte	0xf
 4364 0afc 71       		.byte	0x71
 4365 0afd BD070000 		.4byte	0x7bd
 4366 0b01 02       		.byte	0x2
ARM GAS  C:\Users\Vergil\AppData\Local\Temp\ccwNg35D.s 			page 78


 4367 0b02 23       		.byte	0x23
 4368 0b03 10       		.uleb128 0x10
 4369 0b04 09       		.uleb128 0x9
 4370 0b05 9F000000 		.4byte	.LASF138
 4371 0b09 0F       		.byte	0xf
 4372 0b0a 71       		.byte	0x71
 4373 0b0b E2070000 		.4byte	0x7e2
 4374 0b0f 02       		.byte	0x2
 4375 0b10 23       		.byte	0x23
 4376 0b11 14       		.uleb128 0x14
 4377 0b12 09       		.uleb128 0x9
 4378 0b13 A7030000 		.4byte	.LASF139
 4379 0b17 0F       		.byte	0xf
 4380 0b18 71       		.byte	0x71
 4381 0b19 98070000 		.4byte	0x798
 4382 0b1d 02       		.byte	0x2
 4383 0b1e 23       		.byte	0x23
 4384 0b1f 18       		.uleb128 0x18
 4385 0b20 09       		.uleb128 0x9
 4386 0b21 50000000 		.4byte	.LASF140
 4387 0b25 0F       		.byte	0xf
 4388 0b26 71       		.byte	0x71
 4389 0b27 03080000 		.4byte	0x803
 4390 0b2b 02       		.byte	0x2
 4391 0b2c 23       		.byte	0x23
 4392 0b2d 1C       		.uleb128 0x1c
 4393 0b2e 00       		.byte	0
 4394 0b2f 0B       		.uleb128 0xb
 4395 0b30 34       		.byte	0x34
 4396 0b31 0F       		.byte	0xf
 4397 0b32 79       		.byte	0x79
 4398 0b33 9A0B0000 		.4byte	0xb9a
 4399 0b37 0A       		.uleb128 0xa
 4400 0b38 766D7400 		.ascii	"vmt\000"
 4401 0b3c 0F       		.byte	0xf
 4402 0b3d 7D       		.byte	0x7d
 4403 0b3e 9A0B0000 		.4byte	0xb9a
 4404 0b42 02       		.byte	0x2
 4405 0b43 23       		.byte	0x23
 4406 0b44 00       		.uleb128 0
 4407 0b45 09       		.uleb128 0x9
 4408 0b46 AC000000 		.4byte	.LASF115
 4409 0b4a 0F       		.byte	0xf
 4410 0b4b 7E       		.byte	0x7e
 4411 0b4c 4D070000 		.4byte	0x74d
 4412 0b50 02       		.byte	0x2
 4413 0b51 23       		.byte	0x23
 4414 0b52 04       		.uleb128 0x4
 4415 0b53 0A       		.uleb128 0xa
 4416 0b54 63696400 		.ascii	"cid\000"
 4417 0b58 0F       		.byte	0xf
 4418 0b59 7E       		.byte	0x7e
 4419 0b5a FD040000 		.4byte	0x4fd
 4420 0b5e 02       		.byte	0x2
 4421 0b5f 23       		.byte	0x23
 4422 0b60 08       		.uleb128 0x8
 4423 0b61 0A       		.uleb128 0xa
ARM GAS  C:\Users\Vergil\AppData\Local\Temp\ccwNg35D.s 			page 79


 4424 0b62 63736400 		.ascii	"csd\000"
 4425 0b66 0F       		.byte	0xf
 4426 0b67 7E       		.byte	0x7e
 4427 0b68 FD040000 		.4byte	0x4fd
 4428 0b6c 02       		.byte	0x2
 4429 0b6d 23       		.byte	0x23
 4430 0b6e 18       		.uleb128 0x18
 4431 0b6f 09       		.uleb128 0x9
 4432 0b70 63020000 		.4byte	.LASF141
 4433 0b74 0F       		.byte	0xf
 4434 0b75 7E       		.byte	0x7e
 4435 0b76 B6000000 		.4byte	0xb6
 4436 0b7a 02       		.byte	0x2
 4437 0b7b 23       		.byte	0x23
 4438 0b7c 28       		.uleb128 0x28
 4439 0b7d 09       		.uleb128 0x9
 4440 0b7e A5000000 		.4byte	.LASF116
 4441 0b82 0F       		.byte	0xf
 4442 0b83 82       		.byte	0x82
 4443 0b84 A50B0000 		.4byte	0xba5
 4444 0b88 02       		.byte	0x2
 4445 0b89 23       		.byte	0x23
 4446 0b8a 2C       		.uleb128 0x2c
 4447 0b8b 09       		.uleb128 0x9
 4448 0b8c 07070000 		.4byte	.LASF142
 4449 0b90 0F       		.byte	0xf
 4450 0b91 86       		.byte	0x86
 4451 0b92 C1000000 		.4byte	0xc1
 4452 0b96 02       		.byte	0x2
 4453 0b97 23       		.byte	0x23
 4454 0b98 30       		.uleb128 0x30
 4455 0b99 00       		.byte	0
 4456 0b9a 05       		.uleb128 0x5
 4457 0b9b 04       		.byte	0x4
 4458 0b9c A00B0000 		.4byte	0xba0
 4459 0ba0 06       		.uleb128 0x6
 4460 0ba1 B20A0000 		.4byte	0xab2
 4461 0ba5 05       		.uleb128 0x5
 4462 0ba6 04       		.byte	0x4
 4463 0ba7 AB0B0000 		.4byte	0xbab
 4464 0bab 06       		.uleb128 0x6
 4465 0bac A70A0000 		.4byte	0xaa7
 4466 0bb0 07       		.uleb128 0x7
 4467 0bb1 2B030000 		.4byte	.LASF143
 4468 0bb5 0F       		.byte	0xf
 4469 0bb6 87       		.byte	0x87
 4470 0bb7 2F0B0000 		.4byte	0xb2f
 4471 0bbb 1C       		.uleb128 0x1c
 4472 0bbc 9D020000 		.4byte	.LASF148
 4473 0bc0 01       		.byte	0x1
 4474 0bc1 96       		.byte	0x96
 4475 0bc2 01       		.byte	0x1
 4476 0bc3 95000000 		.4byte	0x95
 4477 0bc7 01       		.byte	0x1
 4478 0bc8 EE0B0000 		.4byte	0xbee
 4479 0bcc 1D       		.uleb128 0x1d
 4480 0bcd 63726300 		.ascii	"crc\000"
ARM GAS  C:\Users\Vergil\AppData\Local\Temp\ccwNg35D.s 			page 80


 4481 0bd1 01       		.byte	0x1
 4482 0bd2 96       		.byte	0x96
 4483 0bd3 95000000 		.4byte	0x95
 4484 0bd7 1E       		.uleb128 0x1e
 4485 0bd8 B4020000 		.4byte	.LASF144
 4486 0bdc 01       		.byte	0x1
 4487 0bdd 96       		.byte	0x96
 4488 0bde F2040000 		.4byte	0x4f2
 4489 0be2 1D       		.uleb128 0x1d
 4490 0be3 6C656E00 		.ascii	"len\000"
 4491 0be7 01       		.byte	0x1
 4492 0be8 96       		.byte	0x96
 4493 0be9 8A000000 		.4byte	0x8a
 4494 0bed 00       		.byte	0
 4495 0bee 1F       		.uleb128 0x1f
 4496 0bef 01       		.byte	0x1
 4497 0bf0 AA010000 		.4byte	.LASF146
 4498 0bf4 01       		.byte	0x1
 4499 0bf5 4E03     		.2byte	0x34e
 4500 0bf7 01       		.byte	0x1
 4501 0bf8 C1000000 		.4byte	0xc1
 4502 0bfc 01       		.byte	0x1
 4503 0bfd 0E0C0000 		.4byte	0xc0e
 4504 0c01 20       		.uleb128 0x20
 4505 0c02 0D030000 		.4byte	.LASF145
 4506 0c06 01       		.byte	0x1
 4507 0c07 4E03     		.2byte	0x34e
 4508 0c09 0E0C0000 		.4byte	0xc0e
 4509 0c0d 00       		.byte	0
 4510 0c0e 05       		.uleb128 0x5
 4511 0c0f 04       		.byte	0x4
 4512 0c10 B00B0000 		.4byte	0xbb0
 4513 0c14 1F       		.uleb128 0x1f
 4514 0c15 01       		.byte	0x1
 4515 0c16 A5050000 		.4byte	.LASF147
 4516 0c1a 01       		.byte	0x1
 4517 0c1b 4B02     		.2byte	0x24b
 4518 0c1d 01       		.byte	0x1
 4519 0c1e C1000000 		.4byte	0xc1
 4520 0c22 01       		.byte	0x1
 4521 0c23 660C0000 		.4byte	0xc66
 4522 0c27 20       		.uleb128 0x20
 4523 0c28 0D030000 		.4byte	.LASF145
 4524 0c2c 01       		.byte	0x1
 4525 0c2d 4B02     		.2byte	0x24b
 4526 0c2f 0E0C0000 		.4byte	0xc0e
 4527 0c33 21       		.uleb128 0x21
 4528 0c34 450C0000 		.4byte	0xc45
 4529 0c38 22       		.uleb128 0x22
 4530 0c39 746D7000 		.ascii	"tmp\000"
 4531 0c3d 01       		.byte	0x1
 4532 0c3e 4F02     		.2byte	0x24f
 4533 0c40 B6000000 		.4byte	0xb6
 4534 0c44 00       		.byte	0
 4535 0c45 21       		.uleb128 0x21
 4536 0c46 570C0000 		.4byte	0xc57
 4537 0c4a 22       		.uleb128 0x22
ARM GAS  C:\Users\Vergil\AppData\Local\Temp\ccwNg35D.s 			page 81


 4538 0c4b 746D7000 		.ascii	"tmp\000"
 4539 0c4f 01       		.byte	0x1
 4540 0c50 5302     		.2byte	0x253
 4541 0c52 B6000000 		.4byte	0xb6
 4542 0c56 00       		.byte	0
 4543 0c57 23       		.uleb128 0x23
 4544 0c58 22       		.uleb128 0x22
 4545 0c59 746D7000 		.ascii	"tmp\000"
 4546 0c5d 01       		.byte	0x1
 4547 0c5e 5702     		.2byte	0x257
 4548 0c60 B6000000 		.4byte	0xb6
 4549 0c64 00       		.byte	0
 4550 0c65 00       		.byte	0
 4551 0c66 1C       		.uleb128 0x1c
 4552 0c67 86000000 		.4byte	.LASF149
 4553 0c6b 01       		.byte	0x1
 4554 0c6c 6E       		.byte	0x6e
 4555 0c6d 01       		.byte	0x1
 4556 0c6e C1000000 		.4byte	0xc1
 4557 0c72 01       		.byte	0x1
 4558 0c73 A20C0000 		.4byte	0xca2
 4559 0c77 1E       		.uleb128 0x1e
 4560 0c78 96000000 		.4byte	.LASF150
 4561 0c7c 01       		.byte	0x1
 4562 0c7d 6E       		.byte	0x6e
 4563 0c7e 6F000000 		.4byte	0x6f
 4564 0c82 1E       		.uleb128 0x1e
 4565 0c83 01010000 		.4byte	.LASF151
 4566 0c87 01       		.byte	0x1
 4567 0c88 6E       		.byte	0x6e
 4568 0c89 B6000000 		.4byte	0xb6
 4569 0c8d 1E       		.uleb128 0x1e
 4570 0c8e B4020000 		.4byte	.LASF144
 4571 0c92 01       		.byte	0x1
 4572 0c93 6F       		.byte	0x6f
 4573 0c94 EC040000 		.4byte	0x4ec
 4574 0c98 1D       		.uleb128 0x1d
 4575 0c99 6E00     		.ascii	"n\000"
 4576 0c9b 01       		.byte	0x1
 4577 0c9c 6F       		.byte	0x6f
 4578 0c9d B6000000 		.4byte	0xb6
 4579 0ca1 00       		.byte	0
 4580 0ca2 1C       		.uleb128 0x1c
 4581 0ca3 A4040000 		.4byte	.LASF152
 4582 0ca7 01       		.byte	0x1
 4583 0ca8 7E       		.byte	0x7e
 4584 0ca9 01       		.byte	0x1
 4585 0caa C1000000 		.4byte	0xc1
 4586 0cae 01       		.byte	0x1
 4587 0caf DE0C0000 		.4byte	0xcde
 4588 0cb3 1E       		.uleb128 0x1e
 4589 0cb4 96000000 		.4byte	.LASF150
 4590 0cb8 01       		.byte	0x1
 4591 0cb9 7E       		.byte	0x7e
 4592 0cba 6F000000 		.4byte	0x6f
 4593 0cbe 1E       		.uleb128 0x1e
 4594 0cbf 01010000 		.4byte	.LASF151
ARM GAS  C:\Users\Vergil\AppData\Local\Temp\ccwNg35D.s 			page 82


 4595 0cc3 01       		.byte	0x1
 4596 0cc4 7E       		.byte	0x7e
 4597 0cc5 B6000000 		.4byte	0xb6
 4598 0cc9 1E       		.uleb128 0x1e
 4599 0cca B4020000 		.4byte	.LASF144
 4600 0cce 01       		.byte	0x1
 4601 0ccf 7F       		.byte	0x7f
 4602 0cd0 F2040000 		.4byte	0x4f2
 4603 0cd4 1D       		.uleb128 0x1d
 4604 0cd5 6E00     		.ascii	"n\000"
 4605 0cd7 01       		.byte	0x1
 4606 0cd8 7F       		.byte	0x7f
 4607 0cd9 B6000000 		.4byte	0xb6
 4608 0cdd 00       		.byte	0
 4609 0cde 24       		.uleb128 0x24
 4610 0cdf 01       		.byte	0x1
 4611 0ce0 CB010000 		.4byte	.LASF162
 4612 0ce4 01       		.byte	0x1
 4613 0ce5 6C03     		.2byte	0x36c
 4614 0ce7 01       		.byte	0x1
 4615 0ce8 C1000000 		.4byte	0xc1
 4616 0cec 00000000 		.4byte	.LFB142
 4617 0cf0 18000000 		.4byte	.LFE142
 4618 0cf4 02       		.byte	0x2
 4619 0cf5 7D       		.byte	0x7d
 4620 0cf6 00       		.sleb128 0
 4621 0cf7 01       		.byte	0x1
 4622 0cf8 1B0D0000 		.4byte	0xd1b
 4623 0cfc 25       		.uleb128 0x25
 4624 0cfd 0D030000 		.4byte	.LASF145
 4625 0d01 01       		.byte	0x1
 4626 0d02 6C03     		.2byte	0x36c
 4627 0d04 0E0C0000 		.4byte	0xc0e
 4628 0d08 00000000 		.4byte	.LLST0
 4629 0d0c 26       		.uleb128 0x26
 4630 0d0d C6010000 		.4byte	.LASF153
 4631 0d11 01       		.byte	0x1
 4632 0d12 6C03     		.2byte	0x36c
 4633 0d14 FD070000 		.4byte	0x7fd
 4634 0d18 01       		.byte	0x1
 4635 0d19 51       		.byte	0x51
 4636 0d1a 00       		.byte	0
 4637 0d1b 27       		.uleb128 0x27
 4638 0d1c 12030000 		.4byte	.LASF156
 4639 0d20 01       		.byte	0x1
 4640 0d21 DC       		.byte	0xdc
 4641 0d22 01       		.byte	0x1
 4642 0d23 95000000 		.4byte	0x95
 4643 0d27 00000000 		.4byte	.LFB123
 4644 0d2b BA000000 		.4byte	.LFE123
 4645 0d2f 3A000000 		.4byte	.LLST1
 4646 0d33 01       		.byte	0x1
 4647 0d34 3F0E0000 		.4byte	0xe3f
 4648 0d38 28       		.uleb128 0x28
 4649 0d39 0D030000 		.4byte	.LASF145
 4650 0d3d 01       		.byte	0x1
 4651 0d3e DC       		.byte	0xdc
ARM GAS  C:\Users\Vergil\AppData\Local\Temp\ccwNg35D.s 			page 83


 4652 0d3f 0E0C0000 		.4byte	0xc0e
 4653 0d43 66000000 		.4byte	.LLST2
 4654 0d47 29       		.uleb128 0x29
 4655 0d48 6900     		.ascii	"i\000"
 4656 0d4a 01       		.byte	0x1
 4657 0d4b DD       		.byte	0xdd
 4658 0d4c 45000000 		.4byte	0x45
 4659 0d50 84000000 		.4byte	.LLST3
 4660 0d54 2A       		.uleb128 0x2a
 4661 0d55 723100   		.ascii	"r1\000"
 4662 0d58 01       		.byte	0x1
 4663 0d59 DE       		.byte	0xde
 4664 0d5a 3F0E0000 		.4byte	0xe3f
 4665 0d5e 02       		.byte	0x2
 4666 0d5f 91       		.byte	0x91
 4667 0d60 74       		.sleb128 -12
 4668 0d61 2B       		.uleb128 0x2b
 4669 0d62 12000000 		.4byte	.LVL6
 4670 0d66 58220000 		.4byte	0x2258
 4671 0d6a 7A0D0000 		.4byte	0xd7a
 4672 0d6e 2C       		.uleb128 0x2c
 4673 0d6f 01       		.byte	0x1
 4674 0d70 52       		.byte	0x52
 4675 0d71 02       		.byte	0x2
 4676 0d72 91       		.byte	0x91
 4677 0d73 74       		.sleb128 -12
 4678 0d74 2C       		.uleb128 0x2c
 4679 0d75 01       		.byte	0x1
 4680 0d76 51       		.byte	0x51
 4681 0d77 01       		.byte	0x1
 4682 0d78 31       		.byte	0x31
 4683 0d79 00       		.byte	0
 4684 0d7a 2B       		.uleb128 0x2b
 4685 0d7b 26000000 		.4byte	.LVL8
 4686 0d7f 58220000 		.4byte	0x2258
 4687 0d83 930D0000 		.4byte	0xd93
 4688 0d87 2C       		.uleb128 0x2c
 4689 0d88 01       		.byte	0x1
 4690 0d89 52       		.byte	0x52
 4691 0d8a 02       		.byte	0x2
 4692 0d8b 91       		.byte	0x91
 4693 0d8c 74       		.sleb128 -12
 4694 0d8d 2C       		.uleb128 0x2c
 4695 0d8e 01       		.byte	0x1
 4696 0d8f 51       		.byte	0x51
 4697 0d90 01       		.byte	0x1
 4698 0d91 31       		.byte	0x31
 4699 0d92 00       		.byte	0
 4700 0d93 2B       		.uleb128 0x2b
 4701 0d94 3A000000 		.4byte	.LVL10
 4702 0d98 58220000 		.4byte	0x2258
 4703 0d9c AC0D0000 		.4byte	0xdac
 4704 0da0 2C       		.uleb128 0x2c
 4705 0da1 01       		.byte	0x1
 4706 0da2 52       		.byte	0x52
 4707 0da3 02       		.byte	0x2
 4708 0da4 91       		.byte	0x91
ARM GAS  C:\Users\Vergil\AppData\Local\Temp\ccwNg35D.s 			page 84


 4709 0da5 74       		.sleb128 -12
 4710 0da6 2C       		.uleb128 0x2c
 4711 0da7 01       		.byte	0x1
 4712 0da8 51       		.byte	0x51
 4713 0da9 01       		.byte	0x1
 4714 0daa 31       		.byte	0x31
 4715 0dab 00       		.byte	0
 4716 0dac 2B       		.uleb128 0x2b
 4717 0dad 4E000000 		.4byte	.LVL12
 4718 0db1 58220000 		.4byte	0x2258
 4719 0db5 C50D0000 		.4byte	0xdc5
 4720 0db9 2C       		.uleb128 0x2c
 4721 0dba 01       		.byte	0x1
 4722 0dbb 52       		.byte	0x52
 4723 0dbc 02       		.byte	0x2
 4724 0dbd 91       		.byte	0x91
 4725 0dbe 74       		.sleb128 -12
 4726 0dbf 2C       		.uleb128 0x2c
 4727 0dc0 01       		.byte	0x1
 4728 0dc1 51       		.byte	0x51
 4729 0dc2 01       		.byte	0x1
 4730 0dc3 31       		.byte	0x31
 4731 0dc4 00       		.byte	0
 4732 0dc5 2B       		.uleb128 0x2b
 4733 0dc6 62000000 		.4byte	.LVL14
 4734 0dca 58220000 		.4byte	0x2258
 4735 0dce DE0D0000 		.4byte	0xdde
 4736 0dd2 2C       		.uleb128 0x2c
 4737 0dd3 01       		.byte	0x1
 4738 0dd4 52       		.byte	0x52
 4739 0dd5 02       		.byte	0x2
 4740 0dd6 91       		.byte	0x91
 4741 0dd7 74       		.sleb128 -12
 4742 0dd8 2C       		.uleb128 0x2c
 4743 0dd9 01       		.byte	0x1
 4744 0dda 51       		.byte	0x51
 4745 0ddb 01       		.byte	0x1
 4746 0ddc 31       		.byte	0x31
 4747 0ddd 00       		.byte	0
 4748 0dde 2B       		.uleb128 0x2b
 4749 0ddf 76000000 		.4byte	.LVL16
 4750 0de3 58220000 		.4byte	0x2258
 4751 0de7 F70D0000 		.4byte	0xdf7
 4752 0deb 2C       		.uleb128 0x2c
 4753 0dec 01       		.byte	0x1
 4754 0ded 52       		.byte	0x52
 4755 0dee 02       		.byte	0x2
 4756 0def 91       		.byte	0x91
 4757 0df0 74       		.sleb128 -12
 4758 0df1 2C       		.uleb128 0x2c
 4759 0df2 01       		.byte	0x1
 4760 0df3 51       		.byte	0x51
 4761 0df4 01       		.byte	0x1
 4762 0df5 31       		.byte	0x31
 4763 0df6 00       		.byte	0
 4764 0df7 2B       		.uleb128 0x2b
 4765 0df8 8A000000 		.4byte	.LVL18
ARM GAS  C:\Users\Vergil\AppData\Local\Temp\ccwNg35D.s 			page 85


 4766 0dfc 58220000 		.4byte	0x2258
 4767 0e00 100E0000 		.4byte	0xe10
 4768 0e04 2C       		.uleb128 0x2c
 4769 0e05 01       		.byte	0x1
 4770 0e06 52       		.byte	0x52
 4771 0e07 02       		.byte	0x2
 4772 0e08 91       		.byte	0x91
 4773 0e09 74       		.sleb128 -12
 4774 0e0a 2C       		.uleb128 0x2c
 4775 0e0b 01       		.byte	0x1
 4776 0e0c 51       		.byte	0x51
 4777 0e0d 01       		.byte	0x1
 4778 0e0e 31       		.byte	0x31
 4779 0e0f 00       		.byte	0
 4780 0e10 2B       		.uleb128 0x2b
 4781 0e11 9E000000 		.4byte	.LVL20
 4782 0e15 58220000 		.4byte	0x2258
 4783 0e19 290E0000 		.4byte	0xe29
 4784 0e1d 2C       		.uleb128 0x2c
 4785 0e1e 01       		.byte	0x1
 4786 0e1f 52       		.byte	0x52
 4787 0e20 02       		.byte	0x2
 4788 0e21 91       		.byte	0x91
 4789 0e22 74       		.sleb128 -12
 4790 0e23 2C       		.uleb128 0x2c
 4791 0e24 01       		.byte	0x1
 4792 0e25 51       		.byte	0x51
 4793 0e26 01       		.byte	0x1
 4794 0e27 31       		.byte	0x31
 4795 0e28 00       		.byte	0
 4796 0e29 2D       		.uleb128 0x2d
 4797 0e2a B2000000 		.4byte	.LVL22
 4798 0e2e 58220000 		.4byte	0x2258
 4799 0e32 2C       		.uleb128 0x2c
 4800 0e33 01       		.byte	0x1
 4801 0e34 52       		.byte	0x52
 4802 0e35 02       		.byte	0x2
 4803 0e36 91       		.byte	0x91
 4804 0e37 74       		.sleb128 -12
 4805 0e38 2C       		.uleb128 0x2c
 4806 0e39 01       		.byte	0x1
 4807 0e3a 51       		.byte	0x51
 4808 0e3b 01       		.byte	0x1
 4809 0e3c 31       		.byte	0x31
 4810 0e3d 00       		.byte	0
 4811 0e3e 00       		.byte	0
 4812 0e3f 11       		.uleb128 0x11
 4813 0e40 95000000 		.4byte	0x95
 4814 0e44 4F0E0000 		.4byte	0xe4f
 4815 0e48 12       		.uleb128 0x12
 4816 0e49 68000000 		.4byte	0x68
 4817 0e4d 00       		.byte	0
 4818 0e4e 00       		.byte	0
 4819 0e4f 2E       		.uleb128 0x2e
 4820 0e50 D0030000 		.4byte	.LASF154
 4821 0e54 01       		.byte	0x1
 4822 0e55 A4       		.byte	0xa4
ARM GAS  C:\Users\Vergil\AppData\Local\Temp\ccwNg35D.s 			page 86


 4823 0e56 01       		.byte	0x1
 4824 0e57 00000000 		.4byte	.LFB121
 4825 0e5b 6C010000 		.4byte	.LFE121
 4826 0e5f F8000000 		.4byte	.LLST4
 4827 0e63 01       		.byte	0x1
 4828 0e64 4B100000 		.4byte	0x104b
 4829 0e68 28       		.uleb128 0x28
 4830 0e69 0D030000 		.4byte	.LASF145
 4831 0e6d 01       		.byte	0x1
 4832 0e6e A4       		.byte	0xa4
 4833 0e6f 0E0C0000 		.4byte	0xc0e
 4834 0e73 24010000 		.4byte	.LLST5
 4835 0e77 29       		.uleb128 0x29
 4836 0e78 6900     		.ascii	"i\000"
 4837 0e7a 01       		.byte	0x1
 4838 0e7b A5       		.byte	0xa5
 4839 0e7c 45000000 		.4byte	0x45
 4840 0e80 42010000 		.4byte	.LLST6
 4841 0e84 2A       		.uleb128 0x2a
 4842 0e85 62756600 		.ascii	"buf\000"
 4843 0e89 01       		.byte	0x1
 4844 0e8a A6       		.byte	0xa6
 4845 0e8b 4B100000 		.4byte	0x104b
 4846 0e8f 02       		.byte	0x2
 4847 0e90 91       		.byte	0x91
 4848 0e91 74       		.sleb128 -12
 4849 0e92 2B       		.uleb128 0x2b
 4850 0e93 12000000 		.4byte	.LVL26
 4851 0e97 58220000 		.4byte	0x2258
 4852 0e9b AB0E0000 		.4byte	0xeab
 4853 0e9f 2C       		.uleb128 0x2c
 4854 0ea0 01       		.byte	0x1
 4855 0ea1 52       		.byte	0x52
 4856 0ea2 02       		.byte	0x2
 4857 0ea3 91       		.byte	0x91
 4858 0ea4 74       		.sleb128 -12
 4859 0ea5 2C       		.uleb128 0x2c
 4860 0ea6 01       		.byte	0x1
 4861 0ea7 51       		.byte	0x51
 4862 0ea8 01       		.byte	0x1
 4863 0ea9 31       		.byte	0x31
 4864 0eaa 00       		.byte	0
 4865 0eab 2B       		.uleb128 0x2b
 4866 0eac 28000000 		.4byte	.LVL28
 4867 0eb0 58220000 		.4byte	0x2258
 4868 0eb4 C40E0000 		.4byte	0xec4
 4869 0eb8 2C       		.uleb128 0x2c
 4870 0eb9 01       		.byte	0x1
 4871 0eba 52       		.byte	0x52
 4872 0ebb 02       		.byte	0x2
 4873 0ebc 91       		.byte	0x91
 4874 0ebd 74       		.sleb128 -12
 4875 0ebe 2C       		.uleb128 0x2c
 4876 0ebf 01       		.byte	0x1
 4877 0ec0 51       		.byte	0x51
 4878 0ec1 01       		.byte	0x1
 4879 0ec2 31       		.byte	0x31
ARM GAS  C:\Users\Vergil\AppData\Local\Temp\ccwNg35D.s 			page 87


 4880 0ec3 00       		.byte	0
 4881 0ec4 2B       		.uleb128 0x2b
 4882 0ec5 3E000000 		.4byte	.LVL30
 4883 0ec9 58220000 		.4byte	0x2258
 4884 0ecd DD0E0000 		.4byte	0xedd
 4885 0ed1 2C       		.uleb128 0x2c
 4886 0ed2 01       		.byte	0x1
 4887 0ed3 52       		.byte	0x52
 4888 0ed4 02       		.byte	0x2
 4889 0ed5 91       		.byte	0x91
 4890 0ed6 74       		.sleb128 -12
 4891 0ed7 2C       		.uleb128 0x2c
 4892 0ed8 01       		.byte	0x1
 4893 0ed9 51       		.byte	0x51
 4894 0eda 01       		.byte	0x1
 4895 0edb 31       		.byte	0x31
 4896 0edc 00       		.byte	0
 4897 0edd 2B       		.uleb128 0x2b
 4898 0ede 54000000 		.4byte	.LVL32
 4899 0ee2 58220000 		.4byte	0x2258
 4900 0ee6 F60E0000 		.4byte	0xef6
 4901 0eea 2C       		.uleb128 0x2c
 4902 0eeb 01       		.byte	0x1
 4903 0eec 52       		.byte	0x52
 4904 0eed 02       		.byte	0x2
 4905 0eee 91       		.byte	0x91
 4906 0eef 74       		.sleb128 -12
 4907 0ef0 2C       		.uleb128 0x2c
 4908 0ef1 01       		.byte	0x1
 4909 0ef2 51       		.byte	0x51
 4910 0ef3 01       		.byte	0x1
 4911 0ef4 31       		.byte	0x31
 4912 0ef5 00       		.byte	0
 4913 0ef6 2B       		.uleb128 0x2b
 4914 0ef7 68000000 		.4byte	.LVL34
 4915 0efb 58220000 		.4byte	0x2258
 4916 0eff 0F0F0000 		.4byte	0xf0f
 4917 0f03 2C       		.uleb128 0x2c
 4918 0f04 01       		.byte	0x1
 4919 0f05 52       		.byte	0x52
 4920 0f06 02       		.byte	0x2
 4921 0f07 91       		.byte	0x91
 4922 0f08 74       		.sleb128 -12
 4923 0f09 2C       		.uleb128 0x2c
 4924 0f0a 01       		.byte	0x1
 4925 0f0b 51       		.byte	0x51
 4926 0f0c 01       		.byte	0x1
 4927 0f0d 31       		.byte	0x31
 4928 0f0e 00       		.byte	0
 4929 0f0f 2B       		.uleb128 0x2b
 4930 0f10 7C000000 		.4byte	.LVL36
 4931 0f14 58220000 		.4byte	0x2258
 4932 0f18 280F0000 		.4byte	0xf28
 4933 0f1c 2C       		.uleb128 0x2c
 4934 0f1d 01       		.byte	0x1
 4935 0f1e 52       		.byte	0x52
 4936 0f1f 02       		.byte	0x2
ARM GAS  C:\Users\Vergil\AppData\Local\Temp\ccwNg35D.s 			page 88


 4937 0f20 91       		.byte	0x91
 4938 0f21 74       		.sleb128 -12
 4939 0f22 2C       		.uleb128 0x2c
 4940 0f23 01       		.byte	0x1
 4941 0f24 51       		.byte	0x51
 4942 0f25 01       		.byte	0x1
 4943 0f26 31       		.byte	0x31
 4944 0f27 00       		.byte	0
 4945 0f28 2B       		.uleb128 0x2b
 4946 0f29 90000000 		.4byte	.LVL38
 4947 0f2d 58220000 		.4byte	0x2258
 4948 0f31 410F0000 		.4byte	0xf41
 4949 0f35 2C       		.uleb128 0x2c
 4950 0f36 01       		.byte	0x1
 4951 0f37 52       		.byte	0x52
 4952 0f38 02       		.byte	0x2
 4953 0f39 91       		.byte	0x91
 4954 0f3a 74       		.sleb128 -12
 4955 0f3b 2C       		.uleb128 0x2c
 4956 0f3c 01       		.byte	0x1
 4957 0f3d 51       		.byte	0x51
 4958 0f3e 01       		.byte	0x1
 4959 0f3f 31       		.byte	0x31
 4960 0f40 00       		.byte	0
 4961 0f41 2B       		.uleb128 0x2b
 4962 0f42 A4000000 		.4byte	.LVL40
 4963 0f46 58220000 		.4byte	0x2258
 4964 0f4a 5A0F0000 		.4byte	0xf5a
 4965 0f4e 2C       		.uleb128 0x2c
 4966 0f4f 01       		.byte	0x1
 4967 0f50 52       		.byte	0x52
 4968 0f51 02       		.byte	0x2
 4969 0f52 91       		.byte	0x91
 4970 0f53 74       		.sleb128 -12
 4971 0f54 2C       		.uleb128 0x2c
 4972 0f55 01       		.byte	0x1
 4973 0f56 51       		.byte	0x51
 4974 0f57 01       		.byte	0x1
 4975 0f58 31       		.byte	0x31
 4976 0f59 00       		.byte	0
 4977 0f5a 2B       		.uleb128 0x2b
 4978 0f5b B8000000 		.4byte	.LVL42
 4979 0f5f 58220000 		.4byte	0x2258
 4980 0f63 730F0000 		.4byte	0xf73
 4981 0f67 2C       		.uleb128 0x2c
 4982 0f68 01       		.byte	0x1
 4983 0f69 52       		.byte	0x52
 4984 0f6a 02       		.byte	0x2
 4985 0f6b 91       		.byte	0x91
 4986 0f6c 74       		.sleb128 -12
 4987 0f6d 2C       		.uleb128 0x2c
 4988 0f6e 01       		.byte	0x1
 4989 0f6f 51       		.byte	0x51
 4990 0f70 01       		.byte	0x1
 4991 0f71 31       		.byte	0x31
 4992 0f72 00       		.byte	0
 4993 0f73 2B       		.uleb128 0x2b
ARM GAS  C:\Users\Vergil\AppData\Local\Temp\ccwNg35D.s 			page 89


 4994 0f74 CC000000 		.4byte	.LVL44
 4995 0f78 58220000 		.4byte	0x2258
 4996 0f7c 8C0F0000 		.4byte	0xf8c
 4997 0f80 2C       		.uleb128 0x2c
 4998 0f81 01       		.byte	0x1
 4999 0f82 52       		.byte	0x52
 5000 0f83 02       		.byte	0x2
 5001 0f84 91       		.byte	0x91
 5002 0f85 74       		.sleb128 -12
 5003 0f86 2C       		.uleb128 0x2c
 5004 0f87 01       		.byte	0x1
 5005 0f88 51       		.byte	0x51
 5006 0f89 01       		.byte	0x1
 5007 0f8a 31       		.byte	0x31
 5008 0f8b 00       		.byte	0
 5009 0f8c 2B       		.uleb128 0x2b
 5010 0f8d E0000000 		.4byte	.LVL46
 5011 0f91 58220000 		.4byte	0x2258
 5012 0f95 A50F0000 		.4byte	0xfa5
 5013 0f99 2C       		.uleb128 0x2c
 5014 0f9a 01       		.byte	0x1
 5015 0f9b 52       		.byte	0x52
 5016 0f9c 02       		.byte	0x2
 5017 0f9d 91       		.byte	0x91
 5018 0f9e 74       		.sleb128 -12
 5019 0f9f 2C       		.uleb128 0x2c
 5020 0fa0 01       		.byte	0x1
 5021 0fa1 51       		.byte	0x51
 5022 0fa2 01       		.byte	0x1
 5023 0fa3 31       		.byte	0x31
 5024 0fa4 00       		.byte	0
 5025 0fa5 2B       		.uleb128 0x2b
 5026 0fa6 F4000000 		.4byte	.LVL48
 5027 0faa 58220000 		.4byte	0x2258
 5028 0fae BE0F0000 		.4byte	0xfbe
 5029 0fb2 2C       		.uleb128 0x2c
 5030 0fb3 01       		.byte	0x1
 5031 0fb4 52       		.byte	0x52
 5032 0fb5 02       		.byte	0x2
 5033 0fb6 91       		.byte	0x91
 5034 0fb7 74       		.sleb128 -12
 5035 0fb8 2C       		.uleb128 0x2c
 5036 0fb9 01       		.byte	0x1
 5037 0fba 51       		.byte	0x51
 5038 0fbb 01       		.byte	0x1
 5039 0fbc 31       		.byte	0x31
 5040 0fbd 00       		.byte	0
 5041 0fbe 2B       		.uleb128 0x2b
 5042 0fbf 08010000 		.4byte	.LVL50
 5043 0fc3 58220000 		.4byte	0x2258
 5044 0fc7 D70F0000 		.4byte	0xfd7
 5045 0fcb 2C       		.uleb128 0x2c
 5046 0fcc 01       		.byte	0x1
 5047 0fcd 52       		.byte	0x52
 5048 0fce 02       		.byte	0x2
 5049 0fcf 91       		.byte	0x91
 5050 0fd0 74       		.sleb128 -12
ARM GAS  C:\Users\Vergil\AppData\Local\Temp\ccwNg35D.s 			page 90


 5051 0fd1 2C       		.uleb128 0x2c
 5052 0fd2 01       		.byte	0x1
 5053 0fd3 51       		.byte	0x51
 5054 0fd4 01       		.byte	0x1
 5055 0fd5 31       		.byte	0x31
 5056 0fd6 00       		.byte	0
 5057 0fd7 2B       		.uleb128 0x2b
 5058 0fd8 1C010000 		.4byte	.LVL52
 5059 0fdc 58220000 		.4byte	0x2258
 5060 0fe0 F00F0000 		.4byte	0xff0
 5061 0fe4 2C       		.uleb128 0x2c
 5062 0fe5 01       		.byte	0x1
 5063 0fe6 52       		.byte	0x52
 5064 0fe7 02       		.byte	0x2
 5065 0fe8 91       		.byte	0x91
 5066 0fe9 74       		.sleb128 -12
 5067 0fea 2C       		.uleb128 0x2c
 5068 0feb 01       		.byte	0x1
 5069 0fec 51       		.byte	0x51
 5070 0fed 01       		.byte	0x1
 5071 0fee 31       		.byte	0x31
 5072 0fef 00       		.byte	0
 5073 0ff0 2B       		.uleb128 0x2b
 5074 0ff1 30010000 		.4byte	.LVL54
 5075 0ff5 58220000 		.4byte	0x2258
 5076 0ff9 09100000 		.4byte	0x1009
 5077 0ffd 2C       		.uleb128 0x2c
 5078 0ffe 01       		.byte	0x1
 5079 0fff 52       		.byte	0x52
 5080 1000 02       		.byte	0x2
 5081 1001 91       		.byte	0x91
 5082 1002 74       		.sleb128 -12
 5083 1003 2C       		.uleb128 0x2c
 5084 1004 01       		.byte	0x1
 5085 1005 51       		.byte	0x51
 5086 1006 01       		.byte	0x1
 5087 1007 31       		.byte	0x31
 5088 1008 00       		.byte	0
 5089 1009 2B       		.uleb128 0x2b
 5090 100a 44010000 		.4byte	.LVL56
 5091 100e 58220000 		.4byte	0x2258
 5092 1012 22100000 		.4byte	0x1022
 5093 1016 2C       		.uleb128 0x2c
 5094 1017 01       		.byte	0x1
 5095 1018 52       		.byte	0x52
 5096 1019 02       		.byte	0x2
 5097 101a 91       		.byte	0x91
 5098 101b 74       		.sleb128 -12
 5099 101c 2C       		.uleb128 0x2c
 5100 101d 01       		.byte	0x1
 5101 101e 51       		.byte	0x51
 5102 101f 01       		.byte	0x1
 5103 1020 31       		.byte	0x31
 5104 1021 00       		.byte	0
 5105 1022 2B       		.uleb128 0x2b
 5106 1023 56010000 		.4byte	.LVL59
 5107 1027 77220000 		.4byte	0x2277
ARM GAS  C:\Users\Vergil\AppData\Local\Temp\ccwNg35D.s 			page 91


 5108 102b 35100000 		.4byte	0x1035
 5109 102f 2C       		.uleb128 0x2c
 5110 1030 01       		.byte	0x1
 5111 1031 50       		.byte	0x50
 5112 1032 01       		.byte	0x1
 5113 1033 31       		.byte	0x31
 5114 1034 00       		.byte	0
 5115 1035 2D       		.uleb128 0x2d
 5116 1036 62010000 		.4byte	.LVL60
 5117 103a 58220000 		.4byte	0x2258
 5118 103e 2C       		.uleb128 0x2c
 5119 103f 01       		.byte	0x1
 5120 1040 52       		.byte	0x52
 5121 1041 02       		.byte	0x2
 5122 1042 91       		.byte	0x91
 5123 1043 74       		.sleb128 -12
 5124 1044 2C       		.uleb128 0x2c
 5125 1045 01       		.byte	0x1
 5126 1046 51       		.byte	0x51
 5127 1047 01       		.byte	0x1
 5128 1048 31       		.byte	0x31
 5129 1049 00       		.byte	0
 5130 104a 00       		.byte	0
 5131 104b 11       		.uleb128 0x11
 5132 104c 95000000 		.4byte	0x95
 5133 1050 5B100000 		.4byte	0x105b
 5134 1054 12       		.uleb128 0x12
 5135 1055 68000000 		.4byte	0x68
 5136 1059 03       		.byte	0x3
 5137 105a 00       		.byte	0
 5138 105b 2E       		.uleb128 0x2e
 5139 105c E8060000 		.4byte	.LASF155
 5140 1060 01       		.byte	0x1
 5141 1061 C2       		.byte	0xc2
 5142 1062 01       		.byte	0x1
 5143 1063 00000000 		.4byte	.LFB122
 5144 1067 6E000000 		.4byte	.LFE122
 5145 106b 16020000 		.4byte	.LLST7
 5146 106f 01       		.byte	0x1
 5147 1070 05110000 		.4byte	0x1105
 5148 1074 28       		.uleb128 0x28
 5149 1075 0D030000 		.4byte	.LASF145
 5150 1079 01       		.byte	0x1
 5151 107a C2       		.byte	0xc2
 5152 107b 0E0C0000 		.4byte	0xc0e
 5153 107f 42020000 		.4byte	.LLST8
 5154 1083 2F       		.uleb128 0x2f
 5155 1084 636D6400 		.ascii	"cmd\000"
 5156 1088 01       		.byte	0x1
 5157 1089 C2       		.byte	0xc2
 5158 108a 95000000 		.4byte	0x95
 5159 108e 6E020000 		.4byte	.LLST9
 5160 1092 2F       		.uleb128 0x2f
 5161 1093 61726700 		.ascii	"arg\000"
 5162 1097 01       		.byte	0x1
 5163 1098 C2       		.byte	0xc2
 5164 1099 B6000000 		.4byte	0xb6
ARM GAS  C:\Users\Vergil\AppData\Local\Temp\ccwNg35D.s 			page 92


 5165 109d 8F020000 		.4byte	.LLST10
 5166 10a1 2A       		.uleb128 0x2a
 5167 10a2 62756600 		.ascii	"buf\000"
 5168 10a6 01       		.byte	0x1
 5169 10a7 C3       		.byte	0xc3
 5170 10a8 05110000 		.4byte	0x1105
 5171 10ac 02       		.byte	0x2
 5172 10ad 91       		.byte	0x91
 5173 10ae 68       		.sleb128 -24
 5174 10af 30       		.uleb128 0x30
 5175 10b0 BB0B0000 		.4byte	0xbbb
 5176 10b4 0E000000 		.4byte	.LBB7
 5177 10b8 00000000 		.4byte	.Ldebug_ranges0+0
 5178 10bc 01       		.byte	0x1
 5179 10bd CE       		.byte	0xce
 5180 10be DB100000 		.4byte	0x10db
 5181 10c2 31       		.uleb128 0x31
 5182 10c3 E20B0000 		.4byte	0xbe2
 5183 10c7 7F       		.sleb128 -1
 5184 10c8 32       		.uleb128 0x32
 5185 10c9 D70B0000 		.4byte	0xbd7
 5186 10cd 03       		.byte	0x3
 5187 10ce 91       		.byte	0x91
 5188 10cf 6D       		.sleb128 -19
 5189 10d0 9F       		.byte	0x9f
 5190 10d1 33       		.uleb128 0x33
 5191 10d2 CC0B0000 		.4byte	0xbcc
 5192 10d6 AD020000 		.4byte	.LLST11
 5193 10da 00       		.byte	0
 5194 10db 2B       		.uleb128 0x2b
 5195 10dc 0E000000 		.4byte	.LVL62
 5196 10e0 4F0E0000 		.4byte	0xe4f
 5197 10e4 EF100000 		.4byte	0x10ef
 5198 10e8 2C       		.uleb128 0x2c
 5199 10e9 01       		.byte	0x1
 5200 10ea 50       		.byte	0x50
 5201 10eb 02       		.byte	0x2
 5202 10ec 75       		.byte	0x75
 5203 10ed 00       		.sleb128 0
 5204 10ee 00       		.byte	0
 5205 10ef 2D       		.uleb128 0x2d
 5206 10f0 6A000000 		.4byte	.LVL66
 5207 10f4 8C220000 		.4byte	0x228c
 5208 10f8 2C       		.uleb128 0x2c
 5209 10f9 01       		.byte	0x1
 5210 10fa 52       		.byte	0x52
 5211 10fb 02       		.byte	0x2
 5212 10fc 7D       		.byte	0x7d
 5213 10fd 00       		.sleb128 0
 5214 10fe 2C       		.uleb128 0x2c
 5215 10ff 01       		.byte	0x1
 5216 1100 51       		.byte	0x51
 5217 1101 01       		.byte	0x1
 5218 1102 36       		.byte	0x36
 5219 1103 00       		.byte	0
 5220 1104 00       		.byte	0
 5221 1105 11       		.uleb128 0x11
ARM GAS  C:\Users\Vergil\AppData\Local\Temp\ccwNg35D.s 			page 93


 5222 1106 95000000 		.4byte	0x95
 5223 110a 15110000 		.4byte	0x1115
 5224 110e 12       		.uleb128 0x12
 5225 110f 68000000 		.4byte	0x68
 5226 1113 05       		.byte	0x5
 5227 1114 00       		.byte	0
 5228 1115 34       		.uleb128 0x34
 5229 1116 E7020000 		.4byte	.LASF157
 5230 111a 01       		.byte	0x1
 5231 111b 0601     		.2byte	0x106
 5232 111d 01       		.byte	0x1
 5233 111e 95000000 		.4byte	0x95
 5234 1122 00000000 		.4byte	.LFB125
 5235 1126 3E000000 		.4byte	.LFE125
 5236 112a E1020000 		.4byte	.LLST12
 5237 112e 01       		.byte	0x1
 5238 112f CB110000 		.4byte	0x11cb
 5239 1133 25       		.uleb128 0x25
 5240 1134 0D030000 		.4byte	.LASF145
 5241 1138 01       		.byte	0x1
 5242 1139 0601     		.2byte	0x106
 5243 113b 0E0C0000 		.4byte	0xc0e
 5244 113f 01030000 		.4byte	.LLST13
 5245 1143 35       		.uleb128 0x35
 5246 1144 636D6400 		.ascii	"cmd\000"
 5247 1148 01       		.byte	0x1
 5248 1149 0601     		.2byte	0x106
 5249 114b 95000000 		.4byte	0x95
 5250 114f 1F030000 		.4byte	.LLST14
 5251 1153 35       		.uleb128 0x35
 5252 1154 61726700 		.ascii	"arg\000"
 5253 1158 01       		.byte	0x1
 5254 1159 0601     		.2byte	0x106
 5255 115b B6000000 		.4byte	0xb6
 5256 115f 40030000 		.4byte	.LLST15
 5257 1163 36       		.uleb128 0x36
 5258 1164 723100   		.ascii	"r1\000"
 5259 1167 01       		.byte	0x1
 5260 1168 0701     		.2byte	0x107
 5261 116a 95000000 		.4byte	0x95
 5262 116e 6C030000 		.4byte	.LLST16
 5263 1172 37       		.uleb128 0x37
 5264 1173 10000000 		.4byte	.LVL69
 5265 1177 B2220000 		.4byte	0x22b2
 5266 117b 37       		.uleb128 0x37
 5267 117c 18000000 		.4byte	.LVL70
 5268 1180 C7220000 		.4byte	0x22c7
 5269 1184 2B       		.uleb128 0x2b
 5270 1185 22000000 		.4byte	.LVL71
 5271 1189 5B100000 		.4byte	0x105b
 5272 118d A4110000 		.4byte	0x11a4
 5273 1191 2C       		.uleb128 0x2c
 5274 1192 01       		.byte	0x1
 5275 1193 52       		.byte	0x52
 5276 1194 02       		.byte	0x2
 5277 1195 75       		.byte	0x75
 5278 1196 00       		.sleb128 0
ARM GAS  C:\Users\Vergil\AppData\Local\Temp\ccwNg35D.s 			page 94


 5279 1197 2C       		.uleb128 0x2c
 5280 1198 01       		.byte	0x1
 5281 1199 51       		.byte	0x51
 5282 119a 02       		.byte	0x2
 5283 119b 76       		.byte	0x76
 5284 119c 00       		.sleb128 0
 5285 119d 2C       		.uleb128 0x2c
 5286 119e 01       		.byte	0x1
 5287 119f 50       		.byte	0x50
 5288 11a0 02       		.byte	0x2
 5289 11a1 74       		.byte	0x74
 5290 11a2 00       		.sleb128 0
 5291 11a3 00       		.byte	0
 5292 11a4 2B       		.uleb128 0x2b
 5293 11a5 28000000 		.4byte	.LVL72
 5294 11a9 1B0D0000 		.4byte	0xd1b
 5295 11ad B8110000 		.4byte	0x11b8
 5296 11b1 2C       		.uleb128 0x2c
 5297 11b2 01       		.byte	0x1
 5298 11b3 50       		.byte	0x50
 5299 11b4 02       		.byte	0x2
 5300 11b5 74       		.byte	0x74
 5301 11b6 00       		.sleb128 0
 5302 11b7 00       		.byte	0
 5303 11b8 37       		.uleb128 0x37
 5304 11b9 32000000 		.4byte	.LVL75
 5305 11bd DC220000 		.4byte	0x22dc
 5306 11c1 37       		.uleb128 0x37
 5307 11c2 3A000000 		.4byte	.LVL76
 5308 11c6 F1220000 		.4byte	0x22f1
 5309 11ca 00       		.byte	0
 5310 11cb 1C       		.uleb128 0x1c
 5311 11cc 96040000 		.4byte	.LASF158
 5312 11d0 01       		.byte	0x1
 5313 11d1 F2       		.byte	0xf2
 5314 11d2 01       		.byte	0x1
 5315 11d3 95000000 		.4byte	0x95
 5316 11d7 01       		.byte	0x1
 5317 11d8 FD110000 		.4byte	0x11fd
 5318 11dc 1E       		.uleb128 0x1e
 5319 11dd 0D030000 		.4byte	.LASF145
 5320 11e1 01       		.byte	0x1
 5321 11e2 F2       		.byte	0xf2
 5322 11e3 0E0C0000 		.4byte	0xc0e
 5323 11e7 1E       		.uleb128 0x1e
 5324 11e8 B4020000 		.4byte	.LASF144
 5325 11ec 01       		.byte	0x1
 5326 11ed F2       		.byte	0xf2
 5327 11ee EC040000 		.4byte	0x4ec
 5328 11f2 38       		.uleb128 0x38
 5329 11f3 723100   		.ascii	"r1\000"
 5330 11f6 01       		.byte	0x1
 5331 11f7 F3       		.byte	0xf3
 5332 11f8 95000000 		.4byte	0x95
 5333 11fc 00       		.byte	0
 5334 11fd 34       		.uleb128 0x34
 5335 11fe F7020000 		.4byte	.LASF159
ARM GAS  C:\Users\Vergil\AppData\Local\Temp\ccwNg35D.s 			page 95


 5336 1202 01       		.byte	0x1
 5337 1203 2401     		.2byte	0x124
 5338 1205 01       		.byte	0x1
 5339 1206 95000000 		.4byte	0x95
 5340 120a 00000000 		.4byte	.LFB126
 5341 120e 4C000000 		.4byte	.LFE126
 5342 1212 8A030000 		.4byte	.LLST17
 5343 1216 01       		.byte	0x1
 5344 1217 0A130000 		.4byte	0x130a
 5345 121b 25       		.uleb128 0x25
 5346 121c 0D030000 		.4byte	.LASF145
 5347 1220 01       		.byte	0x1
 5348 1221 2401     		.2byte	0x124
 5349 1223 0E0C0000 		.4byte	0xc0e
 5350 1227 AA030000 		.4byte	.LLST18
 5351 122b 35       		.uleb128 0x35
 5352 122c 636D6400 		.ascii	"cmd\000"
 5353 1230 01       		.byte	0x1
 5354 1231 2401     		.2byte	0x124
 5355 1233 95000000 		.4byte	0x95
 5356 1237 C8030000 		.4byte	.LLST19
 5357 123b 35       		.uleb128 0x35
 5358 123c 61726700 		.ascii	"arg\000"
 5359 1240 01       		.byte	0x1
 5360 1241 2401     		.2byte	0x124
 5361 1243 B6000000 		.4byte	0xb6
 5362 1247 E9030000 		.4byte	.LLST20
 5363 124b 25       		.uleb128 0x25
 5364 124c FE060000 		.4byte	.LASF160
 5365 1250 01       		.byte	0x1
 5366 1251 2501     		.2byte	0x125
 5367 1253 EC040000 		.4byte	0x4ec
 5368 1257 15040000 		.4byte	.LLST21
 5369 125b 22       		.uleb128 0x22
 5370 125c 723100   		.ascii	"r1\000"
 5371 125f 01       		.byte	0x1
 5372 1260 2601     		.2byte	0x126
 5373 1262 95000000 		.4byte	0x95
 5374 1266 39       		.uleb128 0x39
 5375 1267 CB110000 		.4byte	0x11cb
 5376 126b 24000000 		.4byte	.LBB25
 5377 126f 38000000 		.4byte	.LBE25
 5378 1273 01       		.byte	0x1
 5379 1274 2C01     		.2byte	0x12c
 5380 1276 C5120000 		.4byte	0x12c5
 5381 127a 32       		.uleb128 0x32
 5382 127b E7110000 		.4byte	0x11e7
 5383 127f 01       		.byte	0x1
 5384 1280 57       		.byte	0x57
 5385 1281 32       		.uleb128 0x32
 5386 1282 DC110000 		.4byte	0x11dc
 5387 1286 01       		.byte	0x1
 5388 1287 54       		.byte	0x54
 5389 1288 3A       		.uleb128 0x3a
 5390 1289 24000000 		.4byte	.LBB26
 5391 128d 38000000 		.4byte	.LBE26
 5392 1291 3B       		.uleb128 0x3b
ARM GAS  C:\Users\Vergil\AppData\Local\Temp\ccwNg35D.s 			page 96


 5393 1292 F2110000 		.4byte	0x11f2
 5394 1296 33040000 		.4byte	.LLST22
 5395 129a 2B       		.uleb128 0x2b
 5396 129b 2A000000 		.4byte	.LVL82
 5397 129f 1B0D0000 		.4byte	0xd1b
 5398 12a3 AE120000 		.4byte	0x12ae
 5399 12a7 2C       		.uleb128 0x2c
 5400 12a8 01       		.byte	0x1
 5401 12a9 50       		.byte	0x50
 5402 12aa 02       		.byte	0x2
 5403 12ab 74       		.byte	0x74
 5404 12ac 00       		.sleb128 0
 5405 12ad 00       		.byte	0
 5406 12ae 2D       		.uleb128 0x2d
 5407 12af 38000000 		.4byte	.LVL86
 5408 12b3 58220000 		.4byte	0x2258
 5409 12b7 2C       		.uleb128 0x2c
 5410 12b8 01       		.byte	0x1
 5411 12b9 52       		.byte	0x52
 5412 12ba 02       		.byte	0x2
 5413 12bb 77       		.byte	0x77
 5414 12bc 00       		.sleb128 0
 5415 12bd 2C       		.uleb128 0x2c
 5416 12be 01       		.byte	0x1
 5417 12bf 51       		.byte	0x51
 5418 12c0 01       		.byte	0x1
 5419 12c1 34       		.byte	0x34
 5420 12c2 00       		.byte	0
 5421 12c3 00       		.byte	0
 5422 12c4 00       		.byte	0
 5423 12c5 37       		.uleb128 0x37
 5424 12c6 12000000 		.4byte	.LVL79
 5425 12ca B2220000 		.4byte	0x22b2
 5426 12ce 37       		.uleb128 0x37
 5427 12cf 1A000000 		.4byte	.LVL80
 5428 12d3 C7220000 		.4byte	0x22c7
 5429 12d7 2B       		.uleb128 0x2b
 5430 12d8 24000000 		.4byte	.LVL81
 5431 12dc 5B100000 		.4byte	0x105b
 5432 12e0 F7120000 		.4byte	0x12f7
 5433 12e4 2C       		.uleb128 0x2c
 5434 12e5 01       		.byte	0x1
 5435 12e6 52       		.byte	0x52
 5436 12e7 02       		.byte	0x2
 5437 12e8 75       		.byte	0x75
 5438 12e9 00       		.sleb128 0
 5439 12ea 2C       		.uleb128 0x2c
 5440 12eb 01       		.byte	0x1
 5441 12ec 51       		.byte	0x51
 5442 12ed 02       		.byte	0x2
 5443 12ee 76       		.byte	0x76
 5444 12ef 00       		.sleb128 0
 5445 12f0 2C       		.uleb128 0x2c
 5446 12f1 01       		.byte	0x1
 5447 12f2 50       		.byte	0x50
 5448 12f3 02       		.byte	0x2
 5449 12f4 74       		.byte	0x74
ARM GAS  C:\Users\Vergil\AppData\Local\Temp\ccwNg35D.s 			page 97


 5450 12f5 00       		.sleb128 0
 5451 12f6 00       		.byte	0
 5452 12f7 37       		.uleb128 0x37
 5453 12f8 40000000 		.4byte	.LVL87
 5454 12fc DC220000 		.4byte	0x22dc
 5455 1300 37       		.uleb128 0x37
 5456 1301 48000000 		.4byte	.LVL88
 5457 1305 F1220000 		.4byte	0x22f1
 5458 1309 00       		.byte	0
 5459 130a 3C       		.uleb128 0x3c
 5460 130b A7030000 		.4byte	.LASF139
 5461 130f 01       		.byte	0x1
 5462 1310 7101     		.2byte	0x171
 5463 1312 01       		.byte	0x1
 5464 1313 00000000 		.4byte	.LFB128
 5465 1317 46000000 		.4byte	.LFE128
 5466 131b 51040000 		.4byte	.LLST23
 5467 131f 01       		.byte	0x1
 5468 1320 94130000 		.4byte	0x1394
 5469 1324 25       		.uleb128 0x25
 5470 1325 0D030000 		.4byte	.LASF145
 5471 1329 01       		.byte	0x1
 5472 132a 7101     		.2byte	0x171
 5473 132c 0E0C0000 		.4byte	0xc0e
 5474 1330 7D040000 		.4byte	.LLST24
 5475 1334 3D       		.uleb128 0x3d
 5476 1335 62756600 		.ascii	"buf\000"
 5477 1339 01       		.byte	0x1
 5478 133a 7201     		.2byte	0x172
 5479 133c 3F0E0000 		.4byte	0xe3f
 5480 1340 02       		.byte	0x2
 5481 1341 91       		.byte	0x91
 5482 1342 74       		.sleb128 -12
 5483 1343 37       		.uleb128 0x37
 5484 1344 0E000000 		.4byte	.LVL91
 5485 1348 B2220000 		.4byte	0x22b2
 5486 134c 37       		.uleb128 0x37
 5487 134d 16000000 		.4byte	.LVL92
 5488 1351 C7220000 		.4byte	0x22c7
 5489 1355 2B       		.uleb128 0x2b
 5490 1356 1E000000 		.4byte	.LVL93
 5491 135a 77220000 		.4byte	0x2277
 5492 135e 68130000 		.4byte	0x1368
 5493 1362 2C       		.uleb128 0x2c
 5494 1363 01       		.byte	0x1
 5495 1364 50       		.byte	0x50
 5496 1365 01       		.byte	0x1
 5497 1366 31       		.byte	0x31
 5498 1367 00       		.byte	0
 5499 1368 2B       		.uleb128 0x2b
 5500 1369 2A000000 		.4byte	.LVL94
 5501 136d 58220000 		.4byte	0x2258
 5502 1371 81130000 		.4byte	0x1381
 5503 1375 2C       		.uleb128 0x2c
 5504 1376 01       		.byte	0x1
 5505 1377 52       		.byte	0x52
 5506 1378 02       		.byte	0x2
ARM GAS  C:\Users\Vergil\AppData\Local\Temp\ccwNg35D.s 			page 98


 5507 1379 91       		.byte	0x91
 5508 137a 74       		.sleb128 -12
 5509 137b 2C       		.uleb128 0x2c
 5510 137c 01       		.byte	0x1
 5511 137d 51       		.byte	0x51
 5512 137e 01       		.byte	0x1
 5513 137f 31       		.byte	0x31
 5514 1380 00       		.byte	0
 5515 1381 37       		.uleb128 0x37
 5516 1382 3A000000 		.4byte	.LVL95
 5517 1386 DC220000 		.4byte	0x22dc
 5518 138a 37       		.uleb128 0x37
 5519 138b 42000000 		.4byte	.LVL96
 5520 138f F1220000 		.4byte	0x22f1
 5521 1393 00       		.byte	0
 5522 1394 34       		.uleb128 0x34
 5523 1395 D0000000 		.4byte	.LASF161
 5524 1399 01       		.byte	0x1
 5525 139a 4001     		.2byte	0x140
 5526 139c 01       		.byte	0x1
 5527 139d C1000000 		.4byte	0xc1
 5528 13a1 00000000 		.4byte	.LFB127
 5529 13a5 4C010000 		.4byte	.LFE127
 5530 13a9 9B040000 		.4byte	.LLST25
 5531 13ad 01       		.byte	0x1
 5532 13ae DF140000 		.4byte	0x14df
 5533 13b2 25       		.uleb128 0x25
 5534 13b3 0D030000 		.4byte	.LASF145
 5535 13b7 01       		.byte	0x1
 5536 13b8 4001     		.2byte	0x140
 5537 13ba 0E0C0000 		.4byte	0xc0e
 5538 13be C8040000 		.4byte	.LLST26
 5539 13c2 35       		.uleb128 0x35
 5540 13c3 636D6400 		.ascii	"cmd\000"
 5541 13c7 01       		.byte	0x1
 5542 13c8 4001     		.2byte	0x140
 5543 13ca 95000000 		.4byte	0x95
 5544 13ce E6040000 		.4byte	.LLST27
 5545 13d2 35       		.uleb128 0x35
 5546 13d3 63786400 		.ascii	"cxd\000"
 5547 13d7 01       		.byte	0x1
 5548 13d8 4001     		.2byte	0x140
 5549 13da DF140000 		.4byte	0x14df
 5550 13de 07050000 		.4byte	.LLST28
 5551 13e2 22       		.uleb128 0x22
 5552 13e3 6900     		.ascii	"i\000"
 5553 13e5 01       		.byte	0x1
 5554 13e6 4101     		.2byte	0x141
 5555 13e8 4C000000 		.4byte	0x4c
 5556 13ec 36       		.uleb128 0x36
 5557 13ed 627000   		.ascii	"bp\000"
 5558 13f0 01       		.byte	0x1
 5559 13f1 4201     		.2byte	0x142
 5560 13f3 EC040000 		.4byte	0x4ec
 5561 13f7 25050000 		.4byte	.LLST29
 5562 13fb 3D       		.uleb128 0x3d
 5563 13fc 62756600 		.ascii	"buf\000"
ARM GAS  C:\Users\Vergil\AppData\Local\Temp\ccwNg35D.s 			page 99


 5564 1400 01       		.byte	0x1
 5565 1401 4201     		.2byte	0x142
 5566 1403 0A090000 		.4byte	0x90a
 5567 1407 02       		.byte	0x2
 5568 1408 91       		.byte	0x91
 5569 1409 48       		.sleb128 -56
 5570 140a 3E       		.uleb128 0x3e
 5571 140b 68000000 		.4byte	.LBB27
 5572 140f 2E010000 		.4byte	.LBE27
 5573 1413 65140000 		.4byte	0x1465
 5574 1417 36       		.uleb128 0x36
 5575 1418 777000   		.ascii	"wp\000"
 5576 141b 01       		.byte	0x1
 5577 141c 5401     		.2byte	0x154
 5578 141e DF140000 		.4byte	0x14df
 5579 1422 54050000 		.4byte	.LLST30
 5580 1426 2B       		.uleb128 0x2b
 5581 1427 74000000 		.4byte	.LVL106
 5582 142b 58220000 		.4byte	0x2258
 5583 142f 3F140000 		.4byte	0x143f
 5584 1433 2C       		.uleb128 0x2c
 5585 1434 01       		.byte	0x1
 5586 1435 52       		.byte	0x52
 5587 1436 02       		.byte	0x2
 5588 1437 91       		.byte	0x91
 5589 1438 48       		.sleb128 -56
 5590 1439 2C       		.uleb128 0x2c
 5591 143a 01       		.byte	0x1
 5592 143b 51       		.byte	0x51
 5593 143c 01       		.byte	0x1
 5594 143d 40       		.byte	0x40
 5595 143e 00       		.byte	0
 5596 143f 2B       		.uleb128 0x2b
 5597 1440 1C010000 		.4byte	.LVL109
 5598 1444 06230000 		.4byte	0x2306
 5599 1448 52140000 		.4byte	0x1452
 5600 144c 2C       		.uleb128 0x2c
 5601 144d 01       		.byte	0x1
 5602 144e 51       		.byte	0x51
 5603 144f 01       		.byte	0x1
 5604 1450 32       		.byte	0x32
 5605 1451 00       		.byte	0
 5606 1452 37       		.uleb128 0x37
 5607 1453 24010000 		.4byte	.LVL110
 5608 1457 DC220000 		.4byte	0x22dc
 5609 145b 37       		.uleb128 0x37
 5610 145c 2C010000 		.4byte	.LVL111
 5611 1460 F1220000 		.4byte	0x22f1
 5612 1464 00       		.byte	0
 5613 1465 37       		.uleb128 0x37
 5614 1466 14000000 		.4byte	.LVL99
 5615 146a B2220000 		.4byte	0x22b2
 5616 146e 37       		.uleb128 0x37
 5617 146f 1C000000 		.4byte	.LVL100
 5618 1473 C7220000 		.4byte	0x22c7
 5619 1477 2B       		.uleb128 0x2b
 5620 1478 26000000 		.4byte	.LVL101
ARM GAS  C:\Users\Vergil\AppData\Local\Temp\ccwNg35D.s 			page 100


 5621 147c 5B100000 		.4byte	0x105b
 5622 1480 96140000 		.4byte	0x1496
 5623 1484 2C       		.uleb128 0x2c
 5624 1485 01       		.byte	0x1
 5625 1486 52       		.byte	0x52
 5626 1487 01       		.byte	0x1
 5627 1488 30       		.byte	0x30
 5628 1489 2C       		.uleb128 0x2c
 5629 148a 01       		.byte	0x1
 5630 148b 51       		.byte	0x51
 5631 148c 02       		.byte	0x2
 5632 148d 76       		.byte	0x76
 5633 148e 00       		.sleb128 0
 5634 148f 2C       		.uleb128 0x2c
 5635 1490 01       		.byte	0x1
 5636 1491 50       		.byte	0x50
 5637 1492 02       		.byte	0x2
 5638 1493 74       		.byte	0x74
 5639 1494 00       		.sleb128 0
 5640 1495 00       		.byte	0
 5641 1496 2B       		.uleb128 0x2b
 5642 1497 2C000000 		.4byte	.LVL102
 5643 149b 1B0D0000 		.4byte	0xd1b
 5644 149f AA140000 		.4byte	0x14aa
 5645 14a3 2C       		.uleb128 0x2c
 5646 14a4 01       		.byte	0x1
 5647 14a5 50       		.byte	0x50
 5648 14a6 02       		.byte	0x2
 5649 14a7 74       		.byte	0x74
 5650 14a8 00       		.sleb128 0
 5651 14a9 00       		.byte	0
 5652 14aa 37       		.uleb128 0x37
 5653 14ab 40000000 		.4byte	.LVL104
 5654 14af 58220000 		.4byte	0x2258
 5655 14b3 2B       		.uleb128 0x2b
 5656 14b4 58000000 		.4byte	.LVL105
 5657 14b8 58220000 		.4byte	0x2258
 5658 14bc CC140000 		.4byte	0x14cc
 5659 14c0 2C       		.uleb128 0x2c
 5660 14c1 01       		.byte	0x1
 5661 14c2 52       		.byte	0x52
 5662 14c3 02       		.byte	0x2
 5663 14c4 91       		.byte	0x91
 5664 14c5 48       		.sleb128 -56
 5665 14c6 2C       		.uleb128 0x2c
 5666 14c7 01       		.byte	0x1
 5667 14c8 51       		.byte	0x51
 5668 14c9 01       		.byte	0x1
 5669 14ca 31       		.byte	0x31
 5670 14cb 00       		.byte	0
 5671 14cc 37       		.uleb128 0x37
 5672 14cd 3C010000 		.4byte	.LVL113
 5673 14d1 DC220000 		.4byte	0x22dc
 5674 14d5 37       		.uleb128 0x37
 5675 14d6 44010000 		.4byte	.LVL114
 5676 14da F1220000 		.4byte	0x22f1
 5677 14de 00       		.byte	0
ARM GAS  C:\Users\Vergil\AppData\Local\Temp\ccwNg35D.s 			page 101


 5678 14df 05       		.uleb128 0x5
 5679 14e0 04       		.byte	0x4
 5680 14e1 B6000000 		.4byte	0xb6
 5681 14e5 3F       		.uleb128 0x3f
 5682 14e6 01       		.byte	0x1
 5683 14e7 D6060000 		.4byte	.LASF163
 5684 14eb 01       		.byte	0x1
 5685 14ec D801     		.2byte	0x1d8
 5686 14ee 01       		.byte	0x1
 5687 14ef C1000000 		.4byte	0xc1
 5688 14f3 00000000 		.4byte	.LFB133
 5689 14f7 7C020000 		.4byte	.LFE133
 5690 14fb 76050000 		.4byte	.LLST31
 5691 14ff 01       		.byte	0x1
 5692 1500 BA190000 		.4byte	0x19ba
 5693 1504 25       		.uleb128 0x25
 5694 1505 0D030000 		.4byte	.LASF145
 5695 1509 01       		.byte	0x1
 5696 150a D801     		.2byte	0x1d8
 5697 150c 0E0C0000 		.4byte	0xc0e
 5698 1510 A2050000 		.4byte	.LLST32
 5699 1514 36       		.uleb128 0x36
 5700 1515 6900     		.ascii	"i\000"
 5701 1517 01       		.byte	0x1
 5702 1518 D901     		.2byte	0x1d9
 5703 151a 4C000000 		.4byte	0x4c
 5704 151e C0050000 		.4byte	.LLST33
 5705 1522 3D       		.uleb128 0x3d
 5706 1523 723300   		.ascii	"r3\000"
 5707 1526 01       		.byte	0x1
 5708 1527 DA01     		.2byte	0x1da
 5709 1529 4B100000 		.4byte	0x104b
 5710 152d 02       		.byte	0x2
 5711 152e 91       		.byte	0x91
 5712 152f 6C       		.sleb128 -20
 5713 1530 40       		.uleb128 0x40
 5714 1531 B6070000 		.4byte	.LASF178
 5715 1535 01       		.byte	0x1
 5716 1536 3902     		.2byte	0x239
 5717 1538 F4000000 		.4byte	.LDL1
 5718 153c 3E       		.uleb128 0x3e
 5719 153d 9C010000 		.4byte	.LBB28
 5720 1541 EC010000 		.4byte	.LBE28
 5721 1545 DF150000 		.4byte	0x15df
 5722 1549 36       		.uleb128 0x36
 5723 154a 6200     		.ascii	"b\000"
 5724 154c 01       		.byte	0x1
 5725 154d 1902     		.2byte	0x219
 5726 154f 95000000 		.4byte	0x95
 5727 1553 40060000 		.4byte	.LLST34
 5728 1557 37       		.uleb128 0x37
 5729 1558 A8010000 		.4byte	.LVL161
 5730 155c 77220000 		.4byte	0x2277
 5731 1560 2B       		.uleb128 0x2b
 5732 1561 B2010000 		.4byte	.LVL162
 5733 1565 15110000 		.4byte	0x1115
 5734 1569 7F150000 		.4byte	0x157f
ARM GAS  C:\Users\Vergil\AppData\Local\Temp\ccwNg35D.s 			page 102


 5735 156d 2C       		.uleb128 0x2c
 5736 156e 01       		.byte	0x1
 5737 156f 52       		.byte	0x52
 5738 1570 01       		.byte	0x1
 5739 1571 30       		.byte	0x30
 5740 1572 2C       		.uleb128 0x2c
 5741 1573 01       		.byte	0x1
 5742 1574 51       		.byte	0x51
 5743 1575 02       		.byte	0x2
 5744 1576 75       		.byte	0x75
 5745 1577 00       		.sleb128 0
 5746 1578 2C       		.uleb128 0x2c
 5747 1579 01       		.byte	0x1
 5748 157a 50       		.byte	0x50
 5749 157b 02       		.byte	0x2
 5750 157c 74       		.byte	0x74
 5751 157d 00       		.sleb128 0
 5752 157e 00       		.byte	0
 5753 157f 2B       		.uleb128 0x2b
 5754 1580 C0010000 		.4byte	.LVL164
 5755 1584 77220000 		.4byte	0x2277
 5756 1588 92150000 		.4byte	0x1592
 5757 158c 2C       		.uleb128 0x2c
 5758 158d 01       		.byte	0x1
 5759 158e 50       		.byte	0x50
 5760 158f 01       		.byte	0x1
 5761 1590 3A       		.byte	0x3a
 5762 1591 00       		.byte	0
 5763 1592 2B       		.uleb128 0x2b
 5764 1593 CA010000 		.4byte	.LVL165
 5765 1597 15110000 		.4byte	0x1115
 5766 159b B1150000 		.4byte	0x15b1
 5767 159f 2C       		.uleb128 0x2c
 5768 15a0 01       		.byte	0x1
 5769 15a1 52       		.byte	0x52
 5770 15a2 01       		.byte	0x1
 5771 15a3 30       		.byte	0x30
 5772 15a4 2C       		.uleb128 0x2c
 5773 15a5 01       		.byte	0x1
 5774 15a6 51       		.byte	0x51
 5775 15a7 02       		.byte	0x2
 5776 15a8 75       		.byte	0x75
 5777 15a9 00       		.sleb128 0
 5778 15aa 2C       		.uleb128 0x2c
 5779 15ab 01       		.byte	0x1
 5780 15ac 50       		.byte	0x50
 5781 15ad 02       		.byte	0x2
 5782 15ae 74       		.byte	0x74
 5783 15af 00       		.sleb128 0
 5784 15b0 00       		.byte	0
 5785 15b1 2B       		.uleb128 0x2b
 5786 15b2 DA010000 		.4byte	.LVL166
 5787 15b6 77220000 		.4byte	0x2277
 5788 15ba C4150000 		.4byte	0x15c4
 5789 15be 2C       		.uleb128 0x2c
 5790 15bf 01       		.byte	0x1
 5791 15c0 50       		.byte	0x50
ARM GAS  C:\Users\Vergil\AppData\Local\Temp\ccwNg35D.s 			page 103


 5792 15c1 01       		.byte	0x1
 5793 15c2 3A       		.byte	0x3a
 5794 15c3 00       		.byte	0
 5795 15c4 2D       		.uleb128 0x2d
 5796 15c5 E4010000 		.4byte	.LVL167
 5797 15c9 15110000 		.4byte	0x1115
 5798 15cd 2C       		.uleb128 0x2c
 5799 15ce 01       		.byte	0x1
 5800 15cf 52       		.byte	0x52
 5801 15d0 01       		.byte	0x1
 5802 15d1 30       		.byte	0x30
 5803 15d2 2C       		.uleb128 0x2c
 5804 15d3 01       		.byte	0x1
 5805 15d4 51       		.byte	0x51
 5806 15d5 01       		.byte	0x1
 5807 15d6 31       		.byte	0x31
 5808 15d7 2C       		.uleb128 0x2c
 5809 15d8 01       		.byte	0x1
 5810 15d9 50       		.byte	0x50
 5811 15da 02       		.byte	0x2
 5812 15db 74       		.byte	0x74
 5813 15dc 00       		.sleb128 0
 5814 15dd 00       		.byte	0
 5815 15de 00       		.byte	0
 5816 15df 37       		.uleb128 0x37
 5817 15e0 18000000 		.4byte	.LVL117
 5818 15e4 B2220000 		.4byte	0x22b2
 5819 15e8 37       		.uleb128 0x37
 5820 15e9 20000000 		.4byte	.LVL118
 5821 15ed 20230000 		.4byte	0x2320
 5822 15f1 2B       		.uleb128 0x2b
 5823 15f2 2A000000 		.4byte	.LVL119
 5824 15f6 06230000 		.4byte	0x2306
 5825 15fa 04160000 		.4byte	0x1604
 5826 15fe 2C       		.uleb128 0x2c
 5827 15ff 01       		.byte	0x1
 5828 1600 51       		.byte	0x51
 5829 1601 01       		.byte	0x1
 5830 1602 40       		.byte	0x40
 5831 1603 00       		.byte	0
 5832 1604 37       		.uleb128 0x37
 5833 1605 32000000 		.4byte	.LVL120
 5834 1609 F1220000 		.4byte	0x22f1
 5835 160d 2B       		.uleb128 0x2b
 5836 160e 3C000000 		.4byte	.LVL121
 5837 1612 15110000 		.4byte	0x1115
 5838 1616 2D160000 		.4byte	0x162d
 5839 161a 2C       		.uleb128 0x2c
 5840 161b 01       		.byte	0x1
 5841 161c 52       		.byte	0x52
 5842 161d 02       		.byte	0x2
 5843 161e 75       		.byte	0x75
 5844 161f 00       		.sleb128 0
 5845 1620 2C       		.uleb128 0x2c
 5846 1621 01       		.byte	0x1
 5847 1622 51       		.byte	0x51
 5848 1623 02       		.byte	0x2
ARM GAS  C:\Users\Vergil\AppData\Local\Temp\ccwNg35D.s 			page 104


 5849 1624 75       		.byte	0x75
 5850 1625 00       		.sleb128 0
 5851 1626 2C       		.uleb128 0x2c
 5852 1627 01       		.byte	0x1
 5853 1628 50       		.byte	0x50
 5854 1629 02       		.byte	0x2
 5855 162a 74       		.byte	0x74
 5856 162b 00       		.sleb128 0
 5857 162c 00       		.byte	0
 5858 162d 2B       		.uleb128 0x2b
 5859 162e 46000000 		.4byte	.LVL123
 5860 1632 77220000 		.4byte	0x2277
 5861 1636 40160000 		.4byte	0x1640
 5862 163a 2C       		.uleb128 0x2c
 5863 163b 01       		.byte	0x1
 5864 163c 50       		.byte	0x50
 5865 163d 01       		.byte	0x1
 5866 163e 3A       		.byte	0x3a
 5867 163f 00       		.byte	0
 5868 1640 2B       		.uleb128 0x2b
 5869 1641 50000000 		.4byte	.LVL124
 5870 1645 15110000 		.4byte	0x1115
 5871 1649 60160000 		.4byte	0x1660
 5872 164d 2C       		.uleb128 0x2c
 5873 164e 01       		.byte	0x1
 5874 164f 52       		.byte	0x52
 5875 1650 02       		.byte	0x2
 5876 1651 75       		.byte	0x75
 5877 1652 00       		.sleb128 0
 5878 1653 2C       		.uleb128 0x2c
 5879 1654 01       		.byte	0x1
 5880 1655 51       		.byte	0x51
 5881 1656 02       		.byte	0x2
 5882 1657 75       		.byte	0x75
 5883 1658 00       		.sleb128 0
 5884 1659 2C       		.uleb128 0x2c
 5885 165a 01       		.byte	0x1
 5886 165b 50       		.byte	0x50
 5887 165c 02       		.byte	0x2
 5888 165d 74       		.byte	0x74
 5889 165e 00       		.sleb128 0
 5890 165f 00       		.byte	0
 5891 1660 2B       		.uleb128 0x2b
 5892 1661 5A000000 		.4byte	.LVL126
 5893 1665 77220000 		.4byte	0x2277
 5894 1669 73160000 		.4byte	0x1673
 5895 166d 2C       		.uleb128 0x2c
 5896 166e 01       		.byte	0x1
 5897 166f 50       		.byte	0x50
 5898 1670 01       		.byte	0x1
 5899 1671 3A       		.byte	0x3a
 5900 1672 00       		.byte	0
 5901 1673 2B       		.uleb128 0x2b
 5902 1674 64000000 		.4byte	.LVL127
 5903 1678 15110000 		.4byte	0x1115
 5904 167c 93160000 		.4byte	0x1693
 5905 1680 2C       		.uleb128 0x2c
ARM GAS  C:\Users\Vergil\AppData\Local\Temp\ccwNg35D.s 			page 105


 5906 1681 01       		.byte	0x1
 5907 1682 52       		.byte	0x52
 5908 1683 02       		.byte	0x2
 5909 1684 75       		.byte	0x75
 5910 1685 00       		.sleb128 0
 5911 1686 2C       		.uleb128 0x2c
 5912 1687 01       		.byte	0x1
 5913 1688 51       		.byte	0x51
 5914 1689 02       		.byte	0x2
 5915 168a 75       		.byte	0x75
 5916 168b 00       		.sleb128 0
 5917 168c 2C       		.uleb128 0x2c
 5918 168d 01       		.byte	0x1
 5919 168e 50       		.byte	0x50
 5920 168f 02       		.byte	0x2
 5921 1690 74       		.byte	0x74
 5922 1691 00       		.sleb128 0
 5923 1692 00       		.byte	0
 5924 1693 2B       		.uleb128 0x2b
 5925 1694 6E000000 		.4byte	.LVL129
 5926 1698 77220000 		.4byte	0x2277
 5927 169c A6160000 		.4byte	0x16a6
 5928 16a0 2C       		.uleb128 0x2c
 5929 16a1 01       		.byte	0x1
 5930 16a2 50       		.byte	0x50
 5931 16a3 01       		.byte	0x1
 5932 16a4 3A       		.byte	0x3a
 5933 16a5 00       		.byte	0
 5934 16a6 2B       		.uleb128 0x2b
 5935 16a7 78000000 		.4byte	.LVL130
 5936 16ab 15110000 		.4byte	0x1115
 5937 16af C6160000 		.4byte	0x16c6
 5938 16b3 2C       		.uleb128 0x2c
 5939 16b4 01       		.byte	0x1
 5940 16b5 52       		.byte	0x52
 5941 16b6 02       		.byte	0x2
 5942 16b7 75       		.byte	0x75
 5943 16b8 00       		.sleb128 0
 5944 16b9 2C       		.uleb128 0x2c
 5945 16ba 01       		.byte	0x1
 5946 16bb 51       		.byte	0x51
 5947 16bc 02       		.byte	0x2
 5948 16bd 75       		.byte	0x75
 5949 16be 00       		.sleb128 0
 5950 16bf 2C       		.uleb128 0x2c
 5951 16c0 01       		.byte	0x1
 5952 16c1 50       		.byte	0x50
 5953 16c2 02       		.byte	0x2
 5954 16c3 74       		.byte	0x74
 5955 16c4 00       		.sleb128 0
 5956 16c5 00       		.byte	0
 5957 16c6 2B       		.uleb128 0x2b
 5958 16c7 82000000 		.4byte	.LVL132
 5959 16cb 77220000 		.4byte	0x2277
 5960 16cf D9160000 		.4byte	0x16d9
 5961 16d3 2C       		.uleb128 0x2c
 5962 16d4 01       		.byte	0x1
ARM GAS  C:\Users\Vergil\AppData\Local\Temp\ccwNg35D.s 			page 106


 5963 16d5 50       		.byte	0x50
 5964 16d6 01       		.byte	0x1
 5965 16d7 3A       		.byte	0x3a
 5966 16d8 00       		.byte	0
 5967 16d9 2B       		.uleb128 0x2b
 5968 16da 8C000000 		.4byte	.LVL133
 5969 16de 15110000 		.4byte	0x1115
 5970 16e2 F9160000 		.4byte	0x16f9
 5971 16e6 2C       		.uleb128 0x2c
 5972 16e7 01       		.byte	0x1
 5973 16e8 52       		.byte	0x52
 5974 16e9 02       		.byte	0x2
 5975 16ea 75       		.byte	0x75
 5976 16eb 00       		.sleb128 0
 5977 16ec 2C       		.uleb128 0x2c
 5978 16ed 01       		.byte	0x1
 5979 16ee 51       		.byte	0x51
 5980 16ef 02       		.byte	0x2
 5981 16f0 75       		.byte	0x75
 5982 16f1 00       		.sleb128 0
 5983 16f2 2C       		.uleb128 0x2c
 5984 16f3 01       		.byte	0x1
 5985 16f4 50       		.byte	0x50
 5986 16f5 02       		.byte	0x2
 5987 16f6 74       		.byte	0x74
 5988 16f7 00       		.sleb128 0
 5989 16f8 00       		.byte	0
 5990 16f9 2B       		.uleb128 0x2b
 5991 16fa 96000000 		.4byte	.LVL135
 5992 16fe 77220000 		.4byte	0x2277
 5993 1702 0C170000 		.4byte	0x170c
 5994 1706 2C       		.uleb128 0x2c
 5995 1707 01       		.byte	0x1
 5996 1708 50       		.byte	0x50
 5997 1709 01       		.byte	0x1
 5998 170a 3A       		.byte	0x3a
 5999 170b 00       		.byte	0
 6000 170c 2B       		.uleb128 0x2b
 6001 170d A0000000 		.4byte	.LVL136
 6002 1711 15110000 		.4byte	0x1115
 6003 1715 2C170000 		.4byte	0x172c
 6004 1719 2C       		.uleb128 0x2c
 6005 171a 01       		.byte	0x1
 6006 171b 52       		.byte	0x52
 6007 171c 02       		.byte	0x2
 6008 171d 75       		.byte	0x75
 6009 171e 00       		.sleb128 0
 6010 171f 2C       		.uleb128 0x2c
 6011 1720 01       		.byte	0x1
 6012 1721 51       		.byte	0x51
 6013 1722 02       		.byte	0x2
 6014 1723 75       		.byte	0x75
 6015 1724 00       		.sleb128 0
 6016 1725 2C       		.uleb128 0x2c
 6017 1726 01       		.byte	0x1
 6018 1727 50       		.byte	0x50
 6019 1728 02       		.byte	0x2
ARM GAS  C:\Users\Vergil\AppData\Local\Temp\ccwNg35D.s 			page 107


 6020 1729 74       		.byte	0x74
 6021 172a 00       		.sleb128 0
 6022 172b 00       		.byte	0
 6023 172c 2B       		.uleb128 0x2b
 6024 172d AA000000 		.4byte	.LVL138
 6025 1731 77220000 		.4byte	0x2277
 6026 1735 3F170000 		.4byte	0x173f
 6027 1739 2C       		.uleb128 0x2c
 6028 173a 01       		.byte	0x1
 6029 173b 50       		.byte	0x50
 6030 173c 01       		.byte	0x1
 6031 173d 3A       		.byte	0x3a
 6032 173e 00       		.byte	0
 6033 173f 2B       		.uleb128 0x2b
 6034 1740 B4000000 		.4byte	.LVL139
 6035 1744 15110000 		.4byte	0x1115
 6036 1748 5F170000 		.4byte	0x175f
 6037 174c 2C       		.uleb128 0x2c
 6038 174d 01       		.byte	0x1
 6039 174e 52       		.byte	0x52
 6040 174f 02       		.byte	0x2
 6041 1750 75       		.byte	0x75
 6042 1751 00       		.sleb128 0
 6043 1752 2C       		.uleb128 0x2c
 6044 1753 01       		.byte	0x1
 6045 1754 51       		.byte	0x51
 6046 1755 02       		.byte	0x2
 6047 1756 75       		.byte	0x75
 6048 1757 00       		.sleb128 0
 6049 1758 2C       		.uleb128 0x2c
 6050 1759 01       		.byte	0x1
 6051 175a 50       		.byte	0x50
 6052 175b 02       		.byte	0x2
 6053 175c 74       		.byte	0x74
 6054 175d 00       		.sleb128 0
 6055 175e 00       		.byte	0
 6056 175f 2B       		.uleb128 0x2b
 6057 1760 BE000000 		.4byte	.LVL141
 6058 1764 77220000 		.4byte	0x2277
 6059 1768 72170000 		.4byte	0x1772
 6060 176c 2C       		.uleb128 0x2c
 6061 176d 01       		.byte	0x1
 6062 176e 50       		.byte	0x50
 6063 176f 01       		.byte	0x1
 6064 1770 3A       		.byte	0x3a
 6065 1771 00       		.byte	0
 6066 1772 2B       		.uleb128 0x2b
 6067 1773 C8000000 		.4byte	.LVL142
 6068 1777 15110000 		.4byte	0x1115
 6069 177b 92170000 		.4byte	0x1792
 6070 177f 2C       		.uleb128 0x2c
 6071 1780 01       		.byte	0x1
 6072 1781 52       		.byte	0x52
 6073 1782 02       		.byte	0x2
 6074 1783 75       		.byte	0x75
 6075 1784 00       		.sleb128 0
 6076 1785 2C       		.uleb128 0x2c
ARM GAS  C:\Users\Vergil\AppData\Local\Temp\ccwNg35D.s 			page 108


 6077 1786 01       		.byte	0x1
 6078 1787 51       		.byte	0x51
 6079 1788 02       		.byte	0x2
 6080 1789 75       		.byte	0x75
 6081 178a 00       		.sleb128 0
 6082 178b 2C       		.uleb128 0x2c
 6083 178c 01       		.byte	0x1
 6084 178d 50       		.byte	0x50
 6085 178e 02       		.byte	0x2
 6086 178f 74       		.byte	0x74
 6087 1790 00       		.sleb128 0
 6088 1791 00       		.byte	0
 6089 1792 2B       		.uleb128 0x2b
 6090 1793 D2000000 		.4byte	.LVL144
 6091 1797 77220000 		.4byte	0x2277
 6092 179b A5170000 		.4byte	0x17a5
 6093 179f 2C       		.uleb128 0x2c
 6094 17a0 01       		.byte	0x1
 6095 17a1 50       		.byte	0x50
 6096 17a2 01       		.byte	0x1
 6097 17a3 3A       		.byte	0x3a
 6098 17a4 00       		.byte	0
 6099 17a5 2B       		.uleb128 0x2b
 6100 17a6 DC000000 		.4byte	.LVL145
 6101 17aa 15110000 		.4byte	0x1115
 6102 17ae C5170000 		.4byte	0x17c5
 6103 17b2 2C       		.uleb128 0x2c
 6104 17b3 01       		.byte	0x1
 6105 17b4 52       		.byte	0x52
 6106 17b5 02       		.byte	0x2
 6107 17b6 75       		.byte	0x75
 6108 17b7 00       		.sleb128 0
 6109 17b8 2C       		.uleb128 0x2c
 6110 17b9 01       		.byte	0x1
 6111 17ba 51       		.byte	0x51
 6112 17bb 02       		.byte	0x2
 6113 17bc 75       		.byte	0x75
 6114 17bd 00       		.sleb128 0
 6115 17be 2C       		.uleb128 0x2c
 6116 17bf 01       		.byte	0x1
 6117 17c0 50       		.byte	0x50
 6118 17c1 02       		.byte	0x2
 6119 17c2 74       		.byte	0x74
 6120 17c3 00       		.sleb128 0
 6121 17c4 00       		.byte	0
 6122 17c5 2B       		.uleb128 0x2b
 6123 17c6 E6000000 		.4byte	.LVL147
 6124 17ca 77220000 		.4byte	0x2277
 6125 17ce D8170000 		.4byte	0x17d8
 6126 17d2 2C       		.uleb128 0x2c
 6127 17d3 01       		.byte	0x1
 6128 17d4 50       		.byte	0x50
 6129 17d5 01       		.byte	0x1
 6130 17d6 3A       		.byte	0x3a
 6131 17d7 00       		.byte	0
 6132 17d8 2B       		.uleb128 0x2b
 6133 17d9 F0000000 		.4byte	.LVL148
ARM GAS  C:\Users\Vergil\AppData\Local\Temp\ccwNg35D.s 			page 109


 6134 17dd 15110000 		.4byte	0x1115
 6135 17e1 F8170000 		.4byte	0x17f8
 6136 17e5 2C       		.uleb128 0x2c
 6137 17e6 01       		.byte	0x1
 6138 17e7 52       		.byte	0x52
 6139 17e8 02       		.byte	0x2
 6140 17e9 75       		.byte	0x75
 6141 17ea 00       		.sleb128 0
 6142 17eb 2C       		.uleb128 0x2c
 6143 17ec 01       		.byte	0x1
 6144 17ed 51       		.byte	0x51
 6145 17ee 02       		.byte	0x2
 6146 17ef 75       		.byte	0x75
 6147 17f0 00       		.sleb128 0
 6148 17f1 2C       		.uleb128 0x2c
 6149 17f2 01       		.byte	0x1
 6150 17f3 50       		.byte	0x50
 6151 17f4 02       		.byte	0x2
 6152 17f5 74       		.byte	0x74
 6153 17f6 00       		.sleb128 0
 6154 17f7 00       		.byte	0
 6155 17f8 37       		.uleb128 0x37
 6156 17f9 FC000000 		.4byte	.LVL150
 6157 17fd 3A230000 		.4byte	0x233a
 6158 1801 2B       		.uleb128 0x2b
 6159 1802 14010000 		.4byte	.LVL151
 6160 1806 FD110000 		.4byte	0x11fd
 6161 180a 27180000 		.4byte	0x1827
 6162 180e 2C       		.uleb128 0x2c
 6163 180f 01       		.byte	0x1
 6164 1810 53       		.byte	0x53
 6165 1811 02       		.byte	0x2
 6166 1812 91       		.byte	0x91
 6167 1813 6C       		.sleb128 -20
 6168 1814 2C       		.uleb128 0x2c
 6169 1815 01       		.byte	0x1
 6170 1816 52       		.byte	0x52
 6171 1817 03       		.byte	0x3
 6172 1818 0A       		.byte	0xa
 6173 1819 AA01     		.2byte	0x1aa
 6174 181b 2C       		.uleb128 0x2c
 6175 181c 01       		.byte	0x1
 6176 181d 51       		.byte	0x51
 6177 181e 01       		.byte	0x1
 6178 181f 38       		.byte	0x38
 6179 1820 2C       		.uleb128 0x2c
 6180 1821 01       		.byte	0x1
 6181 1822 50       		.byte	0x50
 6182 1823 02       		.byte	0x2
 6183 1824 74       		.byte	0x74
 6184 1825 00       		.sleb128 0
 6185 1826 00       		.byte	0
 6186 1827 2B       		.uleb128 0x2b
 6187 1828 26010000 		.4byte	.LVL152
 6188 182c 77220000 		.4byte	0x2277
 6189 1830 3A180000 		.4byte	0x183a
 6190 1834 2C       		.uleb128 0x2c
ARM GAS  C:\Users\Vergil\AppData\Local\Temp\ccwNg35D.s 			page 110


 6191 1835 01       		.byte	0x1
 6192 1836 50       		.byte	0x50
 6193 1837 01       		.byte	0x1
 6194 1838 3A       		.byte	0x3a
 6195 1839 00       		.byte	0
 6196 183a 2B       		.uleb128 0x2b
 6197 183b 30010000 		.4byte	.LVL153
 6198 183f 15110000 		.4byte	0x1115
 6199 1843 59180000 		.4byte	0x1859
 6200 1847 2C       		.uleb128 0x2c
 6201 1848 01       		.byte	0x1
 6202 1849 52       		.byte	0x52
 6203 184a 01       		.byte	0x1
 6204 184b 30       		.byte	0x30
 6205 184c 2C       		.uleb128 0x2c
 6206 184d 01       		.byte	0x1
 6207 184e 51       		.byte	0x51
 6208 184f 02       		.byte	0x2
 6209 1850 08       		.byte	0x8
 6210 1851 37       		.byte	0x37
 6211 1852 2C       		.uleb128 0x2c
 6212 1853 01       		.byte	0x1
 6213 1854 50       		.byte	0x50
 6214 1855 02       		.byte	0x2
 6215 1856 74       		.byte	0x74
 6216 1857 00       		.sleb128 0
 6217 1858 00       		.byte	0
 6218 1859 2B       		.uleb128 0x2b
 6219 185a 3E010000 		.4byte	.LVL154
 6220 185e 77220000 		.4byte	0x2277
 6221 1862 6C180000 		.4byte	0x186c
 6222 1866 2C       		.uleb128 0x2c
 6223 1867 01       		.byte	0x1
 6224 1868 50       		.byte	0x50
 6225 1869 01       		.byte	0x1
 6226 186a 3A       		.byte	0x3a
 6227 186b 00       		.byte	0
 6228 186c 2B       		.uleb128 0x2b
 6229 186d 48010000 		.4byte	.LVL155
 6230 1871 15110000 		.4byte	0x1115
 6231 1875 8B180000 		.4byte	0x188b
 6232 1879 2C       		.uleb128 0x2c
 6233 187a 01       		.byte	0x1
 6234 187b 52       		.byte	0x52
 6235 187c 01       		.byte	0x1
 6236 187d 30       		.byte	0x30
 6237 187e 2C       		.uleb128 0x2c
 6238 187f 01       		.byte	0x1
 6239 1880 51       		.byte	0x51
 6240 1881 02       		.byte	0x2
 6241 1882 08       		.byte	0x8
 6242 1883 37       		.byte	0x37
 6243 1884 2C       		.uleb128 0x2c
 6244 1885 01       		.byte	0x1
 6245 1886 50       		.byte	0x50
 6246 1887 02       		.byte	0x2
 6247 1888 74       		.byte	0x74
ARM GAS  C:\Users\Vergil\AppData\Local\Temp\ccwNg35D.s 			page 111


 6248 1889 00       		.sleb128 0
 6249 188a 00       		.byte	0
 6250 188b 2B       		.uleb128 0x2b
 6251 188c 58010000 		.4byte	.LVL156
 6252 1890 77220000 		.4byte	0x2277
 6253 1894 9E180000 		.4byte	0x189e
 6254 1898 2C       		.uleb128 0x2c
 6255 1899 01       		.byte	0x1
 6256 189a 50       		.byte	0x50
 6257 189b 01       		.byte	0x1
 6258 189c 3A       		.byte	0x3a
 6259 189d 00       		.byte	0
 6260 189e 2B       		.uleb128 0x2b
 6261 189f 62010000 		.4byte	.LVL157
 6262 18a3 15110000 		.4byte	0x1115
 6263 18a7 BD180000 		.4byte	0x18bd
 6264 18ab 2C       		.uleb128 0x2c
 6265 18ac 01       		.byte	0x1
 6266 18ad 52       		.byte	0x52
 6267 18ae 01       		.byte	0x1
 6268 18af 30       		.byte	0x30
 6269 18b0 2C       		.uleb128 0x2c
 6270 18b1 01       		.byte	0x1
 6271 18b2 51       		.byte	0x51
 6272 18b3 02       		.byte	0x2
 6273 18b4 08       		.byte	0x8
 6274 18b5 37       		.byte	0x37
 6275 18b6 2C       		.uleb128 0x2c
 6276 18b7 01       		.byte	0x1
 6277 18b8 50       		.byte	0x50
 6278 18b9 02       		.byte	0x2
 6279 18ba 74       		.byte	0x74
 6280 18bb 00       		.sleb128 0
 6281 18bc 00       		.byte	0
 6282 18bd 2B       		.uleb128 0x2b
 6283 18be 7A010000 		.4byte	.LVL158
 6284 18c2 FD110000 		.4byte	0x11fd
 6285 18c6 DD180000 		.4byte	0x18dd
 6286 18ca 2C       		.uleb128 0x2c
 6287 18cb 01       		.byte	0x1
 6288 18cc 53       		.byte	0x53
 6289 18cd 02       		.byte	0x2
 6290 18ce 91       		.byte	0x91
 6291 18cf 6C       		.sleb128 -20
 6292 18d0 2C       		.uleb128 0x2c
 6293 18d1 01       		.byte	0x1
 6294 18d2 51       		.byte	0x51
 6295 18d3 02       		.byte	0x2
 6296 18d4 08       		.byte	0x8
 6297 18d5 29       		.byte	0x29
 6298 18d6 2C       		.uleb128 0x2c
 6299 18d7 01       		.byte	0x1
 6300 18d8 50       		.byte	0x50
 6301 18d9 02       		.byte	0x2
 6302 18da 74       		.byte	0x74
 6303 18db 00       		.sleb128 0
 6304 18dc 00       		.byte	0
ARM GAS  C:\Users\Vergil\AppData\Local\Temp\ccwNg35D.s 			page 112


 6305 18dd 2B       		.uleb128 0x2b
 6306 18de 8A010000 		.4byte	.LVL159
 6307 18e2 FD110000 		.4byte	0x11fd
 6308 18e6 02190000 		.4byte	0x1902
 6309 18ea 2C       		.uleb128 0x2c
 6310 18eb 01       		.byte	0x1
 6311 18ec 53       		.byte	0x53
 6312 18ed 02       		.byte	0x2
 6313 18ee 91       		.byte	0x91
 6314 18ef 6C       		.sleb128 -20
 6315 18f0 2C       		.uleb128 0x2c
 6316 18f1 01       		.byte	0x1
 6317 18f2 52       		.byte	0x52
 6318 18f3 01       		.byte	0x1
 6319 18f4 30       		.byte	0x30
 6320 18f5 2C       		.uleb128 0x2c
 6321 18f6 01       		.byte	0x1
 6322 18f7 51       		.byte	0x51
 6323 18f8 02       		.byte	0x2
 6324 18f9 08       		.byte	0x8
 6325 18fa 3A       		.byte	0x3a
 6326 18fb 2C       		.uleb128 0x2c
 6327 18fc 01       		.byte	0x1
 6328 18fd 50       		.byte	0x50
 6329 18fe 02       		.byte	0x2
 6330 18ff 74       		.byte	0x74
 6331 1900 00       		.sleb128 0
 6332 1901 00       		.byte	0
 6333 1902 37       		.uleb128 0x37
 6334 1903 F6010000 		.4byte	.LVL169
 6335 1907 20230000 		.4byte	0x2320
 6336 190b 2B       		.uleb128 0x2b
 6337 190c 02020000 		.4byte	.LVL170
 6338 1910 15110000 		.4byte	0x1115
 6339 1914 2B190000 		.4byte	0x192b
 6340 1918 2C       		.uleb128 0x2c
 6341 1919 01       		.byte	0x1
 6342 191a 52       		.byte	0x52
 6343 191b 03       		.byte	0x3
 6344 191c 0A       		.byte	0xa
 6345 191d 0002     		.2byte	0x200
 6346 191f 2C       		.uleb128 0x2c
 6347 1920 01       		.byte	0x1
 6348 1921 51       		.byte	0x51
 6349 1922 01       		.byte	0x1
 6350 1923 40       		.byte	0x40
 6351 1924 2C       		.uleb128 0x2c
 6352 1925 01       		.byte	0x1
 6353 1926 50       		.byte	0x50
 6354 1927 02       		.byte	0x2
 6355 1928 74       		.byte	0x74
 6356 1929 00       		.sleb128 0
 6357 192a 00       		.byte	0
 6358 192b 2B       		.uleb128 0x2b
 6359 192c 16020000 		.4byte	.LVL171
 6360 1930 94130000 		.4byte	0x1394
 6361 1934 4A190000 		.4byte	0x194a
ARM GAS  C:\Users\Vergil\AppData\Local\Temp\ccwNg35D.s 			page 113


 6362 1938 2C       		.uleb128 0x2c
 6363 1939 01       		.byte	0x1
 6364 193a 52       		.byte	0x52
 6365 193b 02       		.byte	0x2
 6366 193c 75       		.byte	0x75
 6367 193d 00       		.sleb128 0
 6368 193e 2C       		.uleb128 0x2c
 6369 193f 01       		.byte	0x1
 6370 1940 51       		.byte	0x51
 6371 1941 01       		.byte	0x1
 6372 1942 39       		.byte	0x39
 6373 1943 2C       		.uleb128 0x2c
 6374 1944 01       		.byte	0x1
 6375 1945 50       		.byte	0x50
 6376 1946 02       		.byte	0x2
 6377 1947 74       		.byte	0x74
 6378 1948 00       		.sleb128 0
 6379 1949 00       		.byte	0
 6380 194a 2B       		.uleb128 0x2b
 6381 194b 22020000 		.4byte	.LVL172
 6382 194f 4F230000 		.4byte	0x234f
 6383 1953 5E190000 		.4byte	0x195e
 6384 1957 2C       		.uleb128 0x2c
 6385 1958 01       		.byte	0x1
 6386 1959 50       		.byte	0x50
 6387 195a 02       		.byte	0x2
 6388 195b 75       		.byte	0x75
 6389 195c 00       		.sleb128 0
 6390 195d 00       		.byte	0
 6391 195e 2B       		.uleb128 0x2b
 6392 195f 36020000 		.4byte	.LVL173
 6393 1963 94130000 		.4byte	0x1394
 6394 1967 7D190000 		.4byte	0x197d
 6395 196b 2C       		.uleb128 0x2c
 6396 196c 01       		.byte	0x1
 6397 196d 52       		.byte	0x52
 6398 196e 02       		.byte	0x2
 6399 196f 74       		.byte	0x74
 6400 1970 08       		.sleb128 8
 6401 1971 2C       		.uleb128 0x2c
 6402 1972 01       		.byte	0x1
 6403 1973 51       		.byte	0x51
 6404 1974 01       		.byte	0x1
 6405 1975 3A       		.byte	0x3a
 6406 1976 2C       		.uleb128 0x2c
 6407 1977 01       		.byte	0x1
 6408 1978 50       		.byte	0x50
 6409 1979 02       		.byte	0x2
 6410 197a 74       		.byte	0x74
 6411 197b 00       		.sleb128 0
 6412 197c 00       		.byte	0
 6413 197d 2B       		.uleb128 0x2b
 6414 197e 54020000 		.4byte	.LVL174
 6415 1982 FD110000 		.4byte	0x11fd
 6416 1986 9D190000 		.4byte	0x199d
 6417 198a 2C       		.uleb128 0x2c
 6418 198b 01       		.byte	0x1
ARM GAS  C:\Users\Vergil\AppData\Local\Temp\ccwNg35D.s 			page 114


 6419 198c 53       		.byte	0x53
 6420 198d 02       		.byte	0x2
 6421 198e 91       		.byte	0x91
 6422 198f 6C       		.sleb128 -20
 6423 1990 2C       		.uleb128 0x2c
 6424 1991 01       		.byte	0x1
 6425 1992 51       		.byte	0x51
 6426 1993 02       		.byte	0x2
 6427 1994 08       		.byte	0x8
 6428 1995 29       		.byte	0x29
 6429 1996 2C       		.uleb128 0x2c
 6430 1997 01       		.byte	0x1
 6431 1998 50       		.byte	0x50
 6432 1999 02       		.byte	0x2
 6433 199a 74       		.byte	0x74
 6434 199b 00       		.sleb128 0
 6435 199c 00       		.byte	0
 6436 199d 2D       		.uleb128 0x2d
 6437 199e 6E020000 		.4byte	.LVL175
 6438 19a2 FD110000 		.4byte	0x11fd
 6439 19a6 2C       		.uleb128 0x2c
 6440 19a7 01       		.byte	0x1
 6441 19a8 53       		.byte	0x53
 6442 19a9 02       		.byte	0x2
 6443 19aa 91       		.byte	0x91
 6444 19ab 6C       		.sleb128 -20
 6445 19ac 2C       		.uleb128 0x2c
 6446 19ad 01       		.byte	0x1
 6447 19ae 51       		.byte	0x51
 6448 19af 02       		.byte	0x2
 6449 19b0 08       		.byte	0x8
 6450 19b1 29       		.byte	0x29
 6451 19b2 2C       		.uleb128 0x2c
 6452 19b3 01       		.byte	0x1
 6453 19b4 50       		.byte	0x50
 6454 19b5 02       		.byte	0x2
 6455 19b6 74       		.byte	0x74
 6456 19b7 00       		.sleb128 0
 6457 19b8 00       		.byte	0
 6458 19b9 00       		.byte	0
 6459 19ba 41       		.uleb128 0x41
 6460 19bb EE0B0000 		.4byte	0xbee
 6461 19bf 00000000 		.4byte	.LFB141
 6462 19c3 28000000 		.4byte	.LFE141
 6463 19c7 69060000 		.4byte	.LLST35
 6464 19cb 01       		.byte	0x1
 6465 19cc 0D1A0000 		.4byte	0x1a0d
 6466 19d0 33       		.uleb128 0x33
 6467 19d1 010C0000 		.4byte	0xc01
 6468 19d5 89060000 		.4byte	.LLST36
 6469 19d9 42       		.uleb128 0x42
 6470 19da EE0B0000 		.4byte	0xbee
 6471 19de 0E000000 		.4byte	.LBB31
 6472 19e2 28000000 		.4byte	.LBE31
 6473 19e6 01       		.byte	0x1
 6474 19e7 4E03     		.2byte	0x34e
 6475 19e9 33       		.uleb128 0x33
ARM GAS  C:\Users\Vergil\AppData\Local\Temp\ccwNg35D.s 			page 115


 6476 19ea 010C0000 		.4byte	0xc01
 6477 19ee BD060000 		.4byte	.LLST37
 6478 19f2 37       		.uleb128 0x37
 6479 19f3 1C000000 		.4byte	.LVL180
 6480 19f7 20230000 		.4byte	0x2320
 6481 19fb 2D       		.uleb128 0x2d
 6482 19fc 22000000 		.4byte	.LVL181
 6483 1a00 0A130000 		.4byte	0x130a
 6484 1a04 2C       		.uleb128 0x2c
 6485 1a05 01       		.byte	0x1
 6486 1a06 50       		.byte	0x50
 6487 1a07 02       		.byte	0x2
 6488 1a08 74       		.byte	0x74
 6489 1a09 00       		.sleb128 0
 6490 1a0a 00       		.byte	0
 6491 1a0b 00       		.byte	0
 6492 1a0c 00       		.byte	0
 6493 1a0d 41       		.uleb128 0x41
 6494 1a0e 140C0000 		.4byte	0xc14
 6495 1a12 00000000 		.4byte	.LFB134
 6496 1a16 44000000 		.4byte	.LFE134
 6497 1a1a DB060000 		.4byte	.LLST38
 6498 1a1e 01       		.byte	0x1
 6499 1a1f AE1A0000 		.4byte	0x1aae
 6500 1a23 33       		.uleb128 0x33
 6501 1a24 270C0000 		.4byte	0xc27
 6502 1a28 FB060000 		.4byte	.LLST39
 6503 1a2c 43       		.uleb128 0x43
 6504 1a2d 48000000 		.4byte	.Ldebug_ranges0+0x48
 6505 1a31 3F1A0000 		.4byte	0x1a3f
 6506 1a35 3B       		.uleb128 0x3b
 6507 1a36 380C0000 		.4byte	0xc38
 6508 1a3a 2F070000 		.4byte	.LLST40
 6509 1a3e 00       		.byte	0
 6510 1a3f 39       		.uleb128 0x39
 6511 1a40 140C0000 		.4byte	0xc14
 6512 1a44 10000000 		.4byte	.LBB42
 6513 1a48 36000000 		.4byte	.LBE42
 6514 1a4c 01       		.byte	0x1
 6515 1a4d 4B02     		.2byte	0x24b
 6516 1a4f 9A1A0000 		.4byte	0x1a9a
 6517 1a53 33       		.uleb128 0x33
 6518 1a54 270C0000 		.4byte	0xc27
 6519 1a58 42070000 		.4byte	.LLST41
 6520 1a5c 3E       		.uleb128 0x3e
 6521 1a5d 14000000 		.4byte	.LBB44
 6522 1a61 1A000000 		.4byte	.LBE44
 6523 1a65 731A0000 		.4byte	0x1a73
 6524 1a69 3B       		.uleb128 0x3b
 6525 1a6a 580C0000 		.4byte	0xc58
 6526 1a6e 60070000 		.4byte	.LLST42
 6527 1a72 00       		.byte	0
 6528 1a73 37       		.uleb128 0x37
 6529 1a74 24000000 		.4byte	.LVL190
 6530 1a78 20230000 		.4byte	0x2320
 6531 1a7c 2B       		.uleb128 0x2b
 6532 1a7d 2A000000 		.4byte	.LVL191
ARM GAS  C:\Users\Vergil\AppData\Local\Temp\ccwNg35D.s 			page 116


 6533 1a81 0A130000 		.4byte	0x130a
 6534 1a85 901A0000 		.4byte	0x1a90
 6535 1a89 2C       		.uleb128 0x2c
 6536 1a8a 01       		.byte	0x1
 6537 1a8b 50       		.byte	0x50
 6538 1a8c 02       		.byte	0x2
 6539 1a8d 74       		.byte	0x74
 6540 1a8e 00       		.sleb128 0
 6541 1a8f 00       		.byte	0
 6542 1a90 37       		.uleb128 0x37
 6543 1a91 32000000 		.4byte	.LVL192
 6544 1a95 3A230000 		.4byte	0x233a
 6545 1a99 00       		.byte	0
 6546 1a9a 3A       		.uleb128 0x3a
 6547 1a9b 3A000000 		.4byte	.LBB45
 6548 1a9f 40000000 		.4byte	.LBE45
 6549 1aa3 3B       		.uleb128 0x3b
 6550 1aa4 4A0C0000 		.4byte	0xc4a
 6551 1aa8 73070000 		.4byte	.LLST43
 6552 1aac 00       		.byte	0
 6553 1aad 00       		.byte	0
 6554 1aae 44       		.uleb128 0x44
 6555 1aaf 01       		.byte	0x1
 6556 1ab0 83060000 		.4byte	.LASF195
 6557 1ab4 01       		.byte	0x1
 6558 1ab5 9101     		.2byte	0x191
 6559 1ab7 01       		.byte	0x1
 6560 1ab8 00000000 		.4byte	.LFB129
 6561 1abc 02000000 		.4byte	.LFE129
 6562 1ac0 02       		.byte	0x2
 6563 1ac1 7D       		.byte	0x7d
 6564 1ac2 00       		.sleb128 0
 6565 1ac3 01       		.byte	0x1
 6566 1ac4 45       		.uleb128 0x45
 6567 1ac5 01       		.byte	0x1
 6568 1ac6 88040000 		.4byte	.LASF164
 6569 1aca 01       		.byte	0x1
 6570 1acb 9C01     		.2byte	0x19c
 6571 1acd 01       		.byte	0x1
 6572 1ace 00000000 		.4byte	.LFB130
 6573 1ad2 18000000 		.4byte	.LFE130
 6574 1ad6 02       		.byte	0x2
 6575 1ad7 7D       		.byte	0x7d
 6576 1ad8 00       		.sleb128 0
 6577 1ad9 01       		.byte	0x1
 6578 1ada ED1A0000 		.4byte	0x1aed
 6579 1ade 26       		.uleb128 0x26
 6580 1adf 0D030000 		.4byte	.LASF145
 6581 1ae3 01       		.byte	0x1
 6582 1ae4 9C01     		.2byte	0x19c
 6583 1ae6 0E0C0000 		.4byte	0xc0e
 6584 1aea 01       		.byte	0x1
 6585 1aeb 50       		.byte	0x50
 6586 1aec 00       		.byte	0
 6587 1aed 45       		.uleb128 0x45
 6588 1aee 01       		.byte	0x1
 6589 1aef 9C050000 		.4byte	.LASF165
ARM GAS  C:\Users\Vergil\AppData\Local\Temp\ccwNg35D.s 			page 117


 6590 1af3 01       		.byte	0x1
 6591 1af4 AC01     		.2byte	0x1ac
 6592 1af6 01       		.byte	0x1
 6593 1af7 00000000 		.4byte	.LFB131
 6594 1afb 08000000 		.4byte	.LFE131
 6595 1aff 02       		.byte	0x2
 6596 1b00 7D       		.byte	0x7d
 6597 1b01 00       		.sleb128 0
 6598 1b02 01       		.byte	0x1
 6599 1b03 241B0000 		.4byte	0x1b24
 6600 1b07 26       		.uleb128 0x26
 6601 1b08 0D030000 		.4byte	.LASF145
 6602 1b0c 01       		.byte	0x1
 6603 1b0d AC01     		.2byte	0x1ac
 6604 1b0f 0E0C0000 		.4byte	0xc0e
 6605 1b13 01       		.byte	0x1
 6606 1b14 50       		.byte	0x50
 6607 1b15 26       		.uleb128 0x26
 6608 1b16 A5000000 		.4byte	.LASF116
 6609 1b1a 01       		.byte	0x1
 6610 1b1b AC01     		.2byte	0x1ac
 6611 1b1d A50B0000 		.4byte	0xba5
 6612 1b21 01       		.byte	0x1
 6613 1b22 51       		.byte	0x51
 6614 1b23 00       		.byte	0
 6615 1b24 46       		.uleb128 0x46
 6616 1b25 01       		.byte	0x1
 6617 1b26 34020000 		.4byte	.LASF166
 6618 1b2a 01       		.byte	0x1
 6619 1b2b BD01     		.2byte	0x1bd
 6620 1b2d 01       		.byte	0x1
 6621 1b2e 00000000 		.4byte	.LFB132
 6622 1b32 12000000 		.4byte	.LFE132
 6623 1b36 86070000 		.4byte	.LLST44
 6624 1b3a 01       		.byte	0x1
 6625 1b3b 591B0000 		.4byte	0x1b59
 6626 1b3f 25       		.uleb128 0x25
 6627 1b40 0D030000 		.4byte	.LASF145
 6628 1b44 01       		.byte	0x1
 6629 1b45 BD01     		.2byte	0x1bd
 6630 1b47 0E0C0000 		.4byte	0xc0e
 6631 1b4b A6070000 		.4byte	.LLST45
 6632 1b4f 37       		.uleb128 0x37
 6633 1b50 0C000000 		.4byte	.LVL201
 6634 1b54 3A230000 		.4byte	0x233a
 6635 1b58 00       		.byte	0
 6636 1b59 3F       		.uleb128 0x3f
 6637 1b5a 01       		.byte	0x1
 6638 1b5b 4D050000 		.4byte	.LASF167
 6639 1b5f 01       		.byte	0x1
 6640 1b60 6E02     		.2byte	0x26e
 6641 1b62 01       		.byte	0x1
 6642 1b63 C1000000 		.4byte	0xc1
 6643 1b67 00000000 		.4byte	.LFB135
 6644 1b6b 54000000 		.4byte	.LFE135
 6645 1b6f C4070000 		.4byte	.LLST46
 6646 1b73 01       		.byte	0x1
ARM GAS  C:\Users\Vergil\AppData\Local\Temp\ccwNg35D.s 			page 118


 6647 1b74 021C0000 		.4byte	0x1c02
 6648 1b78 25       		.uleb128 0x25
 6649 1b79 0D030000 		.4byte	.LASF145
 6650 1b7d 01       		.byte	0x1
 6651 1b7e 6E02     		.2byte	0x26e
 6652 1b80 0E0C0000 		.4byte	0xc0e
 6653 1b84 E4070000 		.4byte	.LLST47
 6654 1b88 25       		.uleb128 0x25
 6655 1b89 01010000 		.4byte	.LASF151
 6656 1b8d 01       		.byte	0x1
 6657 1b8e 6E02     		.2byte	0x26e
 6658 1b90 B6000000 		.4byte	0xb6
 6659 1b94 18080000 		.4byte	.LLST48
 6660 1b98 37       		.uleb128 0x37
 6661 1b99 14000000 		.4byte	.LVL205
 6662 1b9d 20230000 		.4byte	0x2320
 6663 1ba1 37       		.uleb128 0x37
 6664 1ba2 1C000000 		.4byte	.LVL206
 6665 1ba6 B2220000 		.4byte	0x22b2
 6666 1baa 37       		.uleb128 0x37
 6667 1bab 24000000 		.4byte	.LVL207
 6668 1baf C7220000 		.4byte	0x22c7
 6669 1bb3 2B       		.uleb128 0x2b
 6670 1bb4 34000000 		.4byte	.LVL208
 6671 1bb8 5B100000 		.4byte	0x105b
 6672 1bbc D21B0000 		.4byte	0x1bd2
 6673 1bc0 2C       		.uleb128 0x2c
 6674 1bc1 01       		.byte	0x1
 6675 1bc2 52       		.byte	0x52
 6676 1bc3 02       		.byte	0x2
 6677 1bc4 75       		.byte	0x75
 6678 1bc5 00       		.sleb128 0
 6679 1bc6 2C       		.uleb128 0x2c
 6680 1bc7 01       		.byte	0x1
 6681 1bc8 51       		.byte	0x51
 6682 1bc9 01       		.byte	0x1
 6683 1bca 42       		.byte	0x42
 6684 1bcb 2C       		.uleb128 0x2c
 6685 1bcc 01       		.byte	0x1
 6686 1bcd 50       		.byte	0x50
 6687 1bce 02       		.byte	0x2
 6688 1bcf 74       		.byte	0x74
 6689 1bd0 00       		.sleb128 0
 6690 1bd1 00       		.byte	0
 6691 1bd2 2B       		.uleb128 0x2b
 6692 1bd3 3A000000 		.4byte	.LVL209
 6693 1bd7 1B0D0000 		.4byte	0xd1b
 6694 1bdb E61B0000 		.4byte	0x1be6
 6695 1bdf 2C       		.uleb128 0x2c
 6696 1be0 01       		.byte	0x1
 6697 1be1 50       		.byte	0x50
 6698 1be2 02       		.byte	0x2
 6699 1be3 74       		.byte	0x74
 6700 1be4 00       		.sleb128 0
 6701 1be5 00       		.byte	0
 6702 1be6 37       		.uleb128 0x37
 6703 1be7 44000000 		.4byte	.LVL210
ARM GAS  C:\Users\Vergil\AppData\Local\Temp\ccwNg35D.s 			page 119


 6704 1beb 3A230000 		.4byte	0x233a
 6705 1bef 2D       		.uleb128 0x2d
 6706 1bf0 52000000 		.4byte	.LVL212
 6707 1bf4 5B100000 		.4byte	0x105b
 6708 1bf8 2C       		.uleb128 0x2c
 6709 1bf9 01       		.byte	0x1
 6710 1bfa 52       		.byte	0x52
 6711 1bfb 04       		.byte	0x4
 6712 1bfc 75       		.byte	0x75
 6713 1bfd 00       		.sleb128 0
 6714 1bfe 39       		.byte	0x39
 6715 1bff 24       		.byte	0x24
 6716 1c00 00       		.byte	0
 6717 1c01 00       		.byte	0
 6718 1c02 3F       		.uleb128 0x3f
 6719 1c03 01       		.byte	0x1
 6720 1c04 0F000000 		.4byte	.LASF168
 6721 1c08 01       		.byte	0x1
 6722 1c09 9802     		.2byte	0x298
 6723 1c0b 01       		.byte	0x1
 6724 1c0c C1000000 		.4byte	0xc1
 6725 1c10 00000000 		.4byte	.LFB136
 6726 1c14 7E000000 		.4byte	.LFE136
 6727 1c18 36080000 		.4byte	.LLST49
 6728 1c1c 01       		.byte	0x1
 6729 1c1d B71C0000 		.4byte	0x1cb7
 6730 1c21 25       		.uleb128 0x25
 6731 1c22 0D030000 		.4byte	.LASF145
 6732 1c26 01       		.byte	0x1
 6733 1c27 9802     		.2byte	0x298
 6734 1c29 0E0C0000 		.4byte	0xc0e
 6735 1c2d 56080000 		.4byte	.LLST50
 6736 1c31 25       		.uleb128 0x25
 6737 1c32 B4020000 		.4byte	.LASF144
 6738 1c36 01       		.byte	0x1
 6739 1c37 9802     		.2byte	0x298
 6740 1c39 EC040000 		.4byte	0x4ec
 6741 1c3d 8A080000 		.4byte	.LLST51
 6742 1c41 22       		.uleb128 0x22
 6743 1c42 6900     		.ascii	"i\000"
 6744 1c44 01       		.byte	0x1
 6745 1c45 9902     		.2byte	0x299
 6746 1c47 45000000 		.4byte	0x45
 6747 1c4b 37       		.uleb128 0x37
 6748 1c4c 1E000000 		.4byte	.LVL217
 6749 1c50 58220000 		.4byte	0x2258
 6750 1c54 2B       		.uleb128 0x2b
 6751 1c55 34000000 		.4byte	.LVL218
 6752 1c59 58220000 		.4byte	0x2258
 6753 1c5d 6D1C0000 		.4byte	0x1c6d
 6754 1c61 2C       		.uleb128 0x2c
 6755 1c62 01       		.byte	0x1
 6756 1c63 52       		.byte	0x52
 6757 1c64 02       		.byte	0x2
 6758 1c65 74       		.byte	0x74
 6759 1c66 00       		.sleb128 0
 6760 1c67 2C       		.uleb128 0x2c
ARM GAS  C:\Users\Vergil\AppData\Local\Temp\ccwNg35D.s 			page 120


 6761 1c68 01       		.byte	0x1
 6762 1c69 51       		.byte	0x51
 6763 1c6a 01       		.byte	0x1
 6764 1c6b 31       		.byte	0x31
 6765 1c6c 00       		.byte	0
 6766 1c6d 2B       		.uleb128 0x2b
 6767 1c6e 50000000 		.4byte	.LVL219
 6768 1c72 58220000 		.4byte	0x2258
 6769 1c76 881C0000 		.4byte	0x1c88
 6770 1c7a 2C       		.uleb128 0x2c
 6771 1c7b 01       		.byte	0x1
 6772 1c7c 52       		.byte	0x52
 6773 1c7d 02       		.byte	0x2
 6774 1c7e 74       		.byte	0x74
 6775 1c7f 00       		.sleb128 0
 6776 1c80 2C       		.uleb128 0x2c
 6777 1c81 01       		.byte	0x1
 6778 1c82 51       		.byte	0x51
 6779 1c83 03       		.byte	0x3
 6780 1c84 0A       		.byte	0xa
 6781 1c85 0002     		.2byte	0x200
 6782 1c87 00       		.byte	0
 6783 1c88 2B       		.uleb128 0x2b
 6784 1c89 5A000000 		.4byte	.LVL220
 6785 1c8d 06230000 		.4byte	0x2306
 6786 1c91 9B1C0000 		.4byte	0x1c9b
 6787 1c95 2C       		.uleb128 0x2c
 6788 1c96 01       		.byte	0x1
 6789 1c97 51       		.byte	0x51
 6790 1c98 01       		.byte	0x1
 6791 1c99 32       		.byte	0x32
 6792 1c9a 00       		.byte	0
 6793 1c9b 37       		.uleb128 0x37
 6794 1c9c 66000000 		.4byte	.LVL221
 6795 1ca0 DC220000 		.4byte	0x22dc
 6796 1ca4 37       		.uleb128 0x37
 6797 1ca5 6E000000 		.4byte	.LVL222
 6798 1ca9 F1220000 		.4byte	0x22f1
 6799 1cad 37       		.uleb128 0x37
 6800 1cae 76000000 		.4byte	.LVL223
 6801 1cb2 3A230000 		.4byte	0x233a
 6802 1cb6 00       		.byte	0
 6803 1cb7 3F       		.uleb128 0x3f
 6804 1cb8 01       		.byte	0x1
 6805 1cb9 47070000 		.4byte	.LASF169
 6806 1cbd 01       		.byte	0x1
 6807 1cbe BE02     		.2byte	0x2be
 6808 1cc0 01       		.byte	0x1
 6809 1cc1 C1000000 		.4byte	0xc1
 6810 1cc5 00000000 		.4byte	.LFB137
 6811 1cc9 3C000000 		.4byte	.LFE137
 6812 1ccd B3080000 		.4byte	.LLST52
 6813 1cd1 01       		.byte	0x1
 6814 1cd2 3B1D0000 		.4byte	0x1d3b
 6815 1cd6 25       		.uleb128 0x25
 6816 1cd7 0D030000 		.4byte	.LASF145
 6817 1cdb 01       		.byte	0x1
ARM GAS  C:\Users\Vergil\AppData\Local\Temp\ccwNg35D.s 			page 121


 6818 1cdc BE02     		.2byte	0x2be
 6819 1cde 0E0C0000 		.4byte	0xc0e
 6820 1ce2 D3080000 		.4byte	.LLST53
 6821 1ce6 47       		.uleb128 0x47
 6822 1ce7 D9000000 		.4byte	.LASF170
 6823 1ceb 01       		.byte	0x1
 6824 1cec BF02     		.2byte	0x2bf
 6825 1cee 4B1D0000 		.4byte	0x1d4b
 6826 1cf2 05       		.byte	0x5
 6827 1cf3 03       		.byte	0x3
 6828 1cf4 00000000 		.4byte	stopcmd.7377
 6829 1cf8 2B       		.uleb128 0x2b
 6830 1cf9 1A000000 		.4byte	.LVL228
 6831 1cfd 8C220000 		.4byte	0x228c
 6832 1d01 141D0000 		.4byte	0x1d14
 6833 1d05 2C       		.uleb128 0x2c
 6834 1d06 01       		.byte	0x1
 6835 1d07 52       		.byte	0x52
 6836 1d08 05       		.byte	0x5
 6837 1d09 03       		.byte	0x3
 6838 1d0a 00000000 		.4byte	.LANCHOR2
 6839 1d0e 2C       		.uleb128 0x2c
 6840 1d0f 01       		.byte	0x1
 6841 1d10 51       		.byte	0x51
 6842 1d11 01       		.byte	0x1
 6843 1d12 37       		.byte	0x37
 6844 1d13 00       		.byte	0
 6845 1d14 2B       		.uleb128 0x2b
 6846 1d15 20000000 		.4byte	.LVL229
 6847 1d19 1B0D0000 		.4byte	0xd1b
 6848 1d1d 281D0000 		.4byte	0x1d28
 6849 1d21 2C       		.uleb128 0x2c
 6850 1d22 01       		.byte	0x1
 6851 1d23 50       		.byte	0x50
 6852 1d24 02       		.byte	0x2
 6853 1d25 74       		.byte	0x74
 6854 1d26 00       		.sleb128 0
 6855 1d27 00       		.byte	0
 6856 1d28 37       		.uleb128 0x37
 6857 1d29 28000000 		.4byte	.LVL230
 6858 1d2d DC220000 		.4byte	0x22dc
 6859 1d31 37       		.uleb128 0x37
 6860 1d32 30000000 		.4byte	.LVL231
 6861 1d36 F1220000 		.4byte	0x22f1
 6862 1d3a 00       		.byte	0
 6863 1d3b 11       		.uleb128 0x11
 6864 1d3c 95000000 		.4byte	0x95
 6865 1d40 4B1D0000 		.4byte	0x1d4b
 6866 1d44 12       		.uleb128 0x12
 6867 1d45 68000000 		.4byte	0x68
 6868 1d49 06       		.byte	0x6
 6869 1d4a 00       		.byte	0
 6870 1d4b 06       		.uleb128 0x6
 6871 1d4c 3B1D0000 		.4byte	0x1d3b
 6872 1d50 41       		.uleb128 0x41
 6873 1d51 660C0000 		.4byte	0xc66
 6874 1d55 00000000 		.4byte	.LFB118
ARM GAS  C:\Users\Vergil\AppData\Local\Temp\ccwNg35D.s 			page 122


 6875 1d59 70000000 		.4byte	.LFE118
 6876 1d5d 07090000 		.4byte	.LLST54
 6877 1d61 01       		.byte	0x1
 6878 1d62 471E0000 		.4byte	0x1e47
 6879 1d66 33       		.uleb128 0x33
 6880 1d67 770C0000 		.4byte	0xc77
 6881 1d6b 27090000 		.4byte	.LLST55
 6882 1d6f 33       		.uleb128 0x33
 6883 1d70 820C0000 		.4byte	0xc82
 6884 1d74 45090000 		.4byte	.LLST56
 6885 1d78 33       		.uleb128 0x33
 6886 1d79 8D0C0000 		.4byte	0xc8d
 6887 1d7d 66090000 		.4byte	.LLST57
 6888 1d81 33       		.uleb128 0x33
 6889 1d82 980C0000 		.4byte	0xc98
 6890 1d86 92090000 		.4byte	.LLST58
 6891 1d8a 30       		.uleb128 0x30
 6892 1d8b 660C0000 		.4byte	0xc66
 6893 1d8f 3E000000 		.4byte	.LBB48
 6894 1d93 60000000 		.4byte	.Ldebug_ranges0+0x60
 6895 1d97 01       		.byte	0x1
 6896 1d98 6E       		.byte	0x6e
 6897 1d99 CD1D0000 		.4byte	0x1dcd
 6898 1d9d 33       		.uleb128 0x33
 6899 1d9e 770C0000 		.4byte	0xc77
 6900 1da2 BD090000 		.4byte	.LLST59
 6901 1da6 48       		.uleb128 0x48
 6902 1da7 78000000 		.4byte	.Ldebug_ranges0+0x78
 6903 1dab 49       		.uleb128 0x49
 6904 1dac 980C0000 		.4byte	0xc98
 6905 1db0 49       		.uleb128 0x49
 6906 1db1 8D0C0000 		.4byte	0xc8d
 6907 1db5 49       		.uleb128 0x49
 6908 1db6 820C0000 		.4byte	0xc82
 6909 1dba 4A       		.uleb128 0x4a
 6910 1dbb 48000000 		.4byte	.LVL240
 6911 1dbf 01       		.byte	0x1
 6912 1dc0 B71C0000 		.4byte	0x1cb7
 6913 1dc4 2C       		.uleb128 0x2c
 6914 1dc5 01       		.byte	0x1
 6915 1dc6 50       		.byte	0x50
 6916 1dc7 02       		.byte	0x2
 6917 1dc8 77       		.byte	0x77
 6918 1dc9 00       		.sleb128 0
 6919 1dca 00       		.byte	0
 6920 1dcb 00       		.byte	0
 6921 1dcc 00       		.byte	0
 6922 1dcd 2B       		.uleb128 0x2b
 6923 1dce 0C000000 		.4byte	.LVL233
 6924 1dd2 591B0000 		.4byte	0x1b59
 6925 1dd6 E81D0000 		.4byte	0x1de8
 6926 1dda 2C       		.uleb128 0x2c
 6927 1ddb 01       		.byte	0x1
 6928 1ddc 51       		.byte	0x51
 6929 1ddd 03       		.byte	0x3
 6930 1dde F3       		.byte	0xf3
 6931 1ddf 01       		.uleb128 0x1
ARM GAS  C:\Users\Vergil\AppData\Local\Temp\ccwNg35D.s 			page 123


 6932 1de0 51       		.byte	0x51
 6933 1de1 2C       		.uleb128 0x2c
 6934 1de2 01       		.byte	0x1
 6935 1de3 50       		.byte	0x50
 6936 1de4 02       		.byte	0x2
 6937 1de5 77       		.byte	0x77
 6938 1de6 00       		.sleb128 0
 6939 1de7 00       		.byte	0
 6940 1de8 2B       		.uleb128 0x2b
 6941 1de9 20000000 		.4byte	.LVL235
 6942 1ded 021C0000 		.4byte	0x1c02
 6943 1df1 021E0000 		.4byte	0x1e02
 6944 1df5 2C       		.uleb128 0x2c
 6945 1df6 01       		.byte	0x1
 6946 1df7 51       		.byte	0x51
 6947 1df8 02       		.byte	0x2
 6948 1df9 74       		.byte	0x74
 6949 1dfa 00       		.sleb128 0
 6950 1dfb 2C       		.uleb128 0x2c
 6951 1dfc 01       		.byte	0x1
 6952 1dfd 50       		.byte	0x50
 6953 1dfe 02       		.byte	0x2
 6954 1dff 77       		.byte	0x77
 6955 1e00 00       		.sleb128 0
 6956 1e01 00       		.byte	0
 6957 1e02 2B       		.uleb128 0x2b
 6958 1e03 34000000 		.4byte	.LVL237
 6959 1e07 021C0000 		.4byte	0x1c02
 6960 1e0b 1C1E0000 		.4byte	0x1e1c
 6961 1e0f 2C       		.uleb128 0x2c
 6962 1e10 01       		.byte	0x1
 6963 1e11 51       		.byte	0x51
 6964 1e12 02       		.byte	0x2
 6965 1e13 74       		.byte	0x74
 6966 1e14 00       		.sleb128 0
 6967 1e15 2C       		.uleb128 0x2c
 6968 1e16 01       		.byte	0x1
 6969 1e17 50       		.byte	0x50
 6970 1e18 02       		.byte	0x2
 6971 1e19 77       		.byte	0x77
 6972 1e1a 00       		.sleb128 0
 6973 1e1b 00       		.byte	0
 6974 1e1c 2B       		.uleb128 0x2b
 6975 1e1d 4E000000 		.4byte	.LVL241
 6976 1e21 021C0000 		.4byte	0x1c02
 6977 1e25 301E0000 		.4byte	0x1e30
 6978 1e29 2C       		.uleb128 0x2c
 6979 1e2a 01       		.byte	0x1
 6980 1e2b 50       		.byte	0x50
 6981 1e2c 02       		.byte	0x2
 6982 1e2d 77       		.byte	0x77
 6983 1e2e 00       		.sleb128 0
 6984 1e2f 00       		.byte	0
 6985 1e30 2D       		.uleb128 0x2d
 6986 1e31 5C000000 		.4byte	.LVL242
 6987 1e35 021C0000 		.4byte	0x1c02
 6988 1e39 2C       		.uleb128 0x2c
ARM GAS  C:\Users\Vergil\AppData\Local\Temp\ccwNg35D.s 			page 124


 6989 1e3a 01       		.byte	0x1
 6990 1e3b 51       		.byte	0x51
 6991 1e3c 02       		.byte	0x2
 6992 1e3d 74       		.byte	0x74
 6993 1e3e 00       		.sleb128 0
 6994 1e3f 2C       		.uleb128 0x2c
 6995 1e40 01       		.byte	0x1
 6996 1e41 50       		.byte	0x50
 6997 1e42 02       		.byte	0x2
 6998 1e43 77       		.byte	0x77
 6999 1e44 00       		.sleb128 0
 7000 1e45 00       		.byte	0
 7001 1e46 00       		.byte	0
 7002 1e47 3F       		.uleb128 0x3f
 7003 1e48 01       		.byte	0x1
 7004 1e49 BA040000 		.4byte	.LASF171
 7005 1e4d 01       		.byte	0x1
 7006 1e4e E202     		.2byte	0x2e2
 7007 1e50 01       		.byte	0x1
 7008 1e51 C1000000 		.4byte	0xc1
 7009 1e55 00000000 		.4byte	.LFB138
 7010 1e59 54000000 		.4byte	.LFE138
 7011 1e5d D0090000 		.4byte	.LLST60
 7012 1e61 01       		.byte	0x1
 7013 1e62 F01E0000 		.4byte	0x1ef0
 7014 1e66 25       		.uleb128 0x25
 7015 1e67 0D030000 		.4byte	.LASF145
 7016 1e6b 01       		.byte	0x1
 7017 1e6c E202     		.2byte	0x2e2
 7018 1e6e 0E0C0000 		.4byte	0xc0e
 7019 1e72 F0090000 		.4byte	.LLST61
 7020 1e76 25       		.uleb128 0x25
 7021 1e77 01010000 		.4byte	.LASF151
 7022 1e7b 01       		.byte	0x1
 7023 1e7c E202     		.2byte	0x2e2
 7024 1e7e B6000000 		.4byte	0xb6
 7025 1e82 240A0000 		.4byte	.LLST62
 7026 1e86 37       		.uleb128 0x37
 7027 1e87 14000000 		.4byte	.LVL246
 7028 1e8b 20230000 		.4byte	0x2320
 7029 1e8f 37       		.uleb128 0x37
 7030 1e90 1C000000 		.4byte	.LVL247
 7031 1e94 B2220000 		.4byte	0x22b2
 7032 1e98 37       		.uleb128 0x37
 7033 1e99 24000000 		.4byte	.LVL248
 7034 1e9d C7220000 		.4byte	0x22c7
 7035 1ea1 2B       		.uleb128 0x2b
 7036 1ea2 34000000 		.4byte	.LVL249
 7037 1ea6 5B100000 		.4byte	0x105b
 7038 1eaa C01E0000 		.4byte	0x1ec0
 7039 1eae 2C       		.uleb128 0x2c
 7040 1eaf 01       		.byte	0x1
 7041 1eb0 52       		.byte	0x52
 7042 1eb1 02       		.byte	0x2
 7043 1eb2 75       		.byte	0x75
 7044 1eb3 00       		.sleb128 0
 7045 1eb4 2C       		.uleb128 0x2c
ARM GAS  C:\Users\Vergil\AppData\Local\Temp\ccwNg35D.s 			page 125


 7046 1eb5 01       		.byte	0x1
 7047 1eb6 51       		.byte	0x51
 7048 1eb7 01       		.byte	0x1
 7049 1eb8 49       		.byte	0x49
 7050 1eb9 2C       		.uleb128 0x2c
 7051 1eba 01       		.byte	0x1
 7052 1ebb 50       		.byte	0x50
 7053 1ebc 02       		.byte	0x2
 7054 1ebd 74       		.byte	0x74
 7055 1ebe 00       		.sleb128 0
 7056 1ebf 00       		.byte	0
 7057 1ec0 2B       		.uleb128 0x2b
 7058 1ec1 3A000000 		.4byte	.LVL250
 7059 1ec5 1B0D0000 		.4byte	0xd1b
 7060 1ec9 D41E0000 		.4byte	0x1ed4
 7061 1ecd 2C       		.uleb128 0x2c
 7062 1ece 01       		.byte	0x1
 7063 1ecf 50       		.byte	0x50
 7064 1ed0 02       		.byte	0x2
 7065 1ed1 74       		.byte	0x74
 7066 1ed2 00       		.sleb128 0
 7067 1ed3 00       		.byte	0
 7068 1ed4 37       		.uleb128 0x37
 7069 1ed5 44000000 		.4byte	.LVL251
 7070 1ed9 3A230000 		.4byte	0x233a
 7071 1edd 2D       		.uleb128 0x2d
 7072 1ede 52000000 		.4byte	.LVL253
 7073 1ee2 5B100000 		.4byte	0x105b
 7074 1ee6 2C       		.uleb128 0x2c
 7075 1ee7 01       		.byte	0x1
 7076 1ee8 52       		.byte	0x52
 7077 1ee9 04       		.byte	0x4
 7078 1eea 75       		.byte	0x75
 7079 1eeb 00       		.sleb128 0
 7080 1eec 39       		.byte	0x39
 7081 1eed 24       		.byte	0x24
 7082 1eee 00       		.byte	0
 7083 1eef 00       		.byte	0
 7084 1ef0 3F       		.uleb128 0x3f
 7085 1ef1 01       		.byte	0x1
 7086 1ef2 09060000 		.4byte	.LASF172
 7087 1ef6 01       		.byte	0x1
 7088 1ef7 0A03     		.2byte	0x30a
 7089 1ef9 01       		.byte	0x1
 7090 1efa C1000000 		.4byte	0xc1
 7091 1efe 00000000 		.4byte	.LFB139
 7092 1f02 80000000 		.4byte	.LFE139
 7093 1f06 420A0000 		.4byte	.LLST63
 7094 1f0a 01       		.byte	0x1
 7095 1f0b DD1F0000 		.4byte	0x1fdd
 7096 1f0f 25       		.uleb128 0x25
 7097 1f10 0D030000 		.4byte	.LASF145
 7098 1f14 01       		.byte	0x1
 7099 1f15 0A03     		.2byte	0x30a
 7100 1f17 0E0C0000 		.4byte	0xc0e
 7101 1f1b 6E0A0000 		.4byte	.LLST64
 7102 1f1f 25       		.uleb128 0x25
ARM GAS  C:\Users\Vergil\AppData\Local\Temp\ccwNg35D.s 			page 126


 7103 1f20 B4020000 		.4byte	.LASF144
 7104 1f24 01       		.byte	0x1
 7105 1f25 0A03     		.2byte	0x30a
 7106 1f27 F2040000 		.4byte	0x4f2
 7107 1f2b A20A0000 		.4byte	.LLST65
 7108 1f2f 47       		.uleb128 0x47
 7109 1f30 3A000000 		.4byte	.LASF173
 7110 1f34 01       		.byte	0x1
 7111 1f35 0B03     		.2byte	0x30b
 7112 1f37 ED1F0000 		.4byte	0x1fed
 7113 1f3b 05       		.byte	0x5
 7114 1f3c 03       		.byte	0x3
 7115 1f3d 00000000 		.4byte	start.7386
 7116 1f41 3D       		.uleb128 0x3d
 7117 1f42 6200     		.ascii	"b\000"
 7118 1f44 01       		.byte	0x1
 7119 1f45 0C03     		.2byte	0x30c
 7120 1f47 3F0E0000 		.4byte	0xe3f
 7121 1f4b 02       		.byte	0x2
 7122 1f4c 91       		.byte	0x91
 7123 1f4d 6C       		.sleb128 -20
 7124 1f4e 2B       		.uleb128 0x2b
 7125 1f4f 20000000 		.4byte	.LVL259
 7126 1f53 8C220000 		.4byte	0x228c
 7127 1f57 6A1F0000 		.4byte	0x1f6a
 7128 1f5b 2C       		.uleb128 0x2c
 7129 1f5c 01       		.byte	0x1
 7130 1f5d 52       		.byte	0x52
 7131 1f5e 05       		.byte	0x5
 7132 1f5f 03       		.byte	0x3
 7133 1f60 00000000 		.4byte	.LANCHOR3
 7134 1f64 2C       		.uleb128 0x2c
 7135 1f65 01       		.byte	0x1
 7136 1f66 51       		.byte	0x51
 7137 1f67 01       		.byte	0x1
 7138 1f68 32       		.byte	0x32
 7139 1f69 00       		.byte	0
 7140 1f6a 2B       		.uleb128 0x2b
 7141 1f6b 2E000000 		.4byte	.LVL260
 7142 1f6f 8C220000 		.4byte	0x228c
 7143 1f73 851F0000 		.4byte	0x1f85
 7144 1f77 2C       		.uleb128 0x2c
 7145 1f78 01       		.byte	0x1
 7146 1f79 52       		.byte	0x52
 7147 1f7a 02       		.byte	0x2
 7148 1f7b 75       		.byte	0x75
 7149 1f7c 00       		.sleb128 0
 7150 1f7d 2C       		.uleb128 0x2c
 7151 1f7e 01       		.byte	0x1
 7152 1f7f 51       		.byte	0x51
 7153 1f80 03       		.byte	0x3
 7154 1f81 0A       		.byte	0xa
 7155 1f82 0002     		.2byte	0x200
 7156 1f84 00       		.byte	0
 7157 1f85 2B       		.uleb128 0x2b
 7158 1f86 38000000 		.4byte	.LVL261
 7159 1f8a 06230000 		.4byte	0x2306
ARM GAS  C:\Users\Vergil\AppData\Local\Temp\ccwNg35D.s 			page 127


 7160 1f8e 981F0000 		.4byte	0x1f98
 7161 1f92 2C       		.uleb128 0x2c
 7162 1f93 01       		.byte	0x1
 7163 1f94 51       		.byte	0x51
 7164 1f95 01       		.byte	0x1
 7165 1f96 32       		.byte	0x32
 7166 1f97 00       		.byte	0
 7167 1f98 2B       		.uleb128 0x2b
 7168 1f99 44000000 		.4byte	.LVL262
 7169 1f9d 58220000 		.4byte	0x2258
 7170 1fa1 B11F0000 		.4byte	0x1fb1
 7171 1fa5 2C       		.uleb128 0x2c
 7172 1fa6 01       		.byte	0x1
 7173 1fa7 52       		.byte	0x52
 7174 1fa8 02       		.byte	0x2
 7175 1fa9 91       		.byte	0x91
 7176 1faa 6C       		.sleb128 -20
 7177 1fab 2C       		.uleb128 0x2c
 7178 1fac 01       		.byte	0x1
 7179 1fad 51       		.byte	0x51
 7180 1fae 01       		.byte	0x1
 7181 1faf 31       		.byte	0x31
 7182 1fb0 00       		.byte	0
 7183 1fb1 37       		.uleb128 0x37
 7184 1fb2 58000000 		.4byte	.LVL263
 7185 1fb6 DC220000 		.4byte	0x22dc
 7186 1fba 37       		.uleb128 0x37
 7187 1fbb 60000000 		.4byte	.LVL264
 7188 1fbf F1220000 		.4byte	0x22f1
 7189 1fc3 37       		.uleb128 0x37
 7190 1fc4 68000000 		.4byte	.LVL265
 7191 1fc8 3A230000 		.4byte	0x233a
 7192 1fcc 2D       		.uleb128 0x2d
 7193 1fcd 76000000 		.4byte	.LVL266
 7194 1fd1 4F0E0000 		.4byte	0xe4f
 7195 1fd5 2C       		.uleb128 0x2c
 7196 1fd6 01       		.byte	0x1
 7197 1fd7 50       		.byte	0x50
 7198 1fd8 02       		.byte	0x2
 7199 1fd9 74       		.byte	0x74
 7200 1fda 00       		.sleb128 0
 7201 1fdb 00       		.byte	0
 7202 1fdc 00       		.byte	0
 7203 1fdd 11       		.uleb128 0x11
 7204 1fde 95000000 		.4byte	0x95
 7205 1fe2 ED1F0000 		.4byte	0x1fed
 7206 1fe6 12       		.uleb128 0x12
 7207 1fe7 68000000 		.4byte	0x68
 7208 1feb 01       		.byte	0x1
 7209 1fec 00       		.byte	0
 7210 1fed 06       		.uleb128 0x6
 7211 1fee DD1F0000 		.4byte	0x1fdd
 7212 1ff2 3F       		.uleb128 0x3f
 7213 1ff3 01       		.byte	0x1
 7214 1ff4 6F050000 		.4byte	.LASF174
 7215 1ff8 01       		.byte	0x1
 7216 1ff9 3103     		.2byte	0x331
ARM GAS  C:\Users\Vergil\AppData\Local\Temp\ccwNg35D.s 			page 128


 7217 1ffb 01       		.byte	0x1
 7218 1ffc C1000000 		.4byte	0xc1
 7219 2000 00000000 		.4byte	.LFB140
 7220 2004 38000000 		.4byte	.LFE140
 7221 2008 D60A0000 		.4byte	.LLST66
 7222 200c 01       		.byte	0x1
 7223 200d 62200000 		.4byte	0x2062
 7224 2011 25       		.uleb128 0x25
 7225 2012 0D030000 		.4byte	.LASF145
 7226 2016 01       		.byte	0x1
 7227 2017 3103     		.2byte	0x331
 7228 2019 0E0C0000 		.4byte	0xc0e
 7229 201d F60A0000 		.4byte	.LLST67
 7230 2021 47       		.uleb128 0x47
 7231 2022 E4030000 		.4byte	.LASF175
 7232 2026 01       		.byte	0x1
 7233 2027 3203     		.2byte	0x332
 7234 2029 62200000 		.4byte	0x2062
 7235 202d 05       		.byte	0x5
 7236 202e 03       		.byte	0x3
 7237 202f 00000000 		.4byte	stop.7391
 7238 2033 2B       		.uleb128 0x2b
 7239 2034 1A000000 		.4byte	.LVL271
 7240 2038 8C220000 		.4byte	0x228c
 7241 203c 4F200000 		.4byte	0x204f
 7242 2040 2C       		.uleb128 0x2c
 7243 2041 01       		.byte	0x1
 7244 2042 52       		.byte	0x52
 7245 2043 05       		.byte	0x5
 7246 2044 03       		.byte	0x3
 7247 2045 00000000 		.4byte	.LANCHOR4
 7248 2049 2C       		.uleb128 0x2c
 7249 204a 01       		.byte	0x1
 7250 204b 51       		.byte	0x51
 7251 204c 01       		.byte	0x1
 7252 204d 32       		.byte	0x32
 7253 204e 00       		.byte	0
 7254 204f 37       		.uleb128 0x37
 7255 2050 22000000 		.4byte	.LVL272
 7256 2054 DC220000 		.4byte	0x22dc
 7257 2058 37       		.uleb128 0x37
 7258 2059 2A000000 		.4byte	.LVL273
 7259 205d F1220000 		.4byte	0x22f1
 7260 2061 00       		.byte	0
 7261 2062 06       		.uleb128 0x6
 7262 2063 DD1F0000 		.4byte	0x1fdd
 7263 2067 41       		.uleb128 0x41
 7264 2068 A20C0000 		.4byte	0xca2
 7265 206c 00000000 		.4byte	.LFB119
 7266 2070 70000000 		.4byte	.LFE119
 7267 2074 2A0B0000 		.4byte	.LLST68
 7268 2078 01       		.byte	0x1
 7269 2079 5E210000 		.4byte	0x215e
 7270 207d 33       		.uleb128 0x33
 7271 207e B30C0000 		.4byte	0xcb3
 7272 2082 4A0B0000 		.4byte	.LLST69
 7273 2086 33       		.uleb128 0x33
ARM GAS  C:\Users\Vergil\AppData\Local\Temp\ccwNg35D.s 			page 129


 7274 2087 BE0C0000 		.4byte	0xcbe
 7275 208b 680B0000 		.4byte	.LLST70
 7276 208f 33       		.uleb128 0x33
 7277 2090 C90C0000 		.4byte	0xcc9
 7278 2094 890B0000 		.4byte	.LLST71
 7279 2098 33       		.uleb128 0x33
 7280 2099 D40C0000 		.4byte	0xcd4
 7281 209d B50B0000 		.4byte	.LLST72
 7282 20a1 30       		.uleb128 0x30
 7283 20a2 A20C0000 		.4byte	0xca2
 7284 20a6 3E000000 		.4byte	.LBB54
 7285 20aa 90000000 		.4byte	.Ldebug_ranges0+0x90
 7286 20ae 01       		.byte	0x1
 7287 20af 7E       		.byte	0x7e
 7288 20b0 E4200000 		.4byte	0x20e4
 7289 20b4 33       		.uleb128 0x33
 7290 20b5 B30C0000 		.4byte	0xcb3
 7291 20b9 E00B0000 		.4byte	.LLST73
 7292 20bd 48       		.uleb128 0x48
 7293 20be A8000000 		.4byte	.Ldebug_ranges0+0xa8
 7294 20c2 49       		.uleb128 0x49
 7295 20c3 D40C0000 		.4byte	0xcd4
 7296 20c7 49       		.uleb128 0x49
 7297 20c8 C90C0000 		.4byte	0xcc9
 7298 20cc 49       		.uleb128 0x49
 7299 20cd BE0C0000 		.4byte	0xcbe
 7300 20d1 4A       		.uleb128 0x4a
 7301 20d2 48000000 		.4byte	.LVL282
 7302 20d6 01       		.byte	0x1
 7303 20d7 F21F0000 		.4byte	0x1ff2
 7304 20db 2C       		.uleb128 0x2c
 7305 20dc 01       		.byte	0x1
 7306 20dd 50       		.byte	0x50
 7307 20de 02       		.byte	0x2
 7308 20df 77       		.byte	0x77
 7309 20e0 00       		.sleb128 0
 7310 20e1 00       		.byte	0
 7311 20e2 00       		.byte	0
 7312 20e3 00       		.byte	0
 7313 20e4 2B       		.uleb128 0x2b
 7314 20e5 0C000000 		.4byte	.LVL275
 7315 20e9 471E0000 		.4byte	0x1e47
 7316 20ed FF200000 		.4byte	0x20ff
 7317 20f1 2C       		.uleb128 0x2c
 7318 20f2 01       		.byte	0x1
 7319 20f3 51       		.byte	0x51
 7320 20f4 03       		.byte	0x3
 7321 20f5 F3       		.byte	0xf3
 7322 20f6 01       		.uleb128 0x1
 7323 20f7 51       		.byte	0x51
 7324 20f8 2C       		.uleb128 0x2c
 7325 20f9 01       		.byte	0x1
 7326 20fa 50       		.byte	0x50
 7327 20fb 02       		.byte	0x2
 7328 20fc 77       		.byte	0x77
 7329 20fd 00       		.sleb128 0
 7330 20fe 00       		.byte	0
ARM GAS  C:\Users\Vergil\AppData\Local\Temp\ccwNg35D.s 			page 130


 7331 20ff 2B       		.uleb128 0x2b
 7332 2100 20000000 		.4byte	.LVL277
 7333 2104 F01E0000 		.4byte	0x1ef0
 7334 2108 19210000 		.4byte	0x2119
 7335 210c 2C       		.uleb128 0x2c
 7336 210d 01       		.byte	0x1
 7337 210e 51       		.byte	0x51
 7338 210f 02       		.byte	0x2
 7339 2110 74       		.byte	0x74
 7340 2111 00       		.sleb128 0
 7341 2112 2C       		.uleb128 0x2c
 7342 2113 01       		.byte	0x1
 7343 2114 50       		.byte	0x50
 7344 2115 02       		.byte	0x2
 7345 2116 77       		.byte	0x77
 7346 2117 00       		.sleb128 0
 7347 2118 00       		.byte	0
 7348 2119 2B       		.uleb128 0x2b
 7349 211a 34000000 		.4byte	.LVL279
 7350 211e F01E0000 		.4byte	0x1ef0
 7351 2122 33210000 		.4byte	0x2133
 7352 2126 2C       		.uleb128 0x2c
 7353 2127 01       		.byte	0x1
 7354 2128 51       		.byte	0x51
 7355 2129 02       		.byte	0x2
 7356 212a 74       		.byte	0x74
 7357 212b 00       		.sleb128 0
 7358 212c 2C       		.uleb128 0x2c
 7359 212d 01       		.byte	0x1
 7360 212e 50       		.byte	0x50
 7361 212f 02       		.byte	0x2
 7362 2130 77       		.byte	0x77
 7363 2131 00       		.sleb128 0
 7364 2132 00       		.byte	0
 7365 2133 2B       		.uleb128 0x2b
 7366 2134 4E000000 		.4byte	.LVL283
 7367 2138 F01E0000 		.4byte	0x1ef0
 7368 213c 47210000 		.4byte	0x2147
 7369 2140 2C       		.uleb128 0x2c
 7370 2141 01       		.byte	0x1
 7371 2142 50       		.byte	0x50
 7372 2143 02       		.byte	0x2
 7373 2144 77       		.byte	0x77
 7374 2145 00       		.sleb128 0
 7375 2146 00       		.byte	0
 7376 2147 2D       		.uleb128 0x2d
 7377 2148 5C000000 		.4byte	.LVL284
 7378 214c F01E0000 		.4byte	0x1ef0
 7379 2150 2C       		.uleb128 0x2c
 7380 2151 01       		.byte	0x1
 7381 2152 51       		.byte	0x51
 7382 2153 02       		.byte	0x2
 7383 2154 74       		.byte	0x74
 7384 2155 00       		.sleb128 0
 7385 2156 2C       		.uleb128 0x2c
 7386 2157 01       		.byte	0x1
 7387 2158 50       		.byte	0x50
ARM GAS  C:\Users\Vergil\AppData\Local\Temp\ccwNg35D.s 			page 131


 7388 2159 02       		.byte	0x2
 7389 215a 77       		.byte	0x77
 7390 215b 00       		.sleb128 0
 7391 215c 00       		.byte	0
 7392 215d 00       		.byte	0
 7393 215e 3F       		.uleb128 0x3f
 7394 215f 01       		.byte	0x1
 7395 2160 C8060000 		.4byte	.LASF176
 7396 2164 01       		.byte	0x1
 7397 2165 8603     		.2byte	0x386
 7398 2167 01       		.byte	0x1
 7399 2168 C1000000 		.4byte	0xc1
 7400 216c 00000000 		.4byte	.LFB143
 7401 2170 52000000 		.4byte	.LFE143
 7402 2174 F30B0000 		.4byte	.LLST74
 7403 2178 01       		.byte	0x1
 7404 2179 13220000 		.4byte	0x2213
 7405 217d 25       		.uleb128 0x25
 7406 217e 0D030000 		.4byte	.LASF145
 7407 2182 01       		.byte	0x1
 7408 2183 8603     		.2byte	0x386
 7409 2185 0E0C0000 		.4byte	0xc0e
 7410 2189 130C0000 		.4byte	.LLST75
 7411 218d 25       		.uleb128 0x25
 7412 218e 01010000 		.4byte	.LASF151
 7413 2192 01       		.byte	0x1
 7414 2193 8603     		.2byte	0x386
 7415 2195 B6000000 		.4byte	0xb6
 7416 2199 310C0000 		.4byte	.LLST76
 7417 219d 25       		.uleb128 0x25
 7418 219e 61000000 		.4byte	.LASF177
 7419 21a2 01       		.byte	0x1
 7420 21a3 8603     		.2byte	0x386
 7421 21a5 B6000000 		.4byte	0xb6
 7422 21a9 4F0C0000 		.4byte	.LLST77
 7423 21ad 40       		.uleb128 0x40
 7424 21ae B6070000 		.4byte	.LASF178
 7425 21b2 01       		.byte	0x1
 7426 21b3 A003     		.2byte	0x3a0
 7427 21b5 30000000 		.4byte	.LDL2
 7428 21b9 2B       		.uleb128 0x2b
 7429 21ba 20000000 		.4byte	.LVL289
 7430 21be 15110000 		.4byte	0x1115
 7431 21c2 D3210000 		.4byte	0x21d3
 7432 21c6 2C       		.uleb128 0x2c
 7433 21c7 01       		.byte	0x1
 7434 21c8 51       		.byte	0x51
 7435 21c9 02       		.byte	0x2
 7436 21ca 08       		.byte	0x8
 7437 21cb 20       		.byte	0x20
 7438 21cc 2C       		.uleb128 0x2c
 7439 21cd 01       		.byte	0x1
 7440 21ce 50       		.byte	0x50
 7441 21cf 02       		.byte	0x2
 7442 21d0 74       		.byte	0x74
 7443 21d1 00       		.sleb128 0
 7444 21d2 00       		.byte	0
ARM GAS  C:\Users\Vergil\AppData\Local\Temp\ccwNg35D.s 			page 132


 7445 21d3 2B       		.uleb128 0x2b
 7446 21d4 2C000000 		.4byte	.LVL290
 7447 21d8 15110000 		.4byte	0x1115
 7448 21dc F3210000 		.4byte	0x21f3
 7449 21e0 2C       		.uleb128 0x2c
 7450 21e1 01       		.byte	0x1
 7451 21e2 52       		.byte	0x52
 7452 21e3 02       		.byte	0x2
 7453 21e4 75       		.byte	0x75
 7454 21e5 00       		.sleb128 0
 7455 21e6 2C       		.uleb128 0x2c
 7456 21e7 01       		.byte	0x1
 7457 21e8 51       		.byte	0x51
 7458 21e9 02       		.byte	0x2
 7459 21ea 08       		.byte	0x8
 7460 21eb 21       		.byte	0x21
 7461 21ec 2C       		.uleb128 0x2c
 7462 21ed 01       		.byte	0x1
 7463 21ee 50       		.byte	0x50
 7464 21ef 02       		.byte	0x2
 7465 21f0 74       		.byte	0x74
 7466 21f1 00       		.sleb128 0
 7467 21f2 00       		.byte	0
 7468 21f3 37       		.uleb128 0x37
 7469 21f4 38000000 		.4byte	.LVL291
 7470 21f8 3A230000 		.4byte	0x233a
 7471 21fc 2D       		.uleb128 0x2d
 7472 21fd 48000000 		.4byte	.LVL292
 7473 2201 15110000 		.4byte	0x1115
 7474 2205 2C       		.uleb128 0x2c
 7475 2206 01       		.byte	0x1
 7476 2207 51       		.byte	0x51
 7477 2208 02       		.byte	0x2
 7478 2209 08       		.byte	0x8
 7479 220a 26       		.byte	0x26
 7480 220b 2C       		.uleb128 0x2c
 7481 220c 01       		.byte	0x1
 7482 220d 50       		.byte	0x50
 7483 220e 02       		.byte	0x2
 7484 220f 74       		.byte	0x74
 7485 2210 00       		.sleb128 0
 7486 2211 00       		.byte	0
 7487 2212 00       		.byte	0
 7488 2213 4B       		.uleb128 0x4b
 7489 2214 45050000 		.4byte	.LASF179
 7490 2218 01       		.byte	0x1
 7491 2219 43       		.byte	0x43
 7492 221a A00B0000 		.4byte	0xba0
 7493 221e 05       		.byte	0x5
 7494 221f 03       		.byte	0x3
 7495 2220 00000000 		.4byte	mmc_vmt
 7496 2224 11       		.uleb128 0x11
 7497 2225 95000000 		.4byte	0x95
 7498 2229 34220000 		.4byte	0x2234
 7499 222d 12       		.uleb128 0x12
 7500 222e 68000000 		.4byte	0x68
 7501 2232 FF       		.byte	0xff
ARM GAS  C:\Users\Vergil\AppData\Local\Temp\ccwNg35D.s 			page 133


 7502 2233 00       		.byte	0
 7503 2234 4B       		.uleb128 0x4b
 7504 2235 B2000000 		.4byte	.LASF180
 7505 2239 01       		.byte	0x1
 7506 223a 51       		.byte	0x51
 7507 223b 45220000 		.4byte	0x2245
 7508 223f 05       		.byte	0x5
 7509 2240 03       		.byte	0x3
 7510 2241 00000000 		.4byte	crc7_lookup_table
 7511 2245 06       		.uleb128 0x6
 7512 2246 24220000 		.4byte	0x2224
 7513 224a 4C       		.uleb128 0x4c
 7514 224b B2030000 		.4byte	.LASF196
 7515 224f 11       		.byte	0x11
 7516 2250 9806     		.2byte	0x698
 7517 2252 12050000 		.4byte	0x512
 7518 2256 01       		.byte	0x1
 7519 2257 01       		.byte	0x1
 7520 2258 4D       		.uleb128 0x4d
 7521 2259 01       		.byte	0x1
 7522 225a 70060000 		.4byte	.LASF181
 7523 225e 0D       		.byte	0xd
 7524 225f 3D01     		.2byte	0x13d
 7525 2261 01       		.byte	0x1
 7526 2262 01       		.byte	0x1
 7527 2263 77220000 		.4byte	0x2277
 7528 2267 19       		.uleb128 0x19
 7529 2268 0B0A0000 		.4byte	0xa0b
 7530 226c 19       		.uleb128 0x19
 7531 226d 8A000000 		.4byte	0x8a
 7532 2271 19       		.uleb128 0x19
 7533 2272 6F000000 		.4byte	0x6f
 7534 2276 00       		.byte	0
 7535 2277 4D       		.uleb128 0x4d
 7536 2278 01       		.byte	0x1
 7537 2279 A9020000 		.4byte	.LASF182
 7538 227d 06       		.byte	0x6
 7539 227e 7501     		.2byte	0x175
 7540 2280 01       		.byte	0x1
 7541 2281 01       		.byte	0x1
 7542 2282 8C220000 		.4byte	0x228c
 7543 2286 19       		.uleb128 0x19
 7544 2287 20010000 		.4byte	0x120
 7545 228b 00       		.byte	0
 7546 228c 4D       		.uleb128 0x4d
 7547 228d 01       		.byte	0x1
 7548 228e F7050000 		.4byte	.LASF183
 7549 2292 0D       		.byte	0xd
 7550 2293 3C01     		.2byte	0x13c
 7551 2295 01       		.byte	0x1
 7552 2296 01       		.byte	0x1
 7553 2297 AB220000 		.4byte	0x22ab
 7554 229b 19       		.uleb128 0x19
 7555 229c 0B0A0000 		.4byte	0xa0b
 7556 22a0 19       		.uleb128 0x19
 7557 22a1 8A000000 		.4byte	0x8a
 7558 22a5 19       		.uleb128 0x19
ARM GAS  C:\Users\Vergil\AppData\Local\Temp\ccwNg35D.s 			page 134


 7559 22a6 AB220000 		.4byte	0x22ab
 7560 22aa 00       		.byte	0
 7561 22ab 05       		.uleb128 0x5
 7562 22ac 04       		.byte	0x4
 7563 22ad B1220000 		.4byte	0x22b1
 7564 22b1 4E       		.uleb128 0x4e
 7565 22b2 4D       		.uleb128 0x4d
 7566 22b3 01       		.byte	0x1
 7567 22b4 B3060000 		.4byte	.LASF184
 7568 22b8 0D       		.byte	0xd
 7569 22b9 4001     		.2byte	0x140
 7570 22bb 01       		.byte	0x1
 7571 22bc 01       		.byte	0x1
 7572 22bd C7220000 		.4byte	0x22c7
 7573 22c1 19       		.uleb128 0x19
 7574 22c2 0B0A0000 		.4byte	0xa0b
 7575 22c6 00       		.byte	0
 7576 22c7 4D       		.uleb128 0x4d
 7577 22c8 01       		.byte	0x1
 7578 22c9 05000000 		.4byte	.LASF185
 7579 22cd 0D       		.byte	0xd
 7580 22ce 3201     		.2byte	0x132
 7581 22d0 01       		.byte	0x1
 7582 22d1 01       		.byte	0x1
 7583 22d2 DC220000 		.4byte	0x22dc
 7584 22d6 19       		.uleb128 0x19
 7585 22d7 0B0A0000 		.4byte	0xa0b
 7586 22db 00       		.byte	0
 7587 22dc 4D       		.uleb128 0x4d
 7588 22dd 01       		.byte	0x1
 7589 22de 35030000 		.4byte	.LASF186
 7590 22e2 0D       		.byte	0xd
 7591 22e3 3301     		.2byte	0x133
 7592 22e5 01       		.byte	0x1
 7593 22e6 01       		.byte	0x1
 7594 22e7 F1220000 		.4byte	0x22f1
 7595 22eb 19       		.uleb128 0x19
 7596 22ec 0B0A0000 		.4byte	0xa0b
 7597 22f0 00       		.byte	0
 7598 22f1 4D       		.uleb128 0x4d
 7599 22f2 01       		.byte	0x1
 7600 22f3 71010000 		.4byte	.LASF187
 7601 22f7 0D       		.byte	0xd
 7602 22f8 4101     		.2byte	0x141
 7603 22fa 01       		.byte	0x1
 7604 22fb 01       		.byte	0x1
 7605 22fc 06230000 		.4byte	0x2306
 7606 2300 19       		.uleb128 0x19
 7607 2301 0B0A0000 		.4byte	0xa0b
 7608 2305 00       		.byte	0
 7609 2306 4D       		.uleb128 0x4d
 7610 2307 01       		.byte	0x1
 7611 2308 63070000 		.4byte	.LASF188
 7612 230c 0D       		.byte	0xd
 7613 230d 3A01     		.2byte	0x13a
 7614 230f 01       		.byte	0x1
 7615 2310 01       		.byte	0x1
ARM GAS  C:\Users\Vergil\AppData\Local\Temp\ccwNg35D.s 			page 135


 7616 2311 20230000 		.4byte	0x2320
 7617 2315 19       		.uleb128 0x19
 7618 2316 0B0A0000 		.4byte	0xa0b
 7619 231a 19       		.uleb128 0x19
 7620 231b 8A000000 		.4byte	0x8a
 7621 231f 00       		.byte	0
 7622 2320 4D       		.uleb128 0x4d
 7623 2321 01       		.byte	0x1
 7624 2322 28000000 		.4byte	.LASF189
 7625 2326 0D       		.byte	0xd
 7626 2327 3001     		.2byte	0x130
 7627 2329 01       		.byte	0x1
 7628 232a 01       		.byte	0x1
 7629 232b 3A230000 		.4byte	0x233a
 7630 232f 19       		.uleb128 0x19
 7631 2330 0B0A0000 		.4byte	0xa0b
 7632 2334 19       		.uleb128 0x19
 7633 2335 630A0000 		.4byte	0xa63
 7634 2339 00       		.byte	0
 7635 233a 4D       		.uleb128 0x4d
 7636 233b 01       		.byte	0x1
 7637 233c 7B060000 		.4byte	.LASF190
 7638 2340 0D       		.byte	0xd
 7639 2341 3101     		.2byte	0x131
 7640 2343 01       		.byte	0x1
 7641 2344 01       		.byte	0x1
 7642 2345 4F230000 		.4byte	0x234f
 7643 2349 19       		.uleb128 0x19
 7644 234a 0B0A0000 		.4byte	0xa0b
 7645 234e 00       		.byte	0
 7646 234f 4F       		.uleb128 0x4f
 7647 2350 01       		.byte	0x1
 7648 2351 BB020000 		.4byte	.LASF191
 7649 2355 10       		.byte	0x10
 7650 2356 1501     		.2byte	0x115
 7651 2358 01       		.byte	0x1
 7652 2359 B6000000 		.4byte	0xb6
 7653 235d 01       		.byte	0x1
 7654 235e 19       		.uleb128 0x19
 7655 235f DF140000 		.4byte	0x14df
 7656 2363 00       		.byte	0
 7657 2364 00       		.byte	0
 7658              		.section	.debug_abbrev,"",%progbits
 7659              	.Ldebug_abbrev0:
 7660 0000 01       		.uleb128 0x1
 7661 0001 11       		.uleb128 0x11
 7662 0002 01       		.byte	0x1
 7663 0003 25       		.uleb128 0x25
 7664 0004 0E       		.uleb128 0xe
 7665 0005 13       		.uleb128 0x13
 7666 0006 0B       		.uleb128 0xb
 7667 0007 03       		.uleb128 0x3
 7668 0008 0E       		.uleb128 0xe
 7669 0009 1B       		.uleb128 0x1b
 7670 000a 0E       		.uleb128 0xe
 7671 000b 55       		.uleb128 0x55
 7672 000c 06       		.uleb128 0x6
ARM GAS  C:\Users\Vergil\AppData\Local\Temp\ccwNg35D.s 			page 136


 7673 000d 11       		.uleb128 0x11
 7674 000e 01       		.uleb128 0x1
 7675 000f 52       		.uleb128 0x52
 7676 0010 01       		.uleb128 0x1
 7677 0011 10       		.uleb128 0x10
 7678 0012 06       		.uleb128 0x6
 7679 0013 00       		.byte	0
 7680 0014 00       		.byte	0
 7681 0015 02       		.uleb128 0x2
 7682 0016 24       		.uleb128 0x24
 7683 0017 00       		.byte	0
 7684 0018 0B       		.uleb128 0xb
 7685 0019 0B       		.uleb128 0xb
 7686 001a 3E       		.uleb128 0x3e
 7687 001b 0B       		.uleb128 0xb
 7688 001c 03       		.uleb128 0x3
 7689 001d 0E       		.uleb128 0xe
 7690 001e 00       		.byte	0
 7691 001f 00       		.byte	0
 7692 0020 03       		.uleb128 0x3
 7693 0021 24       		.uleb128 0x24
 7694 0022 00       		.byte	0
 7695 0023 0B       		.uleb128 0xb
 7696 0024 0B       		.uleb128 0xb
 7697 0025 3E       		.uleb128 0x3e
 7698 0026 0B       		.uleb128 0xb
 7699 0027 03       		.uleb128 0x3
 7700 0028 08       		.uleb128 0x8
 7701 0029 00       		.byte	0
 7702 002a 00       		.byte	0
 7703 002b 04       		.uleb128 0x4
 7704 002c 0F       		.uleb128 0xf
 7705 002d 00       		.byte	0
 7706 002e 0B       		.uleb128 0xb
 7707 002f 0B       		.uleb128 0xb
 7708 0030 00       		.byte	0
 7709 0031 00       		.byte	0
 7710 0032 05       		.uleb128 0x5
 7711 0033 0F       		.uleb128 0xf
 7712 0034 00       		.byte	0
 7713 0035 0B       		.uleb128 0xb
 7714 0036 0B       		.uleb128 0xb
 7715 0037 49       		.uleb128 0x49
 7716 0038 13       		.uleb128 0x13
 7717 0039 00       		.byte	0
 7718 003a 00       		.byte	0
 7719 003b 06       		.uleb128 0x6
 7720 003c 26       		.uleb128 0x26
 7721 003d 00       		.byte	0
 7722 003e 49       		.uleb128 0x49
 7723 003f 13       		.uleb128 0x13
 7724 0040 00       		.byte	0
 7725 0041 00       		.byte	0
 7726 0042 07       		.uleb128 0x7
 7727 0043 16       		.uleb128 0x16
 7728 0044 00       		.byte	0
 7729 0045 03       		.uleb128 0x3
ARM GAS  C:\Users\Vergil\AppData\Local\Temp\ccwNg35D.s 			page 137


 7730 0046 0E       		.uleb128 0xe
 7731 0047 3A       		.uleb128 0x3a
 7732 0048 0B       		.uleb128 0xb
 7733 0049 3B       		.uleb128 0x3b
 7734 004a 0B       		.uleb128 0xb
 7735 004b 49       		.uleb128 0x49
 7736 004c 13       		.uleb128 0x13
 7737 004d 00       		.byte	0
 7738 004e 00       		.byte	0
 7739 004f 08       		.uleb128 0x8
 7740 0050 13       		.uleb128 0x13
 7741 0051 01       		.byte	0x1
 7742 0052 03       		.uleb128 0x3
 7743 0053 0E       		.uleb128 0xe
 7744 0054 0B       		.uleb128 0xb
 7745 0055 0B       		.uleb128 0xb
 7746 0056 3A       		.uleb128 0x3a
 7747 0057 0B       		.uleb128 0xb
 7748 0058 3B       		.uleb128 0x3b
 7749 0059 0B       		.uleb128 0xb
 7750 005a 01       		.uleb128 0x1
 7751 005b 13       		.uleb128 0x13
 7752 005c 00       		.byte	0
 7753 005d 00       		.byte	0
 7754 005e 09       		.uleb128 0x9
 7755 005f 0D       		.uleb128 0xd
 7756 0060 00       		.byte	0
 7757 0061 03       		.uleb128 0x3
 7758 0062 0E       		.uleb128 0xe
 7759 0063 3A       		.uleb128 0x3a
 7760 0064 0B       		.uleb128 0xb
 7761 0065 3B       		.uleb128 0x3b
 7762 0066 0B       		.uleb128 0xb
 7763 0067 49       		.uleb128 0x49
 7764 0068 13       		.uleb128 0x13
 7765 0069 38       		.uleb128 0x38
 7766 006a 0A       		.uleb128 0xa
 7767 006b 00       		.byte	0
 7768 006c 00       		.byte	0
 7769 006d 0A       		.uleb128 0xa
 7770 006e 0D       		.uleb128 0xd
 7771 006f 00       		.byte	0
 7772 0070 03       		.uleb128 0x3
 7773 0071 08       		.uleb128 0x8
 7774 0072 3A       		.uleb128 0x3a
 7775 0073 0B       		.uleb128 0xb
 7776 0074 3B       		.uleb128 0x3b
 7777 0075 0B       		.uleb128 0xb
 7778 0076 49       		.uleb128 0x49
 7779 0077 13       		.uleb128 0x13
 7780 0078 38       		.uleb128 0x38
 7781 0079 0A       		.uleb128 0xa
 7782 007a 00       		.byte	0
 7783 007b 00       		.byte	0
 7784 007c 0B       		.uleb128 0xb
 7785 007d 13       		.uleb128 0x13
 7786 007e 01       		.byte	0x1
ARM GAS  C:\Users\Vergil\AppData\Local\Temp\ccwNg35D.s 			page 138


 7787 007f 0B       		.uleb128 0xb
 7788 0080 0B       		.uleb128 0xb
 7789 0081 3A       		.uleb128 0x3a
 7790 0082 0B       		.uleb128 0xb
 7791 0083 3B       		.uleb128 0x3b
 7792 0084 0B       		.uleb128 0xb
 7793 0085 01       		.uleb128 0x1
 7794 0086 13       		.uleb128 0x13
 7795 0087 00       		.byte	0
 7796 0088 00       		.byte	0
 7797 0089 0C       		.uleb128 0xc
 7798 008a 13       		.uleb128 0x13
 7799 008b 01       		.byte	0x1
 7800 008c 03       		.uleb128 0x3
 7801 008d 0E       		.uleb128 0xe
 7802 008e 0B       		.uleb128 0xb
 7803 008f 0B       		.uleb128 0xb
 7804 0090 3A       		.uleb128 0x3a
 7805 0091 0B       		.uleb128 0xb
 7806 0092 3B       		.uleb128 0x3b
 7807 0093 05       		.uleb128 0x5
 7808 0094 01       		.uleb128 0x1
 7809 0095 13       		.uleb128 0x13
 7810 0096 00       		.byte	0
 7811 0097 00       		.byte	0
 7812 0098 0D       		.uleb128 0xd
 7813 0099 0D       		.uleb128 0xd
 7814 009a 00       		.byte	0
 7815 009b 03       		.uleb128 0x3
 7816 009c 08       		.uleb128 0x8
 7817 009d 3A       		.uleb128 0x3a
 7818 009e 0B       		.uleb128 0xb
 7819 009f 3B       		.uleb128 0x3b
 7820 00a0 05       		.uleb128 0x5
 7821 00a1 49       		.uleb128 0x49
 7822 00a2 13       		.uleb128 0x13
 7823 00a3 38       		.uleb128 0x38
 7824 00a4 0A       		.uleb128 0xa
 7825 00a5 00       		.byte	0
 7826 00a6 00       		.byte	0
 7827 00a7 0E       		.uleb128 0xe
 7828 00a8 35       		.uleb128 0x35
 7829 00a9 00       		.byte	0
 7830 00aa 49       		.uleb128 0x49
 7831 00ab 13       		.uleb128 0x13
 7832 00ac 00       		.byte	0
 7833 00ad 00       		.byte	0
 7834 00ae 0F       		.uleb128 0xf
 7835 00af 17       		.uleb128 0x17
 7836 00b0 01       		.byte	0x1
 7837 00b1 0B       		.uleb128 0xb
 7838 00b2 0B       		.uleb128 0xb
 7839 00b3 3A       		.uleb128 0x3a
 7840 00b4 0B       		.uleb128 0xb
 7841 00b5 3B       		.uleb128 0x3b
 7842 00b6 0B       		.uleb128 0xb
 7843 00b7 01       		.uleb128 0x1
ARM GAS  C:\Users\Vergil\AppData\Local\Temp\ccwNg35D.s 			page 139


 7844 00b8 13       		.uleb128 0x13
 7845 00b9 00       		.byte	0
 7846 00ba 00       		.byte	0
 7847 00bb 10       		.uleb128 0x10
 7848 00bc 0D       		.uleb128 0xd
 7849 00bd 00       		.byte	0
 7850 00be 03       		.uleb128 0x3
 7851 00bf 0E       		.uleb128 0xe
 7852 00c0 3A       		.uleb128 0x3a
 7853 00c1 0B       		.uleb128 0xb
 7854 00c2 3B       		.uleb128 0x3b
 7855 00c3 0B       		.uleb128 0xb
 7856 00c4 49       		.uleb128 0x49
 7857 00c5 13       		.uleb128 0x13
 7858 00c6 00       		.byte	0
 7859 00c7 00       		.byte	0
 7860 00c8 11       		.uleb128 0x11
 7861 00c9 01       		.uleb128 0x1
 7862 00ca 01       		.byte	0x1
 7863 00cb 49       		.uleb128 0x49
 7864 00cc 13       		.uleb128 0x13
 7865 00cd 01       		.uleb128 0x1
 7866 00ce 13       		.uleb128 0x13
 7867 00cf 00       		.byte	0
 7868 00d0 00       		.byte	0
 7869 00d1 12       		.uleb128 0x12
 7870 00d2 21       		.uleb128 0x21
 7871 00d3 00       		.byte	0
 7872 00d4 49       		.uleb128 0x49
 7873 00d5 13       		.uleb128 0x13
 7874 00d6 2F       		.uleb128 0x2f
 7875 00d7 0B       		.uleb128 0xb
 7876 00d8 00       		.byte	0
 7877 00d9 00       		.byte	0
 7878 00da 13       		.uleb128 0x13
 7879 00db 13       		.uleb128 0x13
 7880 00dc 01       		.byte	0x1
 7881 00dd 0B       		.uleb128 0xb
 7882 00de 0B       		.uleb128 0xb
 7883 00df 3A       		.uleb128 0x3a
 7884 00e0 0B       		.uleb128 0xb
 7885 00e1 3B       		.uleb128 0x3b
 7886 00e2 05       		.uleb128 0x5
 7887 00e3 01       		.uleb128 0x1
 7888 00e4 13       		.uleb128 0x13
 7889 00e5 00       		.byte	0
 7890 00e6 00       		.byte	0
 7891 00e7 14       		.uleb128 0x14
 7892 00e8 0D       		.uleb128 0xd
 7893 00e9 00       		.byte	0
 7894 00ea 03       		.uleb128 0x3
 7895 00eb 0E       		.uleb128 0xe
 7896 00ec 3A       		.uleb128 0x3a
 7897 00ed 0B       		.uleb128 0xb
 7898 00ee 3B       		.uleb128 0x3b
 7899 00ef 05       		.uleb128 0x5
 7900 00f0 49       		.uleb128 0x49
ARM GAS  C:\Users\Vergil\AppData\Local\Temp\ccwNg35D.s 			page 140


 7901 00f1 13       		.uleb128 0x13
 7902 00f2 38       		.uleb128 0x38
 7903 00f3 0A       		.uleb128 0xa
 7904 00f4 00       		.byte	0
 7905 00f5 00       		.byte	0
 7906 00f6 15       		.uleb128 0x15
 7907 00f7 16       		.uleb128 0x16
 7908 00f8 00       		.byte	0
 7909 00f9 03       		.uleb128 0x3
 7910 00fa 0E       		.uleb128 0xe
 7911 00fb 3A       		.uleb128 0x3a
 7912 00fc 0B       		.uleb128 0xb
 7913 00fd 3B       		.uleb128 0x3b
 7914 00fe 05       		.uleb128 0x5
 7915 00ff 49       		.uleb128 0x49
 7916 0100 13       		.uleb128 0x13
 7917 0101 00       		.byte	0
 7918 0102 00       		.byte	0
 7919 0103 16       		.uleb128 0x16
 7920 0104 04       		.uleb128 0x4
 7921 0105 01       		.byte	0x1
 7922 0106 0B       		.uleb128 0xb
 7923 0107 0B       		.uleb128 0xb
 7924 0108 3A       		.uleb128 0x3a
 7925 0109 0B       		.uleb128 0xb
 7926 010a 3B       		.uleb128 0x3b
 7927 010b 0B       		.uleb128 0xb
 7928 010c 01       		.uleb128 0x1
 7929 010d 13       		.uleb128 0x13
 7930 010e 00       		.byte	0
 7931 010f 00       		.byte	0
 7932 0110 17       		.uleb128 0x17
 7933 0111 28       		.uleb128 0x28
 7934 0112 00       		.byte	0
 7935 0113 03       		.uleb128 0x3
 7936 0114 0E       		.uleb128 0xe
 7937 0115 1C       		.uleb128 0x1c
 7938 0116 0D       		.uleb128 0xd
 7939 0117 00       		.byte	0
 7940 0118 00       		.byte	0
 7941 0119 18       		.uleb128 0x18
 7942 011a 15       		.uleb128 0x15
 7943 011b 01       		.byte	0x1
 7944 011c 27       		.uleb128 0x27
 7945 011d 0C       		.uleb128 0xc
 7946 011e 49       		.uleb128 0x49
 7947 011f 13       		.uleb128 0x13
 7948 0120 01       		.uleb128 0x1
 7949 0121 13       		.uleb128 0x13
 7950 0122 00       		.byte	0
 7951 0123 00       		.byte	0
 7952 0124 19       		.uleb128 0x19
 7953 0125 05       		.uleb128 0x5
 7954 0126 00       		.byte	0
 7955 0127 49       		.uleb128 0x49
 7956 0128 13       		.uleb128 0x13
 7957 0129 00       		.byte	0
ARM GAS  C:\Users\Vergil\AppData\Local\Temp\ccwNg35D.s 			page 141


 7958 012a 00       		.byte	0
 7959 012b 1A       		.uleb128 0x1a
 7960 012c 0D       		.uleb128 0xd
 7961 012d 00       		.byte	0
 7962 012e 03       		.uleb128 0x3
 7963 012f 08       		.uleb128 0x8
 7964 0130 3A       		.uleb128 0x3a
 7965 0131 0B       		.uleb128 0xb
 7966 0132 3B       		.uleb128 0x3b
 7967 0133 0B       		.uleb128 0xb
 7968 0134 49       		.uleb128 0x49
 7969 0135 13       		.uleb128 0x13
 7970 0136 00       		.byte	0
 7971 0137 00       		.byte	0
 7972 0138 1B       		.uleb128 0x1b
 7973 0139 15       		.uleb128 0x15
 7974 013a 01       		.byte	0x1
 7975 013b 27       		.uleb128 0x27
 7976 013c 0C       		.uleb128 0xc
 7977 013d 01       		.uleb128 0x1
 7978 013e 13       		.uleb128 0x13
 7979 013f 00       		.byte	0
 7980 0140 00       		.byte	0
 7981 0141 1C       		.uleb128 0x1c
 7982 0142 2E       		.uleb128 0x2e
 7983 0143 01       		.byte	0x1
 7984 0144 03       		.uleb128 0x3
 7985 0145 0E       		.uleb128 0xe
 7986 0146 3A       		.uleb128 0x3a
 7987 0147 0B       		.uleb128 0xb
 7988 0148 3B       		.uleb128 0x3b
 7989 0149 0B       		.uleb128 0xb
 7990 014a 27       		.uleb128 0x27
 7991 014b 0C       		.uleb128 0xc
 7992 014c 49       		.uleb128 0x49
 7993 014d 13       		.uleb128 0x13
 7994 014e 20       		.uleb128 0x20
 7995 014f 0B       		.uleb128 0xb
 7996 0150 01       		.uleb128 0x1
 7997 0151 13       		.uleb128 0x13
 7998 0152 00       		.byte	0
 7999 0153 00       		.byte	0
 8000 0154 1D       		.uleb128 0x1d
 8001 0155 05       		.uleb128 0x5
 8002 0156 00       		.byte	0
 8003 0157 03       		.uleb128 0x3
 8004 0158 08       		.uleb128 0x8
 8005 0159 3A       		.uleb128 0x3a
 8006 015a 0B       		.uleb128 0xb
 8007 015b 3B       		.uleb128 0x3b
 8008 015c 0B       		.uleb128 0xb
 8009 015d 49       		.uleb128 0x49
 8010 015e 13       		.uleb128 0x13
 8011 015f 00       		.byte	0
 8012 0160 00       		.byte	0
 8013 0161 1E       		.uleb128 0x1e
 8014 0162 05       		.uleb128 0x5
ARM GAS  C:\Users\Vergil\AppData\Local\Temp\ccwNg35D.s 			page 142


 8015 0163 00       		.byte	0
 8016 0164 03       		.uleb128 0x3
 8017 0165 0E       		.uleb128 0xe
 8018 0166 3A       		.uleb128 0x3a
 8019 0167 0B       		.uleb128 0xb
 8020 0168 3B       		.uleb128 0x3b
 8021 0169 0B       		.uleb128 0xb
 8022 016a 49       		.uleb128 0x49
 8023 016b 13       		.uleb128 0x13
 8024 016c 00       		.byte	0
 8025 016d 00       		.byte	0
 8026 016e 1F       		.uleb128 0x1f
 8027 016f 2E       		.uleb128 0x2e
 8028 0170 01       		.byte	0x1
 8029 0171 3F       		.uleb128 0x3f
 8030 0172 0C       		.uleb128 0xc
 8031 0173 03       		.uleb128 0x3
 8032 0174 0E       		.uleb128 0xe
 8033 0175 3A       		.uleb128 0x3a
 8034 0176 0B       		.uleb128 0xb
 8035 0177 3B       		.uleb128 0x3b
 8036 0178 05       		.uleb128 0x5
 8037 0179 27       		.uleb128 0x27
 8038 017a 0C       		.uleb128 0xc
 8039 017b 49       		.uleb128 0x49
 8040 017c 13       		.uleb128 0x13
 8041 017d 20       		.uleb128 0x20
 8042 017e 0B       		.uleb128 0xb
 8043 017f 01       		.uleb128 0x1
 8044 0180 13       		.uleb128 0x13
 8045 0181 00       		.byte	0
 8046 0182 00       		.byte	0
 8047 0183 20       		.uleb128 0x20
 8048 0184 05       		.uleb128 0x5
 8049 0185 00       		.byte	0
 8050 0186 03       		.uleb128 0x3
 8051 0187 0E       		.uleb128 0xe
 8052 0188 3A       		.uleb128 0x3a
 8053 0189 0B       		.uleb128 0xb
 8054 018a 3B       		.uleb128 0x3b
 8055 018b 05       		.uleb128 0x5
 8056 018c 49       		.uleb128 0x49
 8057 018d 13       		.uleb128 0x13
 8058 018e 00       		.byte	0
 8059 018f 00       		.byte	0
 8060 0190 21       		.uleb128 0x21
 8061 0191 0B       		.uleb128 0xb
 8062 0192 01       		.byte	0x1
 8063 0193 01       		.uleb128 0x1
 8064 0194 13       		.uleb128 0x13
 8065 0195 00       		.byte	0
 8066 0196 00       		.byte	0
 8067 0197 22       		.uleb128 0x22
 8068 0198 34       		.uleb128 0x34
 8069 0199 00       		.byte	0
 8070 019a 03       		.uleb128 0x3
 8071 019b 08       		.uleb128 0x8
ARM GAS  C:\Users\Vergil\AppData\Local\Temp\ccwNg35D.s 			page 143


 8072 019c 3A       		.uleb128 0x3a
 8073 019d 0B       		.uleb128 0xb
 8074 019e 3B       		.uleb128 0x3b
 8075 019f 05       		.uleb128 0x5
 8076 01a0 49       		.uleb128 0x49
 8077 01a1 13       		.uleb128 0x13
 8078 01a2 00       		.byte	0
 8079 01a3 00       		.byte	0
 8080 01a4 23       		.uleb128 0x23
 8081 01a5 0B       		.uleb128 0xb
 8082 01a6 01       		.byte	0x1
 8083 01a7 00       		.byte	0
 8084 01a8 00       		.byte	0
 8085 01a9 24       		.uleb128 0x24
 8086 01aa 2E       		.uleb128 0x2e
 8087 01ab 01       		.byte	0x1
 8088 01ac 3F       		.uleb128 0x3f
 8089 01ad 0C       		.uleb128 0xc
 8090 01ae 03       		.uleb128 0x3
 8091 01af 0E       		.uleb128 0xe
 8092 01b0 3A       		.uleb128 0x3a
 8093 01b1 0B       		.uleb128 0xb
 8094 01b2 3B       		.uleb128 0x3b
 8095 01b3 05       		.uleb128 0x5
 8096 01b4 27       		.uleb128 0x27
 8097 01b5 0C       		.uleb128 0xc
 8098 01b6 49       		.uleb128 0x49
 8099 01b7 13       		.uleb128 0x13
 8100 01b8 11       		.uleb128 0x11
 8101 01b9 01       		.uleb128 0x1
 8102 01ba 12       		.uleb128 0x12
 8103 01bb 01       		.uleb128 0x1
 8104 01bc 40       		.uleb128 0x40
 8105 01bd 0A       		.uleb128 0xa
 8106 01be 9742     		.uleb128 0x2117
 8107 01c0 0C       		.uleb128 0xc
 8108 01c1 01       		.uleb128 0x1
 8109 01c2 13       		.uleb128 0x13
 8110 01c3 00       		.byte	0
 8111 01c4 00       		.byte	0
 8112 01c5 25       		.uleb128 0x25
 8113 01c6 05       		.uleb128 0x5
 8114 01c7 00       		.byte	0
 8115 01c8 03       		.uleb128 0x3
 8116 01c9 0E       		.uleb128 0xe
 8117 01ca 3A       		.uleb128 0x3a
 8118 01cb 0B       		.uleb128 0xb
 8119 01cc 3B       		.uleb128 0x3b
 8120 01cd 05       		.uleb128 0x5
 8121 01ce 49       		.uleb128 0x49
 8122 01cf 13       		.uleb128 0x13
 8123 01d0 02       		.uleb128 0x2
 8124 01d1 06       		.uleb128 0x6
 8125 01d2 00       		.byte	0
 8126 01d3 00       		.byte	0
 8127 01d4 26       		.uleb128 0x26
 8128 01d5 05       		.uleb128 0x5
ARM GAS  C:\Users\Vergil\AppData\Local\Temp\ccwNg35D.s 			page 144


 8129 01d6 00       		.byte	0
 8130 01d7 03       		.uleb128 0x3
 8131 01d8 0E       		.uleb128 0xe
 8132 01d9 3A       		.uleb128 0x3a
 8133 01da 0B       		.uleb128 0xb
 8134 01db 3B       		.uleb128 0x3b
 8135 01dc 05       		.uleb128 0x5
 8136 01dd 49       		.uleb128 0x49
 8137 01de 13       		.uleb128 0x13
 8138 01df 02       		.uleb128 0x2
 8139 01e0 0A       		.uleb128 0xa
 8140 01e1 00       		.byte	0
 8141 01e2 00       		.byte	0
 8142 01e3 27       		.uleb128 0x27
 8143 01e4 2E       		.uleb128 0x2e
 8144 01e5 01       		.byte	0x1
 8145 01e6 03       		.uleb128 0x3
 8146 01e7 0E       		.uleb128 0xe
 8147 01e8 3A       		.uleb128 0x3a
 8148 01e9 0B       		.uleb128 0xb
 8149 01ea 3B       		.uleb128 0x3b
 8150 01eb 0B       		.uleb128 0xb
 8151 01ec 27       		.uleb128 0x27
 8152 01ed 0C       		.uleb128 0xc
 8153 01ee 49       		.uleb128 0x49
 8154 01ef 13       		.uleb128 0x13
 8155 01f0 11       		.uleb128 0x11
 8156 01f1 01       		.uleb128 0x1
 8157 01f2 12       		.uleb128 0x12
 8158 01f3 01       		.uleb128 0x1
 8159 01f4 40       		.uleb128 0x40
 8160 01f5 06       		.uleb128 0x6
 8161 01f6 9742     		.uleb128 0x2117
 8162 01f8 0C       		.uleb128 0xc
 8163 01f9 01       		.uleb128 0x1
 8164 01fa 13       		.uleb128 0x13
 8165 01fb 00       		.byte	0
 8166 01fc 00       		.byte	0
 8167 01fd 28       		.uleb128 0x28
 8168 01fe 05       		.uleb128 0x5
 8169 01ff 00       		.byte	0
 8170 0200 03       		.uleb128 0x3
 8171 0201 0E       		.uleb128 0xe
 8172 0202 3A       		.uleb128 0x3a
 8173 0203 0B       		.uleb128 0xb
 8174 0204 3B       		.uleb128 0x3b
 8175 0205 0B       		.uleb128 0xb
 8176 0206 49       		.uleb128 0x49
 8177 0207 13       		.uleb128 0x13
 8178 0208 02       		.uleb128 0x2
 8179 0209 06       		.uleb128 0x6
 8180 020a 00       		.byte	0
 8181 020b 00       		.byte	0
 8182 020c 29       		.uleb128 0x29
 8183 020d 34       		.uleb128 0x34
 8184 020e 00       		.byte	0
 8185 020f 03       		.uleb128 0x3
ARM GAS  C:\Users\Vergil\AppData\Local\Temp\ccwNg35D.s 			page 145


 8186 0210 08       		.uleb128 0x8
 8187 0211 3A       		.uleb128 0x3a
 8188 0212 0B       		.uleb128 0xb
 8189 0213 3B       		.uleb128 0x3b
 8190 0214 0B       		.uleb128 0xb
 8191 0215 49       		.uleb128 0x49
 8192 0216 13       		.uleb128 0x13
 8193 0217 02       		.uleb128 0x2
 8194 0218 06       		.uleb128 0x6
 8195 0219 00       		.byte	0
 8196 021a 00       		.byte	0
 8197 021b 2A       		.uleb128 0x2a
 8198 021c 34       		.uleb128 0x34
 8199 021d 00       		.byte	0
 8200 021e 03       		.uleb128 0x3
 8201 021f 08       		.uleb128 0x8
 8202 0220 3A       		.uleb128 0x3a
 8203 0221 0B       		.uleb128 0xb
 8204 0222 3B       		.uleb128 0x3b
 8205 0223 0B       		.uleb128 0xb
 8206 0224 49       		.uleb128 0x49
 8207 0225 13       		.uleb128 0x13
 8208 0226 02       		.uleb128 0x2
 8209 0227 0A       		.uleb128 0xa
 8210 0228 00       		.byte	0
 8211 0229 00       		.byte	0
 8212 022a 2B       		.uleb128 0x2b
 8213 022b 898201   		.uleb128 0x4109
 8214 022e 01       		.byte	0x1
 8215 022f 11       		.uleb128 0x11
 8216 0230 01       		.uleb128 0x1
 8217 0231 31       		.uleb128 0x31
 8218 0232 13       		.uleb128 0x13
 8219 0233 01       		.uleb128 0x1
 8220 0234 13       		.uleb128 0x13
 8221 0235 00       		.byte	0
 8222 0236 00       		.byte	0
 8223 0237 2C       		.uleb128 0x2c
 8224 0238 8A8201   		.uleb128 0x410a
 8225 023b 00       		.byte	0
 8226 023c 02       		.uleb128 0x2
 8227 023d 0A       		.uleb128 0xa
 8228 023e 9142     		.uleb128 0x2111
 8229 0240 0A       		.uleb128 0xa
 8230 0241 00       		.byte	0
 8231 0242 00       		.byte	0
 8232 0243 2D       		.uleb128 0x2d
 8233 0244 898201   		.uleb128 0x4109
 8234 0247 01       		.byte	0x1
 8235 0248 11       		.uleb128 0x11
 8236 0249 01       		.uleb128 0x1
 8237 024a 31       		.uleb128 0x31
 8238 024b 13       		.uleb128 0x13
 8239 024c 00       		.byte	0
 8240 024d 00       		.byte	0
 8241 024e 2E       		.uleb128 0x2e
 8242 024f 2E       		.uleb128 0x2e
ARM GAS  C:\Users\Vergil\AppData\Local\Temp\ccwNg35D.s 			page 146


 8243 0250 01       		.byte	0x1
 8244 0251 03       		.uleb128 0x3
 8245 0252 0E       		.uleb128 0xe
 8246 0253 3A       		.uleb128 0x3a
 8247 0254 0B       		.uleb128 0xb
 8248 0255 3B       		.uleb128 0x3b
 8249 0256 0B       		.uleb128 0xb
 8250 0257 27       		.uleb128 0x27
 8251 0258 0C       		.uleb128 0xc
 8252 0259 11       		.uleb128 0x11
 8253 025a 01       		.uleb128 0x1
 8254 025b 12       		.uleb128 0x12
 8255 025c 01       		.uleb128 0x1
 8256 025d 40       		.uleb128 0x40
 8257 025e 06       		.uleb128 0x6
 8258 025f 9742     		.uleb128 0x2117
 8259 0261 0C       		.uleb128 0xc
 8260 0262 01       		.uleb128 0x1
 8261 0263 13       		.uleb128 0x13
 8262 0264 00       		.byte	0
 8263 0265 00       		.byte	0
 8264 0266 2F       		.uleb128 0x2f
 8265 0267 05       		.uleb128 0x5
 8266 0268 00       		.byte	0
 8267 0269 03       		.uleb128 0x3
 8268 026a 08       		.uleb128 0x8
 8269 026b 3A       		.uleb128 0x3a
 8270 026c 0B       		.uleb128 0xb
 8271 026d 3B       		.uleb128 0x3b
 8272 026e 0B       		.uleb128 0xb
 8273 026f 49       		.uleb128 0x49
 8274 0270 13       		.uleb128 0x13
 8275 0271 02       		.uleb128 0x2
 8276 0272 06       		.uleb128 0x6
 8277 0273 00       		.byte	0
 8278 0274 00       		.byte	0
 8279 0275 30       		.uleb128 0x30
 8280 0276 1D       		.uleb128 0x1d
 8281 0277 01       		.byte	0x1
 8282 0278 31       		.uleb128 0x31
 8283 0279 13       		.uleb128 0x13
 8284 027a 52       		.uleb128 0x52
 8285 027b 01       		.uleb128 0x1
 8286 027c 55       		.uleb128 0x55
 8287 027d 06       		.uleb128 0x6
 8288 027e 58       		.uleb128 0x58
 8289 027f 0B       		.uleb128 0xb
 8290 0280 59       		.uleb128 0x59
 8291 0281 0B       		.uleb128 0xb
 8292 0282 01       		.uleb128 0x1
 8293 0283 13       		.uleb128 0x13
 8294 0284 00       		.byte	0
 8295 0285 00       		.byte	0
 8296 0286 31       		.uleb128 0x31
 8297 0287 05       		.uleb128 0x5
 8298 0288 00       		.byte	0
 8299 0289 31       		.uleb128 0x31
ARM GAS  C:\Users\Vergil\AppData\Local\Temp\ccwNg35D.s 			page 147


 8300 028a 13       		.uleb128 0x13
 8301 028b 1C       		.uleb128 0x1c
 8302 028c 0D       		.uleb128 0xd
 8303 028d 00       		.byte	0
 8304 028e 00       		.byte	0
 8305 028f 32       		.uleb128 0x32
 8306 0290 05       		.uleb128 0x5
 8307 0291 00       		.byte	0
 8308 0292 31       		.uleb128 0x31
 8309 0293 13       		.uleb128 0x13
 8310 0294 02       		.uleb128 0x2
 8311 0295 0A       		.uleb128 0xa
 8312 0296 00       		.byte	0
 8313 0297 00       		.byte	0
 8314 0298 33       		.uleb128 0x33
 8315 0299 05       		.uleb128 0x5
 8316 029a 00       		.byte	0
 8317 029b 31       		.uleb128 0x31
 8318 029c 13       		.uleb128 0x13
 8319 029d 02       		.uleb128 0x2
 8320 029e 06       		.uleb128 0x6
 8321 029f 00       		.byte	0
 8322 02a0 00       		.byte	0
 8323 02a1 34       		.uleb128 0x34
 8324 02a2 2E       		.uleb128 0x2e
 8325 02a3 01       		.byte	0x1
 8326 02a4 03       		.uleb128 0x3
 8327 02a5 0E       		.uleb128 0xe
 8328 02a6 3A       		.uleb128 0x3a
 8329 02a7 0B       		.uleb128 0xb
 8330 02a8 3B       		.uleb128 0x3b
 8331 02a9 05       		.uleb128 0x5
 8332 02aa 27       		.uleb128 0x27
 8333 02ab 0C       		.uleb128 0xc
 8334 02ac 49       		.uleb128 0x49
 8335 02ad 13       		.uleb128 0x13
 8336 02ae 11       		.uleb128 0x11
 8337 02af 01       		.uleb128 0x1
 8338 02b0 12       		.uleb128 0x12
 8339 02b1 01       		.uleb128 0x1
 8340 02b2 40       		.uleb128 0x40
 8341 02b3 06       		.uleb128 0x6
 8342 02b4 9742     		.uleb128 0x2117
 8343 02b6 0C       		.uleb128 0xc
 8344 02b7 01       		.uleb128 0x1
 8345 02b8 13       		.uleb128 0x13
 8346 02b9 00       		.byte	0
 8347 02ba 00       		.byte	0
 8348 02bb 35       		.uleb128 0x35
 8349 02bc 05       		.uleb128 0x5
 8350 02bd 00       		.byte	0
 8351 02be 03       		.uleb128 0x3
 8352 02bf 08       		.uleb128 0x8
 8353 02c0 3A       		.uleb128 0x3a
 8354 02c1 0B       		.uleb128 0xb
 8355 02c2 3B       		.uleb128 0x3b
 8356 02c3 05       		.uleb128 0x5
ARM GAS  C:\Users\Vergil\AppData\Local\Temp\ccwNg35D.s 			page 148


 8357 02c4 49       		.uleb128 0x49
 8358 02c5 13       		.uleb128 0x13
 8359 02c6 02       		.uleb128 0x2
 8360 02c7 06       		.uleb128 0x6
 8361 02c8 00       		.byte	0
 8362 02c9 00       		.byte	0
 8363 02ca 36       		.uleb128 0x36
 8364 02cb 34       		.uleb128 0x34
 8365 02cc 00       		.byte	0
 8366 02cd 03       		.uleb128 0x3
 8367 02ce 08       		.uleb128 0x8
 8368 02cf 3A       		.uleb128 0x3a
 8369 02d0 0B       		.uleb128 0xb
 8370 02d1 3B       		.uleb128 0x3b
 8371 02d2 05       		.uleb128 0x5
 8372 02d3 49       		.uleb128 0x49
 8373 02d4 13       		.uleb128 0x13
 8374 02d5 02       		.uleb128 0x2
 8375 02d6 06       		.uleb128 0x6
 8376 02d7 00       		.byte	0
 8377 02d8 00       		.byte	0
 8378 02d9 37       		.uleb128 0x37
 8379 02da 898201   		.uleb128 0x4109
 8380 02dd 00       		.byte	0
 8381 02de 11       		.uleb128 0x11
 8382 02df 01       		.uleb128 0x1
 8383 02e0 31       		.uleb128 0x31
 8384 02e1 13       		.uleb128 0x13
 8385 02e2 00       		.byte	0
 8386 02e3 00       		.byte	0
 8387 02e4 38       		.uleb128 0x38
 8388 02e5 34       		.uleb128 0x34
 8389 02e6 00       		.byte	0
 8390 02e7 03       		.uleb128 0x3
 8391 02e8 08       		.uleb128 0x8
 8392 02e9 3A       		.uleb128 0x3a
 8393 02ea 0B       		.uleb128 0xb
 8394 02eb 3B       		.uleb128 0x3b
 8395 02ec 0B       		.uleb128 0xb
 8396 02ed 49       		.uleb128 0x49
 8397 02ee 13       		.uleb128 0x13
 8398 02ef 00       		.byte	0
 8399 02f0 00       		.byte	0
 8400 02f1 39       		.uleb128 0x39
 8401 02f2 1D       		.uleb128 0x1d
 8402 02f3 01       		.byte	0x1
 8403 02f4 31       		.uleb128 0x31
 8404 02f5 13       		.uleb128 0x13
 8405 02f6 11       		.uleb128 0x11
 8406 02f7 01       		.uleb128 0x1
 8407 02f8 12       		.uleb128 0x12
 8408 02f9 01       		.uleb128 0x1
 8409 02fa 58       		.uleb128 0x58
 8410 02fb 0B       		.uleb128 0xb
 8411 02fc 59       		.uleb128 0x59
 8412 02fd 05       		.uleb128 0x5
 8413 02fe 01       		.uleb128 0x1
ARM GAS  C:\Users\Vergil\AppData\Local\Temp\ccwNg35D.s 			page 149


 8414 02ff 13       		.uleb128 0x13
 8415 0300 00       		.byte	0
 8416 0301 00       		.byte	0
 8417 0302 3A       		.uleb128 0x3a
 8418 0303 0B       		.uleb128 0xb
 8419 0304 01       		.byte	0x1
 8420 0305 11       		.uleb128 0x11
 8421 0306 01       		.uleb128 0x1
 8422 0307 12       		.uleb128 0x12
 8423 0308 01       		.uleb128 0x1
 8424 0309 00       		.byte	0
 8425 030a 00       		.byte	0
 8426 030b 3B       		.uleb128 0x3b
 8427 030c 34       		.uleb128 0x34
 8428 030d 00       		.byte	0
 8429 030e 31       		.uleb128 0x31
 8430 030f 13       		.uleb128 0x13
 8431 0310 02       		.uleb128 0x2
 8432 0311 06       		.uleb128 0x6
 8433 0312 00       		.byte	0
 8434 0313 00       		.byte	0
 8435 0314 3C       		.uleb128 0x3c
 8436 0315 2E       		.uleb128 0x2e
 8437 0316 01       		.byte	0x1
 8438 0317 03       		.uleb128 0x3
 8439 0318 0E       		.uleb128 0xe
 8440 0319 3A       		.uleb128 0x3a
 8441 031a 0B       		.uleb128 0xb
 8442 031b 3B       		.uleb128 0x3b
 8443 031c 05       		.uleb128 0x5
 8444 031d 27       		.uleb128 0x27
 8445 031e 0C       		.uleb128 0xc
 8446 031f 11       		.uleb128 0x11
 8447 0320 01       		.uleb128 0x1
 8448 0321 12       		.uleb128 0x12
 8449 0322 01       		.uleb128 0x1
 8450 0323 40       		.uleb128 0x40
 8451 0324 06       		.uleb128 0x6
 8452 0325 9742     		.uleb128 0x2117
 8453 0327 0C       		.uleb128 0xc
 8454 0328 01       		.uleb128 0x1
 8455 0329 13       		.uleb128 0x13
 8456 032a 00       		.byte	0
 8457 032b 00       		.byte	0
 8458 032c 3D       		.uleb128 0x3d
 8459 032d 34       		.uleb128 0x34
 8460 032e 00       		.byte	0
 8461 032f 03       		.uleb128 0x3
 8462 0330 08       		.uleb128 0x8
 8463 0331 3A       		.uleb128 0x3a
 8464 0332 0B       		.uleb128 0xb
 8465 0333 3B       		.uleb128 0x3b
 8466 0334 05       		.uleb128 0x5
 8467 0335 49       		.uleb128 0x49
 8468 0336 13       		.uleb128 0x13
 8469 0337 02       		.uleb128 0x2
 8470 0338 0A       		.uleb128 0xa
ARM GAS  C:\Users\Vergil\AppData\Local\Temp\ccwNg35D.s 			page 150


 8471 0339 00       		.byte	0
 8472 033a 00       		.byte	0
 8473 033b 3E       		.uleb128 0x3e
 8474 033c 0B       		.uleb128 0xb
 8475 033d 01       		.byte	0x1
 8476 033e 11       		.uleb128 0x11
 8477 033f 01       		.uleb128 0x1
 8478 0340 12       		.uleb128 0x12
 8479 0341 01       		.uleb128 0x1
 8480 0342 01       		.uleb128 0x1
 8481 0343 13       		.uleb128 0x13
 8482 0344 00       		.byte	0
 8483 0345 00       		.byte	0
 8484 0346 3F       		.uleb128 0x3f
 8485 0347 2E       		.uleb128 0x2e
 8486 0348 01       		.byte	0x1
 8487 0349 3F       		.uleb128 0x3f
 8488 034a 0C       		.uleb128 0xc
 8489 034b 03       		.uleb128 0x3
 8490 034c 0E       		.uleb128 0xe
 8491 034d 3A       		.uleb128 0x3a
 8492 034e 0B       		.uleb128 0xb
 8493 034f 3B       		.uleb128 0x3b
 8494 0350 05       		.uleb128 0x5
 8495 0351 27       		.uleb128 0x27
 8496 0352 0C       		.uleb128 0xc
 8497 0353 49       		.uleb128 0x49
 8498 0354 13       		.uleb128 0x13
 8499 0355 11       		.uleb128 0x11
 8500 0356 01       		.uleb128 0x1
 8501 0357 12       		.uleb128 0x12
 8502 0358 01       		.uleb128 0x1
 8503 0359 40       		.uleb128 0x40
 8504 035a 06       		.uleb128 0x6
 8505 035b 9742     		.uleb128 0x2117
 8506 035d 0C       		.uleb128 0xc
 8507 035e 01       		.uleb128 0x1
 8508 035f 13       		.uleb128 0x13
 8509 0360 00       		.byte	0
 8510 0361 00       		.byte	0
 8511 0362 40       		.uleb128 0x40
 8512 0363 0A       		.uleb128 0xa
 8513 0364 00       		.byte	0
 8514 0365 03       		.uleb128 0x3
 8515 0366 0E       		.uleb128 0xe
 8516 0367 3A       		.uleb128 0x3a
 8517 0368 0B       		.uleb128 0xb
 8518 0369 3B       		.uleb128 0x3b
 8519 036a 05       		.uleb128 0x5
 8520 036b 11       		.uleb128 0x11
 8521 036c 01       		.uleb128 0x1
 8522 036d 00       		.byte	0
 8523 036e 00       		.byte	0
 8524 036f 41       		.uleb128 0x41
 8525 0370 2E       		.uleb128 0x2e
 8526 0371 01       		.byte	0x1
 8527 0372 31       		.uleb128 0x31
ARM GAS  C:\Users\Vergil\AppData\Local\Temp\ccwNg35D.s 			page 151


 8528 0373 13       		.uleb128 0x13
 8529 0374 11       		.uleb128 0x11
 8530 0375 01       		.uleb128 0x1
 8531 0376 12       		.uleb128 0x12
 8532 0377 01       		.uleb128 0x1
 8533 0378 40       		.uleb128 0x40
 8534 0379 06       		.uleb128 0x6
 8535 037a 9742     		.uleb128 0x2117
 8536 037c 0C       		.uleb128 0xc
 8537 037d 01       		.uleb128 0x1
 8538 037e 13       		.uleb128 0x13
 8539 037f 00       		.byte	0
 8540 0380 00       		.byte	0
 8541 0381 42       		.uleb128 0x42
 8542 0382 1D       		.uleb128 0x1d
 8543 0383 01       		.byte	0x1
 8544 0384 31       		.uleb128 0x31
 8545 0385 13       		.uleb128 0x13
 8546 0386 11       		.uleb128 0x11
 8547 0387 01       		.uleb128 0x1
 8548 0388 12       		.uleb128 0x12
 8549 0389 01       		.uleb128 0x1
 8550 038a 58       		.uleb128 0x58
 8551 038b 0B       		.uleb128 0xb
 8552 038c 59       		.uleb128 0x59
 8553 038d 05       		.uleb128 0x5
 8554 038e 00       		.byte	0
 8555 038f 00       		.byte	0
 8556 0390 43       		.uleb128 0x43
 8557 0391 0B       		.uleb128 0xb
 8558 0392 01       		.byte	0x1
 8559 0393 55       		.uleb128 0x55
 8560 0394 06       		.uleb128 0x6
 8561 0395 01       		.uleb128 0x1
 8562 0396 13       		.uleb128 0x13
 8563 0397 00       		.byte	0
 8564 0398 00       		.byte	0
 8565 0399 44       		.uleb128 0x44
 8566 039a 2E       		.uleb128 0x2e
 8567 039b 00       		.byte	0
 8568 039c 3F       		.uleb128 0x3f
 8569 039d 0C       		.uleb128 0xc
 8570 039e 03       		.uleb128 0x3
 8571 039f 0E       		.uleb128 0xe
 8572 03a0 3A       		.uleb128 0x3a
 8573 03a1 0B       		.uleb128 0xb
 8574 03a2 3B       		.uleb128 0x3b
 8575 03a3 05       		.uleb128 0x5
 8576 03a4 27       		.uleb128 0x27
 8577 03a5 0C       		.uleb128 0xc
 8578 03a6 11       		.uleb128 0x11
 8579 03a7 01       		.uleb128 0x1
 8580 03a8 12       		.uleb128 0x12
 8581 03a9 01       		.uleb128 0x1
 8582 03aa 40       		.uleb128 0x40
 8583 03ab 0A       		.uleb128 0xa
 8584 03ac 9742     		.uleb128 0x2117
ARM GAS  C:\Users\Vergil\AppData\Local\Temp\ccwNg35D.s 			page 152


 8585 03ae 0C       		.uleb128 0xc
 8586 03af 00       		.byte	0
 8587 03b0 00       		.byte	0
 8588 03b1 45       		.uleb128 0x45
 8589 03b2 2E       		.uleb128 0x2e
 8590 03b3 01       		.byte	0x1
 8591 03b4 3F       		.uleb128 0x3f
 8592 03b5 0C       		.uleb128 0xc
 8593 03b6 03       		.uleb128 0x3
 8594 03b7 0E       		.uleb128 0xe
 8595 03b8 3A       		.uleb128 0x3a
 8596 03b9 0B       		.uleb128 0xb
 8597 03ba 3B       		.uleb128 0x3b
 8598 03bb 05       		.uleb128 0x5
 8599 03bc 27       		.uleb128 0x27
 8600 03bd 0C       		.uleb128 0xc
 8601 03be 11       		.uleb128 0x11
 8602 03bf 01       		.uleb128 0x1
 8603 03c0 12       		.uleb128 0x12
 8604 03c1 01       		.uleb128 0x1
 8605 03c2 40       		.uleb128 0x40
 8606 03c3 0A       		.uleb128 0xa
 8607 03c4 9742     		.uleb128 0x2117
 8608 03c6 0C       		.uleb128 0xc
 8609 03c7 01       		.uleb128 0x1
 8610 03c8 13       		.uleb128 0x13
 8611 03c9 00       		.byte	0
 8612 03ca 00       		.byte	0
 8613 03cb 46       		.uleb128 0x46
 8614 03cc 2E       		.uleb128 0x2e
 8615 03cd 01       		.byte	0x1
 8616 03ce 3F       		.uleb128 0x3f
 8617 03cf 0C       		.uleb128 0xc
 8618 03d0 03       		.uleb128 0x3
 8619 03d1 0E       		.uleb128 0xe
 8620 03d2 3A       		.uleb128 0x3a
 8621 03d3 0B       		.uleb128 0xb
 8622 03d4 3B       		.uleb128 0x3b
 8623 03d5 05       		.uleb128 0x5
 8624 03d6 27       		.uleb128 0x27
 8625 03d7 0C       		.uleb128 0xc
 8626 03d8 11       		.uleb128 0x11
 8627 03d9 01       		.uleb128 0x1
 8628 03da 12       		.uleb128 0x12
 8629 03db 01       		.uleb128 0x1
 8630 03dc 40       		.uleb128 0x40
 8631 03dd 06       		.uleb128 0x6
 8632 03de 9742     		.uleb128 0x2117
 8633 03e0 0C       		.uleb128 0xc
 8634 03e1 01       		.uleb128 0x1
 8635 03e2 13       		.uleb128 0x13
 8636 03e3 00       		.byte	0
 8637 03e4 00       		.byte	0
 8638 03e5 47       		.uleb128 0x47
 8639 03e6 34       		.uleb128 0x34
 8640 03e7 00       		.byte	0
 8641 03e8 03       		.uleb128 0x3
ARM GAS  C:\Users\Vergil\AppData\Local\Temp\ccwNg35D.s 			page 153


 8642 03e9 0E       		.uleb128 0xe
 8643 03ea 3A       		.uleb128 0x3a
 8644 03eb 0B       		.uleb128 0xb
 8645 03ec 3B       		.uleb128 0x3b
 8646 03ed 05       		.uleb128 0x5
 8647 03ee 49       		.uleb128 0x49
 8648 03ef 13       		.uleb128 0x13
 8649 03f0 02       		.uleb128 0x2
 8650 03f1 0A       		.uleb128 0xa
 8651 03f2 00       		.byte	0
 8652 03f3 00       		.byte	0
 8653 03f4 48       		.uleb128 0x48
 8654 03f5 0B       		.uleb128 0xb
 8655 03f6 01       		.byte	0x1
 8656 03f7 55       		.uleb128 0x55
 8657 03f8 06       		.uleb128 0x6
 8658 03f9 00       		.byte	0
 8659 03fa 00       		.byte	0
 8660 03fb 49       		.uleb128 0x49
 8661 03fc 05       		.uleb128 0x5
 8662 03fd 00       		.byte	0
 8663 03fe 31       		.uleb128 0x31
 8664 03ff 13       		.uleb128 0x13
 8665 0400 00       		.byte	0
 8666 0401 00       		.byte	0
 8667 0402 4A       		.uleb128 0x4a
 8668 0403 898201   		.uleb128 0x4109
 8669 0406 01       		.byte	0x1
 8670 0407 11       		.uleb128 0x11
 8671 0408 01       		.uleb128 0x1
 8672 0409 9542     		.uleb128 0x2115
 8673 040b 0C       		.uleb128 0xc
 8674 040c 31       		.uleb128 0x31
 8675 040d 13       		.uleb128 0x13
 8676 040e 00       		.byte	0
 8677 040f 00       		.byte	0
 8678 0410 4B       		.uleb128 0x4b
 8679 0411 34       		.uleb128 0x34
 8680 0412 00       		.byte	0
 8681 0413 03       		.uleb128 0x3
 8682 0414 0E       		.uleb128 0xe
 8683 0415 3A       		.uleb128 0x3a
 8684 0416 0B       		.uleb128 0xb
 8685 0417 3B       		.uleb128 0x3b
 8686 0418 0B       		.uleb128 0xb
 8687 0419 49       		.uleb128 0x49
 8688 041a 13       		.uleb128 0x13
 8689 041b 02       		.uleb128 0x2
 8690 041c 0A       		.uleb128 0xa
 8691 041d 00       		.byte	0
 8692 041e 00       		.byte	0
 8693 041f 4C       		.uleb128 0x4c
 8694 0420 34       		.uleb128 0x34
 8695 0421 00       		.byte	0
 8696 0422 03       		.uleb128 0x3
 8697 0423 0E       		.uleb128 0xe
 8698 0424 3A       		.uleb128 0x3a
ARM GAS  C:\Users\Vergil\AppData\Local\Temp\ccwNg35D.s 			page 154


 8699 0425 0B       		.uleb128 0xb
 8700 0426 3B       		.uleb128 0x3b
 8701 0427 05       		.uleb128 0x5
 8702 0428 49       		.uleb128 0x49
 8703 0429 13       		.uleb128 0x13
 8704 042a 3F       		.uleb128 0x3f
 8705 042b 0C       		.uleb128 0xc
 8706 042c 3C       		.uleb128 0x3c
 8707 042d 0C       		.uleb128 0xc
 8708 042e 00       		.byte	0
 8709 042f 00       		.byte	0
 8710 0430 4D       		.uleb128 0x4d
 8711 0431 2E       		.uleb128 0x2e
 8712 0432 01       		.byte	0x1
 8713 0433 3F       		.uleb128 0x3f
 8714 0434 0C       		.uleb128 0xc
 8715 0435 03       		.uleb128 0x3
 8716 0436 0E       		.uleb128 0xe
 8717 0437 3A       		.uleb128 0x3a
 8718 0438 0B       		.uleb128 0xb
 8719 0439 3B       		.uleb128 0x3b
 8720 043a 05       		.uleb128 0x5
 8721 043b 27       		.uleb128 0x27
 8722 043c 0C       		.uleb128 0xc
 8723 043d 3C       		.uleb128 0x3c
 8724 043e 0C       		.uleb128 0xc
 8725 043f 01       		.uleb128 0x1
 8726 0440 13       		.uleb128 0x13
 8727 0441 00       		.byte	0
 8728 0442 00       		.byte	0
 8729 0443 4E       		.uleb128 0x4e
 8730 0444 26       		.uleb128 0x26
 8731 0445 00       		.byte	0
 8732 0446 00       		.byte	0
 8733 0447 00       		.byte	0
 8734 0448 4F       		.uleb128 0x4f
 8735 0449 2E       		.uleb128 0x2e
 8736 044a 01       		.byte	0x1
 8737 044b 3F       		.uleb128 0x3f
 8738 044c 0C       		.uleb128 0xc
 8739 044d 03       		.uleb128 0x3
 8740 044e 0E       		.uleb128 0xe
 8741 044f 3A       		.uleb128 0x3a
 8742 0450 0B       		.uleb128 0xb
 8743 0451 3B       		.uleb128 0x3b
 8744 0452 05       		.uleb128 0x5
 8745 0453 27       		.uleb128 0x27
 8746 0454 0C       		.uleb128 0xc
 8747 0455 49       		.uleb128 0x49
 8748 0456 13       		.uleb128 0x13
 8749 0457 3C       		.uleb128 0x3c
 8750 0458 0C       		.uleb128 0xc
 8751 0459 00       		.byte	0
 8752 045a 00       		.byte	0
 8753 045b 00       		.byte	0
 8754              		.section	.debug_loc,"",%progbits
 8755              	.Ldebug_loc0:
ARM GAS  C:\Users\Vergil\AppData\Local\Temp\ccwNg35D.s 			page 155


 8756              	.LLST0:
 8757 0000 00000000 		.4byte	.LVL0
 8758 0004 08000000 		.4byte	.LVL1
 8759 0008 0100     		.2byte	0x1
 8760 000a 50       		.byte	0x50
 8761 000b 08000000 		.4byte	.LVL1
 8762 000f 0A000000 		.4byte	.LVL2
 8763 0013 0400     		.2byte	0x4
 8764 0015 F3       		.byte	0xf3
 8765 0016 01       		.uleb128 0x1
 8766 0017 50       		.byte	0x50
 8767 0018 9F       		.byte	0x9f
 8768 0019 0A000000 		.4byte	.LVL2
 8769 001d 0C000000 		.4byte	.LVL3
 8770 0021 0100     		.2byte	0x1
 8771 0023 50       		.byte	0x50
 8772 0024 0C000000 		.4byte	.LVL3
 8773 0028 18000000 		.4byte	.LFE142
 8774 002c 0400     		.2byte	0x4
 8775 002e F3       		.byte	0xf3
 8776 002f 01       		.uleb128 0x1
 8777 0030 50       		.byte	0x50
 8778 0031 9F       		.byte	0x9f
 8779 0032 00000000 		.4byte	0
 8780 0036 00000000 		.4byte	0
 8781              	.LLST1:
 8782 003a 00000000 		.4byte	.LFB123
 8783 003e 02000000 		.4byte	.LCFI0
 8784 0042 0200     		.2byte	0x2
 8785 0044 7D       		.byte	0x7d
 8786 0045 00       		.sleb128 0
 8787 0046 02000000 		.4byte	.LCFI0
 8788 004a 06000000 		.4byte	.LCFI1
 8789 004e 0200     		.2byte	0x2
 8790 0050 7D       		.byte	0x7d
 8791 0051 08       		.sleb128 8
 8792 0052 06000000 		.4byte	.LCFI1
 8793 0056 BA000000 		.4byte	.LFE123
 8794 005a 0200     		.2byte	0x2
 8795 005c 7D       		.byte	0x7d
 8796 005d 10       		.sleb128 16
 8797 005e 00000000 		.4byte	0
 8798 0062 00000000 		.4byte	0
 8799              	.LLST2:
 8800 0066 00000000 		.4byte	.LVL4
 8801 006a 0E000000 		.4byte	.LVL5
 8802 006e 0100     		.2byte	0x1
 8803 0070 50       		.byte	0x50
 8804 0071 0E000000 		.4byte	.LVL5
 8805 0075 BA000000 		.4byte	.LFE123
 8806 0079 0100     		.2byte	0x1
 8807 007b 54       		.byte	0x54
 8808 007c 00000000 		.4byte	0
 8809 0080 00000000 		.4byte	0
 8810              	.LLST3:
 8811 0084 00000000 		.4byte	.LVL4
 8812 0088 1A000000 		.4byte	.LVL7
ARM GAS  C:\Users\Vergil\AppData\Local\Temp\ccwNg35D.s 			page 156


 8813 008c 0200     		.2byte	0x2
 8814 008e 30       		.byte	0x30
 8815 008f 9F       		.byte	0x9f
 8816 0090 1A000000 		.4byte	.LVL7
 8817 0094 2E000000 		.4byte	.LVL9
 8818 0098 0200     		.2byte	0x2
 8819 009a 31       		.byte	0x31
 8820 009b 9F       		.byte	0x9f
 8821 009c 2E000000 		.4byte	.LVL9
 8822 00a0 42000000 		.4byte	.LVL11
 8823 00a4 0200     		.2byte	0x2
 8824 00a6 32       		.byte	0x32
 8825 00a7 9F       		.byte	0x9f
 8826 00a8 42000000 		.4byte	.LVL11
 8827 00ac 56000000 		.4byte	.LVL13
 8828 00b0 0200     		.2byte	0x2
 8829 00b2 33       		.byte	0x33
 8830 00b3 9F       		.byte	0x9f
 8831 00b4 56000000 		.4byte	.LVL13
 8832 00b8 6A000000 		.4byte	.LVL15
 8833 00bc 0200     		.2byte	0x2
 8834 00be 34       		.byte	0x34
 8835 00bf 9F       		.byte	0x9f
 8836 00c0 6A000000 		.4byte	.LVL15
 8837 00c4 7E000000 		.4byte	.LVL17
 8838 00c8 0200     		.2byte	0x2
 8839 00ca 35       		.byte	0x35
 8840 00cb 9F       		.byte	0x9f
 8841 00cc 7E000000 		.4byte	.LVL17
 8842 00d0 92000000 		.4byte	.LVL19
 8843 00d4 0200     		.2byte	0x2
 8844 00d6 36       		.byte	0x36
 8845 00d7 9F       		.byte	0x9f
 8846 00d8 92000000 		.4byte	.LVL19
 8847 00dc A6000000 		.4byte	.LVL21
 8848 00e0 0200     		.2byte	0x2
 8849 00e2 37       		.byte	0x37
 8850 00e3 9F       		.byte	0x9f
 8851 00e4 A6000000 		.4byte	.LVL21
 8852 00e8 B6000000 		.4byte	.LVL23
 8853 00ec 0200     		.2byte	0x2
 8854 00ee 38       		.byte	0x38
 8855 00ef 9F       		.byte	0x9f
 8856 00f0 00000000 		.4byte	0
 8857 00f4 00000000 		.4byte	0
 8858              	.LLST4:
 8859 00f8 00000000 		.4byte	.LFB121
 8860 00fc 02000000 		.4byte	.LCFI2
 8861 0100 0200     		.2byte	0x2
 8862 0102 7D       		.byte	0x7d
 8863 0103 00       		.sleb128 0
 8864 0104 02000000 		.4byte	.LCFI2
 8865 0108 06000000 		.4byte	.LCFI3
 8866 010c 0200     		.2byte	0x2
 8867 010e 7D       		.byte	0x7d
 8868 010f 08       		.sleb128 8
 8869 0110 06000000 		.4byte	.LCFI3
ARM GAS  C:\Users\Vergil\AppData\Local\Temp\ccwNg35D.s 			page 157


 8870 0114 6C010000 		.4byte	.LFE121
 8871 0118 0200     		.2byte	0x2
 8872 011a 7D       		.byte	0x7d
 8873 011b 10       		.sleb128 16
 8874 011c 00000000 		.4byte	0
 8875 0120 00000000 		.4byte	0
 8876              	.LLST5:
 8877 0124 00000000 		.4byte	.LVL24
 8878 0128 0E000000 		.4byte	.LVL25
 8879 012c 0100     		.2byte	0x1
 8880 012e 50       		.byte	0x50
 8881 012f 0E000000 		.4byte	.LVL25
 8882 0133 6C010000 		.4byte	.LFE121
 8883 0137 0100     		.2byte	0x1
 8884 0139 54       		.byte	0x54
 8885 013a 00000000 		.4byte	0
 8886 013e 00000000 		.4byte	0
 8887              	.LLST6:
 8888 0142 00000000 		.4byte	.LVL24
 8889 0146 1C000000 		.4byte	.LVL27
 8890 014a 0200     		.2byte	0x2
 8891 014c 30       		.byte	0x30
 8892 014d 9F       		.byte	0x9f
 8893 014e 1C000000 		.4byte	.LVL27
 8894 0152 32000000 		.4byte	.LVL29
 8895 0156 0200     		.2byte	0x2
 8896 0158 31       		.byte	0x31
 8897 0159 9F       		.byte	0x9f
 8898 015a 32000000 		.4byte	.LVL29
 8899 015e 48000000 		.4byte	.LVL31
 8900 0162 0200     		.2byte	0x2
 8901 0164 32       		.byte	0x32
 8902 0165 9F       		.byte	0x9f
 8903 0166 48000000 		.4byte	.LVL31
 8904 016a 5C000000 		.4byte	.LVL33
 8905 016e 0200     		.2byte	0x2
 8906 0170 33       		.byte	0x33
 8907 0171 9F       		.byte	0x9f
 8908 0172 5C000000 		.4byte	.LVL33
 8909 0176 70000000 		.4byte	.LVL35
 8910 017a 0200     		.2byte	0x2
 8911 017c 34       		.byte	0x34
 8912 017d 9F       		.byte	0x9f
 8913 017e 70000000 		.4byte	.LVL35
 8914 0182 84000000 		.4byte	.LVL37
 8915 0186 0200     		.2byte	0x2
 8916 0188 35       		.byte	0x35
 8917 0189 9F       		.byte	0x9f
 8918 018a 84000000 		.4byte	.LVL37
 8919 018e 98000000 		.4byte	.LVL39
 8920 0192 0200     		.2byte	0x2
 8921 0194 36       		.byte	0x36
 8922 0195 9F       		.byte	0x9f
 8923 0196 98000000 		.4byte	.LVL39
 8924 019a AC000000 		.4byte	.LVL41
 8925 019e 0200     		.2byte	0x2
 8926 01a0 37       		.byte	0x37
ARM GAS  C:\Users\Vergil\AppData\Local\Temp\ccwNg35D.s 			page 158


 8927 01a1 9F       		.byte	0x9f
 8928 01a2 AC000000 		.4byte	.LVL41
 8929 01a6 C0000000 		.4byte	.LVL43
 8930 01aa 0200     		.2byte	0x2
 8931 01ac 38       		.byte	0x38
 8932 01ad 9F       		.byte	0x9f
 8933 01ae C0000000 		.4byte	.LVL43
 8934 01b2 D4000000 		.4byte	.LVL45
 8935 01b6 0200     		.2byte	0x2
 8936 01b8 39       		.byte	0x39
 8937 01b9 9F       		.byte	0x9f
 8938 01ba D4000000 		.4byte	.LVL45
 8939 01be E8000000 		.4byte	.LVL47
 8940 01c2 0200     		.2byte	0x2
 8941 01c4 3A       		.byte	0x3a
 8942 01c5 9F       		.byte	0x9f
 8943 01c6 E8000000 		.4byte	.LVL47
 8944 01ca FC000000 		.4byte	.LVL49
 8945 01ce 0200     		.2byte	0x2
 8946 01d0 3B       		.byte	0x3b
 8947 01d1 9F       		.byte	0x9f
 8948 01d2 FC000000 		.4byte	.LVL49
 8949 01d6 10010000 		.4byte	.LVL51
 8950 01da 0200     		.2byte	0x2
 8951 01dc 3C       		.byte	0x3c
 8952 01dd 9F       		.byte	0x9f
 8953 01de 10010000 		.4byte	.LVL51
 8954 01e2 24010000 		.4byte	.LVL53
 8955 01e6 0200     		.2byte	0x2
 8956 01e8 3D       		.byte	0x3d
 8957 01e9 9F       		.byte	0x9f
 8958 01ea 24010000 		.4byte	.LVL53
 8959 01ee 38010000 		.4byte	.LVL55
 8960 01f2 0200     		.2byte	0x2
 8961 01f4 3E       		.byte	0x3e
 8962 01f5 9F       		.byte	0x9f
 8963 01f6 38010000 		.4byte	.LVL55
 8964 01fa 4C010000 		.4byte	.LVL57
 8965 01fe 0200     		.2byte	0x2
 8966 0200 3F       		.byte	0x3f
 8967 0201 9F       		.byte	0x9f
 8968 0202 50010000 		.4byte	.LVL58
 8969 0206 6C010000 		.4byte	.LFE121
 8970 020a 0200     		.2byte	0x2
 8971 020c 3F       		.byte	0x3f
 8972 020d 9F       		.byte	0x9f
 8973 020e 00000000 		.4byte	0
 8974 0212 00000000 		.4byte	0
 8975              	.LLST7:
 8976 0216 00000000 		.4byte	.LFB122
 8977 021a 02000000 		.4byte	.LCFI4
 8978 021e 0200     		.2byte	0x2
 8979 0220 7D       		.byte	0x7d
 8980 0221 00       		.sleb128 0
 8981 0222 02000000 		.4byte	.LCFI4
 8982 0226 04000000 		.4byte	.LCFI5
 8983 022a 0200     		.2byte	0x2
ARM GAS  C:\Users\Vergil\AppData\Local\Temp\ccwNg35D.s 			page 159


 8984 022c 7D       		.byte	0x7d
 8985 022d 10       		.sleb128 16
 8986 022e 04000000 		.4byte	.LCFI5
 8987 0232 6E000000 		.4byte	.LFE122
 8988 0236 0200     		.2byte	0x2
 8989 0238 7D       		.byte	0x7d
 8990 0239 18       		.sleb128 24
 8991 023a 00000000 		.4byte	0
 8992 023e 00000000 		.4byte	0
 8993              	.LLST8:
 8994 0242 00000000 		.4byte	.LVL61
 8995 0246 0D000000 		.4byte	.LVL62-1
 8996 024a 0100     		.2byte	0x1
 8997 024c 50       		.byte	0x50
 8998 024d 0D000000 		.4byte	.LVL62-1
 8999 0251 28000000 		.4byte	.LVL63
 9000 0255 0100     		.2byte	0x1
 9001 0257 55       		.byte	0x55
 9002 0258 28000000 		.4byte	.LVL63
 9003 025c 6E000000 		.4byte	.LFE122
 9004 0260 0400     		.2byte	0x4
 9005 0262 F3       		.byte	0xf3
 9006 0263 01       		.uleb128 0x1
 9007 0264 50       		.byte	0x50
 9008 0265 9F       		.byte	0x9f
 9009 0266 00000000 		.4byte	0
 9010 026a 00000000 		.4byte	0
 9011              	.LLST9:
 9012 026e 00000000 		.4byte	.LVL61
 9013 0272 0D000000 		.4byte	.LVL62-1
 9014 0276 0100     		.2byte	0x1
 9015 0278 51       		.byte	0x51
 9016 0279 0D000000 		.4byte	.LVL62-1
 9017 027d 6E000000 		.4byte	.LFE122
 9018 0281 0400     		.2byte	0x4
 9019 0283 F3       		.byte	0xf3
 9020 0284 01       		.uleb128 0x1
 9021 0285 51       		.byte	0x51
 9022 0286 9F       		.byte	0x9f
 9023 0287 00000000 		.4byte	0
 9024 028b 00000000 		.4byte	0
 9025              	.LLST10:
 9026 028f 00000000 		.4byte	.LVL61
 9027 0293 0D000000 		.4byte	.LVL62-1
 9028 0297 0100     		.2byte	0x1
 9029 0299 52       		.byte	0x52
 9030 029a 0D000000 		.4byte	.LVL62-1
 9031 029e 6E000000 		.4byte	.LFE122
 9032 02a2 0100     		.2byte	0x1
 9033 02a4 54       		.byte	0x54
 9034 02a5 00000000 		.4byte	0
 9035 02a9 00000000 		.4byte	0
 9036              	.LLST11:
 9037 02ad 54000000 		.4byte	.LVL64
 9038 02b1 5C000000 		.4byte	.LVL65
 9039 02b5 0800     		.2byte	0x8
 9040 02b7 72       		.byte	0x72
ARM GAS  C:\Users\Vergil\AppData\Local\Temp\ccwNg35D.s 			page 160


 9041 02b8 00       		.sleb128 0
 9042 02b9 03       		.byte	0x3
 9043 02ba 00000000 		.4byte	crc7_lookup_table
 9044 02be 22       		.byte	0x22
 9045 02bf 5C000000 		.4byte	.LVL65
 9046 02c3 6E000000 		.4byte	.LFE122
 9047 02c7 1000     		.2byte	0x10
 9048 02c9 75       		.byte	0x75
 9049 02ca 00       		.sleb128 0
 9050 02cb 31       		.byte	0x31
 9051 02cc 24       		.byte	0x24
 9052 02cd 74       		.byte	0x74
 9053 02ce 00       		.sleb128 0
 9054 02cf 08       		.byte	0x8
 9055 02d0 FF       		.byte	0xff
 9056 02d1 1A       		.byte	0x1a
 9057 02d2 27       		.byte	0x27
 9058 02d3 03       		.byte	0x3
 9059 02d4 00000000 		.4byte	crc7_lookup_table
 9060 02d8 22       		.byte	0x22
 9061 02d9 00000000 		.4byte	0
 9062 02dd 00000000 		.4byte	0
 9063              	.LLST12:
 9064 02e1 00000000 		.4byte	.LFB125
 9065 02e5 04000000 		.4byte	.LCFI6
 9066 02e9 0200     		.2byte	0x2
 9067 02eb 7D       		.byte	0x7d
 9068 02ec 00       		.sleb128 0
 9069 02ed 04000000 		.4byte	.LCFI6
 9070 02f1 3E000000 		.4byte	.LFE125
 9071 02f5 0200     		.2byte	0x2
 9072 02f7 7D       		.byte	0x7d
 9073 02f8 10       		.sleb128 16
 9074 02f9 00000000 		.4byte	0
 9075 02fd 00000000 		.4byte	0
 9076              	.LLST13:
 9077 0301 00000000 		.4byte	.LVL67
 9078 0305 08000000 		.4byte	.LVL68
 9079 0309 0100     		.2byte	0x1
 9080 030b 50       		.byte	0x50
 9081 030c 08000000 		.4byte	.LVL68
 9082 0310 3E000000 		.4byte	.LFE125
 9083 0314 0100     		.2byte	0x1
 9084 0316 54       		.byte	0x54
 9085 0317 00000000 		.4byte	0
 9086 031b 00000000 		.4byte	0
 9087              	.LLST14:
 9088 031f 00000000 		.4byte	.LVL67
 9089 0323 0F000000 		.4byte	.LVL69-1
 9090 0327 0100     		.2byte	0x1
 9091 0329 51       		.byte	0x51
 9092 032a 0F000000 		.4byte	.LVL69-1
 9093 032e 3E000000 		.4byte	.LFE125
 9094 0332 0400     		.2byte	0x4
 9095 0334 F3       		.byte	0xf3
 9096 0335 01       		.uleb128 0x1
 9097 0336 51       		.byte	0x51
ARM GAS  C:\Users\Vergil\AppData\Local\Temp\ccwNg35D.s 			page 161


 9098 0337 9F       		.byte	0x9f
 9099 0338 00000000 		.4byte	0
 9100 033c 00000000 		.4byte	0
 9101              	.LLST15:
 9102 0340 00000000 		.4byte	.LVL67
 9103 0344 0F000000 		.4byte	.LVL69-1
 9104 0348 0100     		.2byte	0x1
 9105 034a 52       		.byte	0x52
 9106 034b 0F000000 		.4byte	.LVL69-1
 9107 034f 2C000000 		.4byte	.LVL73
 9108 0353 0100     		.2byte	0x1
 9109 0355 55       		.byte	0x55
 9110 0356 2C000000 		.4byte	.LVL73
 9111 035a 3E000000 		.4byte	.LFE125
 9112 035e 0400     		.2byte	0x4
 9113 0360 F3       		.byte	0xf3
 9114 0361 01       		.uleb128 0x1
 9115 0362 52       		.byte	0x52
 9116 0363 9F       		.byte	0x9f
 9117 0364 00000000 		.4byte	0
 9118 0368 00000000 		.4byte	0
 9119              	.LLST16:
 9120 036c 2C000000 		.4byte	.LVL73
 9121 0370 2E000000 		.4byte	.LVL74
 9122 0374 0100     		.2byte	0x1
 9123 0376 50       		.byte	0x50
 9124 0377 2E000000 		.4byte	.LVL74
 9125 037b 3E000000 		.4byte	.LFE125
 9126 037f 0100     		.2byte	0x1
 9127 0381 55       		.byte	0x55
 9128 0382 00000000 		.4byte	0
 9129 0386 00000000 		.4byte	0
 9130              	.LLST17:
 9131 038a 00000000 		.4byte	.LFB126
 9132 038e 02000000 		.4byte	.LCFI7
 9133 0392 0200     		.2byte	0x2
 9134 0394 7D       		.byte	0x7d
 9135 0395 00       		.sleb128 0
 9136 0396 02000000 		.4byte	.LCFI7
 9137 039a 4C000000 		.4byte	.LFE126
 9138 039e 0200     		.2byte	0x2
 9139 03a0 7D       		.byte	0x7d
 9140 03a1 18       		.sleb128 24
 9141 03a2 00000000 		.4byte	0
 9142 03a6 00000000 		.4byte	0
 9143              	.LLST18:
 9144 03aa 00000000 		.4byte	.LVL77
 9145 03ae 06000000 		.4byte	.LVL78
 9146 03b2 0100     		.2byte	0x1
 9147 03b4 50       		.byte	0x50
 9148 03b5 06000000 		.4byte	.LVL78
 9149 03b9 4C000000 		.4byte	.LFE126
 9150 03bd 0100     		.2byte	0x1
 9151 03bf 54       		.byte	0x54
 9152 03c0 00000000 		.4byte	0
 9153 03c4 00000000 		.4byte	0
 9154              	.LLST19:
ARM GAS  C:\Users\Vergil\AppData\Local\Temp\ccwNg35D.s 			page 162


 9155 03c8 00000000 		.4byte	.LVL77
 9156 03cc 11000000 		.4byte	.LVL79-1
 9157 03d0 0100     		.2byte	0x1
 9158 03d2 51       		.byte	0x51
 9159 03d3 11000000 		.4byte	.LVL79-1
 9160 03d7 4C000000 		.4byte	.LFE126
 9161 03db 0400     		.2byte	0x4
 9162 03dd F3       		.byte	0xf3
 9163 03de 01       		.uleb128 0x1
 9164 03df 51       		.byte	0x51
 9165 03e0 9F       		.byte	0x9f
 9166 03e1 00000000 		.4byte	0
 9167 03e5 00000000 		.4byte	0
 9168              	.LLST20:
 9169 03e9 00000000 		.4byte	.LVL77
 9170 03ed 11000000 		.4byte	.LVL79-1
 9171 03f1 0100     		.2byte	0x1
 9172 03f3 52       		.byte	0x52
 9173 03f4 11000000 		.4byte	.LVL79-1
 9174 03f8 2C000000 		.4byte	.LVL83
 9175 03fc 0100     		.2byte	0x1
 9176 03fe 55       		.byte	0x55
 9177 03ff 2C000000 		.4byte	.LVL83
 9178 0403 4C000000 		.4byte	.LFE126
 9179 0407 0400     		.2byte	0x4
 9180 0409 F3       		.byte	0xf3
 9181 040a 01       		.uleb128 0x1
 9182 040b 52       		.byte	0x52
 9183 040c 9F       		.byte	0x9f
 9184 040d 00000000 		.4byte	0
 9185 0411 00000000 		.4byte	0
 9186              	.LLST21:
 9187 0415 00000000 		.4byte	.LVL77
 9188 0419 11000000 		.4byte	.LVL79-1
 9189 041d 0100     		.2byte	0x1
 9190 041f 53       		.byte	0x53
 9191 0420 11000000 		.4byte	.LVL79-1
 9192 0424 4C000000 		.4byte	.LFE126
 9193 0428 0100     		.2byte	0x1
 9194 042a 57       		.byte	0x57
 9195 042b 00000000 		.4byte	0
 9196 042f 00000000 		.4byte	0
 9197              	.LLST22:
 9198 0433 32000000 		.4byte	.LVL84
 9199 0437 34000000 		.4byte	.LVL85
 9200 043b 0100     		.2byte	0x1
 9201 043d 50       		.byte	0x50
 9202 043e 34000000 		.4byte	.LVL85
 9203 0442 4C000000 		.4byte	.LFE126
 9204 0446 0100     		.2byte	0x1
 9205 0448 56       		.byte	0x56
 9206 0449 00000000 		.4byte	0
 9207 044d 00000000 		.4byte	0
 9208              	.LLST23:
 9209 0451 00000000 		.4byte	.LFB128
 9210 0455 02000000 		.4byte	.LCFI8
 9211 0459 0200     		.2byte	0x2
ARM GAS  C:\Users\Vergil\AppData\Local\Temp\ccwNg35D.s 			page 163


 9212 045b 7D       		.byte	0x7d
 9213 045c 00       		.sleb128 0
 9214 045d 02000000 		.4byte	.LCFI8
 9215 0461 08000000 		.4byte	.LCFI9
 9216 0465 0200     		.2byte	0x2
 9217 0467 7D       		.byte	0x7d
 9218 0468 08       		.sleb128 8
 9219 0469 08000000 		.4byte	.LCFI9
 9220 046d 46000000 		.4byte	.LFE128
 9221 0471 0200     		.2byte	0x2
 9222 0473 7D       		.byte	0x7d
 9223 0474 10       		.sleb128 16
 9224 0475 00000000 		.4byte	0
 9225 0479 00000000 		.4byte	0
 9226              	.LLST24:
 9227 047d 00000000 		.4byte	.LVL89
 9228 0481 0A000000 		.4byte	.LVL90
 9229 0485 0100     		.2byte	0x1
 9230 0487 50       		.byte	0x50
 9231 0488 0A000000 		.4byte	.LVL90
 9232 048c 46000000 		.4byte	.LFE128
 9233 0490 0100     		.2byte	0x1
 9234 0492 54       		.byte	0x54
 9235 0493 00000000 		.4byte	0
 9236 0497 00000000 		.4byte	0
 9237              	.LLST25:
 9238 049b 00000000 		.4byte	.LFB127
 9239 049f 04000000 		.4byte	.LCFI10
 9240 04a3 0200     		.2byte	0x2
 9241 04a5 7D       		.byte	0x7d
 9242 04a6 00       		.sleb128 0
 9243 04a7 04000000 		.4byte	.LCFI10
 9244 04ab 0A000000 		.4byte	.LCFI11
 9245 04af 0200     		.2byte	0x2
 9246 04b1 7D       		.byte	0x7d
 9247 04b2 24       		.sleb128 36
 9248 04b3 0A000000 		.4byte	.LCFI11
 9249 04b7 4C010000 		.4byte	.LFE127
 9250 04bb 0300     		.2byte	0x3
 9251 04bd 7D       		.byte	0x7d
 9252 04be D000     		.sleb128 80
 9253 04c0 00000000 		.4byte	0
 9254 04c4 00000000 		.4byte	0
 9255              	.LLST26:
 9256 04c8 00000000 		.4byte	.LVL97
 9257 04cc 0C000000 		.4byte	.LVL98
 9258 04d0 0100     		.2byte	0x1
 9259 04d2 50       		.byte	0x50
 9260 04d3 0C000000 		.4byte	.LVL98
 9261 04d7 4C010000 		.4byte	.LFE127
 9262 04db 0100     		.2byte	0x1
 9263 04dd 54       		.byte	0x54
 9264 04de 00000000 		.4byte	0
 9265 04e2 00000000 		.4byte	0
 9266              	.LLST27:
 9267 04e6 00000000 		.4byte	.LVL97
 9268 04ea 13000000 		.4byte	.LVL99-1
ARM GAS  C:\Users\Vergil\AppData\Local\Temp\ccwNg35D.s 			page 164


 9269 04ee 0100     		.2byte	0x1
 9270 04f0 51       		.byte	0x51
 9271 04f1 13000000 		.4byte	.LVL99-1
 9272 04f5 4C010000 		.4byte	.LFE127
 9273 04f9 0400     		.2byte	0x4
 9274 04fb F3       		.byte	0xf3
 9275 04fc 01       		.uleb128 0x1
 9276 04fd 51       		.byte	0x51
 9277 04fe 9F       		.byte	0x9f
 9278 04ff 00000000 		.4byte	0
 9279 0503 00000000 		.4byte	0
 9280              	.LLST28:
 9281 0507 00000000 		.4byte	.LVL97
 9282 050b 13000000 		.4byte	.LVL99-1
 9283 050f 0100     		.2byte	0x1
 9284 0511 52       		.byte	0x52
 9285 0512 13000000 		.4byte	.LVL99-1
 9286 0516 4C010000 		.4byte	.LFE127
 9287 051a 0100     		.2byte	0x1
 9288 051c 55       		.byte	0x55
 9289 051d 00000000 		.4byte	0
 9290 0521 00000000 		.4byte	0
 9291              	.LLST29:
 9292 0525 74000000 		.4byte	.LVL106
 9293 0529 12010000 		.4byte	.LVL107
 9294 052d 0300     		.2byte	0x3
 9295 052f 91       		.byte	0x91
 9296 0530 40       		.sleb128 -64
 9297 0531 9F       		.byte	0x9f
 9298 0532 12010000 		.4byte	.LVL107
 9299 0536 18010000 		.4byte	.LVL108
 9300 053a 0300     		.2byte	0x3
 9301 053c 91       		.byte	0x91
 9302 053d 44       		.sleb128 -60
 9303 053e 9F       		.byte	0x9f
 9304 053f 18010000 		.4byte	.LVL108
 9305 0543 2E010000 		.4byte	.LVL112
 9306 0547 0300     		.2byte	0x3
 9307 0549 91       		.byte	0x91
 9308 054a 50       		.sleb128 -48
 9309 054b 9F       		.byte	0x9f
 9310 054c 00000000 		.4byte	0
 9311 0550 00000000 		.4byte	0
 9312              	.LLST30:
 9313 0554 74000000 		.4byte	.LVL106
 9314 0558 12010000 		.4byte	.LVL107
 9315 055c 0300     		.2byte	0x3
 9316 055e 75       		.byte	0x75
 9317 055f 0C       		.sleb128 12
 9318 0560 9F       		.byte	0x9f
 9319 0561 12010000 		.4byte	.LVL107
 9320 0565 18010000 		.4byte	.LVL108
 9321 0569 0300     		.2byte	0x3
 9322 056b 75       		.byte	0x75
 9323 056c 08       		.sleb128 8
 9324 056d 9F       		.byte	0x9f
 9325 056e 00000000 		.4byte	0
ARM GAS  C:\Users\Vergil\AppData\Local\Temp\ccwNg35D.s 			page 165


 9326 0572 00000000 		.4byte	0
 9327              	.LLST31:
 9328 0576 00000000 		.4byte	.LFB133
 9329 057a 02000000 		.4byte	.LCFI12
 9330 057e 0200     		.2byte	0x2
 9331 0580 7D       		.byte	0x7d
 9332 0581 00       		.sleb128 0
 9333 0582 02000000 		.4byte	.LCFI12
 9334 0586 0C000000 		.4byte	.LCFI13
 9335 058a 0200     		.2byte	0x2
 9336 058c 7D       		.byte	0x7d
 9337 058d 10       		.sleb128 16
 9338 058e 0C000000 		.4byte	.LCFI13
 9339 0592 7C020000 		.4byte	.LFE133
 9340 0596 0200     		.2byte	0x2
 9341 0598 7D       		.byte	0x7d
 9342 0599 18       		.sleb128 24
 9343 059a 00000000 		.4byte	0
 9344 059e 00000000 		.4byte	0
 9345              	.LLST32:
 9346 05a2 00000000 		.4byte	.LVL115
 9347 05a6 12000000 		.4byte	.LVL116
 9348 05aa 0100     		.2byte	0x1
 9349 05ac 50       		.byte	0x50
 9350 05ad 12000000 		.4byte	.LVL116
 9351 05b1 7C020000 		.4byte	.LFE133
 9352 05b5 0100     		.2byte	0x1
 9353 05b7 54       		.byte	0x54
 9354 05b8 00000000 		.4byte	0
 9355 05bc 00000000 		.4byte	0
 9356              	.LLST33:
 9357 05c0 32000000 		.4byte	.LVL120
 9358 05c4 40000000 		.4byte	.LVL122
 9359 05c8 0200     		.2byte	0x2
 9360 05ca 30       		.byte	0x30
 9361 05cb 9F       		.byte	0x9f
 9362 05cc 40000000 		.4byte	.LVL122
 9363 05d0 54000000 		.4byte	.LVL125
 9364 05d4 0200     		.2byte	0x2
 9365 05d6 31       		.byte	0x31
 9366 05d7 9F       		.byte	0x9f
 9367 05d8 54000000 		.4byte	.LVL125
 9368 05dc 68000000 		.4byte	.LVL128
 9369 05e0 0200     		.2byte	0x2
 9370 05e2 32       		.byte	0x32
 9371 05e3 9F       		.byte	0x9f
 9372 05e4 68000000 		.4byte	.LVL128
 9373 05e8 7C000000 		.4byte	.LVL131
 9374 05ec 0200     		.2byte	0x2
 9375 05ee 33       		.byte	0x33
 9376 05ef 9F       		.byte	0x9f
 9377 05f0 7C000000 		.4byte	.LVL131
 9378 05f4 90000000 		.4byte	.LVL134
 9379 05f8 0200     		.2byte	0x2
 9380 05fa 34       		.byte	0x34
 9381 05fb 9F       		.byte	0x9f
 9382 05fc 90000000 		.4byte	.LVL134
ARM GAS  C:\Users\Vergil\AppData\Local\Temp\ccwNg35D.s 			page 166


 9383 0600 A4000000 		.4byte	.LVL137
 9384 0604 0200     		.2byte	0x2
 9385 0606 35       		.byte	0x35
 9386 0607 9F       		.byte	0x9f
 9387 0608 A4000000 		.4byte	.LVL137
 9388 060c B8000000 		.4byte	.LVL140
 9389 0610 0200     		.2byte	0x2
 9390 0612 36       		.byte	0x36
 9391 0613 9F       		.byte	0x9f
 9392 0614 B8000000 		.4byte	.LVL140
 9393 0618 CC000000 		.4byte	.LVL143
 9394 061c 0200     		.2byte	0x2
 9395 061e 37       		.byte	0x37
 9396 061f 9F       		.byte	0x9f
 9397 0620 CC000000 		.4byte	.LVL143
 9398 0624 E0000000 		.4byte	.LVL146
 9399 0628 0200     		.2byte	0x2
 9400 062a 38       		.byte	0x38
 9401 062b 9F       		.byte	0x9f
 9402 062c E0000000 		.4byte	.LVL146
 9403 0630 F4000000 		.4byte	.LVL149
 9404 0634 0200     		.2byte	0x2
 9405 0636 39       		.byte	0x39
 9406 0637 9F       		.byte	0x9f
 9407 0638 00000000 		.4byte	0
 9408 063c 00000000 		.4byte	0
 9409              	.LLST34:
 9410 0640 B2010000 		.4byte	.LVL162
 9411 0644 B4010000 		.4byte	.LVL163
 9412 0648 0100     		.2byte	0x1
 9413 064a 55       		.byte	0x55
 9414 064b CA010000 		.4byte	.LVL165
 9415 064f DA010000 		.4byte	.LVL166
 9416 0653 0100     		.2byte	0x1
 9417 0655 55       		.byte	0x55
 9418 0656 E4010000 		.4byte	.LVL167
 9419 065a E8010000 		.4byte	.LVL168
 9420 065e 0100     		.2byte	0x1
 9421 0660 50       		.byte	0x50
 9422 0661 00000000 		.4byte	0
 9423 0665 00000000 		.4byte	0
 9424              	.LLST35:
 9425 0669 00000000 		.4byte	.LFB141
 9426 066d 02000000 		.4byte	.LCFI14
 9427 0671 0200     		.2byte	0x2
 9428 0673 7D       		.byte	0x7d
 9429 0674 00       		.sleb128 0
 9430 0675 02000000 		.4byte	.LCFI14
 9431 0679 28000000 		.4byte	.LFE141
 9432 067d 0200     		.2byte	0x2
 9433 067f 7D       		.byte	0x7d
 9434 0680 10       		.sleb128 16
 9435 0681 00000000 		.4byte	0
 9436 0685 00000000 		.4byte	0
 9437              	.LLST36:
 9438 0689 00000000 		.4byte	.LVL176
 9439 068d 0C000000 		.4byte	.LVL177
ARM GAS  C:\Users\Vergil\AppData\Local\Temp\ccwNg35D.s 			page 167


 9440 0691 0100     		.2byte	0x1
 9441 0693 50       		.byte	0x50
 9442 0694 0C000000 		.4byte	.LVL177
 9443 0698 0E000000 		.4byte	.LVL178
 9444 069c 0100     		.2byte	0x1
 9445 069e 54       		.byte	0x54
 9446 069f 0E000000 		.4byte	.LVL178
 9447 06a3 18000000 		.4byte	.LVL179
 9448 06a7 0100     		.2byte	0x1
 9449 06a9 50       		.byte	0x50
 9450 06aa 18000000 		.4byte	.LVL179
 9451 06ae 28000000 		.4byte	.LFE141
 9452 06b2 0100     		.2byte	0x1
 9453 06b4 54       		.byte	0x54
 9454 06b5 00000000 		.4byte	0
 9455 06b9 00000000 		.4byte	0
 9456              	.LLST37:
 9457 06bd 0E000000 		.4byte	.LVL178
 9458 06c1 18000000 		.4byte	.LVL179
 9459 06c5 0100     		.2byte	0x1
 9460 06c7 50       		.byte	0x50
 9461 06c8 18000000 		.4byte	.LVL179
 9462 06cc 28000000 		.4byte	.LFE141
 9463 06d0 0100     		.2byte	0x1
 9464 06d2 54       		.byte	0x54
 9465 06d3 00000000 		.4byte	0
 9466 06d7 00000000 		.4byte	0
 9467              	.LLST38:
 9468 06db 00000000 		.4byte	.LFB134
 9469 06df 02000000 		.4byte	.LCFI15
 9470 06e3 0200     		.2byte	0x2
 9471 06e5 7D       		.byte	0x7d
 9472 06e6 00       		.sleb128 0
 9473 06e7 02000000 		.4byte	.LCFI15
 9474 06eb 44000000 		.4byte	.LFE134
 9475 06ef 0200     		.2byte	0x2
 9476 06f1 7D       		.byte	0x7d
 9477 06f2 08       		.sleb128 8
 9478 06f3 00000000 		.4byte	0
 9479 06f7 00000000 		.4byte	0
 9480              	.LLST39:
 9481 06fb 00000000 		.4byte	.LVL182
 9482 06ff 12000000 		.4byte	.LVL187
 9483 0703 0100     		.2byte	0x1
 9484 0705 50       		.byte	0x50
 9485 0706 12000000 		.4byte	.LVL187
 9486 070a 3A000000 		.4byte	.LVL193
 9487 070e 0100     		.2byte	0x1
 9488 0710 54       		.byte	0x54
 9489 0711 3A000000 		.4byte	.LVL193
 9490 0715 42000000 		.4byte	.LVL196
 9491 0719 0100     		.2byte	0x1
 9492 071b 50       		.byte	0x50
 9493 071c 42000000 		.4byte	.LVL196
 9494 0720 44000000 		.4byte	.LFE134
 9495 0724 0100     		.2byte	0x1
 9496 0726 54       		.byte	0x54
ARM GAS  C:\Users\Vergil\AppData\Local\Temp\ccwNg35D.s 			page 168


 9497 0727 00000000 		.4byte	0
 9498 072b 00000000 		.4byte	0
 9499              	.LLST40:
 9500 072f 0A000000 		.4byte	.LVL184
 9501 0733 0C000000 		.4byte	.LVL185
 9502 0737 0100     		.2byte	0x1
 9503 0739 53       		.byte	0x53
 9504 073a 00000000 		.4byte	0
 9505 073e 00000000 		.4byte	0
 9506              	.LLST41:
 9507 0742 10000000 		.4byte	.LVL186
 9508 0746 12000000 		.4byte	.LVL187
 9509 074a 0100     		.2byte	0x1
 9510 074c 50       		.byte	0x50
 9511 074d 12000000 		.4byte	.LVL187
 9512 0751 3A000000 		.4byte	.LVL193
 9513 0755 0100     		.2byte	0x1
 9514 0757 54       		.byte	0x54
 9515 0758 00000000 		.4byte	0
 9516 075c 00000000 		.4byte	0
 9517              	.LLST42:
 9518 0760 1A000000 		.4byte	.LVL189
 9519 0764 23000000 		.4byte	.LVL190-1
 9520 0768 0100     		.2byte	0x1
 9521 076a 53       		.byte	0x53
 9522 076b 00000000 		.4byte	0
 9523 076f 00000000 		.4byte	0
 9524              	.LLST43:
 9525 0773 40000000 		.4byte	.LVL195
 9526 0777 44000000 		.4byte	.LFE134
 9527 077b 0100     		.2byte	0x1
 9528 077d 53       		.byte	0x53
 9529 077e 00000000 		.4byte	0
 9530 0782 00000000 		.4byte	0
 9531              	.LLST44:
 9532 0786 00000000 		.4byte	.LFB132
 9533 078a 04000000 		.4byte	.LCFI16
 9534 078e 0200     		.2byte	0x2
 9535 0790 7D       		.byte	0x7d
 9536 0791 00       		.sleb128 0
 9537 0792 04000000 		.4byte	.LCFI16
 9538 0796 12000000 		.4byte	.LFE132
 9539 079a 0200     		.2byte	0x2
 9540 079c 7D       		.byte	0x7d
 9541 079d 08       		.sleb128 8
 9542 079e 00000000 		.4byte	0
 9543 07a2 00000000 		.4byte	0
 9544              	.LLST45:
 9545 07a6 00000000 		.4byte	.LVL199
 9546 07aa 08000000 		.4byte	.LVL200
 9547 07ae 0100     		.2byte	0x1
 9548 07b0 50       		.byte	0x50
 9549 07b1 08000000 		.4byte	.LVL200
 9550 07b5 12000000 		.4byte	.LFE132
 9551 07b9 0100     		.2byte	0x1
 9552 07bb 54       		.byte	0x54
 9553 07bc 00000000 		.4byte	0
ARM GAS  C:\Users\Vergil\AppData\Local\Temp\ccwNg35D.s 			page 169


 9554 07c0 00000000 		.4byte	0
 9555              	.LLST46:
 9556 07c4 00000000 		.4byte	.LFB135
 9557 07c8 02000000 		.4byte	.LCFI17
 9558 07cc 0200     		.2byte	0x2
 9559 07ce 7D       		.byte	0x7d
 9560 07cf 00       		.sleb128 0
 9561 07d0 02000000 		.4byte	.LCFI17
 9562 07d4 54000000 		.4byte	.LFE135
 9563 07d8 0200     		.2byte	0x2
 9564 07da 7D       		.byte	0x7d
 9565 07db 10       		.sleb128 16
 9566 07dc 00000000 		.4byte	0
 9567 07e0 00000000 		.4byte	0
 9568              	.LLST47:
 9569 07e4 00000000 		.4byte	.LVL202
 9570 07e8 0E000000 		.4byte	.LVL203
 9571 07ec 0100     		.2byte	0x1
 9572 07ee 50       		.byte	0x50
 9573 07ef 0E000000 		.4byte	.LVL203
 9574 07f3 4C000000 		.4byte	.LVL211
 9575 07f7 0100     		.2byte	0x1
 9576 07f9 54       		.byte	0x54
 9577 07fa 4C000000 		.4byte	.LVL211
 9578 07fe 51000000 		.4byte	.LVL212-1
 9579 0802 0100     		.2byte	0x1
 9580 0804 50       		.byte	0x50
 9581 0805 51000000 		.4byte	.LVL212-1
 9582 0809 54000000 		.4byte	.LFE135
 9583 080d 0100     		.2byte	0x1
 9584 080f 54       		.byte	0x54
 9585 0810 00000000 		.4byte	0
 9586 0814 00000000 		.4byte	0
 9587              	.LLST48:
 9588 0818 00000000 		.4byte	.LVL202
 9589 081c 10000000 		.4byte	.LVL204
 9590 0820 0100     		.2byte	0x1
 9591 0822 51       		.byte	0x51
 9592 0823 10000000 		.4byte	.LVL204
 9593 0827 54000000 		.4byte	.LFE135
 9594 082b 0100     		.2byte	0x1
 9595 082d 55       		.byte	0x55
 9596 082e 00000000 		.4byte	0
 9597 0832 00000000 		.4byte	0
 9598              	.LLST49:
 9599 0836 00000000 		.4byte	.LFB136
 9600 083a 06000000 		.4byte	.LCFI18
 9601 083e 0200     		.2byte	0x2
 9602 0840 7D       		.byte	0x7d
 9603 0841 00       		.sleb128 0
 9604 0842 06000000 		.4byte	.LCFI18
 9605 0846 7E000000 		.4byte	.LFE136
 9606 084a 0200     		.2byte	0x2
 9607 084c 7D       		.byte	0x7d
 9608 084d 10       		.sleb128 16
 9609 084e 00000000 		.4byte	0
 9610 0852 00000000 		.4byte	0
ARM GAS  C:\Users\Vergil\AppData\Local\Temp\ccwNg35D.s 			page 170


 9611              	.LLST50:
 9612 0856 00000000 		.4byte	.LVL213
 9613 085a 0E000000 		.4byte	.LVL214
 9614 085e 0100     		.2byte	0x1
 9615 0860 50       		.byte	0x50
 9616 0861 0E000000 		.4byte	.LVL214
 9617 0865 10000000 		.4byte	.LVL215
 9618 0869 0100     		.2byte	0x1
 9619 086b 56       		.byte	0x56
 9620 086c 10000000 		.4byte	.LVL215
 9621 0870 16000000 		.4byte	.LVL216
 9622 0874 0100     		.2byte	0x1
 9623 0876 50       		.byte	0x50
 9624 0877 16000000 		.4byte	.LVL216
 9625 087b 7E000000 		.4byte	.LFE136
 9626 087f 0100     		.2byte	0x1
 9627 0881 56       		.byte	0x56
 9628 0882 00000000 		.4byte	0
 9629 0886 00000000 		.4byte	0
 9630              	.LLST51:
 9631 088a 00000000 		.4byte	.LVL213
 9632 088e 16000000 		.4byte	.LVL216
 9633 0892 0100     		.2byte	0x1
 9634 0894 51       		.byte	0x51
 9635 0895 16000000 		.4byte	.LVL216
 9636 0899 1D000000 		.4byte	.LVL217-1
 9637 089d 0100     		.2byte	0x1
 9638 089f 52       		.byte	0x52
 9639 08a0 1D000000 		.4byte	.LVL217-1
 9640 08a4 7E000000 		.4byte	.LFE136
 9641 08a8 0100     		.2byte	0x1
 9642 08aa 54       		.byte	0x54
 9643 08ab 00000000 		.4byte	0
 9644 08af 00000000 		.4byte	0
 9645              	.LLST52:
 9646 08b3 00000000 		.4byte	.LFB137
 9647 08b7 06000000 		.4byte	.LCFI19
 9648 08bb 0200     		.2byte	0x2
 9649 08bd 7D       		.byte	0x7d
 9650 08be 00       		.sleb128 0
 9651 08bf 06000000 		.4byte	.LCFI19
 9652 08c3 3C000000 		.4byte	.LFE137
 9653 08c7 0200     		.2byte	0x2
 9654 08c9 7D       		.byte	0x7d
 9655 08ca 08       		.sleb128 8
 9656 08cb 00000000 		.4byte	0
 9657 08cf 00000000 		.4byte	0
 9658              	.LLST53:
 9659 08d3 00000000 		.4byte	.LVL224
 9660 08d7 0C000000 		.4byte	.LVL225
 9661 08db 0100     		.2byte	0x1
 9662 08dd 50       		.byte	0x50
 9663 08de 0C000000 		.4byte	.LVL225
 9664 08e2 0E000000 		.4byte	.LVL226
 9665 08e6 0100     		.2byte	0x1
 9666 08e8 54       		.byte	0x54
 9667 08e9 0E000000 		.4byte	.LVL226
ARM GAS  C:\Users\Vergil\AppData\Local\Temp\ccwNg35D.s 			page 171


 9668 08ed 10000000 		.4byte	.LVL227
 9669 08f1 0100     		.2byte	0x1
 9670 08f3 50       		.byte	0x50
 9671 08f4 10000000 		.4byte	.LVL227
 9672 08f8 3C000000 		.4byte	.LFE137
 9673 08fc 0100     		.2byte	0x1
 9674 08fe 54       		.byte	0x54
 9675 08ff 00000000 		.4byte	0
 9676 0903 00000000 		.4byte	0
 9677              	.LLST54:
 9678 0907 00000000 		.4byte	.LFB118
 9679 090b 02000000 		.4byte	.LCFI20
 9680 090f 0200     		.2byte	0x2
 9681 0911 7D       		.byte	0x7d
 9682 0912 00       		.sleb128 0
 9683 0913 02000000 		.4byte	.LCFI20
 9684 0917 70000000 		.4byte	.LFE118
 9685 091b 0200     		.2byte	0x2
 9686 091d 7D       		.byte	0x7d
 9687 091e 18       		.sleb128 24
 9688 091f 00000000 		.4byte	0
 9689 0923 00000000 		.4byte	0
 9690              	.LLST55:
 9691 0927 00000000 		.4byte	.LVL232
 9692 092b 0B000000 		.4byte	.LVL233-1
 9693 092f 0100     		.2byte	0x1
 9694 0931 50       		.byte	0x50
 9695 0932 0B000000 		.4byte	.LVL233-1
 9696 0936 70000000 		.4byte	.LFE118
 9697 093a 0100     		.2byte	0x1
 9698 093c 57       		.byte	0x57
 9699 093d 00000000 		.4byte	0
 9700 0941 00000000 		.4byte	0
 9701              	.LLST56:
 9702 0945 00000000 		.4byte	.LVL232
 9703 0949 0B000000 		.4byte	.LVL233-1
 9704 094d 0100     		.2byte	0x1
 9705 094f 51       		.byte	0x51
 9706 0950 0B000000 		.4byte	.LVL233-1
 9707 0954 70000000 		.4byte	.LFE118
 9708 0958 0400     		.2byte	0x4
 9709 095a F3       		.byte	0xf3
 9710 095b 01       		.uleb128 0x1
 9711 095c 51       		.byte	0x51
 9712 095d 9F       		.byte	0x9f
 9713 095e 00000000 		.4byte	0
 9714 0962 00000000 		.4byte	0
 9715              	.LLST57:
 9716 0966 00000000 		.4byte	.LVL232
 9717 096a 0B000000 		.4byte	.LVL233-1
 9718 096e 0100     		.2byte	0x1
 9719 0970 52       		.byte	0x52
 9720 0971 0B000000 		.4byte	.LVL233-1
 9721 0975 28000000 		.4byte	.LVL236
 9722 0979 0100     		.2byte	0x1
 9723 097b 54       		.byte	0x54
 9724 097c 28000000 		.4byte	.LVL236
ARM GAS  C:\Users\Vergil\AppData\Local\Temp\ccwNg35D.s 			page 172


 9725 0980 3C000000 		.4byte	.LVL238
 9726 0984 0400     		.2byte	0x4
 9727 0986 74       		.byte	0x74
 9728 0987 807C     		.sleb128 -512
 9729 0989 9F       		.byte	0x9f
 9730 098a 00000000 		.4byte	0
 9731 098e 00000000 		.4byte	0
 9732              	.LLST58:
 9733 0992 00000000 		.4byte	.LVL232
 9734 0996 0B000000 		.4byte	.LVL233-1
 9735 099a 0100     		.2byte	0x1
 9736 099c 53       		.byte	0x53
 9737 099d 0B000000 		.4byte	.LVL233-1
 9738 09a1 14000000 		.4byte	.LVL234
 9739 09a5 0100     		.2byte	0x1
 9740 09a7 56       		.byte	0x56
 9741 09a8 14000000 		.4byte	.LVL234
 9742 09ac 28000000 		.4byte	.LVL236
 9743 09b0 0300     		.2byte	0x3
 9744 09b2 76       		.byte	0x76
 9745 09b3 01       		.sleb128 1
 9746 09b4 9F       		.byte	0x9f
 9747 09b5 00000000 		.4byte	0
 9748 09b9 00000000 		.4byte	0
 9749              	.LLST59:
 9750 09bd 3E000000 		.4byte	.LVL239
 9751 09c1 48000000 		.4byte	.LVL240
 9752 09c5 0100     		.2byte	0x1
 9753 09c7 57       		.byte	0x57
 9754 09c8 00000000 		.4byte	0
 9755 09cc 00000000 		.4byte	0
 9756              	.LLST60:
 9757 09d0 00000000 		.4byte	.LFB138
 9758 09d4 02000000 		.4byte	.LCFI21
 9759 09d8 0200     		.2byte	0x2
 9760 09da 7D       		.byte	0x7d
 9761 09db 00       		.sleb128 0
 9762 09dc 02000000 		.4byte	.LCFI21
 9763 09e0 54000000 		.4byte	.LFE138
 9764 09e4 0200     		.2byte	0x2
 9765 09e6 7D       		.byte	0x7d
 9766 09e7 10       		.sleb128 16
 9767 09e8 00000000 		.4byte	0
 9768 09ec 00000000 		.4byte	0
 9769              	.LLST61:
 9770 09f0 00000000 		.4byte	.LVL243
 9771 09f4 0E000000 		.4byte	.LVL244
 9772 09f8 0100     		.2byte	0x1
 9773 09fa 50       		.byte	0x50
 9774 09fb 0E000000 		.4byte	.LVL244
 9775 09ff 4C000000 		.4byte	.LVL252
 9776 0a03 0100     		.2byte	0x1
 9777 0a05 54       		.byte	0x54
 9778 0a06 4C000000 		.4byte	.LVL252
 9779 0a0a 51000000 		.4byte	.LVL253-1
 9780 0a0e 0100     		.2byte	0x1
 9781 0a10 50       		.byte	0x50
ARM GAS  C:\Users\Vergil\AppData\Local\Temp\ccwNg35D.s 			page 173


 9782 0a11 51000000 		.4byte	.LVL253-1
 9783 0a15 54000000 		.4byte	.LFE138
 9784 0a19 0100     		.2byte	0x1
 9785 0a1b 54       		.byte	0x54
 9786 0a1c 00000000 		.4byte	0
 9787 0a20 00000000 		.4byte	0
 9788              	.LLST62:
 9789 0a24 00000000 		.4byte	.LVL243
 9790 0a28 10000000 		.4byte	.LVL245
 9791 0a2c 0100     		.2byte	0x1
 9792 0a2e 51       		.byte	0x51
 9793 0a2f 10000000 		.4byte	.LVL245
 9794 0a33 54000000 		.4byte	.LFE138
 9795 0a37 0100     		.2byte	0x1
 9796 0a39 55       		.byte	0x55
 9797 0a3a 00000000 		.4byte	0
 9798 0a3e 00000000 		.4byte	0
 9799              	.LLST63:
 9800 0a42 00000000 		.4byte	.LFB139
 9801 0a46 02000000 		.4byte	.LCFI22
 9802 0a4a 0200     		.2byte	0x2
 9803 0a4c 7D       		.byte	0x7d
 9804 0a4d 00       		.sleb128 0
 9805 0a4e 02000000 		.4byte	.LCFI22
 9806 0a52 08000000 		.4byte	.LCFI23
 9807 0a56 0200     		.2byte	0x2
 9808 0a58 7D       		.byte	0x7d
 9809 0a59 0C       		.sleb128 12
 9810 0a5a 08000000 		.4byte	.LCFI23
 9811 0a5e 80000000 		.4byte	.LFE139
 9812 0a62 0200     		.2byte	0x2
 9813 0a64 7D       		.byte	0x7d
 9814 0a65 18       		.sleb128 24
 9815 0a66 00000000 		.4byte	0
 9816 0a6a 00000000 		.4byte	0
 9817              	.LLST64:
 9818 0a6e 00000000 		.4byte	.LVL254
 9819 0a72 10000000 		.4byte	.LVL255
 9820 0a76 0100     		.2byte	0x1
 9821 0a78 50       		.byte	0x50
 9822 0a79 10000000 		.4byte	.LVL255
 9823 0a7d 14000000 		.4byte	.LVL256
 9824 0a81 0100     		.2byte	0x1
 9825 0a83 54       		.byte	0x54
 9826 0a84 14000000 		.4byte	.LVL256
 9827 0a88 16000000 		.4byte	.LVL257
 9828 0a8c 0100     		.2byte	0x1
 9829 0a8e 50       		.byte	0x50
 9830 0a8f 16000000 		.4byte	.LVL257
 9831 0a93 80000000 		.4byte	.LFE139
 9832 0a97 0100     		.2byte	0x1
 9833 0a99 54       		.byte	0x54
 9834 0a9a 00000000 		.4byte	0
 9835 0a9e 00000000 		.4byte	0
 9836              	.LLST65:
 9837 0aa2 00000000 		.4byte	.LVL254
 9838 0aa6 10000000 		.4byte	.LVL255
ARM GAS  C:\Users\Vergil\AppData\Local\Temp\ccwNg35D.s 			page 174


 9839 0aaa 0100     		.2byte	0x1
 9840 0aac 51       		.byte	0x51
 9841 0aad 10000000 		.4byte	.LVL255
 9842 0ab1 14000000 		.4byte	.LVL256
 9843 0ab5 0100     		.2byte	0x1
 9844 0ab7 55       		.byte	0x55
 9845 0ab8 14000000 		.4byte	.LVL256
 9846 0abc 1C000000 		.4byte	.LVL258
 9847 0ac0 0100     		.2byte	0x1
 9848 0ac2 51       		.byte	0x51
 9849 0ac3 1C000000 		.4byte	.LVL258
 9850 0ac7 80000000 		.4byte	.LFE139
 9851 0acb 0100     		.2byte	0x1
 9852 0acd 55       		.byte	0x55
 9853 0ace 00000000 		.4byte	0
 9854 0ad2 00000000 		.4byte	0
 9855              	.LLST66:
 9856 0ad6 00000000 		.4byte	.LFB140
 9857 0ada 06000000 		.4byte	.LCFI24
 9858 0ade 0200     		.2byte	0x2
 9859 0ae0 7D       		.byte	0x7d
 9860 0ae1 00       		.sleb128 0
 9861 0ae2 06000000 		.4byte	.LCFI24
 9862 0ae6 38000000 		.4byte	.LFE140
 9863 0aea 0200     		.2byte	0x2
 9864 0aec 7D       		.byte	0x7d
 9865 0aed 08       		.sleb128 8
 9866 0aee 00000000 		.4byte	0
 9867 0af2 00000000 		.4byte	0
 9868              	.LLST67:
 9869 0af6 00000000 		.4byte	.LVL267
 9870 0afa 0C000000 		.4byte	.LVL268
 9871 0afe 0100     		.2byte	0x1
 9872 0b00 50       		.byte	0x50
 9873 0b01 0C000000 		.4byte	.LVL268
 9874 0b05 0E000000 		.4byte	.LVL269
 9875 0b09 0100     		.2byte	0x1
 9876 0b0b 54       		.byte	0x54
 9877 0b0c 0E000000 		.4byte	.LVL269
 9878 0b10 10000000 		.4byte	.LVL270
 9879 0b14 0100     		.2byte	0x1
 9880 0b16 50       		.byte	0x50
 9881 0b17 10000000 		.4byte	.LVL270
 9882 0b1b 38000000 		.4byte	.LFE140
 9883 0b1f 0100     		.2byte	0x1
 9884 0b21 54       		.byte	0x54
 9885 0b22 00000000 		.4byte	0
 9886 0b26 00000000 		.4byte	0
 9887              	.LLST68:
 9888 0b2a 00000000 		.4byte	.LFB119
 9889 0b2e 02000000 		.4byte	.LCFI25
 9890 0b32 0200     		.2byte	0x2
 9891 0b34 7D       		.byte	0x7d
 9892 0b35 00       		.sleb128 0
 9893 0b36 02000000 		.4byte	.LCFI25
 9894 0b3a 70000000 		.4byte	.LFE119
 9895 0b3e 0200     		.2byte	0x2
ARM GAS  C:\Users\Vergil\AppData\Local\Temp\ccwNg35D.s 			page 175


 9896 0b40 7D       		.byte	0x7d
 9897 0b41 18       		.sleb128 24
 9898 0b42 00000000 		.4byte	0
 9899 0b46 00000000 		.4byte	0
 9900              	.LLST69:
 9901 0b4a 00000000 		.4byte	.LVL274
 9902 0b4e 0B000000 		.4byte	.LVL275-1
 9903 0b52 0100     		.2byte	0x1
 9904 0b54 50       		.byte	0x50
 9905 0b55 0B000000 		.4byte	.LVL275-1
 9906 0b59 70000000 		.4byte	.LFE119
 9907 0b5d 0100     		.2byte	0x1
 9908 0b5f 57       		.byte	0x57
 9909 0b60 00000000 		.4byte	0
 9910 0b64 00000000 		.4byte	0
 9911              	.LLST70:
 9912 0b68 00000000 		.4byte	.LVL274
 9913 0b6c 0B000000 		.4byte	.LVL275-1
 9914 0b70 0100     		.2byte	0x1
 9915 0b72 51       		.byte	0x51
 9916 0b73 0B000000 		.4byte	.LVL275-1
 9917 0b77 70000000 		.4byte	.LFE119
 9918 0b7b 0400     		.2byte	0x4
 9919 0b7d F3       		.byte	0xf3
 9920 0b7e 01       		.uleb128 0x1
 9921 0b7f 51       		.byte	0x51
 9922 0b80 9F       		.byte	0x9f
 9923 0b81 00000000 		.4byte	0
 9924 0b85 00000000 		.4byte	0
 9925              	.LLST71:
 9926 0b89 00000000 		.4byte	.LVL274
 9927 0b8d 0B000000 		.4byte	.LVL275-1
 9928 0b91 0100     		.2byte	0x1
 9929 0b93 52       		.byte	0x52
 9930 0b94 0B000000 		.4byte	.LVL275-1
 9931 0b98 28000000 		.4byte	.LVL278
 9932 0b9c 0100     		.2byte	0x1
 9933 0b9e 54       		.byte	0x54
 9934 0b9f 28000000 		.4byte	.LVL278
 9935 0ba3 3C000000 		.4byte	.LVL280
 9936 0ba7 0400     		.2byte	0x4
 9937 0ba9 74       		.byte	0x74
 9938 0baa 807C     		.sleb128 -512
 9939 0bac 9F       		.byte	0x9f
 9940 0bad 00000000 		.4byte	0
 9941 0bb1 00000000 		.4byte	0
 9942              	.LLST72:
 9943 0bb5 00000000 		.4byte	.LVL274
 9944 0bb9 0B000000 		.4byte	.LVL275-1
 9945 0bbd 0100     		.2byte	0x1
 9946 0bbf 53       		.byte	0x53
 9947 0bc0 0B000000 		.4byte	.LVL275-1
 9948 0bc4 14000000 		.4byte	.LVL276
 9949 0bc8 0100     		.2byte	0x1
 9950 0bca 56       		.byte	0x56
 9951 0bcb 14000000 		.4byte	.LVL276
 9952 0bcf 28000000 		.4byte	.LVL278
ARM GAS  C:\Users\Vergil\AppData\Local\Temp\ccwNg35D.s 			page 176


 9953 0bd3 0300     		.2byte	0x3
 9954 0bd5 76       		.byte	0x76
 9955 0bd6 01       		.sleb128 1
 9956 0bd7 9F       		.byte	0x9f
 9957 0bd8 00000000 		.4byte	0
 9958 0bdc 00000000 		.4byte	0
 9959              	.LLST73:
 9960 0be0 3E000000 		.4byte	.LVL281
 9961 0be4 48000000 		.4byte	.LVL282
 9962 0be8 0100     		.2byte	0x1
 9963 0bea 57       		.byte	0x57
 9964 0beb 00000000 		.4byte	0
 9965 0bef 00000000 		.4byte	0
 9966              	.LLST74:
 9967 0bf3 00000000 		.4byte	.LFB143
 9968 0bf7 02000000 		.4byte	.LCFI26
 9969 0bfb 0200     		.2byte	0x2
 9970 0bfd 7D       		.byte	0x7d
 9971 0bfe 00       		.sleb128 0
 9972 0bff 02000000 		.4byte	.LCFI26
 9973 0c03 52000000 		.4byte	.LFE143
 9974 0c07 0200     		.2byte	0x2
 9975 0c09 7D       		.byte	0x7d
 9976 0c0a 10       		.sleb128 16
 9977 0c0b 00000000 		.4byte	0
 9978 0c0f 00000000 		.4byte	0
 9979              	.LLST75:
 9980 0c13 00000000 		.4byte	.LVL285
 9981 0c17 08000000 		.4byte	.LVL286
 9982 0c1b 0100     		.2byte	0x1
 9983 0c1d 50       		.byte	0x50
 9984 0c1e 08000000 		.4byte	.LVL286
 9985 0c22 52000000 		.4byte	.LFE143
 9986 0c26 0100     		.2byte	0x1
 9987 0c28 54       		.byte	0x54
 9988 0c29 00000000 		.4byte	0
 9989 0c2d 00000000 		.4byte	0
 9990              	.LLST76:
 9991 0c31 00000000 		.4byte	.LVL285
 9992 0c35 14000000 		.4byte	.LVL287
 9993 0c39 0100     		.2byte	0x1
 9994 0c3b 51       		.byte	0x51
 9995 0c3c 14000000 		.4byte	.LVL287
 9996 0c40 1F000000 		.4byte	.LVL289-1
 9997 0c44 0100     		.2byte	0x1
 9998 0c46 53       		.byte	0x53
 9999 0c47 00000000 		.4byte	0
 10000 0c4b 00000000 		.4byte	0
 10001              	.LLST77:
 10002 0c4f 00000000 		.4byte	.LVL285
 10003 0c53 16000000 		.4byte	.LVL288
 10004 0c57 0100     		.2byte	0x1
 10005 0c59 52       		.byte	0x52
 10006 0c5a 16000000 		.4byte	.LVL288
 10007 0c5e 52000000 		.4byte	.LFE143
 10008 0c62 0100     		.2byte	0x1
 10009 0c64 55       		.byte	0x55
ARM GAS  C:\Users\Vergil\AppData\Local\Temp\ccwNg35D.s 			page 177


 10010 0c65 00000000 		.4byte	0
 10011 0c69 00000000 		.4byte	0
 10012              		.section	.debug_aranges,"",%progbits
 10013 0000 D4000000 		.4byte	0xd4
 10014 0004 0200     		.2byte	0x2
 10015 0006 00000000 		.4byte	.Ldebug_info0
 10016 000a 04       		.byte	0x4
 10017 000b 00       		.byte	0
 10018 000c 0000     		.2byte	0
 10019 000e 0000     		.2byte	0
 10020 0010 00000000 		.4byte	.LFB142
 10021 0014 18000000 		.4byte	.LFE142-.LFB142
 10022 0018 00000000 		.4byte	.LFB123
 10023 001c BA000000 		.4byte	.LFE123-.LFB123
 10024 0020 00000000 		.4byte	.LFB121
 10025 0024 6C010000 		.4byte	.LFE121-.LFB121
 10026 0028 00000000 		.4byte	.LFB122
 10027 002c 6E000000 		.4byte	.LFE122-.LFB122
 10028 0030 00000000 		.4byte	.LFB125
 10029 0034 3E000000 		.4byte	.LFE125-.LFB125
 10030 0038 00000000 		.4byte	.LFB126
 10031 003c 4C000000 		.4byte	.LFE126-.LFB126
 10032 0040 00000000 		.4byte	.LFB128
 10033 0044 46000000 		.4byte	.LFE128-.LFB128
 10034 0048 00000000 		.4byte	.LFB127
 10035 004c 4C010000 		.4byte	.LFE127-.LFB127
 10036 0050 00000000 		.4byte	.LFB133
 10037 0054 7C020000 		.4byte	.LFE133-.LFB133
 10038 0058 00000000 		.4byte	.LFB141
 10039 005c 28000000 		.4byte	.LFE141-.LFB141
 10040 0060 00000000 		.4byte	.LFB134
 10041 0064 44000000 		.4byte	.LFE134-.LFB134
 10042 0068 00000000 		.4byte	.LFB129
 10043 006c 02000000 		.4byte	.LFE129-.LFB129
 10044 0070 00000000 		.4byte	.LFB130
 10045 0074 18000000 		.4byte	.LFE130-.LFB130
 10046 0078 00000000 		.4byte	.LFB131
 10047 007c 08000000 		.4byte	.LFE131-.LFB131
 10048 0080 00000000 		.4byte	.LFB132
 10049 0084 12000000 		.4byte	.LFE132-.LFB132
 10050 0088 00000000 		.4byte	.LFB135
 10051 008c 54000000 		.4byte	.LFE135-.LFB135
 10052 0090 00000000 		.4byte	.LFB136
 10053 0094 7E000000 		.4byte	.LFE136-.LFB136
 10054 0098 00000000 		.4byte	.LFB137
 10055 009c 3C000000 		.4byte	.LFE137-.LFB137
 10056 00a0 00000000 		.4byte	.LFB118
 10057 00a4 70000000 		.4byte	.LFE118-.LFB118
 10058 00a8 00000000 		.4byte	.LFB138
 10059 00ac 54000000 		.4byte	.LFE138-.LFB138
 10060 00b0 00000000 		.4byte	.LFB139
 10061 00b4 80000000 		.4byte	.LFE139-.LFB139
 10062 00b8 00000000 		.4byte	.LFB140
 10063 00bc 38000000 		.4byte	.LFE140-.LFB140
 10064 00c0 00000000 		.4byte	.LFB119
 10065 00c4 70000000 		.4byte	.LFE119-.LFB119
 10066 00c8 00000000 		.4byte	.LFB143
ARM GAS  C:\Users\Vergil\AppData\Local\Temp\ccwNg35D.s 			page 178


 10067 00cc 52000000 		.4byte	.LFE143-.LFB143
 10068 00d0 00000000 		.4byte	0
 10069 00d4 00000000 		.4byte	0
 10070              		.section	.debug_ranges,"",%progbits
 10071              	.Ldebug_ranges0:
 10072 0000 0E000000 		.4byte	.LBB7
 10073 0004 16000000 		.4byte	.LBE7
 10074 0008 1C000000 		.4byte	.LBB16
 10075 000c 1E000000 		.4byte	.LBE16
 10076 0010 24000000 		.4byte	.LBB17
 10077 0014 28000000 		.4byte	.LBE17
 10078 0018 2A000000 		.4byte	.LBB18
 10079 001c 2C000000 		.4byte	.LBE18
 10080 0020 30000000 		.4byte	.LBB19
 10081 0024 36000000 		.4byte	.LBE19
 10082 0028 38000000 		.4byte	.LBB20
 10083 002c 3A000000 		.4byte	.LBE20
 10084 0030 3E000000 		.4byte	.LBB21
 10085 0034 48000000 		.4byte	.LBE21
 10086 0038 4C000000 		.4byte	.LBB22
 10087 003c 50000000 		.4byte	.LBE22
 10088 0040 00000000 		.4byte	0
 10089 0044 00000000 		.4byte	0
 10090 0048 02000000 		.4byte	.LBB40
 10091 004c 04000000 		.4byte	.LBE40
 10092 0050 06000000 		.4byte	.LBB41
 10093 0054 0A000000 		.4byte	.LBE41
 10094 0058 00000000 		.4byte	0
 10095 005c 00000000 		.4byte	0
 10096 0060 3E000000 		.4byte	.LBB48
 10097 0064 40000000 		.4byte	.LBE48
 10098 0068 44000000 		.4byte	.LBB51
 10099 006c 48000000 		.4byte	.LBE51
 10100 0070 00000000 		.4byte	0
 10101 0074 00000000 		.4byte	0
 10102 0078 3E000000 		.4byte	.LBB49
 10103 007c 40000000 		.4byte	.LBE49
 10104 0080 44000000 		.4byte	.LBB50
 10105 0084 48000000 		.4byte	.LBE50
 10106 0088 00000000 		.4byte	0
 10107 008c 00000000 		.4byte	0
 10108 0090 3E000000 		.4byte	.LBB54
 10109 0094 40000000 		.4byte	.LBE54
 10110 0098 44000000 		.4byte	.LBB57
 10111 009c 48000000 		.4byte	.LBE57
 10112 00a0 00000000 		.4byte	0
 10113 00a4 00000000 		.4byte	0
 10114 00a8 3E000000 		.4byte	.LBB55
 10115 00ac 40000000 		.4byte	.LBE55
 10116 00b0 44000000 		.4byte	.LBB56
 10117 00b4 48000000 		.4byte	.LBE56
 10118 00b8 00000000 		.4byte	0
 10119 00bc 00000000 		.4byte	0
 10120 00c0 00000000 		.4byte	.LFB142
 10121 00c4 18000000 		.4byte	.LFE142
 10122 00c8 00000000 		.4byte	.LFB123
 10123 00cc BA000000 		.4byte	.LFE123
ARM GAS  C:\Users\Vergil\AppData\Local\Temp\ccwNg35D.s 			page 179


 10124 00d0 00000000 		.4byte	.LFB121
 10125 00d4 6C010000 		.4byte	.LFE121
 10126 00d8 00000000 		.4byte	.LFB122
 10127 00dc 6E000000 		.4byte	.LFE122
 10128 00e0 00000000 		.4byte	.LFB125
 10129 00e4 3E000000 		.4byte	.LFE125
 10130 00e8 00000000 		.4byte	.LFB126
 10131 00ec 4C000000 		.4byte	.LFE126
 10132 00f0 00000000 		.4byte	.LFB128
 10133 00f4 46000000 		.4byte	.LFE128
 10134 00f8 00000000 		.4byte	.LFB127
 10135 00fc 4C010000 		.4byte	.LFE127
 10136 0100 00000000 		.4byte	.LFB133
 10137 0104 7C020000 		.4byte	.LFE133
 10138 0108 00000000 		.4byte	.LFB141
 10139 010c 28000000 		.4byte	.LFE141
 10140 0110 00000000 		.4byte	.LFB134
 10141 0114 44000000 		.4byte	.LFE134
 10142 0118 00000000 		.4byte	.LFB129
 10143 011c 02000000 		.4byte	.LFE129
 10144 0120 00000000 		.4byte	.LFB130
 10145 0124 18000000 		.4byte	.LFE130
 10146 0128 00000000 		.4byte	.LFB131
 10147 012c 08000000 		.4byte	.LFE131
 10148 0130 00000000 		.4byte	.LFB132
 10149 0134 12000000 		.4byte	.LFE132
 10150 0138 00000000 		.4byte	.LFB135
 10151 013c 54000000 		.4byte	.LFE135
 10152 0140 00000000 		.4byte	.LFB136
 10153 0144 7E000000 		.4byte	.LFE136
 10154 0148 00000000 		.4byte	.LFB137
 10155 014c 3C000000 		.4byte	.LFE137
 10156 0150 00000000 		.4byte	.LFB118
 10157 0154 70000000 		.4byte	.LFE118
 10158 0158 00000000 		.4byte	.LFB138
 10159 015c 54000000 		.4byte	.LFE138
 10160 0160 00000000 		.4byte	.LFB139
 10161 0164 80000000 		.4byte	.LFE139
 10162 0168 00000000 		.4byte	.LFB140
 10163 016c 38000000 		.4byte	.LFE140
 10164 0170 00000000 		.4byte	.LFB119
 10165 0174 70000000 		.4byte	.LFE119
 10166 0178 00000000 		.4byte	.LFB143
 10167 017c 52000000 		.4byte	.LFE143
 10168 0180 00000000 		.4byte	0
 10169 0184 00000000 		.4byte	0
 10170              		.section	.debug_line,"",%progbits
 10171              	.Ldebug_line0:
 10172 0000 B0060000 		.section	.debug_str,"MS",%progbits,1
 10172      0200BA02 
 10172      00000201 
 10172      FB0E0D00 
 10172      01010101 
 10173              	.LASF61:
 10174 0000 4D314152 		.ascii	"M1AR\000"
 10174      00
 10175              	.LASF185:
ARM GAS  C:\Users\Vergil\AppData\Local\Temp\ccwNg35D.s 			page 180


 10176 0005 73706953 		.ascii	"spiSelect\000"
 10176      656C6563 
 10176      7400
 10177              	.LASF168:
 10178 000f 6D6D6353 		.ascii	"mmcSequentialRead\000"
 10178      65717565 
 10178      6E746961 
 10178      6C526561 
 10178      6400
 10179              	.LASF11:
 10180 0021 73697A65 		.ascii	"size_t\000"
 10180      5F7400
 10181              	.LASF189:
 10182 0028 73706953 		.ascii	"spiStart\000"
 10182      74617274 
 10182      00
 10183              	.LASF8:
 10184 0031 73697A65 		.ascii	"sizetype\000"
 10184      74797065 
 10184      00
 10185              	.LASF173:
 10186 003a 73746172 		.ascii	"start\000"
 10186      7400
 10187              	.LASF25:
 10188 0040 73797374 		.ascii	"systime_t\000"
 10188      696D655F 
 10188      7400
 10189              	.LASF30:
 10190 004a 705F6374 		.ascii	"p_ctx\000"
 10190      7800
 10191              	.LASF140:
 10192 0050 6765745F 		.ascii	"get_info\000"
 10192      696E666F 
 10192      00
 10193              	.LASF22:
 10194 0059 74707269 		.ascii	"tprio_t\000"
 10194      6F5F7400 
 10195              	.LASF177:
 10196 0061 656E6462 		.ascii	"endblk\000"
 10196      6C6B00
 10197              	.LASF40:
 10198 0068 705F6D73 		.ascii	"p_msgqueue\000"
 10198      67717565 
 10198      756500
 10199              	.LASF14:
 10200 0073 696E7433 		.ascii	"int32_t\000"
 10200      325F7400 
 10201              	.LASF93:
 10202 007b 626C6B73 		.ascii	"blkstate_t\000"
 10202      74617465 
 10202      5F7400
 10203              	.LASF149:
 10204 0086 6D6D635F 		.ascii	"mmc_read\000"
 10204      72656164 
 10204      00
 10205              	.LASF125:
 10206 008f 7373706F 		.ascii	"ssport\000"
ARM GAS  C:\Users\Vergil\AppData\Local\Temp\ccwNg35D.s 			page 181


 10206      727400
 10207              	.LASF150:
 10208 0096 696E7374 		.ascii	"instance\000"
 10208      616E6365 
 10208      00
 10209              	.LASF138:
 10210 009f 77726974 		.ascii	"write\000"
 10210      6500
 10211              	.LASF116:
 10212 00a5 636F6E66 		.ascii	"config\000"
 10212      696700
 10213              	.LASF115:
 10214 00ac 73746174 		.ascii	"state\000"
 10214      6500
 10215              	.LASF180:
 10216 00b2 63726337 		.ascii	"crc7_lookup_table\000"
 10216      5F6C6F6F 
 10216      6B75705F 
 10216      7461626C 
 10216      6500
 10217              	.LASF133:
 10218 00c4 69735F69 		.ascii	"is_inserted\000"
 10218      6E736572 
 10218      74656400 
 10219              	.LASF161:
 10220 00d0 72656164 		.ascii	"read_CxD\000"
 10220      5F437844 
 10220      00
 10221              	.LASF170:
 10222 00d9 73746F70 		.ascii	"stopcmd\000"
 10222      636D6400 
 10223              	.LASF53:
 10224 00e1 6D5F6F77 		.ascii	"m_owner\000"
 10224      6E657200 
 10225              	.LASF124:
 10226 00e9 656E645F 		.ascii	"end_cb\000"
 10226      636200
 10227              	.LASF56:
 10228 00f0 65786974 		.ascii	"exitcode\000"
 10228      636F6465 
 10228      00
 10229              	.LASF73:
 10230 00f9 49325343 		.ascii	"I2SCFGR\000"
 10230      46475200 
 10231              	.LASF151:
 10232 0101 73746172 		.ascii	"startblk\000"
 10232      74626C6B 
 10232      00
 10233              	.LASF58:
 10234 010a 65776D61 		.ascii	"ewmask\000"
 10234      736B00
 10235              	.LASF101:
 10236 0111 50555044 		.ascii	"PUPDR\000"
 10236      5200
 10237              	.LASF31:
 10238 0117 705F6E65 		.ascii	"p_newer\000"
 10238      77657200 
ARM GAS  C:\Users\Vergil\AppData\Local\Temp\ccwNg35D.s 			page 182


 10239              	.LASF109:
 10240 011f 5350495F 		.ascii	"SPI_STOP\000"
 10240      53544F50 
 10240      00
 10241              	.LASF7:
 10242 0128 6C6F6E67 		.ascii	"long int\000"
 10242      20696E74 
 10242      00
 10243              	.LASF108:
 10244 0131 5350495F 		.ascii	"SPI_UNINIT\000"
 10244      554E494E 
 10244      495400
 10245              	.LASF27:
 10246 013c 705F6E65 		.ascii	"p_next\000"
 10246      787400
 10247              	.LASF28:
 10248 0143 705F7072 		.ascii	"p_prev\000"
 10248      657600
 10249              	.LASF107:
 10250 014a 696F706F 		.ascii	"ioportid_t\000"
 10250      72746964 
 10250      5F7400
 10251              	.LASF19:
 10252 0155 74737461 		.ascii	"tstate_t\000"
 10252      74655F74 
 10252      00
 10253              	.LASF43:
 10254 015e 705F6D74 		.ascii	"p_mtxlist\000"
 10254      786C6973 
 10254      7400
 10255              	.LASF48:
 10256 0168 72656761 		.ascii	"regarm_t\000"
 10256      726D5F74 
 10256      00
 10257              	.LASF187:
 10258 0171 73706952 		.ascii	"spiReleaseBus\000"
 10258      656C6561 
 10258      73654275 
 10258      7300
 10259              	.LASF134:
 10260 017f 69735F70 		.ascii	"is_protected\000"
 10260      726F7465 
 10260      63746564 
 10260      00
 10261              	.LASF0:
 10262 018c 7369676E 		.ascii	"signed char\000"
 10262      65642063 
 10262      68617200 
 10263              	.LASF37:
 10264 0198 705F7072 		.ascii	"p_preempt\000"
 10264      65656D70 
 10264      7400
 10265              	.LASF12:
 10266 01a2 75696E74 		.ascii	"uint8_t\000"
 10266      385F7400 
 10267              	.LASF146:
 10268 01aa 6D6D6353 		.ascii	"mmcSync\000"
ARM GAS  C:\Users\Vergil\AppData\Local\Temp\ccwNg35D.s 			page 183


 10268      796E6300 
 10269              	.LASF24:
 10270 01b2 6576656E 		.ascii	"eventmask_t\000"
 10270      746D6173 
 10270      6B5F7400 
 10271              	.LASF50:
 10272 01be 636F6E74 		.ascii	"context\000"
 10272      65787400 
 10273              	.LASF153:
 10274 01c6 62646970 		.ascii	"bdip\000"
 10274      00
 10275              	.LASF162:
 10276 01cb 6D6D6347 		.ascii	"mmcGetInfo\000"
 10276      6574496E 
 10276      666F00
 10277              	.LASF63:
 10278 01d6 52455345 		.ascii	"RESERVED0\000"
 10278      52564544 
 10278      3000
 10279              	.LASF64:
 10280 01e0 52455345 		.ascii	"RESERVED1\000"
 10280      52564544 
 10280      3100
 10281              	.LASF1:
 10282 01ea 756E7369 		.ascii	"unsigned char\000"
 10282      676E6564 
 10282      20636861 
 10282      7200
 10283              	.LASF66:
 10284 01f8 52455345 		.ascii	"RESERVED3\000"
 10284      52564544 
 10284      3300
 10285              	.LASF68:
 10286 0202 52455345 		.ascii	"RESERVED4\000"
 10286      52564544 
 10286      3400
 10287              	.LASF70:
 10288 020c 52455345 		.ascii	"RESERVED5\000"
 10288      52564544 
 10288      3500
 10289              	.LASF72:
 10290 0216 52455345 		.ascii	"RESERVED6\000"
 10290      52564544 
 10290      3600
 10291              	.LASF74:
 10292 0220 52455345 		.ascii	"RESERVED7\000"
 10292      52564544 
 10292      3700
 10293              	.LASF76:
 10294 022a 52455345 		.ascii	"RESERVED8\000"
 10294      52564544 
 10294      3800
 10295              	.LASF166:
 10296 0234 6D6D6353 		.ascii	"mmcStop\000"
 10296      746F7000 
 10297              	.LASF84:
 10298 023c 424C4B5F 		.ascii	"BLK_UNINIT\000"
ARM GAS  C:\Users\Vergil\AppData\Local\Temp\ccwNg35D.s 			page 184


 10298      554E494E 
 10298      495400
 10299              	.LASF17:
 10300 0247 5F426F6F 		.ascii	"_Bool\000"
 10300      6C00
 10301              	.LASF65:
 10302 024d 52455345 		.ascii	"RESERVED2\000"
 10302      52564544 
 10302      3200
 10303              	.LASF10:
 10304 0257 63686172 		.ascii	"char\000"
 10304      00
 10305              	.LASF80:
 10306 025c 69736869 		.ascii	"ishift\000"
 10306      667400
 10307              	.LASF141:
 10308 0263 63617061 		.ascii	"capacity\000"
 10308      63697479 
 10308      00
 10309              	.LASF29:
 10310 026c 705F7072 		.ascii	"p_prio\000"
 10310      696F00
 10311              	.LASF114:
 10312 0273 53504944 		.ascii	"SPIDriver\000"
 10312      72697665 
 10312      7200
 10313              	.LASF87:
 10314 027d 424C4B5F 		.ascii	"BLK_CONNECTING\000"
 10314      434F4E4E 
 10314      45435449 
 10314      4E4700
 10315              	.LASF89:
 10316 028c 424C4B5F 		.ascii	"BLK_READY\000"
 10316      52454144 
 10316      5900
 10317              	.LASF57:
 10318 0296 77746F62 		.ascii	"wtobjp\000"
 10318      6A7000
 10319              	.LASF148:
 10320 029d 63726337 		.ascii	"crc7\000"
 10320      00
 10321              	.LASF78:
 10322 02a2 73747265 		.ascii	"stream\000"
 10322      616D00
 10323              	.LASF182:
 10324 02a9 63685468 		.ascii	"chThdSleep\000"
 10324      64536C65 
 10324      657000
 10325              	.LASF144:
 10326 02b4 62756666 		.ascii	"buffer\000"
 10326      657200
 10327              	.LASF191:
 10328 02bb 6D6D6373 		.ascii	"mmcsdGetCapacity\000"
 10328      64476574 
 10328      43617061 
 10328      63697479 
 10328      00
ARM GAS  C:\Users\Vergil\AppData\Local\Temp\ccwNg35D.s 			page 185


 10329              	.LASF49:
 10330 02cc 696E7463 		.ascii	"intctx\000"
 10330      747800
 10331              	.LASF42:
 10332 02d3 705F6570 		.ascii	"p_epending\000"
 10332      656E6469 
 10332      6E6700
 10333              	.LASF94:
 10334 02de 626C6B5F 		.ascii	"blk_size\000"
 10334      73697A65 
 10334      00
 10335              	.LASF157:
 10336 02e7 73656E64 		.ascii	"send_command_R1\000"
 10336      5F636F6D 
 10336      6D616E64 
 10336      5F523100 
 10337              	.LASF159:
 10338 02f7 73656E64 		.ascii	"send_command_R3\000"
 10338      5F636F6D 
 10338      6D616E64 
 10338      5F523300 
 10339              	.LASF97:
 10340 0307 636C6561 		.ascii	"clear\000"
 10340      7200
 10341              	.LASF145:
 10342 030d 6D6D6370 		.ascii	"mmcp\000"
 10342      00
 10343              	.LASF156:
 10344 0312 72656376 		.ascii	"recvr1\000"
 10344      723100
 10345              	.LASF9:
 10346 0319 6C6F6E67 		.ascii	"long unsigned int\000"
 10346      20756E73 
 10346      69676E65 
 10346      6420696E 
 10346      7400
 10347              	.LASF143:
 10348 032b 4D4D4344 		.ascii	"MMCDriver\000"
 10348      72697665 
 10348      7200
 10349              	.LASF186:
 10350 0335 73706955 		.ascii	"spiUnselect\000"
 10350      6E73656C 
 10350      65637400 
 10351              	.LASF129:
 10352 0341 6C736366 		.ascii	"lscfg\000"
 10352      6700
 10353              	.LASF83:
 10354 0347 73746D33 		.ascii	"stm32_dma_stream_t\000"
 10354      325F646D 
 10354      615F7374 
 10354      7265616D 
 10354      5F7400
 10355              	.LASF103:
 10356 035a 4C434B52 		.ascii	"LCKR\000"
 10356      00
 10357              	.LASF91:
ARM GAS  C:\Users\Vergil\AppData\Local\Temp\ccwNg35D.s 			page 186


 10358 035f 424C4B5F 		.ascii	"BLK_WRITING\000"
 10358      57524954 
 10358      494E4700 
 10359              	.LASF100:
 10360 036b 4F535045 		.ascii	"OSPEEDR\000"
 10360      45445200 
 10361              	.LASF119:
 10362 0373 646D6172 		.ascii	"dmarx\000"
 10362      7800
 10363              	.LASF51:
 10364 0379 4D757465 		.ascii	"Mutex\000"
 10364      7800
 10365              	.LASF110:
 10366 037f 5350495F 		.ascii	"SPI_READY\000"
 10366      52454144 
 10366      5900
 10367              	.LASF5:
 10368 0389 6C6F6E67 		.ascii	"long long int\000"
 10368      206C6F6E 
 10368      6720696E 
 10368      7400
 10369              	.LASF135:
 10370 0397 636F6E6E 		.ascii	"connect\000"
 10370      65637400 
 10371              	.LASF52:
 10372 039f 6D5F7175 		.ascii	"m_queue\000"
 10372      65756500 
 10373              	.LASF139:
 10374 03a7 73796E63 		.ascii	"sync\000"
 10374      00
 10375              	.LASF118:
 10376 03ac 6D757465 		.ascii	"mutex\000"
 10376      7800
 10377              	.LASF196:
 10378 03b2 49544D5F 		.ascii	"ITM_RxBuffer\000"
 10378      52784275 
 10378      66666572 
 10378      00
 10379              	.LASF69:
 10380 03bf 52584352 		.ascii	"RXCRCR\000"
 10380      435200
 10381              	.LASF121:
 10382 03c6 7278646D 		.ascii	"rxdmamode\000"
 10382      616D6F64 
 10382      6500
 10383              	.LASF154:
 10384 03d0 77616974 		.ascii	"wait\000"
 10384      00
 10385              	.LASF128:
 10386 03d5 73706970 		.ascii	"spip\000"
 10386      00
 10387              	.LASF39:
 10388 03da 705F7761 		.ascii	"p_waiting\000"
 10388      6974696E 
 10388      6700
 10389              	.LASF175:
 10390 03e4 73746F70 		.ascii	"stop\000"
ARM GAS  C:\Users\Vergil\AppData\Local\Temp\ccwNg35D.s 			page 187


 10390      00
 10391              	.LASF120:
 10392 03e9 646D6174 		.ascii	"dmatx\000"
 10392      7800
 10393              	.LASF98:
 10394 03ef 4D4F4445 		.ascii	"MODER\000"
 10394      5200
 10395              	.LASF35:
 10396 03f5 705F666C 		.ascii	"p_flags\000"
 10396      61677300 
 10397              	.LASF137:
 10398 03fd 72656164 		.ascii	"read\000"
 10398      00
 10399              	.LASF81:
 10400 0402 73656C66 		.ascii	"selfindex\000"
 10400      696E6465 
 10400      7800
 10401              	.LASF4:
 10402 040c 756E7369 		.ascii	"unsigned int\000"
 10402      676E6564 
 10402      20696E74 
 10402      00
 10403              	.LASF127:
 10404 0419 53504943 		.ascii	"SPIConfig\000"
 10404      6F6E6669 
 10404      6700
 10405              	.LASF123:
 10406 0423 73706963 		.ascii	"spicallback_t\000"
 10406      616C6C62 
 10406      61636B5F 
 10406      7400
 10407              	.LASF111:
 10408 0431 5350495F 		.ascii	"SPI_ACTIVE\000"
 10408      41435449 
 10408      564500
 10409              	.LASF95:
 10410 043c 626C6B5F 		.ascii	"blk_num\000"
 10410      6E756D00 
 10411              	.LASF194:
 10412 0444 433A5C43 		.ascii	"C:\\ChibiStudio\\chibios\\demos\\ARMCM4-STM32F401RE"
 10412      68696269 
 10412      53747564 
 10412      696F5C63 
 10412      68696269 
 10413 0473 2D4E5543 		.ascii	"-NUCLEO-CC3K\000"
 10413      4C454F2D 
 10413      4343334B 
 10413      00
 10414              	.LASF45:
 10415 0480 705F6D70 		.ascii	"p_mpool\000"
 10415      6F6F6C00 
 10416              	.LASF164:
 10417 0488 6D6D634F 		.ascii	"mmcObjectInit\000"
 10417      626A6563 
 10417      74496E69 
 10417      7400
 10418              	.LASF158:
ARM GAS  C:\Users\Vergil\AppData\Local\Temp\ccwNg35D.s 			page 188


 10419 0496 72656376 		.ascii	"recvr3\000"
 10419      723300
 10420              	.LASF36:
 10421 049d 705F7265 		.ascii	"p_refs\000"
 10421      667300
 10422              	.LASF152:
 10423 04a4 6D6D635F 		.ascii	"mmc_write\000"
 10423      77726974 
 10423      6500
 10424              	.LASF47:
 10425 04ae 54687265 		.ascii	"ThreadsList\000"
 10425      6164734C 
 10425      69737400 
 10426              	.LASF171:
 10427 04ba 6D6D6353 		.ascii	"mmcStartSequentialWrite\000"
 10427      74617274 
 10427      53657175 
 10427      656E7469 
 10427      616C5772 
 10428              	.LASF62:
 10429 04d2 444D415F 		.ascii	"DMA_Stream_TypeDef\000"
 10429      53747265 
 10429      616D5F54 
 10429      79706544 
 10429      656600
 10430              	.LASF38:
 10431 04e5 705F7469 		.ascii	"p_time\000"
 10431      6D6500
 10432              	.LASF192:
 10433 04ec 474E5520 		.ascii	"GNU C 4.7.4 20140401 (release) [ARM/embedded-4_7-br"
 10433      4320342E 
 10433      372E3420 
 10433      32303134 
 10433      30343031 
 10434 051f 616E6368 		.ascii	"anch revision 209195]\000"
 10434      20726576 
 10434      6973696F 
 10434      6E203230 
 10434      39313935 
 10435              	.LASF96:
 10436 0535 426C6F63 		.ascii	"BlockDeviceInfo\000"
 10436      6B446576 
 10436      69636549 
 10436      6E666F00 
 10437              	.LASF179:
 10438 0545 6D6D635F 		.ascii	"mmc_vmt\000"
 10438      766D7400 
 10439              	.LASF167:
 10440 054d 6D6D6353 		.ascii	"mmcStartSequentialRead\000"
 10440      74617274 
 10440      53657175 
 10440      656E7469 
 10440      616C5265 
 10441              	.LASF44:
 10442 0564 705F7265 		.ascii	"p_realprio\000"
 10442      616C7072 
 10442      696F00
ARM GAS  C:\Users\Vergil\AppData\Local\Temp\ccwNg35D.s 			page 189


 10443              	.LASF174:
 10444 056f 6D6D6353 		.ascii	"mmcStopSequentialWrite\000"
 10444      746F7053 
 10444      65717565 
 10444      6E746961 
 10444      6C577269 
 10445              	.LASF86:
 10446 0586 424C4B5F 		.ascii	"BLK_ACTIVE\000"
 10446      41435449 
 10446      564500
 10447              	.LASF136:
 10448 0591 64697363 		.ascii	"disconnect\000"
 10448      6F6E6E65 
 10448      637400
 10449              	.LASF165:
 10450 059c 6D6D6353 		.ascii	"mmcStart\000"
 10450      74617274 
 10450      00
 10451              	.LASF147:
 10452 05a5 6D6D6344 		.ascii	"mmcDisconnect\000"
 10452      6973636F 
 10452      6E6E6563 
 10452      7400
 10453              	.LASF92:
 10454 05b3 424C4B5F 		.ascii	"BLK_SYNCING\000"
 10454      53594E43 
 10454      494E4700 
 10455              	.LASF6:
 10456 05bf 6C6F6E67 		.ascii	"long long unsigned int\000"
 10456      206C6F6E 
 10456      6720756E 
 10456      7369676E 
 10456      65642069 
 10457              	.LASF32:
 10458 05d6 705F6F6C 		.ascii	"p_older\000"
 10458      64657200 
 10459              	.LASF13:
 10460 05de 75696E74 		.ascii	"uint16_t\000"
 10460      31365F74 
 10460      00
 10461              	.LASF23:
 10462 05e7 6D73675F 		.ascii	"msg_t\000"
 10462      7400
 10463              	.LASF21:
 10464 05ed 74736C69 		.ascii	"tslices_t\000"
 10464      6365735F 
 10464      7400
 10465              	.LASF183:
 10466 05f7 73706953 		.ascii	"spiSend\000"
 10466      656E6400 
 10467              	.LASF105:
 10468 05ff 41465248 		.ascii	"AFRH\000"
 10468      00
 10469              	.LASF104:
 10470 0604 4146524C 		.ascii	"AFRL\000"
 10470      00
 10471              	.LASF172:
ARM GAS  C:\Users\Vergil\AppData\Local\Temp\ccwNg35D.s 			page 190


 10472 0609 6D6D6353 		.ascii	"mmcSequentialWrite\000"
 10472      65717565 
 10472      6E746961 
 10472      6C577269 
 10472      746500
 10473              	.LASF82:
 10474 061c 76656374 		.ascii	"vector\000"
 10474      6F7200
 10475              	.LASF131:
 10476 0623 4D4D4343 		.ascii	"MMCConfig\000"
 10476      6F6E6669 
 10476      6700
 10477              	.LASF193:
 10478 062d 2E2E2F2E 		.ascii	"../../os/hal/src/mmc_spi.c\000"
 10478      2E2F6F73 
 10478      2F68616C 
 10478      2F737263 
 10478      2F6D6D63 
 10479              	.LASF99:
 10480 0648 4F545950 		.ascii	"OTYPER\000"
 10480      455200
 10481              	.LASF71:
 10482 064f 54584352 		.ascii	"TXCRCR\000"
 10482      435200
 10483              	.LASF77:
 10484 0656 5350495F 		.ascii	"SPI_TypeDef\000"
 10484      54797065 
 10484      44656600 
 10485              	.LASF18:
 10486 0662 746D6F64 		.ascii	"tmode_t\000"
 10486      655F7400 
 10487              	.LASF67:
 10488 066a 43524350 		.ascii	"CRCPR\000"
 10488      5200
 10489              	.LASF181:
 10490 0670 73706952 		.ascii	"spiReceive\000"
 10490      65636569 
 10490      766500
 10491              	.LASF190:
 10492 067b 73706953 		.ascii	"spiStop\000"
 10492      746F7000 
 10493              	.LASF195:
 10494 0683 6D6D6349 		.ascii	"mmcInit\000"
 10494      6E697400 
 10495              	.LASF117:
 10496 068b 74687265 		.ascii	"thread\000"
 10496      616400
 10497              	.LASF60:
 10498 0692 4D304152 		.ascii	"M0AR\000"
 10498      00
 10499              	.LASF2:
 10500 0697 73686F72 		.ascii	"short int\000"
 10500      7420696E 
 10500      7400
 10501              	.LASF88:
 10502 06a1 424C4B5F 		.ascii	"BLK_DISCONNECTING\000"
 10502      44495343 
ARM GAS  C:\Users\Vergil\AppData\Local\Temp\ccwNg35D.s 			page 191


 10502      4F4E4E45 
 10502      4354494E 
 10502      4700
 10503              	.LASF184:
 10504 06b3 73706941 		.ascii	"spiAcquireBus\000"
 10504      63717569 
 10504      72654275 
 10504      7300
 10505              	.LASF16:
 10506 06c1 626F6F6C 		.ascii	"bool_t\000"
 10506      5F7400
 10507              	.LASF176:
 10508 06c8 6D6D6345 		.ascii	"mmcErase\000"
 10508      72617365 
 10508      00
 10509              	.LASF102:
 10510 06d1 42535252 		.ascii	"BSRR\000"
 10510      00
 10511              	.LASF163:
 10512 06d6 6D6D6343 		.ascii	"mmcConnect\000"
 10512      6F6E6E65 
 10512      637400
 10513              	.LASF26:
 10514 06e1 54687265 		.ascii	"Thread\000"
 10514      616400
 10515              	.LASF155:
 10516 06e8 73656E64 		.ascii	"send_hdr\000"
 10516      5F686472 
 10516      00
 10517              	.LASF106:
 10518 06f1 4750494F 		.ascii	"GPIO_TypeDef\000"
 10518      5F547970 
 10518      65446566 
 10518      00
 10519              	.LASF160:
 10520 06fe 72657370 		.ascii	"response\000"
 10520      6F6E7365 
 10520      00
 10521              	.LASF142:
 10522 0707 626C6F63 		.ascii	"block_addresses\000"
 10522      6B5F6164 
 10522      64726573 
 10522      73657300 
 10523              	.LASF20:
 10524 0717 74726566 		.ascii	"trefs_t\000"
 10524      735F7400 
 10525              	.LASF132:
 10526 071f 4D4D4344 		.ascii	"MMCDriverVMT\000"
 10526      72697665 
 10526      72564D54 
 10526      00
 10527              	.LASF130:
 10528 072c 68736366 		.ascii	"hscfg\000"
 10528      6700
 10529              	.LASF90:
 10530 0732 424C4B5F 		.ascii	"BLK_READING\000"
 10530      52454144 
ARM GAS  C:\Users\Vergil\AppData\Local\Temp\ccwNg35D.s 			page 192


 10530      494E4700 
 10531              	.LASF15:
 10532 073e 75696E74 		.ascii	"uint32_t\000"
 10532      33325F74 
 10532      00
 10533              	.LASF169:
 10534 0747 6D6D6353 		.ascii	"mmcStopSequentialRead\000"
 10534      746F7053 
 10534      65717565 
 10534      6E746961 
 10534      6C526561 
 10535              	.LASF75:
 10536 075d 49325350 		.ascii	"I2SPR\000"
 10536      5200
 10537              	.LASF188:
 10538 0763 73706949 		.ascii	"spiIgnore\000"
 10538      676E6F72 
 10538      6500
 10539              	.LASF46:
 10540 076d 54687265 		.ascii	"ThreadsQueue\000"
 10540      61647351 
 10540      75657565 
 10540      00
 10541              	.LASF112:
 10542 077a 5350495F 		.ascii	"SPI_COMPLETE\000"
 10542      434F4D50 
 10542      4C455445 
 10542      00
 10543              	.LASF55:
 10544 0787 7264796D 		.ascii	"rdymsg\000"
 10544      736700
 10545              	.LASF3:
 10546 078e 73686F72 		.ascii	"short unsigned int\000"
 10546      7420756E 
 10546      7369676E 
 10546      65642069 
 10546      6E7400
 10547              	.LASF113:
 10548 07a1 73706973 		.ascii	"spistate_t\000"
 10548      74617465 
 10548      5F7400
 10549              	.LASF59:
 10550 07ac 4E445452 		.ascii	"NDTR\000"
 10550      00
 10551              	.LASF79:
 10552 07b1 69666372 		.ascii	"ifcr\000"
 10552      00
 10553              	.LASF178:
 10554 07b6 6661696C 		.ascii	"failed\000"
 10554      656400
 10555              	.LASF126:
 10556 07bd 73737061 		.ascii	"sspad\000"
 10556      6400
 10557              	.LASF33:
 10558 07c3 705F6E61 		.ascii	"p_name\000"
 10558      6D6500
 10559              	.LASF54:
ARM GAS  C:\Users\Vergil\AppData\Local\Temp\ccwNg35D.s 			page 193


 10560 07ca 6D5F6E65 		.ascii	"m_next\000"
 10560      787400
 10561              	.LASF122:
 10562 07d1 7478646D 		.ascii	"txdmamode\000"
 10562      616D6F64 
 10562      6500
 10563              	.LASF85:
 10564 07db 424C4B5F 		.ascii	"BLK_STOP\000"
 10564      53544F50 
 10564      00
 10565              	.LASF41:
 10566 07e4 705F6D73 		.ascii	"p_msg\000"
 10566      6700
 10567              	.LASF34:
 10568 07ea 705F7374 		.ascii	"p_state\000"
 10568      61746500 
 10569              		.ident	"GCC: (GNU Tools for ARM Embedded Processors) 4.7.4 20140401 (release) [ARM/embedded-4_7-br
ARM GAS  C:\Users\Vergil\AppData\Local\Temp\ccwNg35D.s 			page 194


DEFINED SYMBOLS
                            *ABS*:00000000 mmc_spi.c
C:\Users\Vergil\AppData\Local\Temp\ccwNg35D.s:21     .text.mmcGetInfo:00000000 $t
C:\Users\Vergil\AppData\Local\Temp\ccwNg35D.s:27     .text.mmcGetInfo:00000000 mmcGetInfo
C:\Users\Vergil\AppData\Local\Temp\ccwNg35D.s:63     .text.recvr1:00000000 $t
C:\Users\Vergil\AppData\Local\Temp\ccwNg35D.s:68     .text.recvr1:00000000 recvr1
C:\Users\Vergil\AppData\Local\Temp\ccwNg35D.s:203    .text.wait:00000000 $t
C:\Users\Vergil\AppData\Local\Temp\ccwNg35D.s:208    .text.wait:00000000 wait
C:\Users\Vergil\AppData\Local\Temp\ccwNg35D.s:448    .text.send_hdr:00000000 $t
C:\Users\Vergil\AppData\Local\Temp\ccwNg35D.s:453    .text.send_hdr:00000000 send_hdr
C:\Users\Vergil\AppData\Local\Temp\ccwNg35D.s:2559   .rodata.crc7_lookup_table:00000000 .LANCHOR0
C:\Users\Vergil\AppData\Local\Temp\ccwNg35D.s:571    .text.send_command_R1:00000000 $t
C:\Users\Vergil\AppData\Local\Temp\ccwNg35D.s:576    .text.send_command_R1:00000000 send_command_R1
C:\Users\Vergil\AppData\Local\Temp\ccwNg35D.s:641    .text.send_command_R3:00000000 $t
C:\Users\Vergil\AppData\Local\Temp\ccwNg35D.s:646    .text.send_command_R3:00000000 send_command_R3
C:\Users\Vergil\AppData\Local\Temp\ccwNg35D.s:724    .text.sync:00000000 $t
C:\Users\Vergil\AppData\Local\Temp\ccwNg35D.s:729    .text.sync:00000000 sync
C:\Users\Vergil\AppData\Local\Temp\ccwNg35D.s:793    .text.read_CxD:00000000 $t
C:\Users\Vergil\AppData\Local\Temp\ccwNg35D.s:798    .text.read_CxD:00000000 read_CxD
C:\Users\Vergil\AppData\Local\Temp\ccwNg35D.s:1006   .text.mmcConnect:00000000 $t
C:\Users\Vergil\AppData\Local\Temp\ccwNg35D.s:1012   .text.mmcConnect:00000000 mmcConnect
C:\Users\Vergil\AppData\Local\Temp\ccwNg35D.s:1439   .text.mmcSync:00000000 $t
C:\Users\Vergil\AppData\Local\Temp\ccwNg35D.s:1445   .text.mmcSync:00000000 mmcSync
C:\Users\Vergil\AppData\Local\Temp\ccwNg35D.s:1502   .text.mmcDisconnect:00000000 $t
C:\Users\Vergil\AppData\Local\Temp\ccwNg35D.s:1508   .text.mmcDisconnect:00000000 mmcDisconnect
C:\Users\Vergil\AppData\Local\Temp\ccwNg35D.s:1600   .text.mmcInit:00000000 $t
C:\Users\Vergil\AppData\Local\Temp\ccwNg35D.s:1606   .text.mmcInit:00000000 mmcInit
C:\Users\Vergil\AppData\Local\Temp\ccwNg35D.s:1618   .text.mmcObjectInit:00000000 $t
C:\Users\Vergil\AppData\Local\Temp\ccwNg35D.s:1624   .text.mmcObjectInit:00000000 mmcObjectInit
C:\Users\Vergil\AppData\Local\Temp\ccwNg35D.s:2829   .rodata.mmc_vmt:00000000 .LANCHOR1
C:\Users\Vergil\AppData\Local\Temp\ccwNg35D.s:1653   .text.mmcStart:00000000 $t
C:\Users\Vergil\AppData\Local\Temp\ccwNg35D.s:1659   .text.mmcStart:00000000 mmcStart
C:\Users\Vergil\AppData\Local\Temp\ccwNg35D.s:1678   .text.mmcStop:00000000 $t
C:\Users\Vergil\AppData\Local\Temp\ccwNg35D.s:1684   .text.mmcStop:00000000 mmcStop
C:\Users\Vergil\AppData\Local\Temp\ccwNg35D.s:1714   .text.mmcStartSequentialRead:00000000 $t
C:\Users\Vergil\AppData\Local\Temp\ccwNg35D.s:1720   .text.mmcStartSequentialRead:00000000 mmcStartSequentialRead
C:\Users\Vergil\AppData\Local\Temp\ccwNg35D.s:1801   .text.mmcSequentialRead:00000000 $t
C:\Users\Vergil\AppData\Local\Temp\ccwNg35D.s:1807   .text.mmcSequentialRead:00000000 mmcSequentialRead
C:\Users\Vergil\AppData\Local\Temp\ccwNg35D.s:1916   .text.mmcStopSequentialRead:00000000 $t
C:\Users\Vergil\AppData\Local\Temp\ccwNg35D.s:1922   .text.mmcStopSequentialRead:00000000 mmcStopSequentialRead
C:\Users\Vergil\AppData\Local\Temp\ccwNg35D.s:1980   .text.mmcStopSequentialRead:00000038 $d
C:\Users\Vergil\AppData\Local\Temp\ccwNg35D.s:1985   .text.mmc_read:00000000 $t
C:\Users\Vergil\AppData\Local\Temp\ccwNg35D.s:1990   .text.mmc_read:00000000 mmc_read
C:\Users\Vergil\AppData\Local\Temp\ccwNg35D.s:2097   .text.mmcStartSequentialWrite:00000000 $t
C:\Users\Vergil\AppData\Local\Temp\ccwNg35D.s:2103   .text.mmcStartSequentialWrite:00000000 mmcStartSequentialWrite
C:\Users\Vergil\AppData\Local\Temp\ccwNg35D.s:2184   .text.mmcSequentialWrite:00000000 $t
C:\Users\Vergil\AppData\Local\Temp\ccwNg35D.s:2190   .text.mmcSequentialWrite:00000000 mmcSequentialWrite
C:\Users\Vergil\AppData\Local\Temp\ccwNg35D.s:2290   .text.mmcSequentialWrite:0000007c $d
C:\Users\Vergil\AppData\Local\Temp\ccwNg35D.s:2295   .text.mmcStopSequentialWrite:00000000 $t
C:\Users\Vergil\AppData\Local\Temp\ccwNg35D.s:2301   .text.mmcStopSequentialWrite:00000000 mmcStopSequentialWrite
C:\Users\Vergil\AppData\Local\Temp\ccwNg35D.s:2355   .text.mmcStopSequentialWrite:00000034 $d
C:\Users\Vergil\AppData\Local\Temp\ccwNg35D.s:2360   .text.mmc_write:00000000 $t
C:\Users\Vergil\AppData\Local\Temp\ccwNg35D.s:2365   .text.mmc_write:00000000 mmc_write
C:\Users\Vergil\AppData\Local\Temp\ccwNg35D.s:2472   .text.mmcErase:00000000 $t
C:\Users\Vergil\AppData\Local\Temp\ccwNg35D.s:2478   .text.mmcErase:00000000 mmcErase
C:\Users\Vergil\AppData\Local\Temp\ccwNg35D.s:2558   .rodata.crc7_lookup_table:00000000 $d
C:\Users\Vergil\AppData\Local\Temp\ccwNg35D.s:2562   .rodata.crc7_lookup_table:00000000 crc7_lookup_table
ARM GAS  C:\Users\Vergil\AppData\Local\Temp\ccwNg35D.s 			page 195


C:\Users\Vergil\AppData\Local\Temp\ccwNg35D.s:2820   .rodata.stop.7391:00000000 $d
C:\Users\Vergil\AppData\Local\Temp\ccwNg35D.s:2824   .rodata.stop.7391:00000000 stop.7391
C:\Users\Vergil\AppData\Local\Temp\ccwNg35D.s:2828   .rodata.mmc_vmt:00000000 $d
C:\Users\Vergil\AppData\Local\Temp\ccwNg35D.s:2832   .rodata.mmc_vmt:00000000 mmc_vmt
C:\Users\Vergil\AppData\Local\Temp\ccwNg35D.s:2842   .rodata.stopcmd.7377:00000000 $d
C:\Users\Vergil\AppData\Local\Temp\ccwNg35D.s:2846   .rodata.stopcmd.7377:00000000 stopcmd.7377
C:\Users\Vergil\AppData\Local\Temp\ccwNg35D.s:2855   .rodata.start.7386:00000000 $d
C:\Users\Vergil\AppData\Local\Temp\ccwNg35D.s:2859   .rodata.start.7386:00000000 start.7386
                     .debug_frame:00000010 $d
C:\Users\Vergil\AppData\Local\Temp\ccwNg35D.s:1984   .text.mmcStopSequentialRead:0000003c $t
C:\Users\Vergil\AppData\Local\Temp\ccwNg35D.s:2359   .text.mmcStopSequentialWrite:00000038 $t

UNDEFINED SYMBOLS
spiReceive
chThdSleep
spiSend
spiAcquireBus
spiSelect
spiUnselect
spiReleaseBus
spiIgnore
spiStart
spiStop
mmcsdGetCapacity
mmc_lld_is_card_inserted
mmc_lld_is_write_protected
