ARM GAS  C:\Users\Vergil\AppData\Local\Temp\cc38DB4C.s 			page 1


   1              		.syntax unified
   2              		.cpu cortex-m4
   3              		.eabi_attribute 27, 3
   4              		.eabi_attribute 28, 1
   5              		.fpu fpv4-sp-d16
   6              		.eabi_attribute 20, 1
   7              		.eabi_attribute 21, 1
   8              		.eabi_attribute 23, 3
   9              		.eabi_attribute 24, 1
  10              		.eabi_attribute 25, 1
  11              		.eabi_attribute 26, 1
  12              		.eabi_attribute 30, 2
  13              		.eabi_attribute 34, 1
  14              		.eabi_attribute 18, 4
  15              		.thumb
  16              		.file	"netapp.c"
  17              		.text
  18              	.Ltext0:
  19              		.cfi_sections	.debug_frame
  20              		.section	.text.netapp_config_mac_adrress,"ax",%progbits
  21              		.align	2
  22              		.p2align 4,,15
  23              		.global	netapp_config_mac_adrress
  24              		.thumb
  25              		.thumb_func
  26              		.type	netapp_config_mac_adrress, %function
  27              	netapp_config_mac_adrress:
  28              	.LFB0:
  29              		.file 1 "C:\\Users\\Vergil\\ChibiOS_CC3000_SPI/CC3000HostDriver/netapp.c"
  30              		.loc 1 70 0
  31              		.cfi_startproc
  32              		@ args = 0, pretend = 0, frame = 0
  33              		@ frame_needed = 0, uses_anonymous_args = 0
  34              	.LVL0:
  35 0000 08B5     		push	{r3, lr}
  36              	.LCFI0:
  37              		.cfi_def_cfa_offset 8
  38              		.cfi_offset 3, -8
  39              		.cfi_offset 14, -4
  40              		.loc 1 71 0
  41 0002 FFF7FEFF 		bl	nvmem_set_mac_address
  42              	.LVL1:
  43              		.loc 1 72 0
  44 0006 08BD     		pop	{r3, pc}
  45              		.cfi_endproc
  46              	.LFE0:
  47              		.size	netapp_config_mac_adrress, .-netapp_config_mac_adrress
  48 0008 AFF30080 		.section	.text.netapp_dhcp,"ax",%progbits
  48      AFF30080 
  49              		.align	2
  50              		.p2align 4,,15
  51              		.global	netapp_dhcp
  52              		.thumb
  53              		.thumb_func
  54              		.type	netapp_dhcp, %function
  55              	netapp_dhcp:
  56              	.LFB1:
ARM GAS  C:\Users\Vergil\AppData\Local\Temp\cc38DB4C.s 			page 2


  57              		.loc 1 101 0
  58              		.cfi_startproc
  59              		@ args = 0, pretend = 0, frame = 8
  60              		@ frame_needed = 0, uses_anonymous_args = 0
  61              	.LVL2:
  62 0000 70B5     		push	{r4, r5, r6, lr}
  63              	.LCFI1:
  64              		.cfi_def_cfa_offset 16
  65              		.cfi_offset 4, -16
  66              		.cfi_offset 5, -12
  67              		.cfi_offset 6, -8
  68              		.cfi_offset 14, -4
  69              		.loc 1 107 0
  70 0002 40F20004 		movw	r4, #:lower16:tSLInformation
  71 0006 C0F20004 		movt	r4, #:upper16:tSLInformation
  72              	.LBB2:
  73              		.loc 1 111 0
  74 000a 0578     		ldrb	r5, [r0, #0]	@ zero_extendqisi2
  75              	.LBE2:
  76              		.loc 1 107 0
  77 000c A468     		ldr	r4, [r4, #8]
  78              	.LVL3:
  79              	.LBB3:
  80              		.loc 1 111 0
  81 000e 6572     		strb	r5, [r4, #9]
  82              	.LVL4:
  83 0010 4678     		ldrb	r6, [r0, #1]	@ zero_extendqisi2
  84 0012 A672     		strb	r6, [r4, #10]
  85              	.LVL5:
  86 0014 8578     		ldrb	r5, [r0, #2]	@ zero_extendqisi2
  87 0016 E572     		strb	r5, [r4, #11]
  88              	.LVL6:
  89 0018 C078     		ldrb	r0, [r0, #3]	@ zero_extendqisi2
  90              	.LVL7:
  91 001a 2073     		strb	r0, [r4, #12]
  92              	.LVL8:
  93              	.LBE3:
  94              	.LBB4:
  95              		.loc 1 112 0
  96 001c 0E78     		ldrb	r6, [r1, #0]	@ zero_extendqisi2
  97 001e 6673     		strb	r6, [r4, #13]
  98              	.LVL9:
  99 0020 4D78     		ldrb	r5, [r1, #1]	@ zero_extendqisi2
 100 0022 A573     		strb	r5, [r4, #14]
 101              	.LVL10:
 102 0024 8878     		ldrb	r0, [r1, #2]	@ zero_extendqisi2
 103 0026 E073     		strb	r0, [r4, #15]
 104              	.LVL11:
 105 0028 C978     		ldrb	r1, [r1, #3]	@ zero_extendqisi2
 106              	.LVL12:
 107 002a 2174     		strb	r1, [r4, #16]
 108              	.LVL13:
 109              	.LBE4:
 110              	.LBB5:
 111              		.loc 1 113 0
 112 002c 1678     		ldrb	r6, [r2, #0]	@ zero_extendqisi2
 113 002e 6674     		strb	r6, [r4, #17]
ARM GAS  C:\Users\Vergil\AppData\Local\Temp\cc38DB4C.s 			page 3


 114              	.LVL14:
 115 0030 5578     		ldrb	r5, [r2, #1]	@ zero_extendqisi2
 116 0032 A574     		strb	r5, [r4, #18]
 117              	.LVL15:
 118 0034 9078     		ldrb	r0, [r2, #2]	@ zero_extendqisi2
 119 0036 E074     		strb	r0, [r4, #19]
 120              	.LVL16:
 121              	.LBE5:
 122              		.loc 1 101 0
 123 0038 82B0     		sub	sp, sp, #8
 124              	.LCFI2:
 125              		.cfi_def_cfa_offset 24
 126              	.LBB6:
 127              		.loc 1 113 0
 128 003a D278     		ldrb	r2, [r2, #3]	@ zero_extendqisi2
 129              	.LVL17:
 130              	.LBE6:
 131              		.loc 1 106 0
 132 003c 02AE     		add	r6, sp, #8
 133              		.loc 1 101 0
 134 003e 1D46     		mov	r5, r3
 135              		.loc 1 114 0
 136 0040 0021     		movs	r1, #0
 137              		.loc 1 106 0
 138 0042 FF23     		movs	r3, #255
 139              	.LVL18:
 140              	.LBB7:
 141              		.loc 1 113 0
 142 0044 2275     		strb	r2, [r4, #20]
 143              	.LVL19:
 144              	.LBE7:
 145              		.loc 1 114 0
 146 0046 04F11500 		add	r0, r4, #21
 147              		.loc 1 106 0
 148 004a 06F8013D 		strb	r3, [r6, #-1]!
 149              	.LVL20:
 150              		.loc 1 114 0
 151 004e FFF7FEFF 		bl	UINT32_TO_STREAM_f
 152              	.LVL21:
 153              	.LBB8:
 154              		.loc 1 115 0
 155 0052 2978     		ldrb	r1, [r5, #0]	@ zero_extendqisi2
 156 0054 0170     		strb	r1, [r0, #0]
 157              	.LVL22:
 158 0056 6A78     		ldrb	r2, [r5, #1]	@ zero_extendqisi2
 159 0058 4270     		strb	r2, [r0, #1]
 160              	.LVL23:
 161 005a AB78     		ldrb	r3, [r5, #2]	@ zero_extendqisi2
 162 005c 8370     		strb	r3, [r0, #2]
 163              	.LVL24:
 164 005e EB78     		ldrb	r3, [r5, #3]	@ zero_extendqisi2
 165              	.LBE8:
 166              		.loc 1 118 0
 167 0060 2146     		mov	r1, r4
 168              	.LBB9:
 169              		.loc 1 115 0
 170 0062 C370     		strb	r3, [r0, #3]
ARM GAS  C:\Users\Vergil\AppData\Local\Temp\cc38DB4C.s 			page 4


 171              	.LVL25:
 172              	.LBE9:
 173              		.loc 1 118 0
 174 0064 1422     		movs	r2, #20
 175 0066 42F20100 		movw	r0, #8193
 176              	.LVL26:
 177 006a FFF7FEFF 		bl	hci_command_send
 178              	.LVL27:
 179              		.loc 1 121 0
 180 006e 42F20100 		movw	r0, #8193
 181 0072 3146     		mov	r1, r6
 182 0074 FFF7FEFF 		bl	SimpleLinkWaitEvent
 183              	.LVL28:
 184              		.loc 1 124 0
 185 0078 9DF90700 		ldrsb	r0, [sp, #7]
 186 007c 02B0     		add	sp, sp, #8
 187 007e 70BD     		pop	{r4, r5, r6, pc}
 188              		.cfi_endproc
 189              	.LFE1:
 190              		.size	netapp_dhcp, .-netapp_dhcp
 191              		.section	.text.netapp_timeout_values,"ax",%progbits
 192              		.align	2
 193              		.p2align 4,,15
 194              		.global	netapp_timeout_values
 195              		.thumb
 196              		.thumb_func
 197              		.type	netapp_timeout_values, %function
 198              	netapp_timeout_values:
 199              	.LFB2:
 200              		.loc 1 179 0
 201              		.cfi_startproc
 202              		@ args = 0, pretend = 0, frame = 8
 203              		@ frame_needed = 0, uses_anonymous_args = 0
 204              	.LVL29:
 205 0000 F0B5     		push	{r4, r5, r6, r7, lr}
 206              	.LCFI3:
 207              		.cfi_def_cfa_offset 20
 208              		.cfi_offset 4, -20
 209              		.cfi_offset 5, -16
 210              		.cfi_offset 6, -12
 211              		.cfi_offset 7, -8
 212              		.cfi_offset 14, -4
 213              		.loc 1 189 0
 214 0002 0468     		ldr	r4, [r0, #0]
 215              		.loc 1 185 0
 216 0004 204D     		ldr	r5, .L9
 217              		.loc 1 189 0
 218 0006 04F1FF3E 		add	lr, r4, #-1
 219              		.loc 1 185 0
 220 000a AF68     		ldr	r7, [r5, #8]
 221              	.LVL30:
 222              		.loc 1 179 0
 223 000c 83B0     		sub	sp, sp, #12
 224              	.LCFI4:
 225              		.cfi_def_cfa_offset 32
 226              		.loc 1 184 0
 227 000e FF26     		movs	r6, #255
ARM GAS  C:\Users\Vergil\AppData\Local\Temp\cc38DB4C.s 			page 5


 228              		.loc 1 189 0
 229 0010 BEF1080F 		cmp	lr, #8
 230              		.loc 1 184 0
 231 0014 8DF80760 		strb	r6, [sp, #7]
 232              	.LVL31:
 233              		.loc 1 179 0
 234 0018 0D46     		mov	r5, r1
 235 001a 1646     		mov	r6, r2
 236 001c 1C46     		mov	r4, r3
 237              		.loc 1 186 0
 238 001e 07F10902 		add	r2, r7, #9
 239              	.LVL32:
 240              		.loc 1 189 0
 241 0022 01D8     		bhi	.L4
 242              		.loc 1 189 0 is_stmt 0 discriminator 1
 243 0024 0A23     		movs	r3, #10
 244              	.LVL33:
 245 0026 0360     		str	r3, [r0, #0]
 246              	.L4:
 247              		.loc 1 190 0 is_stmt 1
 248 0028 2968     		ldr	r1, [r5, #0]
 249              	.LVL34:
 250 002a 4B1E     		subs	r3, r1, #1
 251 002c 082B     		cmp	r3, #8
 252 002e 01D8     		bhi	.L5
 253              		.loc 1 190 0 is_stmt 0 discriminator 1
 254 0030 0A21     		movs	r1, #10
 255 0032 2960     		str	r1, [r5, #0]
 256              	.L5:
 257              		.loc 1 191 0 is_stmt 1
 258 0034 3368     		ldr	r3, [r6, #0]
 259 0036 591E     		subs	r1, r3, #1
 260 0038 0829     		cmp	r1, #8
 261 003a 01D8     		bhi	.L6
 262              		.loc 1 191 0 is_stmt 0 discriminator 1
 263 003c 0A23     		movs	r3, #10
 264 003e 3360     		str	r3, [r6, #0]
 265              	.L6:
 266              		.loc 1 192 0 is_stmt 1
 267 0040 2168     		ldr	r1, [r4, #0]
 268 0042 4B1E     		subs	r3, r1, #1
 269 0044 082B     		cmp	r3, #8
 270 0046 01D8     		bhi	.L7
 271              		.loc 1 192 0 is_stmt 0 discriminator 1
 272 0048 0A21     		movs	r1, #10
 273 004a 2160     		str	r1, [r4, #0]
 274              	.L7:
 275              		.loc 1 195 0 is_stmt 1
 276 004c 0168     		ldr	r1, [r0, #0]
 277 004e 1046     		mov	r0, r2
 278              	.LVL35:
 279 0050 FFF7FEFF 		bl	UINT32_TO_STREAM_f
 280              	.LVL36:
 281              		.loc 1 196 0
 282 0054 2968     		ldr	r1, [r5, #0]
 283 0056 FFF7FEFF 		bl	UINT32_TO_STREAM_f
 284              	.LVL37:
ARM GAS  C:\Users\Vergil\AppData\Local\Temp\cc38DB4C.s 			page 6


 285              		.loc 1 197 0
 286 005a 3168     		ldr	r1, [r6, #0]
 287 005c FFF7FEFF 		bl	UINT32_TO_STREAM_f
 288              	.LVL38:
 289              		.loc 1 198 0
 290 0060 2168     		ldr	r1, [r4, #0]
 291 0062 FFF7FEFF 		bl	UINT32_TO_STREAM_f
 292              	.LVL39:
 293              		.loc 1 201 0
 294 0066 3946     		mov	r1, r7
 295 0068 1422     		movs	r2, #20
 296 006a 42F20900 		movw	r0, #8201
 297 006e FFF7FEFF 		bl	hci_command_send
 298              	.LVL40:
 299              		.loc 1 204 0
 300 0072 42F20900 		movw	r0, #8201
 301 0076 0DF10701 		add	r1, sp, #7
 302 007a FFF7FEFF 		bl	SimpleLinkWaitEvent
 303              	.LVL41:
 304              		.loc 1 207 0
 305 007e 9DF90700 		ldrsb	r0, [sp, #7]
 306 0082 03B0     		add	sp, sp, #12
 307 0084 F0BD     		pop	{r4, r5, r6, r7, pc}
 308              	.L10:
 309 0086 00BF     		.align	2
 310              	.L9:
 311 0088 00000000 		.word	tSLInformation
 312              		.cfi_endproc
 313              	.LFE2:
 314              		.size	netapp_timeout_values, .-netapp_timeout_values
 315 008c AFF30080 		.section	.text.netapp_ping_send,"ax",%progbits
 316              		.align	2
 317              		.p2align 4,,15
 318              		.global	netapp_ping_send
 319              		.thumb
 320              		.thumb_func
 321              		.type	netapp_ping_send, %function
 322              	netapp_ping_send:
 323              	.LFB3:
 324              		.loc 1 235 0
 325              		.cfi_startproc
 326              		@ args = 0, pretend = 0, frame = 8
 327              		@ frame_needed = 0, uses_anonymous_args = 0
 328              	.LVL42:
 329 0000 2DE9F041 		push	{r4, r5, r6, r7, r8, lr}
 330              	.LCFI5:
 331              		.cfi_def_cfa_offset 24
 332              		.cfi_offset 4, -24
 333              		.cfi_offset 5, -20
 334              		.cfi_offset 6, -16
 335              		.cfi_offset 7, -12
 336              		.cfi_offset 8, -8
 337              		.cfi_offset 14, -4
 338              		.loc 1 240 0
 339 0004 40F20004 		movw	r4, #:lower16:tSLInformation
 340 0008 C0F20004 		movt	r4, #:upper16:tSLInformation
 341              		.loc 1 235 0
ARM GAS  C:\Users\Vergil\AppData\Local\Temp\cc38DB4C.s 			page 7


 342 000c 82B0     		sub	sp, sp, #8
 343              	.LCFI6:
 344              		.cfi_def_cfa_offset 32
 345              		.loc 1 240 0
 346 000e A568     		ldr	r5, [r4, #8]
 347              	.LVL43:
 348              		.loc 1 244 0
 349 0010 0768     		ldr	r7, [r0, #0]
 350              		.loc 1 239 0
 351 0012 02AC     		add	r4, sp, #8
 352              		.loc 1 235 0
 353 0014 0E46     		mov	r6, r1
 354              		.loc 1 244 0
 355 0016 05F10900 		add	r0, r5, #9
 356              	.LVL44:
 357 001a 3946     		mov	r1, r7
 358              	.LVL45:
 359              		.loc 1 235 0
 360 001c 1F46     		mov	r7, r3
 361              		.loc 1 239 0
 362 001e FF23     		movs	r3, #255
 363              	.LVL46:
 364 0020 04F8013D 		strb	r3, [r4, #-1]!
 365              	.LVL47:
 366              		.loc 1 235 0
 367 0024 9046     		mov	r8, r2
 368              		.loc 1 244 0
 369 0026 FFF7FEFF 		bl	UINT32_TO_STREAM_f
 370              	.LVL48:
 371              		.loc 1 245 0
 372 002a 3146     		mov	r1, r6
 373 002c FFF7FEFF 		bl	UINT32_TO_STREAM_f
 374              	.LVL49:
 375              		.loc 1 246 0
 376 0030 4146     		mov	r1, r8
 377 0032 FFF7FEFF 		bl	UINT32_TO_STREAM_f
 378              	.LVL50:
 379              		.loc 1 247 0
 380 0036 3946     		mov	r1, r7
 381 0038 FFF7FEFF 		bl	UINT32_TO_STREAM_f
 382              	.LVL51:
 383              		.loc 1 250 0
 384 003c 2946     		mov	r1, r5
 385 003e 1022     		movs	r2, #16
 386 0040 42F20200 		movw	r0, #8194
 387 0044 FFF7FEFF 		bl	hci_command_send
 388              	.LVL52:
 389              		.loc 1 253 0
 390 0048 42F20200 		movw	r0, #8194
 391 004c 2146     		mov	r1, r4
 392 004e FFF7FEFF 		bl	SimpleLinkWaitEvent
 393              	.LVL53:
 394              		.loc 1 256 0
 395 0052 9DF90700 		ldrsb	r0, [sp, #7]
 396 0056 02B0     		add	sp, sp, #8
 397 0058 BDE8F081 		pop	{r4, r5, r6, r7, r8, pc}
 398              		.cfi_endproc
ARM GAS  C:\Users\Vergil\AppData\Local\Temp\cc38DB4C.s 			page 8


 399              	.LFE3:
 400              		.size	netapp_ping_send, .-netapp_ping_send
 401 005c AFF30080 		.section	.text.netapp_ping_report,"ax",%progbits
 402              		.align	2
 403              		.p2align 4,,15
 404              		.global	netapp_ping_report
 405              		.thumb
 406              		.thumb_func
 407              		.type	netapp_ping_report, %function
 408              	netapp_ping_report:
 409              	.LFB4:
 410              		.loc 1 285 0
 411              		.cfi_startproc
 412              		@ args = 0, pretend = 0, frame = 8
 413              		@ frame_needed = 0, uses_anonymous_args = 0
 414 0000 10B5     		push	{r4, lr}
 415              	.LCFI7:
 416              		.cfi_def_cfa_offset 8
 417              		.cfi_offset 4, -8
 418              		.cfi_offset 14, -4
 419 0002 82B0     		sub	sp, sp, #8
 420              	.LCFI8:
 421              		.cfi_def_cfa_offset 16
 422              		.loc 1 290 0
 423 0004 02AC     		add	r4, sp, #8
 424              		.loc 1 287 0
 425 0006 40F20003 		movw	r3, #:lower16:tSLInformation
 426 000a C0F20003 		movt	r3, #:upper16:tSLInformation
 427              		.loc 1 290 0
 428 000e FF20     		movs	r0, #255
 429 0010 04F8010D 		strb	r0, [r4, #-1]!
 430              	.LVL54:
 431              		.loc 1 287 0
 432 0014 9968     		ldr	r1, [r3, #8]
 433              	.LVL55:
 434              		.loc 1 293 0
 435 0016 0022     		movs	r2, #0
 436 0018 42F20300 		movw	r0, #8195
 437 001c FFF7FEFF 		bl	hci_command_send
 438              	.LVL56:
 439              		.loc 1 296 0
 440 0020 42F20300 		movw	r0, #8195
 441 0024 2146     		mov	r1, r4
 442 0026 FFF7FEFF 		bl	SimpleLinkWaitEvent
 443              	.LVL57:
 444              		.loc 1 297 0
 445 002a 02B0     		add	sp, sp, #8
 446 002c 10BD     		pop	{r4, pc}
 447              		.cfi_endproc
 448              	.LFE4:
 449              		.size	netapp_ping_report, .-netapp_ping_report
 450 002e 00BF     		.section	.text.netapp_ping_stop,"ax",%progbits
 451              		.align	2
 452              		.p2align 4,,15
 453              		.global	netapp_ping_stop
 454              		.thumb
 455              		.thumb_func
ARM GAS  C:\Users\Vergil\AppData\Local\Temp\cc38DB4C.s 			page 9


 456              		.type	netapp_ping_stop, %function
 457              	netapp_ping_stop:
 458              	.LFB5:
 459              		.loc 1 315 0
 460              		.cfi_startproc
 461              		@ args = 0, pretend = 0, frame = 8
 462              		@ frame_needed = 0, uses_anonymous_args = 0
 463 0000 10B5     		push	{r4, lr}
 464              	.LCFI9:
 465              		.cfi_def_cfa_offset 8
 466              		.cfi_offset 4, -8
 467              		.cfi_offset 14, -4
 468 0002 82B0     		sub	sp, sp, #8
 469              	.LCFI10:
 470              		.cfi_def_cfa_offset 16
 471              		.loc 1 319 0
 472 0004 02AC     		add	r4, sp, #8
 473              		.loc 1 320 0
 474 0006 40F20003 		movw	r3, #:lower16:tSLInformation
 475 000a C0F20003 		movt	r3, #:upper16:tSLInformation
 476              		.loc 1 319 0
 477 000e FF20     		movs	r0, #255
 478 0010 04F8010D 		strb	r0, [r4, #-1]!
 479              	.LVL58:
 480              		.loc 1 320 0
 481 0014 9968     		ldr	r1, [r3, #8]
 482              	.LVL59:
 483              		.loc 1 323 0
 484 0016 0022     		movs	r2, #0
 485 0018 42F20400 		movw	r0, #8196
 486 001c FFF7FEFF 		bl	hci_command_send
 487              	.LVL60:
 488              		.loc 1 326 0
 489 0020 42F20400 		movw	r0, #8196
 490 0024 2146     		mov	r1, r4
 491 0026 FFF7FEFF 		bl	SimpleLinkWaitEvent
 492              	.LVL61:
 493              		.loc 1 329 0
 494 002a 9DF90700 		ldrsb	r0, [sp, #7]
 495 002e 02B0     		add	sp, sp, #8
 496 0030 10BD     		pop	{r4, pc}
 497              		.cfi_endproc
 498              	.LFE5:
 499              		.size	netapp_ping_stop, .-netapp_ping_stop
 500 0032 00BFAFF3 		.section	.text.netapp_ipconfig,"ax",%progbits
 500      0080AFF3 
 500      0080AFF3 
 500      0080
 501              		.align	2
 502              		.p2align 4,,15
 503              		.global	netapp_ipconfig
 504              		.thumb
 505              		.thumb_func
 506              		.type	netapp_ipconfig, %function
 507              	netapp_ipconfig:
 508              	.LFB6:
 509              		.loc 1 360 0
ARM GAS  C:\Users\Vergil\AppData\Local\Temp\cc38DB4C.s 			page 10


 510              		.cfi_startproc
 511              		@ args = 0, pretend = 0, frame = 0
 512              		@ frame_needed = 0, uses_anonymous_args = 0
 513              	.LVL62:
 514              		.loc 1 363 0
 515 0000 40F20003 		movw	r3, #:lower16:tSLInformation
 516 0004 C0F20003 		movt	r3, #:upper16:tSLInformation
 517              		.loc 1 360 0
 518 0008 10B5     		push	{r4, lr}
 519              	.LCFI11:
 520              		.cfi_def_cfa_offset 8
 521              		.cfi_offset 4, -8
 522              		.cfi_offset 14, -4
 523              		.loc 1 363 0
 524 000a 9968     		ldr	r1, [r3, #8]
 525              	.LVL63:
 526              		.loc 1 360 0
 527 000c 0446     		mov	r4, r0
 528              		.loc 1 366 0
 529 000e 0022     		movs	r2, #0
 530 0010 42F20500 		movw	r0, #8197
 531              	.LVL64:
 532 0014 FFF7FEFF 		bl	hci_command_send
 533              	.LVL65:
 534              		.loc 1 369 0
 535 0018 42F20500 		movw	r0, #8197
 536 001c 2146     		mov	r1, r4
 537              		.loc 1 371 0
 538 001e BDE81040 		pop	{r4, lr}
 539              		.loc 1 369 0
 540 0022 FFF7FEBF 		b	SimpleLinkWaitEvent
 541              	.LVL66:
 542              		.cfi_endproc
 543              	.LFE6:
 544              		.size	netapp_ipconfig, .-netapp_ipconfig
 545 0026 00BFAFF3 		.section	.text.netapp_arp_flush,"ax",%progbits
 545      0080AFF3 
 545      0080
 546              		.align	2
 547              		.p2align 4,,15
 548              		.global	netapp_arp_flush
 549              		.thumb
 550              		.thumb_func
 551              		.type	netapp_arp_flush, %function
 552              	netapp_arp_flush:
 553              	.LFB7:
 554              		.loc 1 393 0
 555              		.cfi_startproc
 556              		@ args = 0, pretend = 0, frame = 8
 557              		@ frame_needed = 0, uses_anonymous_args = 0
 558 0000 10B5     		push	{r4, lr}
 559              	.LCFI12:
 560              		.cfi_def_cfa_offset 8
 561              		.cfi_offset 4, -8
 562              		.cfi_offset 14, -4
 563 0002 82B0     		sub	sp, sp, #8
 564              	.LCFI13:
ARM GAS  C:\Users\Vergil\AppData\Local\Temp\cc38DB4C.s 			page 11


 565              		.cfi_def_cfa_offset 16
 566              		.loc 1 397 0
 567 0004 02AC     		add	r4, sp, #8
 568              		.loc 1 398 0
 569 0006 40F20003 		movw	r3, #:lower16:tSLInformation
 570 000a C0F20003 		movt	r3, #:upper16:tSLInformation
 571              		.loc 1 397 0
 572 000e FF20     		movs	r0, #255
 573 0010 04F8010D 		strb	r0, [r4, #-1]!
 574              	.LVL67:
 575              		.loc 1 398 0
 576 0014 9968     		ldr	r1, [r3, #8]
 577              	.LVL68:
 578              		.loc 1 401 0
 579 0016 0022     		movs	r2, #0
 580 0018 42F20600 		movw	r0, #8198
 581 001c FFF7FEFF 		bl	hci_command_send
 582              	.LVL69:
 583              		.loc 1 404 0
 584 0020 42F20600 		movw	r0, #8198
 585 0024 2146     		mov	r1, r4
 586 0026 FFF7FEFF 		bl	SimpleLinkWaitEvent
 587              	.LVL70:
 588              		.loc 1 407 0
 589 002a 9DF90700 		ldrsb	r0, [sp, #7]
 590 002e 02B0     		add	sp, sp, #8
 591 0030 10BD     		pop	{r4, pc}
 592              		.cfi_endproc
 593              	.LFE7:
 594              		.size	netapp_arp_flush, .-netapp_arp_flush
 595 0032 00BFAFF3 		.section	.text.netapp_set_debug_level,"ax",%progbits
 595      0080AFF3 
 595      0080AFF3 
 595      0080
 596              		.align	2
 597              		.p2align 4,,15
 598              		.global	netapp_set_debug_level
 599              		.thumb
 600              		.thumb_func
 601              		.type	netapp_set_debug_level, %function
 602              	netapp_set_debug_level:
 603              	.LFB8:
 604              		.loc 1 431 0
 605              		.cfi_startproc
 606              		@ args = 0, pretend = 0, frame = 8
 607              		@ frame_needed = 0, uses_anonymous_args = 0
 608              	.LVL71:
 609 0000 30B5     		push	{r4, r5, lr}
 610              	.LCFI14:
 611              		.cfi_def_cfa_offset 12
 612              		.cfi_offset 4, -12
 613              		.cfi_offset 5, -8
 614              		.cfi_offset 14, -4
 615              		.loc 1 436 0
 616 0002 40F20003 		movw	r3, #:lower16:tSLInformation
 617 0006 C0F20003 		movt	r3, #:upper16:tSLInformation
 618              		.loc 1 431 0
ARM GAS  C:\Users\Vergil\AppData\Local\Temp\cc38DB4C.s 			page 12


 619 000a 83B0     		sub	sp, sp, #12
 620              	.LCFI15:
 621              		.cfi_def_cfa_offset 24
 622              		.loc 1 436 0
 623 000c 9D68     		ldr	r5, [r3, #8]
 624              	.LVL72:
 625              		.loc 1 435 0
 626 000e 02AC     		add	r4, sp, #8
 627              		.loc 1 431 0
 628 0010 0146     		mov	r1, r0
 629              		.loc 1 435 0
 630 0012 FF20     		movs	r0, #255
 631              	.LVL73:
 632 0014 04F8010D 		strb	r0, [r4, #-1]!
 633              	.LVL74:
 634              		.loc 1 442 0
 635 0018 05F10900 		add	r0, r5, #9
 636              	.LVL75:
 637 001c FFF7FEFF 		bl	UINT32_TO_STREAM_f
 638              	.LVL76:
 639              		.loc 1 448 0
 640 0020 2946     		mov	r1, r5
 641 0022 0422     		movs	r2, #4
 642 0024 42F20800 		movw	r0, #8200
 643 0028 FFF7FEFF 		bl	hci_command_send
 644              	.LVL77:
 645              		.loc 1 453 0
 646 002c 42F20800 		movw	r0, #8200
 647 0030 2146     		mov	r1, r4
 648 0032 FFF7FEFF 		bl	SimpleLinkWaitEvent
 649              	.LVL78:
 650              		.loc 1 457 0
 651 0036 9DF90700 		ldrsb	r0, [sp, #7]
 652 003a 03B0     		add	sp, sp, #12
 653 003c 30BD     		pop	{r4, r5, pc}
 654              		.cfi_endproc
 655              	.LFE8:
 656              		.size	netapp_set_debug_level, .-netapp_set_debug_level
 657 003e 00BF     		.text
 658              	.Letext0:
 659              		.file 2 "C:\\Users\\Vergil\\ChibiOS_CC3000_SPI/CC3000HostDriver/data_types.h"
 660              		.file 3 "C:\\Users\\Vergil\\ChibiOS_CC3000_SPI/CC3000HostDriver/netapp.h"
 661              		.file 4 "C:\\Users\\Vergil\\ChibiOS_CC3000_SPI/CC3000HostDriver/cc3000_common.h"
 662              		.file 5 "C:\\Users\\Vergil\\ChibiOS_CC3000_SPI/CC3000HostDriver/nvmem.h"
 663              		.file 6 "C:\\Users\\Vergil\\ChibiOS_CC3000_SPI/CC3000HostDriver/hci.h"