ARM GAS  C:\Users\Vergil\AppData\Local\Temp\ccxsndqP.s 			page 1


   1              		.syntax unified
   2              		.cpu cortex-m4
   3              		.eabi_attribute 27, 3
   4              		.eabi_attribute 28, 1
   5              		.fpu fpv4-sp-d16
   6              		.eabi_attribute 20, 1
   7              		.eabi_attribute 21, 1
   8              		.eabi_attribute 23, 3
   9              		.eabi_attribute 24, 1
  10              		.eabi_attribute 25, 1
  11              		.eabi_attribute 26, 1
  12              		.eabi_attribute 30, 2
  13              		.eabi_attribute 34, 1
  14              		.eabi_attribute 18, 4
  15              		.thumb
  16              		.file	"pal_lld.c"
  17              		.text
  18              	.Ltext0:
  19              		.cfi_sections	.debug_frame
  20              		.section	.text._pal_lld_init,"ax",%progbits
  21              		.align	2
  22              		.p2align 4,,15
  23              		.global	_pal_lld_init
  24              		.thumb
  25              		.thumb_func
  26              		.type	_pal_lld_init, %function
  27              	_pal_lld_init:
  28              	.LFB119:
  29              		.file 1 "../../os/hal/platforms/STM32/GPIOv2/pal_lld.c"
  30              		.loc 1 113 0
  31              		.cfi_startproc
  32              		@ args = 0, pretend = 0, frame = 0
  33              		@ frame_needed = 0, uses_anonymous_args = 0
  34              		@ link register save eliminated.
  35              	.LVL0:
  36              		.loc 1 126 0
  37 0000 4FF46053 		mov	r3, #14336
  38 0004 C4F20203 		movt	r3, 16386
  39 0008 1A6B     		ldr	r2, [r3, #48]
  40 000a 6FEA5221 		mvn	r1, r2, lsr #9
  41 000e 6FEA4122 		mvn	r2, r1, lsl #9
  42 0012 1A63     		str	r2, [r3, #48]
  43              		.loc 1 127 0
  44 0014 196D     		ldr	r1, [r3, #80]
  45 0016 6FEA5122 		mvn	r2, r1, lsr #9
  46 001a 6FEA4221 		mvn	r1, r2, lsl #9
  47 001e 1965     		str	r1, [r3, #80]
  48              	.LVL1:
  49              	.LBB14:
  50              	.LBB15:
  51              		.loc 1 88 0
  52 0020 0022     		movs	r2, #0
  53 0022 4168     		ldr	r1, [r0, #4]
  54 0024 C4F20202 		movt	r2, 16386
  55              	.LBE15:
  56              	.LBE14:
  57              	.LBB17:
ARM GAS  C:\Users\Vergil\AppData\Local\Temp\ccxsndqP.s 			page 2


  58              	.LBB18:
  59 0028 4FF48063 		mov	r3, #1024
  60              	.LBE18:
  61              	.LBE17:
  62              	.LBB21:
  63              	.LBB16:
  64 002c 5160     		str	r1, [r2, #4]
  65              		.loc 1 89 0
  66 002e 8168     		ldr	r1, [r0, #8]
  67 0030 9160     		str	r1, [r2, #8]
  68              		.loc 1 90 0
  69 0032 C168     		ldr	r1, [r0, #12]
  70 0034 D160     		str	r1, [r2, #12]
  71              		.loc 1 91 0
  72 0036 0169     		ldr	r1, [r0, #16]
  73 0038 5161     		str	r1, [r2, #20]
  74              		.loc 1 92 0
  75 003a 4169     		ldr	r1, [r0, #20]
  76 003c 1162     		str	r1, [r2, #32]
  77              		.loc 1 93 0
  78 003e 8169     		ldr	r1, [r0, #24]
  79 0040 5162     		str	r1, [r2, #36]
  80              		.loc 1 94 0
  81 0042 0168     		ldr	r1, [r0, #0]
  82 0044 1160     		str	r1, [r2, #0]
  83              	.LVL2:
  84              	.LBE16:
  85              	.LBE21:
  86              	.LBB22:
  87              	.LBB19:
  88              		.loc 1 88 0
  89 0046 016A     		ldr	r1, [r0, #32]
  90 0048 C4F20203 		movt	r3, 16386
  91              	.LBE19:
  92              	.LBE22:
  93              	.LBB23:
  94              	.LBB24:
  95 004c 4FF40062 		mov	r2, #2048
  96              	.LBE24:
  97              	.LBE23:
  98              	.LBB27:
  99              	.LBB20:
 100 0050 5960     		str	r1, [r3, #4]
 101              		.loc 1 89 0
 102 0052 416A     		ldr	r1, [r0, #36]
 103 0054 9960     		str	r1, [r3, #8]
 104              		.loc 1 90 0
 105 0056 816A     		ldr	r1, [r0, #40]
 106 0058 D960     		str	r1, [r3, #12]
 107              		.loc 1 91 0
 108 005a C16A     		ldr	r1, [r0, #44]
 109 005c 5961     		str	r1, [r3, #20]
 110              		.loc 1 92 0
 111 005e 016B     		ldr	r1, [r0, #48]
 112 0060 1962     		str	r1, [r3, #32]
 113              		.loc 1 93 0
 114 0062 416B     		ldr	r1, [r0, #52]
ARM GAS  C:\Users\Vergil\AppData\Local\Temp\ccxsndqP.s 			page 3


 115 0064 5962     		str	r1, [r3, #36]
 116              		.loc 1 94 0
 117 0066 C169     		ldr	r1, [r0, #28]
 118 0068 1960     		str	r1, [r3, #0]
 119              	.LVL3:
 120              	.LBE20:
 121              	.LBE27:
 122              	.LBB28:
 123              	.LBB25:
 124              		.loc 1 88 0
 125 006a C4F20202 		movt	r2, 16386
 126 006e C36B     		ldr	r3, [r0, #60]
 127 0070 5360     		str	r3, [r2, #4]
 128              		.loc 1 89 0
 129 0072 016C     		ldr	r1, [r0, #64]
 130 0074 9160     		str	r1, [r2, #8]
 131              		.loc 1 90 0
 132 0076 436C     		ldr	r3, [r0, #68]
 133 0078 D360     		str	r3, [r2, #12]
 134              		.loc 1 91 0
 135 007a 816C     		ldr	r1, [r0, #72]
 136 007c 5161     		str	r1, [r2, #20]
 137              		.loc 1 92 0
 138 007e C36C     		ldr	r3, [r0, #76]
 139 0080 1362     		str	r3, [r2, #32]
 140              		.loc 1 93 0
 141 0082 016D     		ldr	r1, [r0, #80]
 142 0084 5162     		str	r1, [r2, #36]
 143              		.loc 1 94 0
 144 0086 816B     		ldr	r1, [r0, #56]
 145              	.LBE25:
 146              	.LBE28:
 147              	.LBB29:
 148              	.LBB30:
 149              		.loc 1 88 0
 150 0088 4FF44063 		mov	r3, #3072
 151              	.LBE30:
 152              	.LBE29:
 153              	.LBB33:
 154              	.LBB26:
 155              		.loc 1 94 0
 156 008c 1160     		str	r1, [r2, #0]
 157              	.LVL4:
 158              	.LBE26:
 159              	.LBE33:
 160              	.LBB34:
 161              	.LBB31:
 162              		.loc 1 88 0
 163 008e 816D     		ldr	r1, [r0, #88]
 164 0090 C4F20203 		movt	r3, 16386
 165              	.LBE31:
 166              	.LBE34:
 167              	.LBB35:
 168              	.LBB36:
 169 0094 4FF48052 		mov	r2, #4096
 170              	.LBE36:
 171              	.LBE35:
ARM GAS  C:\Users\Vergil\AppData\Local\Temp\ccxsndqP.s 			page 4


 172              	.LBB39:
 173              	.LBB32:
 174 0098 5960     		str	r1, [r3, #4]
 175              		.loc 1 89 0
 176 009a C16D     		ldr	r1, [r0, #92]
 177 009c 9960     		str	r1, [r3, #8]
 178              		.loc 1 90 0
 179 009e 016E     		ldr	r1, [r0, #96]
 180 00a0 D960     		str	r1, [r3, #12]
 181              		.loc 1 91 0
 182 00a2 416E     		ldr	r1, [r0, #100]
 183 00a4 5961     		str	r1, [r3, #20]
 184              		.loc 1 92 0
 185 00a6 816E     		ldr	r1, [r0, #104]
 186 00a8 1962     		str	r1, [r3, #32]
 187              		.loc 1 93 0
 188 00aa C16E     		ldr	r1, [r0, #108]
 189 00ac 5962     		str	r1, [r3, #36]
 190              		.loc 1 94 0
 191 00ae 416D     		ldr	r1, [r0, #84]
 192 00b0 1960     		str	r1, [r3, #0]
 193              	.LVL5:
 194              	.LBE32:
 195              	.LBE39:
 196              	.LBB40:
 197              	.LBB37:
 198              		.loc 1 88 0
 199 00b2 C4F20202 		movt	r2, 16386
 200 00b6 436F     		ldr	r3, [r0, #116]
 201 00b8 5360     		str	r3, [r2, #4]
 202              		.loc 1 89 0
 203 00ba 816F     		ldr	r1, [r0, #120]
 204 00bc 9160     		str	r1, [r2, #8]
 205              		.loc 1 90 0
 206 00be C36F     		ldr	r3, [r0, #124]
 207 00c0 D360     		str	r3, [r2, #12]
 208              		.loc 1 91 0
 209 00c2 D0F88010 		ldr	r1, [r0, #128]
 210 00c6 5161     		str	r1, [r2, #20]
 211              		.loc 1 92 0
 212 00c8 D0F88430 		ldr	r3, [r0, #132]
 213 00cc 1362     		str	r3, [r2, #32]
 214              		.loc 1 93 0
 215 00ce D0F88810 		ldr	r1, [r0, #136]
 216 00d2 5162     		str	r1, [r2, #36]
 217              		.loc 1 94 0
 218 00d4 016F     		ldr	r1, [r0, #112]
 219              	.LBE37:
 220              	.LBE40:
 221              	.LBB41:
 222              	.LBB42:
 223              		.loc 1 88 0
 224 00d6 4FF4E053 		mov	r3, #7168
 225              	.LBE42:
 226              	.LBE41:
 227              	.LBB44:
 228              	.LBB38:
ARM GAS  C:\Users\Vergil\AppData\Local\Temp\ccxsndqP.s 			page 5


 229              		.loc 1 94 0
 230 00da 1160     		str	r1, [r2, #0]
 231              	.LVL6:
 232              	.LBE38:
 233              	.LBE44:
 234              	.LBB45:
 235              	.LBB43:
 236              		.loc 1 88 0
 237 00dc D0F89020 		ldr	r2, [r0, #144]
 238 00e0 C4F20203 		movt	r3, 16386
 239 00e4 5A60     		str	r2, [r3, #4]
 240              		.loc 1 89 0
 241 00e6 D0F89410 		ldr	r1, [r0, #148]
 242 00ea 9960     		str	r1, [r3, #8]
 243              		.loc 1 90 0
 244 00ec D0F89820 		ldr	r2, [r0, #152]
 245 00f0 DA60     		str	r2, [r3, #12]
 246              		.loc 1 91 0
 247 00f2 D0F89C10 		ldr	r1, [r0, #156]
 248 00f6 5961     		str	r1, [r3, #20]
 249              		.loc 1 92 0
 250 00f8 D0F8A020 		ldr	r2, [r0, #160]
 251 00fc 1A62     		str	r2, [r3, #32]
 252              		.loc 1 93 0
 253 00fe D0F8A410 		ldr	r1, [r0, #164]
 254 0102 5962     		str	r1, [r3, #36]
 255              		.loc 1 94 0
 256 0104 D0F88C00 		ldr	r0, [r0, #140]
 257              	.LVL7:
 258 0108 1860     		str	r0, [r3, #0]
 259 010a 7047     		bx	lr
 260              	.LBE43:
 261              	.LBE45:
 262              		.cfi_endproc
 263              	.LFE119:
 264              		.size	_pal_lld_init, .-_pal_lld_init
 265 010c AFF30080 		.section	.text._pal_lld_setgroupmode,"ax",%progbits
 266              		.align	2
 267              		.p2align 4,,15
 268              		.global	_pal_lld_setgroupmode
 269              		.thumb
 270              		.thumb_func
 271              		.type	_pal_lld_setgroupmode, %function
 272              	_pal_lld_setgroupmode:
 273              	.LFB120:
 274              		.loc 1 178 0
 275              		.cfi_startproc
 276              		@ args = 0, pretend = 0, frame = 0
 277              		@ frame_needed = 0, uses_anonymous_args = 0
 278              		@ link register save eliminated.
 279              	.LVL8:
 280 0000 2DE9F00F 		push	{r4, r5, r6, r7, r8, r9, sl, fp}
 281              	.LCFI0:
 282              		.cfi_def_cfa_offset 32
 283              		.cfi_offset 4, -32
 284              		.cfi_offset 5, -28
 285              		.cfi_offset 6, -24
ARM GAS  C:\Users\Vergil\AppData\Local\Temp\ccxsndqP.s 			page 6


 286              		.cfi_offset 7, -20
 287              		.cfi_offset 8, -16
 288              		.cfi_offset 9, -12
 289              		.cfi_offset 10, -8
 290              		.cfi_offset 11, -4
 291              		.loc 1 185 0
 292 0004 0023     		movs	r3, #0
 293              		.loc 1 180 0
 294 0006 02F00307 		and	r7, r2, #3
 295              	.LVL9:
 296              		.loc 1 181 0
 297 000a C2F38006 		ubfx	r6, r2, #2, #1
 298              	.LVL10:
 299              		.loc 1 182 0
 300 000e C2F3C105 		ubfx	r5, r2, #3, #2
 301              	.LVL11:
 302              		.loc 1 183 0
 303 0012 C2F34114 		ubfx	r4, r2, #5, #2
 304              	.LVL12:
 305              	.LBB46:
 306              		.loc 1 191 0
 307 0016 4FF00F09 		mov	r9, #15
 308              	.LBE46:
 309              		.loc 1 184 0
 310 001a C2F3C312 		ubfx	r2, r2, #7, #4
 311              	.LVL13:
 312              	.LBB47:
 313              		.loc 1 196 0
 314 001e 4FF0010A 		mov	sl, #1
 315 0022 38E0     		b	.L7
 316              	.LVL14:
 317              	.L12:
 318              		.loc 1 193 0
 319 0024 D0F820B0 		ldr	fp, [r0, #32]
 320 0028 2BEA0C0C 		bic	ip, fp, ip
 321              	.LVL15:
 322 002c 4CEA0808 		orr	r8, ip, r8
 323              	.LVL16:
 324 0030 C0F82080 		str	r8, [r0, #32]
 325              	.L5:
 326              	.LVL17:
 327              		.loc 1 197 0
 328 0034 D0F804B0 		ldr	fp, [r0, #4]
 329              		.loc 1 196 0
 330 0038 0AFA03FC 		lsl	ip, sl, r3
 331              		.loc 1 197 0
 332 003c 2BEA0C08 		bic	r8, fp, ip
 333 0040 48EA060B 		orr	fp, r8, r6
 334 0044 C0F804B0 		str	fp, [r0, #4]
 335              	.LVL18:
 336              		.loc 1 176 0
 337 0048 4FEA430C 		lsl	ip, r3, #1
 338              		.loc 1 198 0
 339 004c 4FF0030B 		mov	fp, #3
 340              		.loc 1 199 0
 341 0050 D0F80880 		ldr	r8, [r0, #8]
 342              		.loc 1 198 0
ARM GAS  C:\Users\Vergil\AppData\Local\Temp\ccxsndqP.s 			page 7


 343 0054 0BFA0CFC 		lsl	ip, fp, ip
 344              	.LVL19:
 345              		.loc 1 199 0
 346 0058 6FEA0C0C 		mvn	ip, ip
 347              	.LVL20:
 348 005c 0CEA0808 		and	r8, ip, r8
 349 0060 48EA0508 		orr	r8, r8, r5
 350 0064 C0F80880 		str	r8, [r0, #8]
 351              		.loc 1 200 0
 352 0068 D0F80C80 		ldr	r8, [r0, #12]
 353 006c 0CEA0808 		and	r8, ip, r8
 354 0070 48EA0408 		orr	r8, r8, r4
 355 0074 C0F80C80 		str	r8, [r0, #12]
 356              		.loc 1 201 0
 357 0078 D0F80080 		ldr	r8, [r0, #0]
 358 007c 0CEA080C 		and	ip, ip, r8
 359              	.LVL21:
 360 0080 4CEA070C 		orr	ip, ip, r7
 361 0084 C0F800C0 		str	ip, [r0, #0]
 362              	.LVL22:
 363              	.L3:
 364              	.LBE47:
 365              		.loc 1 204 0
 366 0088 4908     		lsrs	r1, r1, #1
 367              	.LVL23:
 368 008a 1AD0     		beq	.L2
 369              		.loc 1 206 0
 370 008c 7600     		lsls	r6, r6, #1
 371              	.LVL24:
 372              		.loc 1 207 0
 373 008e AD00     		lsls	r5, r5, #2
 374              	.LVL25:
 375              		.loc 1 208 0
 376 0090 A400     		lsls	r4, r4, #2
 377              	.LVL26:
 378              		.loc 1 209 0
 379 0092 BF00     		lsls	r7, r7, #2
 380              	.LVL27:
 381              		.loc 1 210 0
 382 0094 0133     		adds	r3, r3, #1
 383              	.LVL28:
 384              	.L7:
 385              	.LBB48:
 386              		.loc 1 190 0
 387 0096 03F0070C 		and	ip, r3, #7
 388 009a 4FEA8C0C 		lsl	ip, ip, #2
 389              	.LBE48:
 390              		.loc 1 187 0
 391 009e 11F0010F 		tst	r1, #1
 392              	.LBB49:
 393              		.loc 1 190 0
 394 00a2 02FA0CF8 		lsl	r8, r2, ip
 395              	.LVL29:
 396              		.loc 1 191 0
 397 00a6 09FA0CFC 		lsl	ip, r9, ip
 398              	.LVL30:
 399              	.LBE49:
ARM GAS  C:\Users\Vergil\AppData\Local\Temp\ccxsndqP.s 			page 8


 400              		.loc 1 187 0
 401 00aa EDD0     		beq	.L3
 402              	.LBB50:
 403              		.loc 1 192 0
 404 00ac 072B     		cmp	r3, #7
 405 00ae B9D9     		bls	.L12
 406              		.loc 1 195 0
 407 00b0 D0F824B0 		ldr	fp, [r0, #36]
 408 00b4 2BEA0C0C 		bic	ip, fp, ip
 409              	.LVL31:
 410 00b8 4CEA0808 		orr	r8, ip, r8
 411              	.LVL32:
 412 00bc C0F82480 		str	r8, [r0, #36]
 413 00c0 B8E7     		b	.L5
 414              	.L2:
 415              	.LBE50:
 416              		.loc 1 212 0
 417 00c2 BDE8F00F 		pop	{r4, r5, r6, r7, r8, r9, sl, fp}
 418 00c6 7047     		bx	lr
 419              		.cfi_endproc
 420              	.LFE120:
 421              		.size	_pal_lld_setgroupmode, .-_pal_lld_setgroupmode
 422 00c8 AFF30080 		.text
 422      AFF30080 
 423              	.Letext0:
 424              		.file 2 "c:\\chibistudio\\tools\\gnu tools arm embedded\\4.7 2014q2\\bin\\../lib/gcc/arm-none-eabi
 425              		.file 3 "../../os/hal/platforms/STM32F4xx/stm32f4xx.h"
 426              		.file 4 "../../os/hal/platforms/STM32/GPIOv2/pal_lld.h"
 427              		.file 5 "../../os/ports/common/ARMCMx/CMSIS/include/core_cm4.h"
 428              		.section	.debug_info,"",%progbits
 429              	.Ldebug_info0:
 430 0000 C6060000 		.4byte	0x6c6
 431 0004 0200     		.2byte	0x2
 432 0006 00000000 		.4byte	.Ldebug_abbrev0
 433 000a 04       		.byte	0x4
 434 000b 01       		.uleb128 0x1
 435 000c D8020000 		.4byte	.LASF81
 436 0010 01       		.byte	0x1
 437 0011 22020000 		.4byte	.LASF82
 438 0015 87010000 		.4byte	.LASF83
 439 0019 E0000000 		.4byte	.Ldebug_ranges0+0xe0
 440 001d 00000000 		.4byte	0
 441 0021 00000000 		.4byte	0
 442 0025 00000000 		.4byte	.Ldebug_line0
 443 0029 02       		.uleb128 0x2
 444 002a 04       		.byte	0x4
 445 002b 05       		.byte	0x5
 446 002c 696E7400 		.ascii	"int\000"
 447 0030 03       		.uleb128 0x3
 448 0031 04       		.byte	0x4
 449 0032 07       		.byte	0x7
 450 0033 76030000 		.4byte	.LASF0
 451 0037 03       		.uleb128 0x3
 452 0038 01       		.byte	0x1
 453 0039 06       		.byte	0x6
 454 003a 64010000 		.4byte	.LASF1
 455 003e 03       		.uleb128 0x3
ARM GAS  C:\Users\Vergil\AppData\Local\Temp\ccxsndqP.s 			page 9


 456 003f 01       		.byte	0x1
 457 0040 08       		.byte	0x8
 458 0041 4E010000 		.4byte	.LASF2
 459 0045 03       		.uleb128 0x3
 460 0046 02       		.byte	0x2
 461 0047 05       		.byte	0x5
 462 0048 59000000 		.4byte	.LASF3
 463 004c 04       		.uleb128 0x4
 464 004d D3010000 		.4byte	.LASF5
 465 0051 02       		.byte	0x2
 466 0052 36       		.byte	0x36
 467 0053 57000000 		.4byte	0x57
 468 0057 03       		.uleb128 0x3
 469 0058 02       		.byte	0x2
 470 0059 07       		.byte	0x7
 471 005a 00020000 		.4byte	.LASF4
 472 005e 04       		.uleb128 0x4
 473 005f 50020000 		.4byte	.LASF6
 474 0063 02       		.byte	0x2
 475 0064 4F       		.byte	0x4f
 476 0065 69000000 		.4byte	0x69
 477 0069 03       		.uleb128 0x3
 478 006a 04       		.byte	0x4
 479 006b 05       		.byte	0x5
 480 006c 0B010000 		.4byte	.LASF7
 481 0070 04       		.uleb128 0x4
 482 0071 C7000000 		.4byte	.LASF8
 483 0075 02       		.byte	0x2
 484 0076 50       		.byte	0x50
 485 0077 7B000000 		.4byte	0x7b
 486 007b 03       		.uleb128 0x3
 487 007c 04       		.byte	0x4
 488 007d 07       		.byte	0x7
 489 007e DC010000 		.4byte	.LASF9
 490 0082 03       		.uleb128 0x3
 491 0083 08       		.byte	0x8
 492 0084 05       		.byte	0x5
 493 0085 EF000000 		.4byte	.LASF10
 494 0089 03       		.uleb128 0x3
 495 008a 08       		.byte	0x8
 496 008b 07       		.byte	0x7
 497 008c 70010000 		.4byte	.LASF11
 498 0090 03       		.uleb128 0x3
 499 0091 01       		.byte	0x1
 500 0092 02       		.byte	0x2
 501 0093 62020000 		.4byte	.LASF12
 502 0097 05       		.uleb128 0x5
 503 0098 70000000 		.4byte	0x70
 504 009c 03       		.uleb128 0x3
 505 009d 04       		.byte	0x4
 506 009e 07       		.byte	0x7
 507 009f 6C000000 		.4byte	.LASF13
 508 00a3 03       		.uleb128 0x3
 509 00a4 01       		.byte	0x1
 510 00a5 08       		.byte	0x8
 511 00a6 1D020000 		.4byte	.LASF14
 512 00aa 06       		.uleb128 0x6
ARM GAS  C:\Users\Vergil\AppData\Local\Temp\ccxsndqP.s 			page 10


 513 00ab 70000000 		.4byte	0x70
 514 00af BA000000 		.4byte	0xba
 515 00b3 07       		.uleb128 0x7
 516 00b4 9C000000 		.4byte	0x9c
 517 00b8 01       		.byte	0x1
 518 00b9 00       		.byte	0
 519 00ba 05       		.uleb128 0x5
 520 00bb 5E000000 		.4byte	0x5e
 521 00bf 08       		.uleb128 0x8
 522 00c0 90       		.byte	0x90
 523 00c1 03       		.byte	0x3
 524 00c2 5804     		.2byte	0x458
 525 00c4 AC020000 		.4byte	0x2ac
 526 00c8 09       		.uleb128 0x9
 527 00c9 435200   		.ascii	"CR\000"
 528 00cc 03       		.byte	0x3
 529 00cd 5A04     		.2byte	0x45a
 530 00cf 97000000 		.4byte	0x97
 531 00d3 02       		.byte	0x2
 532 00d4 23       		.byte	0x23
 533 00d5 00       		.uleb128 0
 534 00d6 0A       		.uleb128 0xa
 535 00d7 F3010000 		.4byte	.LASF15
 536 00db 03       		.byte	0x3
 537 00dc 5B04     		.2byte	0x45b
 538 00de 97000000 		.4byte	0x97
 539 00e2 02       		.byte	0x2
 540 00e3 23       		.byte	0x23
 541 00e4 04       		.uleb128 0x4
 542 00e5 0A       		.uleb128 0xa
 543 00e6 83030000 		.4byte	.LASF16
 544 00ea 03       		.byte	0x3
 545 00eb 5C04     		.2byte	0x45c
 546 00ed 97000000 		.4byte	0x97
 547 00f1 02       		.byte	0x2
 548 00f2 23       		.byte	0x23
 549 00f3 08       		.uleb128 0x8
 550 00f4 09       		.uleb128 0x9
 551 00f5 43495200 		.ascii	"CIR\000"
 552 00f9 03       		.byte	0x3
 553 00fa 5D04     		.2byte	0x45d
 554 00fc 97000000 		.4byte	0x97
 555 0100 02       		.byte	0x2
 556 0101 23       		.byte	0x23
 557 0102 0C       		.uleb128 0xc
 558 0103 0A       		.uleb128 0xa
 559 0104 3C030000 		.4byte	.LASF17
 560 0108 03       		.byte	0x3
 561 0109 5E04     		.2byte	0x45e
 562 010b 97000000 		.4byte	0x97
 563 010f 02       		.byte	0x2
 564 0110 23       		.byte	0x23
 565 0111 10       		.uleb128 0x10
 566 0112 0A       		.uleb128 0xa
 567 0113 CA010000 		.4byte	.LASF18
 568 0117 03       		.byte	0x3
 569 0118 5F04     		.2byte	0x45f
ARM GAS  C:\Users\Vergil\AppData\Local\Temp\ccxsndqP.s 			page 11


 570 011a 97000000 		.4byte	0x97
 571 011e 02       		.byte	0x2
 572 011f 23       		.byte	0x23
 573 0120 14       		.uleb128 0x14
 574 0121 0A       		.uleb128 0xa
 575 0122 52030000 		.4byte	.LASF19
 576 0126 03       		.byte	0x3
 577 0127 6004     		.2byte	0x460
 578 0129 97000000 		.4byte	0x97
 579 012d 02       		.byte	0x2
 580 012e 23       		.byte	0x23
 581 012f 18       		.uleb128 0x18
 582 0130 0A       		.uleb128 0xa
 583 0131 83020000 		.4byte	.LASF20
 584 0135 03       		.byte	0x3
 585 0136 6104     		.2byte	0x461
 586 0138 70000000 		.4byte	0x70
 587 013c 02       		.byte	0x2
 588 013d 23       		.byte	0x23
 589 013e 1C       		.uleb128 0x1c
 590 013f 0A       		.uleb128 0xa
 591 0140 27000000 		.4byte	.LASF21
 592 0144 03       		.byte	0x3
 593 0145 6204     		.2byte	0x462
 594 0147 97000000 		.4byte	0x97
 595 014b 02       		.byte	0x2
 596 014c 23       		.byte	0x23
 597 014d 20       		.uleb128 0x20
 598 014e 0A       		.uleb128 0xa
 599 014f 2D010000 		.4byte	.LASF22
 600 0153 03       		.byte	0x3
 601 0154 6304     		.2byte	0x463
 602 0156 97000000 		.4byte	0x97
 603 015a 02       		.byte	0x2
 604 015b 23       		.byte	0x23
 605 015c 24       		.uleb128 0x24
 606 015d 0A       		.uleb128 0xa
 607 015e 8D020000 		.4byte	.LASF23
 608 0162 03       		.byte	0x3
 609 0163 6404     		.2byte	0x464
 610 0165 AA000000 		.4byte	0xaa
 611 0169 02       		.byte	0x2
 612 016a 23       		.byte	0x23
 613 016b 28       		.uleb128 0x28
 614 016c 0A       		.uleb128 0xa
 615 016d D0020000 		.4byte	.LASF24
 616 0171 03       		.byte	0x3
 617 0172 6504     		.2byte	0x465
 618 0174 97000000 		.4byte	0x97
 619 0178 02       		.byte	0x2
 620 0179 23       		.byte	0x23
 621 017a 30       		.uleb128 0x30
 622 017b 0A       		.uleb128 0xa
 623 017c 30000000 		.4byte	.LASF25
 624 0180 03       		.byte	0x3
 625 0181 6604     		.2byte	0x466
 626 0183 97000000 		.4byte	0x97
ARM GAS  C:\Users\Vergil\AppData\Local\Temp\ccxsndqP.s 			page 12


 627 0187 02       		.byte	0x2
 628 0188 23       		.byte	0x23
 629 0189 34       		.uleb128 0x34
 630 018a 0A       		.uleb128 0xa
 631 018b DF000000 		.4byte	.LASF26
 632 018f 03       		.byte	0x3
 633 0190 6704     		.2byte	0x467
 634 0192 97000000 		.4byte	0x97
 635 0196 02       		.byte	0x2
 636 0197 23       		.byte	0x23
 637 0198 38       		.uleb128 0x38
 638 0199 0A       		.uleb128 0xa
 639 019a 97020000 		.4byte	.LASF27
 640 019e 03       		.byte	0x3
 641 019f 6804     		.2byte	0x468
 642 01a1 70000000 		.4byte	0x70
 643 01a5 02       		.byte	0x2
 644 01a6 23       		.byte	0x23
 645 01a7 3C       		.uleb128 0x3c
 646 01a8 0A       		.uleb128 0xa
 647 01a9 B2000000 		.4byte	.LASF28
 648 01ad 03       		.byte	0x3
 649 01ae 6904     		.2byte	0x469
 650 01b0 97000000 		.4byte	0x97
 651 01b4 02       		.byte	0x2
 652 01b5 23       		.byte	0x23
 653 01b6 40       		.uleb128 0x40
 654 01b7 0A       		.uleb128 0xa
 655 01b8 5C010000 		.4byte	.LASF29
 656 01bc 03       		.byte	0x3
 657 01bd 6A04     		.2byte	0x46a
 658 01bf 97000000 		.4byte	0x97
 659 01c3 02       		.byte	0x2
 660 01c4 23       		.byte	0x23
 661 01c5 44       		.uleb128 0x44
 662 01c6 0A       		.uleb128 0xa
 663 01c7 A1020000 		.4byte	.LASF30
 664 01cb 03       		.byte	0x3
 665 01cc 6B04     		.2byte	0x46b
 666 01ce AA000000 		.4byte	0xaa
 667 01d2 02       		.byte	0x2
 668 01d3 23       		.byte	0x23
 669 01d4 48       		.uleb128 0x48
 670 01d5 0A       		.uleb128 0xa
 671 01d6 00000000 		.4byte	.LASF31
 672 01da 03       		.byte	0x3
 673 01db 6C04     		.2byte	0x46c
 674 01dd 97000000 		.4byte	0x97
 675 01e1 02       		.byte	0x2
 676 01e2 23       		.byte	0x23
 677 01e3 50       		.uleb128 0x50
 678 01e4 0A       		.uleb128 0xa
 679 01e5 6D020000 		.4byte	.LASF32
 680 01e9 03       		.byte	0x3
 681 01ea 6D04     		.2byte	0x46d
 682 01ec 97000000 		.4byte	0x97
 683 01f0 02       		.byte	0x2
ARM GAS  C:\Users\Vergil\AppData\Local\Temp\ccxsndqP.s 			page 13


 684 01f1 23       		.byte	0x23
 685 01f2 54       		.uleb128 0x54
 686 01f3 0A       		.uleb128 0xa
 687 01f4 98000000 		.4byte	.LASF33
 688 01f8 03       		.byte	0x3
 689 01f9 6E04     		.2byte	0x46e
 690 01fb 97000000 		.4byte	0x97
 691 01ff 02       		.byte	0x2
 692 0200 23       		.byte	0x23
 693 0201 58       		.uleb128 0x58
 694 0202 0A       		.uleb128 0xa
 695 0203 AB020000 		.4byte	.LASF34
 696 0207 03       		.byte	0x3
 697 0208 6F04     		.2byte	0x46f
 698 020a 70000000 		.4byte	0x70
 699 020e 02       		.byte	0x2
 700 020f 23       		.byte	0x23
 701 0210 5C       		.uleb128 0x5c
 702 0211 0A       		.uleb128 0xa
 703 0212 13020000 		.4byte	.LASF35
 704 0216 03       		.byte	0x3
 705 0217 7004     		.2byte	0x470
 706 0219 97000000 		.4byte	0x97
 707 021d 02       		.byte	0x2
 708 021e 23       		.byte	0x23
 709 021f 60       		.uleb128 0x60
 710 0220 0A       		.uleb128 0xa
 711 0221 98030000 		.4byte	.LASF36
 712 0225 03       		.byte	0x3
 713 0226 7104     		.2byte	0x471
 714 0228 97000000 		.4byte	0x97
 715 022c 02       		.byte	0x2
 716 022d 23       		.byte	0x23
 717 022e 64       		.uleb128 0x64
 718 022f 0A       		.uleb128 0xa
 719 0230 B5020000 		.4byte	.LASF37
 720 0234 03       		.byte	0x3
 721 0235 7204     		.2byte	0x472
 722 0237 AA000000 		.4byte	0xaa
 723 023b 02       		.byte	0x2
 724 023c 23       		.byte	0x23
 725 023d 68       		.uleb128 0x68
 726 023e 0A       		.uleb128 0xa
 727 023f 75000000 		.4byte	.LASF38
 728 0243 03       		.byte	0x3
 729 0244 7304     		.2byte	0x473
 730 0246 97000000 		.4byte	0x97
 731 024a 02       		.byte	0x2
 732 024b 23       		.byte	0x23
 733 024c 70       		.uleb128 0x70
 734 024d 09       		.uleb128 0x9
 735 024e 43535200 		.ascii	"CSR\000"
 736 0252 03       		.byte	0x3
 737 0253 7404     		.2byte	0x474
 738 0255 97000000 		.4byte	0x97
 739 0259 02       		.byte	0x2
 740 025a 23       		.byte	0x23
ARM GAS  C:\Users\Vergil\AppData\Local\Temp\ccxsndqP.s 			page 14


 741 025b 74       		.uleb128 0x74
 742 025c 0A       		.uleb128 0xa
 743 025d BF020000 		.4byte	.LASF39
 744 0261 03       		.byte	0x3
 745 0262 7504     		.2byte	0x475
 746 0264 AA000000 		.4byte	0xaa
 747 0268 02       		.byte	0x2
 748 0269 23       		.byte	0x23
 749 026a 78       		.uleb128 0x78
 750 026b 0A       		.uleb128 0xa
 751 026c 8B000000 		.4byte	.LASF40
 752 0270 03       		.byte	0x3
 753 0271 7604     		.2byte	0x476
 754 0273 97000000 		.4byte	0x97
 755 0277 03       		.byte	0x3
 756 0278 23       		.byte	0x23
 757 0279 8001     		.uleb128 0x80
 758 027b 0A       		.uleb128 0xa
 759 027c 7A000000 		.4byte	.LASF41
 760 0280 03       		.byte	0x3
 761 0281 7704     		.2byte	0x477
 762 0283 97000000 		.4byte	0x97
 763 0287 03       		.byte	0x3
 764 0288 23       		.byte	0x23
 765 0289 8401     		.uleb128 0x84
 766 028b 0A       		.uleb128 0xa
 767 028c 88030000 		.4byte	.LASF42
 768 0290 03       		.byte	0x3
 769 0291 7804     		.2byte	0x478
 770 0293 97000000 		.4byte	0x97
 771 0297 03       		.byte	0x3
 772 0298 23       		.byte	0x23
 773 0299 8801     		.uleb128 0x88
 774 029b 0A       		.uleb128 0xa
 775 029c D7000000 		.4byte	.LASF43
 776 02a0 03       		.byte	0x3
 777 02a1 7904     		.2byte	0x479
 778 02a3 97000000 		.4byte	0x97
 779 02a7 03       		.byte	0x3
 780 02a8 23       		.byte	0x23
 781 02a9 8C01     		.uleb128 0x8c
 782 02ab 00       		.byte	0
 783 02ac 0B       		.uleb128 0xb
 784 02ad 1B010000 		.4byte	.LASF44
 785 02b1 03       		.byte	0x3
 786 02b2 7B04     		.2byte	0x47b
 787 02b4 BF000000 		.4byte	0xbf
 788 02b8 0C       		.uleb128 0xc
 789 02b9 04       		.byte	0x4
 790 02ba 04       		.byte	0x4
 791 02bb 96       		.byte	0x96
 792 02bc DD020000 		.4byte	0x2dd
 793 02c0 0D       		.uleb128 0xd
 794 02c1 73657400 		.ascii	"set\000"
 795 02c5 04       		.byte	0x4
 796 02c6 97       		.byte	0x97
 797 02c7 4C000000 		.4byte	0x4c
ARM GAS  C:\Users\Vergil\AppData\Local\Temp\ccxsndqP.s 			page 15


 798 02cb 02       		.byte	0x2
 799 02cc 23       		.byte	0x23
 800 02cd 00       		.uleb128 0
 801 02ce 0E       		.uleb128 0xe
 802 02cf 36010000 		.4byte	.LASF45
 803 02d3 04       		.byte	0x4
 804 02d4 98       		.byte	0x98
 805 02d5 4C000000 		.4byte	0x4c
 806 02d9 02       		.byte	0x2
 807 02da 23       		.byte	0x23
 808 02db 02       		.uleb128 0x2
 809 02dc 00       		.byte	0
 810 02dd 0F       		.uleb128 0xf
 811 02de 04       		.byte	0x4
 812 02df 04       		.byte	0x4
 813 02e0 94       		.byte	0x94
 814 02e1 F8020000 		.4byte	0x2f8
 815 02e5 10       		.uleb128 0x10
 816 02e6 5700     		.ascii	"W\000"
 817 02e8 04       		.byte	0x4
 818 02e9 95       		.byte	0x95
 819 02ea 70000000 		.4byte	0x70
 820 02ee 10       		.uleb128 0x10
 821 02ef 4800     		.ascii	"H\000"
 822 02f1 04       		.byte	0x4
 823 02f2 99       		.byte	0x99
 824 02f3 B8020000 		.4byte	0x2b8
 825 02f7 00       		.byte	0
 826 02f8 0C       		.uleb128 0xc
 827 02f9 28       		.byte	0x28
 828 02fa 04       		.byte	0x4
 829 02fb 8C       		.byte	0x8c
 830 02fc 8D030000 		.4byte	0x38d
 831 0300 0E       		.uleb128 0xe
 832 0301 27010000 		.4byte	.LASF46
 833 0305 04       		.byte	0x4
 834 0306 8E       		.byte	0x8e
 835 0307 97000000 		.4byte	0x97
 836 030b 02       		.byte	0x2
 837 030c 23       		.byte	0x23
 838 030d 00       		.uleb128 0
 839 030e 0E       		.uleb128 0xe
 840 030f D0000000 		.4byte	.LASF47
 841 0313 04       		.byte	0x4
 842 0314 8F       		.byte	0x8f
 843 0315 97000000 		.4byte	0x97
 844 0319 02       		.byte	0x2
 845 031a 23       		.byte	0x23
 846 031b 04       		.uleb128 0x4
 847 031c 0E       		.uleb128 0xe
 848 031d E7000000 		.4byte	.LASF48
 849 0321 04       		.byte	0x4
 850 0322 90       		.byte	0x90
 851 0323 97000000 		.4byte	0x97
 852 0327 02       		.byte	0x2
 853 0328 23       		.byte	0x23
 854 0329 08       		.uleb128 0x8
ARM GAS  C:\Users\Vergil\AppData\Local\Temp\ccxsndqP.s 			page 16


 855 032a 0E       		.uleb128 0xe
 856 032b FD000000 		.4byte	.LASF49
 857 032f 04       		.byte	0x4
 858 0330 91       		.byte	0x91
 859 0331 97000000 		.4byte	0x97
 860 0335 02       		.byte	0x2
 861 0336 23       		.byte	0x23
 862 0337 0C       		.uleb128 0xc
 863 0338 0D       		.uleb128 0xd
 864 0339 49445200 		.ascii	"IDR\000"
 865 033d 04       		.byte	0x4
 866 033e 92       		.byte	0x92
 867 033f 97000000 		.4byte	0x97
 868 0343 02       		.byte	0x2
 869 0344 23       		.byte	0x23
 870 0345 10       		.uleb128 0x10
 871 0346 0D       		.uleb128 0xd
 872 0347 4F445200 		.ascii	"ODR\000"
 873 034b 04       		.byte	0x4
 874 034c 93       		.byte	0x93
 875 034d 97000000 		.4byte	0x97
 876 0351 02       		.byte	0x2
 877 0352 23       		.byte	0x23
 878 0353 14       		.uleb128 0x14
 879 0354 0E       		.uleb128 0xe
 880 0355 A2030000 		.4byte	.LASF50
 881 0359 04       		.byte	0x4
 882 035a 9A       		.byte	0x9a
 883 035b 8D030000 		.4byte	0x38d
 884 035f 02       		.byte	0x2
 885 0360 23       		.byte	0x23
 886 0361 18       		.uleb128 0x18
 887 0362 0E       		.uleb128 0xe
 888 0363 93030000 		.4byte	.LASF51
 889 0367 04       		.byte	0x4
 890 0368 9B       		.byte	0x9b
 891 0369 97000000 		.4byte	0x97
 892 036d 02       		.byte	0x2
 893 036e 23       		.byte	0x23
 894 036f 1C       		.uleb128 0x1c
 895 0370 0E       		.uleb128 0xe
 896 0371 FB010000 		.4byte	.LASF52
 897 0375 04       		.byte	0x4
 898 0376 9C       		.byte	0x9c
 899 0377 97000000 		.4byte	0x97
 900 037b 02       		.byte	0x2
 901 037c 23       		.byte	0x23
 902 037d 20       		.uleb128 0x20
 903 037e 0E       		.uleb128 0xe
 904 037f EE010000 		.4byte	.LASF53
 905 0383 04       		.byte	0x4
 906 0384 9D       		.byte	0x9d
 907 0385 97000000 		.4byte	0x97
 908 0389 02       		.byte	0x2
 909 038a 23       		.byte	0x23
 910 038b 24       		.uleb128 0x24
 911 038c 00       		.byte	0
ARM GAS  C:\Users\Vergil\AppData\Local\Temp\ccxsndqP.s 			page 17


 912 038d 05       		.uleb128 0x5
 913 038e DD020000 		.4byte	0x2dd
 914 0392 04       		.uleb128 0x4
 915 0393 45030000 		.4byte	.LASF54
 916 0397 04       		.byte	0x4
 917 0398 9E       		.byte	0x9e
 918 0399 F8020000 		.4byte	0x2f8
 919 039d 0C       		.uleb128 0xc
 920 039e 1C       		.byte	0x1c
 921 039f 04       		.byte	0x4
 922 03a0 A3       		.byte	0xa3
 923 03a1 08040000 		.4byte	0x408
 924 03a5 0E       		.uleb128 0xe
 925 03a6 36030000 		.4byte	.LASF55
 926 03aa 04       		.byte	0x4
 927 03ab A5       		.byte	0xa5
 928 03ac 70000000 		.4byte	0x70
 929 03b0 02       		.byte	0x2
 930 03b1 23       		.byte	0x23
 931 03b2 00       		.uleb128 0
 932 03b3 0E       		.uleb128 0xe
 933 03b4 C3010000 		.4byte	.LASF56
 934 03b8 04       		.byte	0x4
 935 03b9 A7       		.byte	0xa7
 936 03ba 70000000 		.4byte	0x70
 937 03be 02       		.byte	0x2
 938 03bf 23       		.byte	0x23
 939 03c0 04       		.uleb128 0x4
 940 03c1 0E       		.uleb128 0xe
 941 03c2 03010000 		.4byte	.LASF57
 942 03c6 04       		.byte	0x4
 943 03c7 A9       		.byte	0xa9
 944 03c8 70000000 		.4byte	0x70
 945 03cc 02       		.byte	0x2
 946 03cd 23       		.byte	0x23
 947 03ce 08       		.uleb128 0x8
 948 03cf 0E       		.uleb128 0xe
 949 03d0 26030000 		.4byte	.LASF58
 950 03d4 04       		.byte	0x4
 951 03d5 AB       		.byte	0xab
 952 03d6 70000000 		.4byte	0x70
 953 03da 02       		.byte	0x2
 954 03db 23       		.byte	0x23
 955 03dc 0C       		.uleb128 0xc
 956 03dd 0D       		.uleb128 0xd
 957 03de 6F647200 		.ascii	"odr\000"
 958 03e2 04       		.byte	0x4
 959 03e3 AD       		.byte	0xad
 960 03e4 70000000 		.4byte	0x70
 961 03e8 02       		.byte	0x2
 962 03e9 23       		.byte	0x23
 963 03ea 10       		.uleb128 0x10
 964 03eb 0E       		.uleb128 0xe
 965 03ec 31030000 		.4byte	.LASF59
 966 03f0 04       		.byte	0x4
 967 03f1 AF       		.byte	0xaf
 968 03f2 70000000 		.4byte	0x70
ARM GAS  C:\Users\Vergil\AppData\Local\Temp\ccxsndqP.s 			page 18


 969 03f6 02       		.byte	0x2
 970 03f7 23       		.byte	0x23
 971 03f8 14       		.uleb128 0x14
 972 03f9 0E       		.uleb128 0xe
 973 03fa 2C030000 		.4byte	.LASF60
 974 03fe 04       		.byte	0x4
 975 03ff B1       		.byte	0xb1
 976 0400 70000000 		.4byte	0x70
 977 0404 02       		.byte	0x2
 978 0405 23       		.byte	0x23
 979 0406 18       		.uleb128 0x18
 980 0407 00       		.byte	0
 981 0408 04       		.uleb128 0x4
 982 0409 38000000 		.4byte	.LASF61
 983 040d 04       		.byte	0x4
 984 040e B2       		.byte	0xb2
 985 040f 9D030000 		.4byte	0x39d
 986 0413 0C       		.uleb128 0xc
 987 0414 A8       		.byte	0xa8
 988 0415 04       		.byte	0x4
 989 0416 BB       		.byte	0xbb
 990 0417 71040000 		.4byte	0x471
 991 041b 0E       		.uleb128 0xe
 992 041c 3C010000 		.4byte	.LASF62
 993 0420 04       		.byte	0x4
 994 0421 BE       		.byte	0xbe
 995 0422 08040000 		.4byte	0x408
 996 0426 02       		.byte	0x2
 997 0427 23       		.byte	0x23
 998 0428 00       		.uleb128 0
 999 0429 0E       		.uleb128 0xe
 1000 042a 91000000 		.4byte	.LASF63
 1001 042e 04       		.byte	0x4
 1002 042f C2       		.byte	0xc2
 1003 0430 08040000 		.4byte	0x408
 1004 0434 02       		.byte	0x2
 1005 0435 23       		.byte	0x23
 1006 0436 1C       		.uleb128 0x1c
 1007 0437 0E       		.uleb128 0xe
 1008 0438 0A000000 		.4byte	.LASF64
 1009 043c 04       		.byte	0x4
 1010 043d C6       		.byte	0xc6
 1011 043e 08040000 		.4byte	0x408
 1012 0442 02       		.byte	0x2
 1013 0443 23       		.byte	0x23
 1014 0444 38       		.uleb128 0x38
 1015 0445 0E       		.uleb128 0xe
 1016 0446 14010000 		.4byte	.LASF65
 1017 044a 04       		.byte	0x4
 1018 044b CA       		.byte	0xca
 1019 044c 08040000 		.4byte	0x408
 1020 0450 02       		.byte	0x2
 1021 0451 23       		.byte	0x23
 1022 0452 54       		.uleb128 0x54
 1023 0453 0E       		.uleb128 0xe
 1024 0454 7C020000 		.4byte	.LASF66
 1025 0458 04       		.byte	0x4
ARM GAS  C:\Users\Vergil\AppData\Local\Temp\ccxsndqP.s 			page 19


 1026 0459 CE       		.byte	0xce
 1027 045a 08040000 		.4byte	0x408
 1028 045e 02       		.byte	0x2
 1029 045f 23       		.byte	0x23
 1030 0460 70       		.uleb128 0x70
 1031 0461 0E       		.uleb128 0xe
 1032 0462 C9020000 		.4byte	.LASF67
 1033 0466 04       		.byte	0x4
 1034 0467 DA       		.byte	0xda
 1035 0468 08040000 		.4byte	0x408
 1036 046c 03       		.byte	0x3
 1037 046d 23       		.byte	0x23
 1038 046e 8C01     		.uleb128 0x8c
 1039 0470 00       		.byte	0
 1040 0471 04       		.uleb128 0x4
 1041 0472 58020000 		.4byte	.LASF68
 1042 0476 04       		.byte	0x4
 1043 0477 E0       		.byte	0xe0
 1044 0478 13040000 		.4byte	0x413
 1045 047c 04       		.uleb128 0x4
 1046 047d BA000000 		.4byte	.LASF69
 1047 0481 04       		.byte	0x4
 1048 0482 F0       		.byte	0xf0
 1049 0483 70000000 		.4byte	0x70
 1050 0487 04       		.uleb128 0x4
 1051 0488 A9000000 		.4byte	.LASF70
 1052 048c 04       		.byte	0x4
 1053 048d F5       		.byte	0xf5
 1054 048e 70000000 		.4byte	0x70
 1055 0492 04       		.uleb128 0x4
 1056 0493 43010000 		.4byte	.LASF71
 1057 0497 04       		.byte	0x4
 1058 0498 FD       		.byte	0xfd
 1059 0499 9D040000 		.4byte	0x49d
 1060 049d 11       		.uleb128 0x11
 1061 049e 04       		.byte	0x4
 1062 049f 92030000 		.4byte	0x392
 1063 04a3 12       		.uleb128 0x12
 1064 04a4 63000000 		.4byte	.LASF84
 1065 04a8 01       		.byte	0x1
 1066 04a9 56       		.byte	0x56
 1067 04aa 01       		.byte	0x1
 1068 04ab 01       		.byte	0x1
 1069 04ac C7040000 		.4byte	0x4c7
 1070 04b0 13       		.uleb128 0x13
 1071 04b1 85000000 		.4byte	.LASF72
 1072 04b5 01       		.byte	0x1
 1073 04b6 56       		.byte	0x56
 1074 04b7 9D040000 		.4byte	0x49d
 1075 04bb 13       		.uleb128 0x13
 1076 04bc A2000000 		.4byte	.LASF73
 1077 04c0 01       		.byte	0x1
 1078 04c1 56       		.byte	0x56
 1079 04c2 C7040000 		.4byte	0x4c7
 1080 04c6 00       		.byte	0
 1081 04c7 11       		.uleb128 0x11
 1082 04c8 04       		.byte	0x4
ARM GAS  C:\Users\Vergil\AppData\Local\Temp\ccxsndqP.s 			page 20


 1083 04c9 CD040000 		.4byte	0x4cd
 1084 04cd 14       		.uleb128 0x14
 1085 04ce 08040000 		.4byte	0x408
 1086 04d2 15       		.uleb128 0x15
 1087 04d3 01       		.byte	0x1
 1088 04d4 4B000000 		.4byte	.LASF74
 1089 04d8 01       		.byte	0x1
 1090 04d9 71       		.byte	0x71
 1091 04da 01       		.byte	0x1
 1092 04db 00000000 		.4byte	.LFB119
 1093 04df 0C010000 		.4byte	.LFE119
 1094 04e3 02       		.byte	0x2
 1095 04e4 7D       		.byte	0x7d
 1096 04e5 00       		.sleb128 0
 1097 04e6 01       		.byte	0x1
 1098 04e7 DB050000 		.4byte	0x5db
 1099 04eb 16       		.uleb128 0x16
 1100 04ec A2000000 		.4byte	.LASF73
 1101 04f0 01       		.byte	0x1
 1102 04f1 71       		.byte	0x71
 1103 04f2 DB050000 		.4byte	0x5db
 1104 04f6 00000000 		.4byte	.LLST0
 1105 04fa 17       		.uleb128 0x17
 1106 04fb A3040000 		.4byte	0x4a3
 1107 04ff 20000000 		.4byte	.LBB14
 1108 0503 00000000 		.4byte	.Ldebug_ranges0+0
 1109 0507 01       		.byte	0x1
 1110 0508 86       		.byte	0x86
 1111 0509 20050000 		.4byte	0x520
 1112 050d 18       		.uleb128 0x18
 1113 050e BB040000 		.4byte	0x4bb
 1114 0512 21000000 		.4byte	.LLST1
 1115 0516 19       		.uleb128 0x19
 1116 0517 B0040000 		.4byte	0x4b0
 1117 051b 00000240 		.4byte	0x40020000
 1118 051f 00       		.byte	0
 1119 0520 17       		.uleb128 0x17
 1120 0521 A3040000 		.4byte	0x4a3
 1121 0525 28000000 		.4byte	.LBB17
 1122 0529 18000000 		.4byte	.Ldebug_ranges0+0x18
 1123 052d 01       		.byte	0x1
 1124 052e 89       		.byte	0x89
 1125 052f 46050000 		.4byte	0x546
 1126 0533 18       		.uleb128 0x18
 1127 0534 BB040000 		.4byte	0x4bb
 1128 0538 42000000 		.4byte	.LLST2
 1129 053c 19       		.uleb128 0x19
 1130 053d B0040000 		.4byte	0x4b0
 1131 0541 00040240 		.4byte	0x40020400
 1132 0545 00       		.byte	0
 1133 0546 17       		.uleb128 0x17
 1134 0547 A3040000 		.4byte	0x4a3
 1135 054b 4C000000 		.4byte	.LBB23
 1136 054f 38000000 		.4byte	.Ldebug_ranges0+0x38
 1137 0553 01       		.byte	0x1
 1138 0554 8C       		.byte	0x8c
 1139 0555 6C050000 		.4byte	0x56c
ARM GAS  C:\Users\Vergil\AppData\Local\Temp\ccxsndqP.s 			page 21


 1140 0559 18       		.uleb128 0x18
 1141 055a BB040000 		.4byte	0x4bb
 1142 055e 67000000 		.4byte	.LLST3
 1143 0562 19       		.uleb128 0x19
 1144 0563 B0040000 		.4byte	0x4b0
 1145 0567 00080240 		.4byte	0x40020800
 1146 056b 00       		.byte	0
 1147 056c 17       		.uleb128 0x17
 1148 056d A3040000 		.4byte	0x4a3
 1149 0571 88000000 		.4byte	.LBB29
 1150 0575 58000000 		.4byte	.Ldebug_ranges0+0x58
 1151 0579 01       		.byte	0x1
 1152 057a 8F       		.byte	0x8f
 1153 057b 92050000 		.4byte	0x592
 1154 057f 18       		.uleb128 0x18
 1155 0580 BB040000 		.4byte	0x4bb
 1156 0584 8C000000 		.4byte	.LLST4
 1157 0588 19       		.uleb128 0x19
 1158 0589 B0040000 		.4byte	0x4b0
 1159 058d 000C0240 		.4byte	0x40020c00
 1160 0591 00       		.byte	0
 1161 0592 17       		.uleb128 0x17
 1162 0593 A3040000 		.4byte	0x4a3
 1163 0597 94000000 		.4byte	.LBB35
 1164 059b 78000000 		.4byte	.Ldebug_ranges0+0x78
 1165 059f 01       		.byte	0x1
 1166 05a0 92       		.byte	0x92
 1167 05a1 B8050000 		.4byte	0x5b8
 1168 05a5 18       		.uleb128 0x18
 1169 05a6 BB040000 		.4byte	0x4bb
 1170 05aa B2000000 		.4byte	.LLST5
 1171 05ae 19       		.uleb128 0x19
 1172 05af B0040000 		.4byte	0x4b0
 1173 05b3 00100240 		.4byte	0x40021000
 1174 05b7 00       		.byte	0
 1175 05b8 1A       		.uleb128 0x1a
 1176 05b9 A3040000 		.4byte	0x4a3
 1177 05bd D6000000 		.4byte	.LBB41
 1178 05c1 98000000 		.4byte	.Ldebug_ranges0+0x98
 1179 05c5 01       		.byte	0x1
 1180 05c6 9B       		.byte	0x9b
 1181 05c7 18       		.uleb128 0x18
 1182 05c8 BB040000 		.4byte	0x4bb
 1183 05cc D8000000 		.4byte	.LLST6
 1184 05d0 19       		.uleb128 0x19
 1185 05d1 B0040000 		.4byte	0x4b0
 1186 05d5 001C0240 		.4byte	0x40021c00
 1187 05d9 00       		.byte	0
 1188 05da 00       		.byte	0
 1189 05db 11       		.uleb128 0x11
 1190 05dc 04       		.byte	0x4
 1191 05dd E1050000 		.4byte	0x5e1
 1192 05e1 14       		.uleb128 0x14
 1193 05e2 71040000 		.4byte	0x471
 1194 05e6 1B       		.uleb128 0x1b
 1195 05e7 01       		.byte	0x1
 1196 05e8 11000000 		.4byte	.LASF75
ARM GAS  C:\Users\Vergil\AppData\Local\Temp\ccxsndqP.s 			page 22


 1197 05ec 01       		.byte	0x1
 1198 05ed B0       		.byte	0xb0
 1199 05ee 01       		.byte	0x1
 1200 05ef 00000000 		.4byte	.LFB120
 1201 05f3 C8000000 		.4byte	.LFE120
 1202 05f7 FF000000 		.4byte	.LLST7
 1203 05fb 01       		.byte	0x1
 1204 05fc BB060000 		.4byte	0x6bb
 1205 0600 1C       		.uleb128 0x1c
 1206 0601 77020000 		.4byte	.LASF76
 1207 0605 01       		.byte	0x1
 1208 0606 B0       		.byte	0xb0
 1209 0607 92040000 		.4byte	0x492
 1210 060b 01       		.byte	0x1
 1211 060c 50       		.byte	0x50
 1212 060d 16       		.uleb128 0x16
 1213 060e 21030000 		.4byte	.LASF77
 1214 0612 01       		.byte	0x1
 1215 0613 B1       		.byte	0xb1
 1216 0614 7C040000 		.4byte	0x47c
 1217 0618 1F010000 		.4byte	.LLST8
 1218 061c 16       		.uleb128 0x16
 1219 061d 68020000 		.4byte	.LASF78
 1220 0621 01       		.byte	0x1
 1221 0622 B2       		.byte	0xb2
 1222 0623 87040000 		.4byte	0x487
 1223 0627 4C010000 		.4byte	.LLST9
 1224 062b 1D       		.uleb128 0x1d
 1225 062c 36030000 		.4byte	.LASF55
 1226 0630 01       		.byte	0x1
 1227 0631 B4       		.byte	0xb4
 1228 0632 70000000 		.4byte	0x70
 1229 0636 01       		.byte	0x1
 1230 0637 57       		.byte	0x57
 1231 0638 1D       		.uleb128 0x1d
 1232 0639 C3010000 		.4byte	.LASF56
 1233 063d 01       		.byte	0x1
 1234 063e B5       		.byte	0xb5
 1235 063f 70000000 		.4byte	0x70
 1236 0643 01       		.byte	0x1
 1237 0644 56       		.byte	0x56
 1238 0645 1D       		.uleb128 0x1d
 1239 0646 03010000 		.4byte	.LASF57
 1240 064a 01       		.byte	0x1
 1241 064b B6       		.byte	0xb6
 1242 064c 70000000 		.4byte	0x70
 1243 0650 01       		.byte	0x1
 1244 0651 55       		.byte	0x55
 1245 0652 1D       		.uleb128 0x1d
 1246 0653 26030000 		.4byte	.LASF58
 1247 0657 01       		.byte	0x1
 1248 0658 B7       		.byte	0xb7
 1249 0659 70000000 		.4byte	0x70
 1250 065d 01       		.byte	0x1
 1251 065e 54       		.byte	0x54
 1252 065f 1D       		.uleb128 0x1d
 1253 0660 5B030000 		.4byte	.LASF79
ARM GAS  C:\Users\Vergil\AppData\Local\Temp\ccxsndqP.s 			page 23


 1254 0664 01       		.byte	0x1
 1255 0665 B8       		.byte	0xb8
 1256 0666 70000000 		.4byte	0x70
 1257 066a 01       		.byte	0x1
 1258 066b 52       		.byte	0x52
 1259 066c 1E       		.uleb128 0x1e
 1260 066d 62697400 		.ascii	"bit\000"
 1261 0671 01       		.byte	0x1
 1262 0672 B9       		.byte	0xb9
 1263 0673 70000000 		.4byte	0x70
 1264 0677 6D010000 		.4byte	.LLST10
 1265 067b 1F       		.uleb128 0x1f
 1266 067c B0000000 		.4byte	.Ldebug_ranges0+0xb0
 1267 0680 20       		.uleb128 0x20
 1268 0681 6D030000 		.4byte	.LASF80
 1269 0685 01       		.byte	0x1
 1270 0686 BC       		.byte	0xbc
 1271 0687 70000000 		.4byte	0x70
 1272 068b 8C010000 		.4byte	.LLST11
 1273 068f 1E       		.uleb128 0x1e
 1274 0690 6D3100   		.ascii	"m1\000"
 1275 0693 01       		.byte	0x1
 1276 0694 BC       		.byte	0xbc
 1277 0695 70000000 		.4byte	0x70
 1278 0699 D2010000 		.4byte	.LLST12
 1279 069d 1E       		.uleb128 0x1e
 1280 069e 6D3200   		.ascii	"m2\000"
 1281 06a1 01       		.byte	0x1
 1282 06a2 BC       		.byte	0xbc
 1283 06a3 70000000 		.4byte	0x70
 1284 06a7 E9010000 		.4byte	.LLST13
 1285 06ab 1E       		.uleb128 0x1e
 1286 06ac 6D3400   		.ascii	"m4\000"
 1287 06af 01       		.byte	0x1
 1288 06b0 BC       		.byte	0xbc
 1289 06b1 70000000 		.4byte	0x70
 1290 06b5 2C020000 		.4byte	.LLST14
 1291 06b9 00       		.byte	0
 1292 06ba 00       		.byte	0
 1293 06bb 21       		.uleb128 0x21
 1294 06bc 60030000 		.4byte	.LASF85
 1295 06c0 05       		.byte	0x5
 1296 06c1 9806     		.2byte	0x698
 1297 06c3 BA000000 		.4byte	0xba
 1298 06c7 01       		.byte	0x1
 1299 06c8 01       		.byte	0x1
 1300 06c9 00       		.byte	0
 1301              		.section	.debug_abbrev,"",%progbits
 1302              	.Ldebug_abbrev0:
 1303 0000 01       		.uleb128 0x1
 1304 0001 11       		.uleb128 0x11
 1305 0002 01       		.byte	0x1
 1306 0003 25       		.uleb128 0x25
 1307 0004 0E       		.uleb128 0xe
 1308 0005 13       		.uleb128 0x13
 1309 0006 0B       		.uleb128 0xb
 1310 0007 03       		.uleb128 0x3
ARM GAS  C:\Users\Vergil\AppData\Local\Temp\ccxsndqP.s 			page 24


 1311 0008 0E       		.uleb128 0xe
 1312 0009 1B       		.uleb128 0x1b
 1313 000a 0E       		.uleb128 0xe
 1314 000b 55       		.uleb128 0x55
 1315 000c 06       		.uleb128 0x6
 1316 000d 11       		.uleb128 0x11
 1317 000e 01       		.uleb128 0x1
 1318 000f 52       		.uleb128 0x52
 1319 0010 01       		.uleb128 0x1
 1320 0011 10       		.uleb128 0x10
 1321 0012 06       		.uleb128 0x6
 1322 0013 00       		.byte	0
 1323 0014 00       		.byte	0
 1324 0015 02       		.uleb128 0x2
 1325 0016 24       		.uleb128 0x24
 1326 0017 00       		.byte	0
 1327 0018 0B       		.uleb128 0xb
 1328 0019 0B       		.uleb128 0xb
 1329 001a 3E       		.uleb128 0x3e
 1330 001b 0B       		.uleb128 0xb
 1331 001c 03       		.uleb128 0x3
 1332 001d 08       		.uleb128 0x8
 1333 001e 00       		.byte	0
 1334 001f 00       		.byte	0
 1335 0020 03       		.uleb128 0x3
 1336 0021 24       		.uleb128 0x24
 1337 0022 00       		.byte	0
 1338 0023 0B       		.uleb128 0xb
 1339 0024 0B       		.uleb128 0xb
 1340 0025 3E       		.uleb128 0x3e
 1341 0026 0B       		.uleb128 0xb
 1342 0027 03       		.uleb128 0x3
 1343 0028 0E       		.uleb128 0xe
 1344 0029 00       		.byte	0
 1345 002a 00       		.byte	0
 1346 002b 04       		.uleb128 0x4
 1347 002c 16       		.uleb128 0x16
 1348 002d 00       		.byte	0
 1349 002e 03       		.uleb128 0x3
 1350 002f 0E       		.uleb128 0xe
 1351 0030 3A       		.uleb128 0x3a
 1352 0031 0B       		.uleb128 0xb
 1353 0032 3B       		.uleb128 0x3b
 1354 0033 0B       		.uleb128 0xb
 1355 0034 49       		.uleb128 0x49
 1356 0035 13       		.uleb128 0x13
 1357 0036 00       		.byte	0
 1358 0037 00       		.byte	0
 1359 0038 05       		.uleb128 0x5
 1360 0039 35       		.uleb128 0x35
 1361 003a 00       		.byte	0
 1362 003b 49       		.uleb128 0x49
 1363 003c 13       		.uleb128 0x13
 1364 003d 00       		.byte	0
 1365 003e 00       		.byte	0
 1366 003f 06       		.uleb128 0x6
 1367 0040 01       		.uleb128 0x1
ARM GAS  C:\Users\Vergil\AppData\Local\Temp\ccxsndqP.s 			page 25


 1368 0041 01       		.byte	0x1
 1369 0042 49       		.uleb128 0x49
 1370 0043 13       		.uleb128 0x13
 1371 0044 01       		.uleb128 0x1
 1372 0045 13       		.uleb128 0x13
 1373 0046 00       		.byte	0
 1374 0047 00       		.byte	0
 1375 0048 07       		.uleb128 0x7
 1376 0049 21       		.uleb128 0x21
 1377 004a 00       		.byte	0
 1378 004b 49       		.uleb128 0x49
 1379 004c 13       		.uleb128 0x13
 1380 004d 2F       		.uleb128 0x2f
 1381 004e 0B       		.uleb128 0xb
 1382 004f 00       		.byte	0
 1383 0050 00       		.byte	0
 1384 0051 08       		.uleb128 0x8
 1385 0052 13       		.uleb128 0x13
 1386 0053 01       		.byte	0x1
 1387 0054 0B       		.uleb128 0xb
 1388 0055 0B       		.uleb128 0xb
 1389 0056 3A       		.uleb128 0x3a
 1390 0057 0B       		.uleb128 0xb
 1391 0058 3B       		.uleb128 0x3b
 1392 0059 05       		.uleb128 0x5
 1393 005a 01       		.uleb128 0x1
 1394 005b 13       		.uleb128 0x13
 1395 005c 00       		.byte	0
 1396 005d 00       		.byte	0
 1397 005e 09       		.uleb128 0x9
 1398 005f 0D       		.uleb128 0xd
 1399 0060 00       		.byte	0
 1400 0061 03       		.uleb128 0x3
 1401 0062 08       		.uleb128 0x8
 1402 0063 3A       		.uleb128 0x3a
 1403 0064 0B       		.uleb128 0xb
 1404 0065 3B       		.uleb128 0x3b
 1405 0066 05       		.uleb128 0x5
 1406 0067 49       		.uleb128 0x49
 1407 0068 13       		.uleb128 0x13
 1408 0069 38       		.uleb128 0x38
 1409 006a 0A       		.uleb128 0xa
 1410 006b 00       		.byte	0
 1411 006c 00       		.byte	0
 1412 006d 0A       		.uleb128 0xa
 1413 006e 0D       		.uleb128 0xd
 1414 006f 00       		.byte	0
 1415 0070 03       		.uleb128 0x3
 1416 0071 0E       		.uleb128 0xe
 1417 0072 3A       		.uleb128 0x3a
 1418 0073 0B       		.uleb128 0xb
 1419 0074 3B       		.uleb128 0x3b
 1420 0075 05       		.uleb128 0x5
 1421 0076 49       		.uleb128 0x49
 1422 0077 13       		.uleb128 0x13
 1423 0078 38       		.uleb128 0x38
 1424 0079 0A       		.uleb128 0xa
ARM GAS  C:\Users\Vergil\AppData\Local\Temp\ccxsndqP.s 			page 26


 1425 007a 00       		.byte	0
 1426 007b 00       		.byte	0
 1427 007c 0B       		.uleb128 0xb
 1428 007d 16       		.uleb128 0x16
 1429 007e 00       		.byte	0
 1430 007f 03       		.uleb128 0x3
 1431 0080 0E       		.uleb128 0xe
 1432 0081 3A       		.uleb128 0x3a
 1433 0082 0B       		.uleb128 0xb
 1434 0083 3B       		.uleb128 0x3b
 1435 0084 05       		.uleb128 0x5
 1436 0085 49       		.uleb128 0x49
 1437 0086 13       		.uleb128 0x13
 1438 0087 00       		.byte	0
 1439 0088 00       		.byte	0
 1440 0089 0C       		.uleb128 0xc
 1441 008a 13       		.uleb128 0x13
 1442 008b 01       		.byte	0x1
 1443 008c 0B       		.uleb128 0xb
 1444 008d 0B       		.uleb128 0xb
 1445 008e 3A       		.uleb128 0x3a
 1446 008f 0B       		.uleb128 0xb
 1447 0090 3B       		.uleb128 0x3b
 1448 0091 0B       		.uleb128 0xb
 1449 0092 01       		.uleb128 0x1
 1450 0093 13       		.uleb128 0x13
 1451 0094 00       		.byte	0
 1452 0095 00       		.byte	0
 1453 0096 0D       		.uleb128 0xd
 1454 0097 0D       		.uleb128 0xd
 1455 0098 00       		.byte	0
 1456 0099 03       		.uleb128 0x3
 1457 009a 08       		.uleb128 0x8
 1458 009b 3A       		.uleb128 0x3a
 1459 009c 0B       		.uleb128 0xb
 1460 009d 3B       		.uleb128 0x3b
 1461 009e 0B       		.uleb128 0xb
 1462 009f 49       		.uleb128 0x49
 1463 00a0 13       		.uleb128 0x13
 1464 00a1 38       		.uleb128 0x38
 1465 00a2 0A       		.uleb128 0xa
 1466 00a3 00       		.byte	0
 1467 00a4 00       		.byte	0
 1468 00a5 0E       		.uleb128 0xe
 1469 00a6 0D       		.uleb128 0xd
 1470 00a7 00       		.byte	0
 1471 00a8 03       		.uleb128 0x3
 1472 00a9 0E       		.uleb128 0xe
 1473 00aa 3A       		.uleb128 0x3a
 1474 00ab 0B       		.uleb128 0xb
 1475 00ac 3B       		.uleb128 0x3b
 1476 00ad 0B       		.uleb128 0xb
 1477 00ae 49       		.uleb128 0x49
 1478 00af 13       		.uleb128 0x13
 1479 00b0 38       		.uleb128 0x38
 1480 00b1 0A       		.uleb128 0xa
 1481 00b2 00       		.byte	0
ARM GAS  C:\Users\Vergil\AppData\Local\Temp\ccxsndqP.s 			page 27


 1482 00b3 00       		.byte	0
 1483 00b4 0F       		.uleb128 0xf
 1484 00b5 17       		.uleb128 0x17
 1485 00b6 01       		.byte	0x1
 1486 00b7 0B       		.uleb128 0xb
 1487 00b8 0B       		.uleb128 0xb
 1488 00b9 3A       		.uleb128 0x3a
 1489 00ba 0B       		.uleb128 0xb
 1490 00bb 3B       		.uleb128 0x3b
 1491 00bc 0B       		.uleb128 0xb
 1492 00bd 01       		.uleb128 0x1
 1493 00be 13       		.uleb128 0x13
 1494 00bf 00       		.byte	0
 1495 00c0 00       		.byte	0
 1496 00c1 10       		.uleb128 0x10
 1497 00c2 0D       		.uleb128 0xd
 1498 00c3 00       		.byte	0
 1499 00c4 03       		.uleb128 0x3
 1500 00c5 08       		.uleb128 0x8
 1501 00c6 3A       		.uleb128 0x3a
 1502 00c7 0B       		.uleb128 0xb
 1503 00c8 3B       		.uleb128 0x3b
 1504 00c9 0B       		.uleb128 0xb
 1505 00ca 49       		.uleb128 0x49
 1506 00cb 13       		.uleb128 0x13
 1507 00cc 00       		.byte	0
 1508 00cd 00       		.byte	0
 1509 00ce 11       		.uleb128 0x11
 1510 00cf 0F       		.uleb128 0xf
 1511 00d0 00       		.byte	0
 1512 00d1 0B       		.uleb128 0xb
 1513 00d2 0B       		.uleb128 0xb
 1514 00d3 49       		.uleb128 0x49
 1515 00d4 13       		.uleb128 0x13
 1516 00d5 00       		.byte	0
 1517 00d6 00       		.byte	0
 1518 00d7 12       		.uleb128 0x12
 1519 00d8 2E       		.uleb128 0x2e
 1520 00d9 01       		.byte	0x1
 1521 00da 03       		.uleb128 0x3
 1522 00db 0E       		.uleb128 0xe
 1523 00dc 3A       		.uleb128 0x3a
 1524 00dd 0B       		.uleb128 0xb
 1525 00de 3B       		.uleb128 0x3b
 1526 00df 0B       		.uleb128 0xb
 1527 00e0 27       		.uleb128 0x27
 1528 00e1 0C       		.uleb128 0xc
 1529 00e2 20       		.uleb128 0x20
 1530 00e3 0B       		.uleb128 0xb
 1531 00e4 01       		.uleb128 0x1
 1532 00e5 13       		.uleb128 0x13
 1533 00e6 00       		.byte	0
 1534 00e7 00       		.byte	0
 1535 00e8 13       		.uleb128 0x13
 1536 00e9 05       		.uleb128 0x5
 1537 00ea 00       		.byte	0
 1538 00eb 03       		.uleb128 0x3
ARM GAS  C:\Users\Vergil\AppData\Local\Temp\ccxsndqP.s 			page 28


 1539 00ec 0E       		.uleb128 0xe
 1540 00ed 3A       		.uleb128 0x3a
 1541 00ee 0B       		.uleb128 0xb
 1542 00ef 3B       		.uleb128 0x3b
 1543 00f0 0B       		.uleb128 0xb
 1544 00f1 49       		.uleb128 0x49
 1545 00f2 13       		.uleb128 0x13
 1546 00f3 00       		.byte	0
 1547 00f4 00       		.byte	0
 1548 00f5 14       		.uleb128 0x14
 1549 00f6 26       		.uleb128 0x26
 1550 00f7 00       		.byte	0
 1551 00f8 49       		.uleb128 0x49
 1552 00f9 13       		.uleb128 0x13
 1553 00fa 00       		.byte	0
 1554 00fb 00       		.byte	0
 1555 00fc 15       		.uleb128 0x15
 1556 00fd 2E       		.uleb128 0x2e
 1557 00fe 01       		.byte	0x1
 1558 00ff 3F       		.uleb128 0x3f
 1559 0100 0C       		.uleb128 0xc
 1560 0101 03       		.uleb128 0x3
 1561 0102 0E       		.uleb128 0xe
 1562 0103 3A       		.uleb128 0x3a
 1563 0104 0B       		.uleb128 0xb
 1564 0105 3B       		.uleb128 0x3b
 1565 0106 0B       		.uleb128 0xb
 1566 0107 27       		.uleb128 0x27
 1567 0108 0C       		.uleb128 0xc
 1568 0109 11       		.uleb128 0x11
 1569 010a 01       		.uleb128 0x1
 1570 010b 12       		.uleb128 0x12
 1571 010c 01       		.uleb128 0x1
 1572 010d 40       		.uleb128 0x40
 1573 010e 0A       		.uleb128 0xa
 1574 010f 9742     		.uleb128 0x2117
 1575 0111 0C       		.uleb128 0xc
 1576 0112 01       		.uleb128 0x1
 1577 0113 13       		.uleb128 0x13
 1578 0114 00       		.byte	0
 1579 0115 00       		.byte	0
 1580 0116 16       		.uleb128 0x16
 1581 0117 05       		.uleb128 0x5
 1582 0118 00       		.byte	0
 1583 0119 03       		.uleb128 0x3
 1584 011a 0E       		.uleb128 0xe
 1585 011b 3A       		.uleb128 0x3a
 1586 011c 0B       		.uleb128 0xb
 1587 011d 3B       		.uleb128 0x3b
 1588 011e 0B       		.uleb128 0xb
 1589 011f 49       		.uleb128 0x49
 1590 0120 13       		.uleb128 0x13
 1591 0121 02       		.uleb128 0x2
 1592 0122 06       		.uleb128 0x6
 1593 0123 00       		.byte	0
 1594 0124 00       		.byte	0
 1595 0125 17       		.uleb128 0x17
ARM GAS  C:\Users\Vergil\AppData\Local\Temp\ccxsndqP.s 			page 29


 1596 0126 1D       		.uleb128 0x1d
 1597 0127 01       		.byte	0x1
 1598 0128 31       		.uleb128 0x31
 1599 0129 13       		.uleb128 0x13
 1600 012a 52       		.uleb128 0x52
 1601 012b 01       		.uleb128 0x1
 1602 012c 55       		.uleb128 0x55
 1603 012d 06       		.uleb128 0x6
 1604 012e 58       		.uleb128 0x58
 1605 012f 0B       		.uleb128 0xb
 1606 0130 59       		.uleb128 0x59
 1607 0131 0B       		.uleb128 0xb
 1608 0132 01       		.uleb128 0x1
 1609 0133 13       		.uleb128 0x13
 1610 0134 00       		.byte	0
 1611 0135 00       		.byte	0
 1612 0136 18       		.uleb128 0x18
 1613 0137 05       		.uleb128 0x5
 1614 0138 00       		.byte	0
 1615 0139 31       		.uleb128 0x31
 1616 013a 13       		.uleb128 0x13
 1617 013b 02       		.uleb128 0x2
 1618 013c 06       		.uleb128 0x6
 1619 013d 00       		.byte	0
 1620 013e 00       		.byte	0
 1621 013f 19       		.uleb128 0x19
 1622 0140 05       		.uleb128 0x5
 1623 0141 00       		.byte	0
 1624 0142 31       		.uleb128 0x31
 1625 0143 13       		.uleb128 0x13
 1626 0144 1C       		.uleb128 0x1c
 1627 0145 06       		.uleb128 0x6
 1628 0146 00       		.byte	0
 1629 0147 00       		.byte	0
 1630 0148 1A       		.uleb128 0x1a
 1631 0149 1D       		.uleb128 0x1d
 1632 014a 01       		.byte	0x1
 1633 014b 31       		.uleb128 0x31
 1634 014c 13       		.uleb128 0x13
 1635 014d 52       		.uleb128 0x52
 1636 014e 01       		.uleb128 0x1
 1637 014f 55       		.uleb128 0x55
 1638 0150 06       		.uleb128 0x6
 1639 0151 58       		.uleb128 0x58
 1640 0152 0B       		.uleb128 0xb
 1641 0153 59       		.uleb128 0x59
 1642 0154 0B       		.uleb128 0xb
 1643 0155 00       		.byte	0
 1644 0156 00       		.byte	0
 1645 0157 1B       		.uleb128 0x1b
 1646 0158 2E       		.uleb128 0x2e
 1647 0159 01       		.byte	0x1
 1648 015a 3F       		.uleb128 0x3f
 1649 015b 0C       		.uleb128 0xc
 1650 015c 03       		.uleb128 0x3
 1651 015d 0E       		.uleb128 0xe
 1652 015e 3A       		.uleb128 0x3a
ARM GAS  C:\Users\Vergil\AppData\Local\Temp\ccxsndqP.s 			page 30


 1653 015f 0B       		.uleb128 0xb
 1654 0160 3B       		.uleb128 0x3b
 1655 0161 0B       		.uleb128 0xb
 1656 0162 27       		.uleb128 0x27
 1657 0163 0C       		.uleb128 0xc
 1658 0164 11       		.uleb128 0x11
 1659 0165 01       		.uleb128 0x1
 1660 0166 12       		.uleb128 0x12
 1661 0167 01       		.uleb128 0x1
 1662 0168 40       		.uleb128 0x40
 1663 0169 06       		.uleb128 0x6
 1664 016a 9742     		.uleb128 0x2117
 1665 016c 0C       		.uleb128 0xc
 1666 016d 01       		.uleb128 0x1
 1667 016e 13       		.uleb128 0x13
 1668 016f 00       		.byte	0
 1669 0170 00       		.byte	0
 1670 0171 1C       		.uleb128 0x1c
 1671 0172 05       		.uleb128 0x5
 1672 0173 00       		.byte	0
 1673 0174 03       		.uleb128 0x3
 1674 0175 0E       		.uleb128 0xe
 1675 0176 3A       		.uleb128 0x3a
 1676 0177 0B       		.uleb128 0xb
 1677 0178 3B       		.uleb128 0x3b
 1678 0179 0B       		.uleb128 0xb
 1679 017a 49       		.uleb128 0x49
 1680 017b 13       		.uleb128 0x13
 1681 017c 02       		.uleb128 0x2
 1682 017d 0A       		.uleb128 0xa
 1683 017e 00       		.byte	0
 1684 017f 00       		.byte	0
 1685 0180 1D       		.uleb128 0x1d
 1686 0181 34       		.uleb128 0x34
 1687 0182 00       		.byte	0
 1688 0183 03       		.uleb128 0x3
 1689 0184 0E       		.uleb128 0xe
 1690 0185 3A       		.uleb128 0x3a
 1691 0186 0B       		.uleb128 0xb
 1692 0187 3B       		.uleb128 0x3b
 1693 0188 0B       		.uleb128 0xb
 1694 0189 49       		.uleb128 0x49
 1695 018a 13       		.uleb128 0x13
 1696 018b 02       		.uleb128 0x2
 1697 018c 0A       		.uleb128 0xa
 1698 018d 00       		.byte	0
 1699 018e 00       		.byte	0
 1700 018f 1E       		.uleb128 0x1e
 1701 0190 34       		.uleb128 0x34
 1702 0191 00       		.byte	0
 1703 0192 03       		.uleb128 0x3
 1704 0193 08       		.uleb128 0x8
 1705 0194 3A       		.uleb128 0x3a
 1706 0195 0B       		.uleb128 0xb
 1707 0196 3B       		.uleb128 0x3b
 1708 0197 0B       		.uleb128 0xb
 1709 0198 49       		.uleb128 0x49
ARM GAS  C:\Users\Vergil\AppData\Local\Temp\ccxsndqP.s 			page 31


 1710 0199 13       		.uleb128 0x13
 1711 019a 02       		.uleb128 0x2
 1712 019b 06       		.uleb128 0x6
 1713 019c 00       		.byte	0
 1714 019d 00       		.byte	0
 1715 019e 1F       		.uleb128 0x1f
 1716 019f 0B       		.uleb128 0xb
 1717 01a0 01       		.byte	0x1
 1718 01a1 55       		.uleb128 0x55
 1719 01a2 06       		.uleb128 0x6
 1720 01a3 00       		.byte	0
 1721 01a4 00       		.byte	0
 1722 01a5 20       		.uleb128 0x20
 1723 01a6 34       		.uleb128 0x34
 1724 01a7 00       		.byte	0
 1725 01a8 03       		.uleb128 0x3
 1726 01a9 0E       		.uleb128 0xe
 1727 01aa 3A       		.uleb128 0x3a
 1728 01ab 0B       		.uleb128 0xb
 1729 01ac 3B       		.uleb128 0x3b
 1730 01ad 0B       		.uleb128 0xb
 1731 01ae 49       		.uleb128 0x49
 1732 01af 13       		.uleb128 0x13
 1733 01b0 02       		.uleb128 0x2
 1734 01b1 06       		.uleb128 0x6
 1735 01b2 00       		.byte	0
 1736 01b3 00       		.byte	0
 1737 01b4 21       		.uleb128 0x21
 1738 01b5 34       		.uleb128 0x34
 1739 01b6 00       		.byte	0
 1740 01b7 03       		.uleb128 0x3
 1741 01b8 0E       		.uleb128 0xe
 1742 01b9 3A       		.uleb128 0x3a
 1743 01ba 0B       		.uleb128 0xb
 1744 01bb 3B       		.uleb128 0x3b
 1745 01bc 05       		.uleb128 0x5
 1746 01bd 49       		.uleb128 0x49
 1747 01be 13       		.uleb128 0x13
 1748 01bf 3F       		.uleb128 0x3f
 1749 01c0 0C       		.uleb128 0xc
 1750 01c1 3C       		.uleb128 0x3c
 1751 01c2 0C       		.uleb128 0xc
 1752 01c3 00       		.byte	0
 1753 01c4 00       		.byte	0
 1754 01c5 00       		.byte	0
 1755              		.section	.debug_loc,"",%progbits
 1756              	.Ldebug_loc0:
 1757              	.LLST0:
 1758 0000 00000000 		.4byte	.LVL0
 1759 0004 08010000 		.4byte	.LVL7
 1760 0008 0100     		.2byte	0x1
 1761 000a 50       		.byte	0x50
 1762 000b 08010000 		.4byte	.LVL7
 1763 000f 0C010000 		.4byte	.LFE119
 1764 0013 0400     		.2byte	0x4
 1765 0015 F3       		.byte	0xf3
 1766 0016 01       		.uleb128 0x1
ARM GAS  C:\Users\Vergil\AppData\Local\Temp\ccxsndqP.s 			page 32


 1767 0017 50       		.byte	0x50
 1768 0018 9F       		.byte	0x9f
 1769 0019 00000000 		.4byte	0
 1770 001d 00000000 		.4byte	0
 1771              	.LLST1:
 1772 0021 20000000 		.4byte	.LVL1
 1773 0025 08010000 		.4byte	.LVL7
 1774 0029 0100     		.2byte	0x1
 1775 002b 50       		.byte	0x50
 1776 002c 08010000 		.4byte	.LVL7
 1777 0030 0C010000 		.4byte	.LFE119
 1778 0034 0400     		.2byte	0x4
 1779 0036 F3       		.byte	0xf3
 1780 0037 01       		.uleb128 0x1
 1781 0038 50       		.byte	0x50
 1782 0039 9F       		.byte	0x9f
 1783 003a 00000000 		.4byte	0
 1784 003e 00000000 		.4byte	0
 1785              	.LLST2:
 1786 0042 46000000 		.4byte	.LVL2
 1787 0046 08010000 		.4byte	.LVL7
 1788 004a 0300     		.2byte	0x3
 1789 004c 70       		.byte	0x70
 1790 004d 1C       		.sleb128 28
 1791 004e 9F       		.byte	0x9f
 1792 004f 08010000 		.4byte	.LVL7
 1793 0053 0C010000 		.4byte	.LFE119
 1794 0057 0600     		.2byte	0x6
 1795 0059 F3       		.byte	0xf3
 1796 005a 01       		.uleb128 0x1
 1797 005b 50       		.byte	0x50
 1798 005c 23       		.byte	0x23
 1799 005d 1C       		.uleb128 0x1c
 1800 005e 9F       		.byte	0x9f
 1801 005f 00000000 		.4byte	0
 1802 0063 00000000 		.4byte	0
 1803              	.LLST3:
 1804 0067 6A000000 		.4byte	.LVL3
 1805 006b 08010000 		.4byte	.LVL7
 1806 006f 0300     		.2byte	0x3
 1807 0071 70       		.byte	0x70
 1808 0072 38       		.sleb128 56
 1809 0073 9F       		.byte	0x9f
 1810 0074 08010000 		.4byte	.LVL7
 1811 0078 0C010000 		.4byte	.LFE119
 1812 007c 0600     		.2byte	0x6
 1813 007e F3       		.byte	0xf3
 1814 007f 01       		.uleb128 0x1
 1815 0080 50       		.byte	0x50
 1816 0081 23       		.byte	0x23
 1817 0082 38       		.uleb128 0x38
 1818 0083 9F       		.byte	0x9f
 1819 0084 00000000 		.4byte	0
 1820 0088 00000000 		.4byte	0
 1821              	.LLST4:
 1822 008c 8E000000 		.4byte	.LVL4
 1823 0090 08010000 		.4byte	.LVL7
ARM GAS  C:\Users\Vergil\AppData\Local\Temp\ccxsndqP.s 			page 33


 1824 0094 0400     		.2byte	0x4
 1825 0096 70       		.byte	0x70
 1826 0097 D400     		.sleb128 84
 1827 0099 9F       		.byte	0x9f
 1828 009a 08010000 		.4byte	.LVL7
 1829 009e 0C010000 		.4byte	.LFE119
 1830 00a2 0600     		.2byte	0x6
 1831 00a4 F3       		.byte	0xf3
 1832 00a5 01       		.uleb128 0x1
 1833 00a6 50       		.byte	0x50
 1834 00a7 23       		.byte	0x23
 1835 00a8 54       		.uleb128 0x54
 1836 00a9 9F       		.byte	0x9f
 1837 00aa 00000000 		.4byte	0
 1838 00ae 00000000 		.4byte	0
 1839              	.LLST5:
 1840 00b2 B2000000 		.4byte	.LVL5
 1841 00b6 08010000 		.4byte	.LVL7
 1842 00ba 0400     		.2byte	0x4
 1843 00bc 70       		.byte	0x70
 1844 00bd F000     		.sleb128 112
 1845 00bf 9F       		.byte	0x9f
 1846 00c0 08010000 		.4byte	.LVL7
 1847 00c4 0C010000 		.4byte	.LFE119
 1848 00c8 0600     		.2byte	0x6
 1849 00ca F3       		.byte	0xf3
 1850 00cb 01       		.uleb128 0x1
 1851 00cc 50       		.byte	0x50
 1852 00cd 23       		.byte	0x23
 1853 00ce 70       		.uleb128 0x70
 1854 00cf 9F       		.byte	0x9f
 1855 00d0 00000000 		.4byte	0
 1856 00d4 00000000 		.4byte	0
 1857              	.LLST6:
 1858 00d8 DC000000 		.4byte	.LVL6
 1859 00dc 08010000 		.4byte	.LVL7
 1860 00e0 0400     		.2byte	0x4
 1861 00e2 70       		.byte	0x70
 1862 00e3 8C01     		.sleb128 140
 1863 00e5 9F       		.byte	0x9f
 1864 00e6 08010000 		.4byte	.LVL7
 1865 00ea 0C010000 		.4byte	.LFE119
 1866 00ee 0700     		.2byte	0x7
 1867 00f0 F3       		.byte	0xf3
 1868 00f1 01       		.uleb128 0x1
 1869 00f2 50       		.byte	0x50
 1870 00f3 23       		.byte	0x23
 1871 00f4 8C01     		.uleb128 0x8c
 1872 00f6 9F       		.byte	0x9f
 1873 00f7 00000000 		.4byte	0
 1874 00fb 00000000 		.4byte	0
 1875              	.LLST7:
 1876 00ff 00000000 		.4byte	.LFB120
 1877 0103 04000000 		.4byte	.LCFI0
 1878 0107 0200     		.2byte	0x2
 1879 0109 7D       		.byte	0x7d
 1880 010a 00       		.sleb128 0
ARM GAS  C:\Users\Vergil\AppData\Local\Temp\ccxsndqP.s 			page 34


 1881 010b 04000000 		.4byte	.LCFI0
 1882 010f C8000000 		.4byte	.LFE120
 1883 0113 0200     		.2byte	0x2
 1884 0115 7D       		.byte	0x7d
 1885 0116 20       		.sleb128 32
 1886 0117 00000000 		.4byte	0
 1887 011b 00000000 		.4byte	0
 1888              	.LLST8:
 1889 011f 00000000 		.4byte	.LVL8
 1890 0123 88000000 		.4byte	.LVL22
 1891 0127 0100     		.2byte	0x1
 1892 0129 51       		.byte	0x51
 1893 012a 88000000 		.4byte	.LVL22
 1894 012e 8A000000 		.4byte	.LVL23
 1895 0132 0500     		.2byte	0x5
 1896 0134 71       		.byte	0x71
 1897 0135 00       		.sleb128 0
 1898 0136 31       		.byte	0x31
 1899 0137 25       		.byte	0x25
 1900 0138 9F       		.byte	0x9f
 1901 0139 8A000000 		.4byte	.LVL23
 1902 013d C8000000 		.4byte	.LFE120
 1903 0141 0100     		.2byte	0x1
 1904 0143 51       		.byte	0x51
 1905 0144 00000000 		.4byte	0
 1906 0148 00000000 		.4byte	0
 1907              	.LLST9:
 1908 014c 00000000 		.4byte	.LVL8
 1909 0150 1E000000 		.4byte	.LVL13
 1910 0154 0100     		.2byte	0x1
 1911 0156 52       		.byte	0x52
 1912 0157 1E000000 		.4byte	.LVL13
 1913 015b C8000000 		.4byte	.LFE120
 1914 015f 0400     		.2byte	0x4
 1915 0161 F3       		.byte	0xf3
 1916 0162 01       		.uleb128 0x1
 1917 0163 52       		.byte	0x52
 1918 0164 9F       		.byte	0x9f
 1919 0165 00000000 		.4byte	0
 1920 0169 00000000 		.4byte	0
 1921              	.LLST10:
 1922 016d 1E000000 		.4byte	.LVL13
 1923 0171 24000000 		.4byte	.LVL14
 1924 0175 0200     		.2byte	0x2
 1925 0177 30       		.byte	0x30
 1926 0178 9F       		.byte	0x9f
 1927 0179 24000000 		.4byte	.LVL14
 1928 017d C8000000 		.4byte	.LFE120
 1929 0181 0100     		.2byte	0x1
 1930 0183 53       		.byte	0x53
 1931 0184 00000000 		.4byte	0
 1932 0188 00000000 		.4byte	0
 1933              	.LLST11:
 1934 018c 24000000 		.4byte	.LVL14
 1935 0190 30000000 		.4byte	.LVL16
 1936 0194 0100     		.2byte	0x1
 1937 0196 58       		.byte	0x58
ARM GAS  C:\Users\Vergil\AppData\Local\Temp\ccxsndqP.s 			page 35


 1938 0197 30000000 		.4byte	.LVL16
 1939 019b 96000000 		.4byte	.LVL28
 1940 019f 0A00     		.2byte	0xa
 1941 01a1 72       		.byte	0x72
 1942 01a2 00       		.sleb128 0
 1943 01a3 73       		.byte	0x73
 1944 01a4 00       		.sleb128 0
 1945 01a5 37       		.byte	0x37
 1946 01a6 1A       		.byte	0x1a
 1947 01a7 32       		.byte	0x32
 1948 01a8 24       		.byte	0x24
 1949 01a9 24       		.byte	0x24
 1950 01aa 9F       		.byte	0x9f
 1951 01ab A6000000 		.4byte	.LVL29
 1952 01af BC000000 		.4byte	.LVL32
 1953 01b3 0100     		.2byte	0x1
 1954 01b5 58       		.byte	0x58
 1955 01b6 BC000000 		.4byte	.LVL32
 1956 01ba C8000000 		.4byte	.LFE120
 1957 01be 0A00     		.2byte	0xa
 1958 01c0 72       		.byte	0x72
 1959 01c1 00       		.sleb128 0
 1960 01c2 73       		.byte	0x73
 1961 01c3 00       		.sleb128 0
 1962 01c4 37       		.byte	0x37
 1963 01c5 1A       		.byte	0x1a
 1964 01c6 32       		.byte	0x32
 1965 01c7 24       		.byte	0x24
 1966 01c8 24       		.byte	0x24
 1967 01c9 9F       		.byte	0x9f
 1968 01ca 00000000 		.4byte	0
 1969 01ce 00000000 		.4byte	0
 1970              	.LLST12:
 1971 01d2 34000000 		.4byte	.LVL17
 1972 01d6 88000000 		.4byte	.LVL22
 1973 01da 0500     		.2byte	0x5
 1974 01dc 31       		.byte	0x31
 1975 01dd 73       		.byte	0x73
 1976 01de 00       		.sleb128 0
 1977 01df 24       		.byte	0x24
 1978 01e0 9F       		.byte	0x9f
 1979 01e1 00000000 		.4byte	0
 1980 01e5 00000000 		.4byte	0
 1981              	.LLST13:
 1982 01e9 48000000 		.4byte	.LVL18
 1983 01ed 58000000 		.4byte	.LVL19
 1984 01f1 0700     		.2byte	0x7
 1985 01f3 33       		.byte	0x33
 1986 01f4 73       		.byte	0x73
 1987 01f5 00       		.sleb128 0
 1988 01f6 31       		.byte	0x31
 1989 01f7 24       		.byte	0x24
 1990 01f8 24       		.byte	0x24
 1991 01f9 9F       		.byte	0x9f
 1992 01fa 58000000 		.4byte	.LVL19
 1993 01fe 5C000000 		.4byte	.LVL20
 1994 0202 0100     		.2byte	0x1
ARM GAS  C:\Users\Vergil\AppData\Local\Temp\ccxsndqP.s 			page 36


 1995 0204 5C       		.byte	0x5c
 1996 0205 5C000000 		.4byte	.LVL20
 1997 0209 80000000 		.4byte	.LVL21
 1998 020d 0400     		.2byte	0x4
 1999 020f 7C       		.byte	0x7c
 2000 0210 00       		.sleb128 0
 2001 0211 20       		.byte	0x20
 2002 0212 9F       		.byte	0x9f
 2003 0213 80000000 		.4byte	.LVL21
 2004 0217 88000000 		.4byte	.LVL22
 2005 021b 0700     		.2byte	0x7
 2006 021d 33       		.byte	0x33
 2007 021e 73       		.byte	0x73
 2008 021f 00       		.sleb128 0
 2009 0220 31       		.byte	0x31
 2010 0221 24       		.byte	0x24
 2011 0222 24       		.byte	0x24
 2012 0223 9F       		.byte	0x9f
 2013 0224 00000000 		.4byte	0
 2014 0228 00000000 		.4byte	0
 2015              	.LLST14:
 2016 022c 24000000 		.4byte	.LVL14
 2017 0230 2C000000 		.4byte	.LVL15
 2018 0234 0100     		.2byte	0x1
 2019 0236 5C       		.byte	0x5c
 2020 0237 2C000000 		.4byte	.LVL15
 2021 023b 96000000 		.4byte	.LVL28
 2022 023f 0A00     		.2byte	0xa
 2023 0241 79       		.byte	0x79
 2024 0242 00       		.sleb128 0
 2025 0243 73       		.byte	0x73
 2026 0244 00       		.sleb128 0
 2027 0245 37       		.byte	0x37
 2028 0246 1A       		.byte	0x1a
 2029 0247 32       		.byte	0x32
 2030 0248 24       		.byte	0x24
 2031 0249 24       		.byte	0x24
 2032 024a 9F       		.byte	0x9f
 2033 024b AA000000 		.4byte	.LVL30
 2034 024f B8000000 		.4byte	.LVL31
 2035 0253 0100     		.2byte	0x1
 2036 0255 5C       		.byte	0x5c
 2037 0256 B8000000 		.4byte	.LVL31
 2038 025a C8000000 		.4byte	.LFE120
 2039 025e 0A00     		.2byte	0xa
 2040 0260 79       		.byte	0x79
 2041 0261 00       		.sleb128 0
 2042 0262 73       		.byte	0x73
 2043 0263 00       		.sleb128 0
 2044 0264 37       		.byte	0x37
 2045 0265 1A       		.byte	0x1a
 2046 0266 32       		.byte	0x32
 2047 0267 24       		.byte	0x24
 2048 0268 24       		.byte	0x24
 2049 0269 9F       		.byte	0x9f
 2050 026a 00000000 		.4byte	0
 2051 026e 00000000 		.4byte	0
ARM GAS  C:\Users\Vergil\AppData\Local\Temp\ccxsndqP.s 			page 37


 2052              		.section	.debug_aranges,"",%progbits
 2053 0000 24000000 		.4byte	0x24
 2054 0004 0200     		.2byte	0x2
 2055 0006 00000000 		.4byte	.Ldebug_info0
 2056 000a 04       		.byte	0x4
 2057 000b 00       		.byte	0
 2058 000c 0000     		.2byte	0
 2059 000e 0000     		.2byte	0
 2060 0010 00000000 		.4byte	.LFB119
 2061 0014 0C010000 		.4byte	.LFE119-.LFB119
 2062 0018 00000000 		.4byte	.LFB120
 2063 001c C8000000 		.4byte	.LFE120-.LFB120
 2064 0020 00000000 		.4byte	0
 2065 0024 00000000 		.4byte	0
 2066              		.section	.debug_ranges,"",%progbits
 2067              	.Ldebug_ranges0:
 2068 0000 20000000 		.4byte	.LBB14
 2069 0004 28000000 		.4byte	.LBE14
 2070 0008 2C000000 		.4byte	.LBB21
 2071 000c 46000000 		.4byte	.LBE21
 2072 0010 00000000 		.4byte	0
 2073 0014 00000000 		.4byte	0
 2074 0018 28000000 		.4byte	.LBB17
 2075 001c 2C000000 		.4byte	.LBE17
 2076 0020 46000000 		.4byte	.LBB22
 2077 0024 4C000000 		.4byte	.LBE22
 2078 0028 50000000 		.4byte	.LBB27
 2079 002c 6A000000 		.4byte	.LBE27
 2080 0030 00000000 		.4byte	0
 2081 0034 00000000 		.4byte	0
 2082 0038 4C000000 		.4byte	.LBB23
 2083 003c 50000000 		.4byte	.LBE23
 2084 0040 6A000000 		.4byte	.LBB28
 2085 0044 88000000 		.4byte	.LBE28
 2086 0048 8C000000 		.4byte	.LBB33
 2087 004c 8E000000 		.4byte	.LBE33
 2088 0050 00000000 		.4byte	0
 2089 0054 00000000 		.4byte	0
 2090 0058 88000000 		.4byte	.LBB29
 2091 005c 8C000000 		.4byte	.LBE29
 2092 0060 8E000000 		.4byte	.LBB34
 2093 0064 94000000 		.4byte	.LBE34
 2094 0068 98000000 		.4byte	.LBB39
 2095 006c B2000000 		.4byte	.LBE39
 2096 0070 00000000 		.4byte	0
 2097 0074 00000000 		.4byte	0
 2098 0078 94000000 		.4byte	.LBB35
 2099 007c 98000000 		.4byte	.LBE35
 2100 0080 B2000000 		.4byte	.LBB40
 2101 0084 D6000000 		.4byte	.LBE40
 2102 0088 DA000000 		.4byte	.LBB44
 2103 008c DC000000 		.4byte	.LBE44
 2104 0090 00000000 		.4byte	0
 2105 0094 00000000 		.4byte	0
 2106 0098 D6000000 		.4byte	.LBB41
 2107 009c DA000000 		.4byte	.LBE41
 2108 00a0 DC000000 		.4byte	.LBB45
ARM GAS  C:\Users\Vergil\AppData\Local\Temp\ccxsndqP.s 			page 38


 2109 00a4 0C010000 		.4byte	.LBE45
 2110 00a8 00000000 		.4byte	0
 2111 00ac 00000000 		.4byte	0
 2112 00b0 16000000 		.4byte	.LBB46
 2113 00b4 1A000000 		.4byte	.LBE46
 2114 00b8 1E000000 		.4byte	.LBB47
 2115 00bc 88000000 		.4byte	.LBE47
 2116 00c0 96000000 		.4byte	.LBB48
 2117 00c4 9E000000 		.4byte	.LBE48
 2118 00c8 A2000000 		.4byte	.LBB49
 2119 00cc AA000000 		.4byte	.LBE49
 2120 00d0 AC000000 		.4byte	.LBB50
 2121 00d4 C2000000 		.4byte	.LBE50
 2122 00d8 00000000 		.4byte	0
 2123 00dc 00000000 		.4byte	0
 2124 00e0 00000000 		.4byte	.LFB119
 2125 00e4 0C010000 		.4byte	.LFE119
 2126 00e8 00000000 		.4byte	.LFB120
 2127 00ec C8000000 		.4byte	.LFE120
 2128 00f0 00000000 		.4byte	0
 2129 00f4 00000000 		.4byte	0
 2130              		.section	.debug_line,"",%progbits
 2131              	.Ldebug_line0:
 2132 0000 D7010000 		.section	.debug_str,"MS",%progbits,1
 2132      02004201 
 2132      00000201 
 2132      FB0E0D00 
 2132      01010101 
 2133              	.LASF31:
 2134 0000 41484231 		.ascii	"AHB1LPENR\000"
 2134      4C50454E 
 2134      5200
 2135              	.LASF64:
 2136 000a 50434461 		.ascii	"PCData\000"
 2136      746100
 2137              	.LASF75:
 2138 0011 5F70616C 		.ascii	"_pal_lld_setgroupmode\000"
 2138      5F6C6C64 
 2138      5F736574 
 2138      67726F75 
 2138      706D6F64 
 2139              	.LASF21:
 2140 0027 41504231 		.ascii	"APB1RSTR\000"
 2140      52535452 
 2140      00
 2141              	.LASF25:
 2142 0030 41484232 		.ascii	"AHB2ENR\000"
 2142      454E5200 
 2143              	.LASF61:
 2144 0038 73746D33 		.ascii	"stm32_gpio_setup_t\000"
 2144      325F6770 
 2144      696F5F73 
 2144      65747570 
 2144      5F7400
 2145              	.LASF74:
 2146 004b 5F70616C 		.ascii	"_pal_lld_init\000"
 2146      5F6C6C64 
ARM GAS  C:\Users\Vergil\AppData\Local\Temp\ccxsndqP.s 			page 39


 2146      5F696E69 
 2146      7400
 2147              	.LASF3:
 2148 0059 73686F72 		.ascii	"short int\000"
 2148      7420696E 
 2148      7400
 2149              	.LASF84:
 2150 0063 696E6974 		.ascii	"initgpio\000"
 2150      6770696F 
 2150      00
 2151              	.LASF13:
 2152 006c 73697A65 		.ascii	"sizetype\000"
 2152      74797065 
 2152      00
 2153              	.LASF38:
 2154 0075 42444352 		.ascii	"BDCR\000"
 2154      00
 2155              	.LASF41:
 2156 007a 504C4C49 		.ascii	"PLLI2SCFGR\000"
 2156      32534346 
 2156      475200
 2157              	.LASF72:
 2158 0085 6770696F 		.ascii	"gpiop\000"
 2158      7000
 2159              	.LASF40:
 2160 008b 53534347 		.ascii	"SSCGR\000"
 2160      5200
 2161              	.LASF63:
 2162 0091 50424461 		.ascii	"PBData\000"
 2162      746100
 2163              	.LASF33:
 2164 0098 41484233 		.ascii	"AHB3LPENR\000"
 2164      4C50454E 
 2164      5200
 2165              	.LASF73:
 2166 00a2 636F6E66 		.ascii	"config\000"
 2166      696700
 2167              	.LASF70:
 2168 00a9 696F6D6F 		.ascii	"iomode_t\000"
 2168      64655F74 
 2168      00
 2169              	.LASF28:
 2170 00b2 41504231 		.ascii	"APB1ENR\000"
 2170      454E5200 
 2171              	.LASF69:
 2172 00ba 696F706F 		.ascii	"ioportmask_t\000"
 2172      72746D61 
 2172      736B5F74 
 2172      00
 2173              	.LASF8:
 2174 00c7 75696E74 		.ascii	"uint32_t\000"
 2174      33325F74 
 2174      00
 2175              	.LASF47:
 2176 00d0 4F545950 		.ascii	"OTYPER\000"
 2176      455200
 2177              	.LASF43:
ARM GAS  C:\Users\Vergil\AppData\Local\Temp\ccxsndqP.s 			page 40


 2178 00d7 44434B43 		.ascii	"DCKCFGR\000"
 2178      46475200 
 2179              	.LASF26:
 2180 00df 41484233 		.ascii	"AHB3ENR\000"
 2180      454E5200 
 2181              	.LASF48:
 2182 00e7 4F535045 		.ascii	"OSPEEDR\000"
 2182      45445200 
 2183              	.LASF10:
 2184 00ef 6C6F6E67 		.ascii	"long long int\000"
 2184      206C6F6E 
 2184      6720696E 
 2184      7400
 2185              	.LASF49:
 2186 00fd 50555044 		.ascii	"PUPDR\000"
 2186      5200
 2187              	.LASF57:
 2188 0103 6F737065 		.ascii	"ospeedr\000"
 2188      65647200 
 2189              	.LASF7:
 2190 010b 6C6F6E67 		.ascii	"long int\000"
 2190      20696E74 
 2190      00
 2191              	.LASF65:
 2192 0114 50444461 		.ascii	"PDData\000"
 2192      746100
 2193              	.LASF44:
 2194 011b 5243435F 		.ascii	"RCC_TypeDef\000"
 2194      54797065 
 2194      44656600 
 2195              	.LASF46:
 2196 0127 4D4F4445 		.ascii	"MODER\000"
 2196      5200
 2197              	.LASF22:
 2198 012d 41504232 		.ascii	"APB2RSTR\000"
 2198      52535452 
 2198      00
 2199              	.LASF45:
 2200 0136 636C6561 		.ascii	"clear\000"
 2200      7200
 2201              	.LASF62:
 2202 013c 50414461 		.ascii	"PAData\000"
 2202      746100
 2203              	.LASF71:
 2204 0143 696F706F 		.ascii	"ioportid_t\000"
 2204      72746964 
 2204      5F7400
 2205              	.LASF2:
 2206 014e 756E7369 		.ascii	"unsigned char\000"
 2206      676E6564 
 2206      20636861 
 2206      7200
 2207              	.LASF29:
 2208 015c 41504232 		.ascii	"APB2ENR\000"
 2208      454E5200 
 2209              	.LASF1:
 2210 0164 7369676E 		.ascii	"signed char\000"
ARM GAS  C:\Users\Vergil\AppData\Local\Temp\ccxsndqP.s 			page 41


 2210      65642063 
 2210      68617200 
 2211              	.LASF11:
 2212 0170 6C6F6E67 		.ascii	"long long unsigned int\000"
 2212      206C6F6E 
 2212      6720756E 
 2212      7369676E 
 2212      65642069 
 2213              	.LASF83:
 2214 0187 433A5C43 		.ascii	"C:\\ChibiStudio\\chibios\\demos\\ARMCM4-STM32F401RE"
 2214      68696269 
 2214      53747564 
 2214      696F5C63 
 2214      68696269 
 2215 01b6 2D4E5543 		.ascii	"-NUCLEO-CC3K\000"
 2215      4C454F2D 
 2215      4343334B 
 2215      00
 2216              	.LASF56:
 2217 01c3 6F747970 		.ascii	"otyper\000"
 2217      657200
 2218              	.LASF18:
 2219 01ca 41484232 		.ascii	"AHB2RSTR\000"
 2219      52535452 
 2219      00
 2220              	.LASF5:
 2221 01d3 75696E74 		.ascii	"uint16_t\000"
 2221      31365F74 
 2221      00
 2222              	.LASF9:
 2223 01dc 6C6F6E67 		.ascii	"long unsigned int\000"
 2223      20756E73 
 2223      69676E65 
 2223      6420696E 
 2223      7400
 2224              	.LASF53:
 2225 01ee 41465248 		.ascii	"AFRH\000"
 2225      00
 2226              	.LASF15:
 2227 01f3 504C4C43 		.ascii	"PLLCFGR\000"
 2227      46475200 
 2228              	.LASF52:
 2229 01fb 4146524C 		.ascii	"AFRL\000"
 2229      00
 2230              	.LASF4:
 2231 0200 73686F72 		.ascii	"short unsigned int\000"
 2231      7420756E 
 2231      7369676E 
 2231      65642069 
 2231      6E7400
 2232              	.LASF35:
 2233 0213 41504231 		.ascii	"APB1LPENR\000"
 2233      4C50454E 
 2233      5200
 2234              	.LASF14:
 2235 021d 63686172 		.ascii	"char\000"
 2235      00
ARM GAS  C:\Users\Vergil\AppData\Local\Temp\ccxsndqP.s 			page 42


 2236              	.LASF82:
 2237 0222 2E2E2F2E 		.ascii	"../../os/hal/platforms/STM32/GPIOv2/pal_lld.c\000"
 2237      2E2F6F73 
 2237      2F68616C 
 2237      2F706C61 
 2237      74666F72 
 2238              	.LASF6:
 2239 0250 696E7433 		.ascii	"int32_t\000"
 2239      325F7400 
 2240              	.LASF68:
 2241 0258 50414C43 		.ascii	"PALConfig\000"
 2241      6F6E6669 
 2241      6700
 2242              	.LASF12:
 2243 0262 5F426F6F 		.ascii	"_Bool\000"
 2243      6C00
 2244              	.LASF78:
 2245 0268 6D6F6465 		.ascii	"mode\000"
 2245      00
 2246              	.LASF32:
 2247 026d 41484232 		.ascii	"AHB2LPENR\000"
 2247      4C50454E 
 2247      5200
 2248              	.LASF76:
 2249 0277 706F7274 		.ascii	"port\000"
 2249      00
 2250              	.LASF66:
 2251 027c 50454461 		.ascii	"PEData\000"
 2251      746100
 2252              	.LASF20:
 2253 0283 52455345 		.ascii	"RESERVED0\000"
 2253      52564544 
 2253      3000
 2254              	.LASF23:
 2255 028d 52455345 		.ascii	"RESERVED1\000"
 2255      52564544 
 2255      3100
 2256              	.LASF27:
 2257 0297 52455345 		.ascii	"RESERVED2\000"
 2257      52564544 
 2257      3200
 2258              	.LASF30:
 2259 02a1 52455345 		.ascii	"RESERVED3\000"
 2259      52564544 
 2259      3300
 2260              	.LASF34:
 2261 02ab 52455345 		.ascii	"RESERVED4\000"
 2261      52564544 
 2261      3400
 2262              	.LASF37:
 2263 02b5 52455345 		.ascii	"RESERVED5\000"
 2263      52564544 
 2263      3500
 2264              	.LASF39:
 2265 02bf 52455345 		.ascii	"RESERVED6\000"
 2265      52564544 
 2265      3600
ARM GAS  C:\Users\Vergil\AppData\Local\Temp\ccxsndqP.s 			page 43


 2266              	.LASF67:
 2267 02c9 50484461 		.ascii	"PHData\000"
 2267      746100
 2268              	.LASF24:
 2269 02d0 41484231 		.ascii	"AHB1ENR\000"
 2269      454E5200 
 2270              	.LASF81:
 2271 02d8 474E5520 		.ascii	"GNU C 4.7.4 20140401 (release) [ARM/embedded-4_7-br"
 2271      4320342E 
 2271      372E3420 
 2271      32303134 
 2271      30343031 
 2272 030b 616E6368 		.ascii	"anch revision 209195]\000"
 2272      20726576 
 2272      6973696F 
 2272      6E203230 
 2272      39313935 
 2273              	.LASF77:
 2274 0321 6D61736B 		.ascii	"mask\000"
 2274      00
 2275              	.LASF58:
 2276 0326 70757064 		.ascii	"pupdr\000"
 2276      7200
 2277              	.LASF60:
 2278 032c 61667268 		.ascii	"afrh\000"
 2278      00
 2279              	.LASF59:
 2280 0331 6166726C 		.ascii	"afrl\000"
 2280      00
 2281              	.LASF55:
 2282 0336 6D6F6465 		.ascii	"moder\000"
 2282      7200
 2283              	.LASF17:
 2284 033c 41484231 		.ascii	"AHB1RSTR\000"
 2284      52535452 
 2284      00
 2285              	.LASF54:
 2286 0345 4750494F 		.ascii	"GPIO_TypeDef\000"
 2286      5F547970 
 2286      65446566 
 2286      00
 2287              	.LASF19:
 2288 0352 41484233 		.ascii	"AHB3RSTR\000"
 2288      52535452 
 2288      00
 2289              	.LASF79:
 2290 035b 616C7472 		.ascii	"altr\000"
 2290      00
 2291              	.LASF85:
 2292 0360 49544D5F 		.ascii	"ITM_RxBuffer\000"
 2292      52784275 
 2292      66666572 
 2292      00
 2293              	.LASF80:
 2294 036d 616C7472 		.ascii	"altrmask\000"
 2294      6D61736B 
 2294      00
ARM GAS  C:\Users\Vergil\AppData\Local\Temp\ccxsndqP.s 			page 44


 2295              	.LASF0:
 2296 0376 756E7369 		.ascii	"unsigned int\000"
 2296      676E6564 
 2296      20696E74 
 2296      00
 2297              	.LASF16:
 2298 0383 43464752 		.ascii	"CFGR\000"
 2298      00
 2299              	.LASF42:
 2300 0388 504C4C53 		.ascii	"PLLSAICFGR\000"
 2300      41494346 
 2300      475200
 2301              	.LASF51:
 2302 0393 4C434B52 		.ascii	"LCKR\000"
 2302      00
 2303              	.LASF36:
 2304 0398 41504232 		.ascii	"APB2LPENR\000"
 2304      4C50454E 
 2304      5200
 2305              	.LASF50:
 2306 03a2 42535252 		.ascii	"BSRR\000"
 2306      00
 2307              		.ident	"GCC: (GNU Tools for ARM Embedded Processors) 4.7.4 20140401 (release) [ARM/embedded-4_7-br
ARM GAS  C:\Users\Vergil\AppData\Local\Temp\ccxsndqP.s 			page 45


DEFINED SYMBOLS
                            *ABS*:00000000 pal_lld.c
C:\Users\Vergil\AppData\Local\Temp\ccxsndqP.s:21     .text._pal_lld_init:00000000 $t
C:\Users\Vergil\AppData\Local\Temp\ccxsndqP.s:27     .text._pal_lld_init:00000000 _pal_lld_init
C:\Users\Vergil\AppData\Local\Temp\ccxsndqP.s:266    .text._pal_lld_setgroupmode:00000000 $t
C:\Users\Vergil\AppData\Local\Temp\ccxsndqP.s:272    .text._pal_lld_setgroupmode:00000000 _pal_lld_setgroupmode
                     .debug_frame:00000010 $d

NO UNDEFINED SYMBOLS
