ARM GAS  C:\Users\Vergil\AppData\Local\Temp\ccxsndqP.s 			page 1


   1              		.syntax unified
   2              		.cpu cortex-m4
   3              		.eabi_attribute 27, 3
   4              		.eabi_attribute 28, 1
   5              		.fpu fpv4-sp-d16
   6              		.eabi_attribute 20, 1
   7              		.eabi_attribute 21, 1
   8              		.eabi_attribute 23, 3
   9              		.eabi_attribute 24, 1
  10              		.eabi_attribute 25, 1
  11              		.eabi_attribute 26, 1
  12              		.eabi_attribute 30, 2
  13              		.eabi_attribute 34, 1
  14              		.eabi_attribute 18, 4
  15              		.thumb
  16              		.file	"pal_lld.c"
  17              		.text
  18              	.Ltext0:
  19              		.cfi_sections	.debug_frame
  20              		.section	.text._pal_lld_init,"ax",%progbits
  21              		.align	2
  22              		.p2align 4,,15
  23              		.global	_pal_lld_init
  24              		.thumb
  25              		.thumb_func
  26              		.type	_pal_lld_init, %function
  27              	_pal_lld_init:
  28              	.LFB119:
  29              		.file 1 "../../os/hal/platforms/STM32/GPIOv2/pal_lld.c"
  30              		.loc 1 113 0
  31              		.cfi_startproc
  32              		@ args = 0, pretend = 0, frame = 0
  33              		@ frame_needed = 0, uses_anonymous_args = 0
  34              		@ link register save eliminated.
  35              	.LVL0:
  36              		.loc 1 126 0
  37 0000 4FF46053 		mov	r3, #14336
  38 0004 C4F20203 		movt	r3, 16386
  39 0008 1A6B     		ldr	r2, [r3, #48]
  40 000a 6FEA5221 		mvn	r1, r2, lsr #9
  41 000e 6FEA4122 		mvn	r2, r1, lsl #9
  42 0012 1A63     		str	r2, [r3, #48]
  43              		.loc 1 127 0
  44 0014 196D     		ldr	r1, [r3, #80]
  45 0016 6FEA5122 		mvn	r2, r1, lsr #9
  46 001a 6FEA4221 		mvn	r1, r2, lsl #9
  47 001e 1965     		str	r1, [r3, #80]
  48              	.LVL1:
  49              	.LBB14:
  50              	.LBB15:
  51              		.loc 1 88 0
  52 0020 0022     		movs	r2, #0
  53 0022 4168     		ldr	r1, [r0, #4]
  54 0024 C4F20202 		movt	r2, 16386
  55              	.LBE15:
  56              	.LBE14:
  57              	.LBB17:
ARM GAS  C:\Users\Vergil\AppData\Local\Temp\ccxsndqP.s 			page 2


  58              	.LBB18:
  59 0028 4FF48063 		mov	r3, #1024
  60              	.LBE18:
  61              	.LBE17:
  62              	.LBB21:
  63              	.LBB16:
  64 002c 5160     		str	r1, [r2, #4]
  65              		.loc 1 89 0
  66 002e 8168     		ldr	r1, [r0, #8]
  67 0030 9160     		str	r1, [r2, #8]
  68              		.loc 1 90 0
  69 0032 C168     		ldr	r1, [r0, #12]
  70 0034 D160     		str	r1, [r2, #12]
  71              		.loc 1 91 0
  72 0036 0169     		ldr	r1, [r0, #16]
  73 0038 5161     		str	r1, [r2, #20]
  74              		.loc 1 92 0
  75 003a 4169     		ldr	r1, [r0, #20]
  76 003c 1162     		str	r1, [r2, #32]
  77              		.loc 1 93 0
  78 003e 8169     		ldr	r1, [r0, #24]
  79 0040 5162     		str	r1, [r2, #36]
  80              		.loc 1 94 0
  81 0042 0168     		ldr	r1, [r0, #0]
  82 0044 1160     		str	r1, [r2, #0]
  83              	.LVL2:
  84              	.LBE16:
  85              	.LBE21:
  86              	.LBB22:
  87              	.LBB19:
  88              		.loc 1 88 0
  89 0046 016A     		ldr	r1, [r0, #32]
  90 0048 C4F20203 		movt	r3, 16386
  91              	.LBE19:
  92              	.LBE22:
  93              	.LBB23:
  94              	.LBB24:
  95 004c 4FF40062 		mov	r2, #2048
  96              	.LBE24:
  97              	.LBE23:
  98              	.LBB27:
  99              	.LBB20:
 100 0050 5960     		str	r1, [r3, #4]
 101              		.loc 1 89 0
 102 0052 416A     		ldr	r1, [r0, #36]
 103 0054 9960     		str	r1, [r3, #8]
 104              		.loc 1 90 0
 105 0056 816A     		ldr	r1, [r0, #40]
 106 0058 D960     		str	r1, [r3, #12]
 107              		.loc 1 91 0
 108 005a C16A     		ldr	r1, [r0, #44]
 109 005c 5961     		str	r1, [r3, #20]
 110              		.loc 1 92 0
 111 005e 016B     		ldr	r1, [r0, #48]
 112 0060 1962     		str	r1, [r3, #32]
 113              		.loc 1 93 0
 114 0062 416B     		ldr	r1, [r0, #52]
ARM GAS  C:\Users\Vergil\AppData\Local\Temp\ccxsndqP.s 			page 3


 115 0064 5962     		str	r1, [r3, #36]
 116              		.loc 1 94 0
 117 0066 C169     		ldr	r1, [r0, #28]
 118 0068 1960     		str	r1, [r3, #0]
 119              	.LVL3:
 120              	.LBE20:
 121              	.LBE27:
 122              	.LBB28:
 123              	.LBB25:
 124              		.loc 1 88 0
 125 006a C4F20202 		movt	r2, 16386
 126 006e C36B     		ldr	r3, [r0, #60]
 127 0070 5360     		str	r3, [r2, #4]
 128              		.loc 1 89 0
 129 0072 016C     		ldr	r1, [r0, #64]
 130 0074 9160     		str	r1, [r2, #8]
 131              		.loc 1 90 0
 132 0076 436C     		ldr	r3, [r0, #68]
 133 0078 D360     		str	r3, [r2, #12]
 134              		.loc 1 91 0
 135 007a 816C     		ldr	r1, [r0, #72]
 136 007c 5161     		str	r1, [r2, #20]
 137              		.loc 1 92 0
 138 007e C36C     		ldr	r3, [r0, #76]
 139 0080 1362     		str	r3, [r2, #32]
 140              		.loc 1 93 0
 141 0082 016D     		ldr	r1, [r0, #80]
 142 0084 5162     		str	r1, [r2, #36]
 143              		.loc 1 94 0
 144 0086 816B     		ldr	r1, [r0, #56]
 145              	.LBE25:
 146              	.LBE28:
 147              	.LBB29:
 148              	.LBB30:
 149              		.loc 1 88 0
 150 0088 4FF44063 		mov	r3, #3072
 151              	.LBE30:
 152              	.LBE29:
 153              	.LBB33:
 154              	.LBB26:
 155              		.loc 1 94 0
 156 008c 1160     		str	r1, [r2, #0]
 157              	.LVL4:
 158              	.LBE26:
 159              	.LBE33:
 160              	.LBB34:
 161              	.LBB31:
 162              		.loc 1 88 0
 163 008e 816D     		ldr	r1, [r0, #88]
 164 0090 C4F20203 		movt	r3, 16386
 165              	.LBE31:
 166              	.LBE34:
 167              	.LBB35:
 168              	.LBB36:
 169 0094 4FF48052 		mov	r2, #4096
 170              	.LBE36:
 171              	.LBE35:
ARM GAS  C:\Users\Vergil\AppData\Local\Temp\ccxsndqP.s 			page 4


 172              	.LBB39:
 173              	.LBB32:
 174 0098 5960     		str	r1, [r3, #4]
 175              		.loc 1 89 0
 176 009a C16D     		ldr	r1, [r0, #92]
 177 009c 9960     		str	r1, [r3, #8]
 178              		.loc 1 90 0
 179 009e 016E     		ldr	r1, [r0, #96]
 180 00a0 D960     		str	r1, [r3, #12]
 181              		.loc 1 91 0
 182 00a2 416E     		ldr	r1, [r0, #100]
 183 00a4 5961     		str	r1, [r3, #20]
 184              		.loc 1 92 0
 185 00a6 816E     		ldr	r1, [r0, #104]
 186 00a8 1962     		str	r1, [r3, #32]
 187              		.loc 1 93 0
 188 00aa C16E     		ldr	r1, [r0, #108]
 189 00ac 5962     		str	r1, [r3, #36]
 190              		.loc 1 94 0
 191 00ae 416D     		ldr	r1, [r0, #84]
 192 00b0 1960     		str	r1, [r3, #0]
 193              	.LVL5:
 194              	.LBE32:
 195              	.LBE39:
 196              	.LBB40:
 197              	.LBB37:
 198              		.loc 1 88 0
 199 00b2 C4F20202 		movt	r2, 16386
 200 00b6 436F     		ldr	r3, [r0, #116]
 201 00b8 5360     		str	r3, [r2, #4]
 202              		.loc 1 89 0
 203 00ba 816F     		ldr	r1, [r0, #120]
 204 00bc 9160     		str	r1, [r2, #8]
 205              		.loc 1 90 0
 206 00be C36F     		ldr	r3, [r0, #124]
 207 00c0 D360     		str	r3, [r2, #12]
 208              		.loc 1 91 0
 209 00c2 D0F88010 		ldr	r1, [r0, #128]
 210 00c6 5161     		str	r1, [r2, #20]
 211              		.loc 1 92 0
 212 00c8 D0F88430 		ldr	r3, [r0, #132]
 213 00cc 1362     		str	r3, [r2, #32]
 214              		.loc 1 93 0
 215 00ce D0F88810 		ldr	r1, [r0, #136]
 216 00d2 5162     		str	r1, [r2, #36]
 217              		.loc 1 94 0
 218 00d4 016F     		ldr	r1, [r0, #112]
 219              	.LBE37:
 220              	.LBE40:
 221              	.LBB41:
 222              	.LBB42:
 223              		.loc 1 88 0
 224 00d6 4FF4E053 		mov	r3, #7168
 225              	.LBE42:
 226              	.LBE41:
 227              	.LBB44:
 228              	.LBB38:
ARM GAS  C:\Users\Vergil\AppData\Local\Temp\ccxsndqP.s 			page 5


 229              		.loc 1 94 0
 230 00da 1160     		str	r1, [r2, #0]
 231              	.LVL6:
 232              	.LBE38:
 233              	.LBE44:
 234              	.LBB45:
 235              	.LBB43:
 236              		.loc 1 88 0
 237 00dc D0F89020 		ldr	r2, [r0, #144]
 238 00e0 C4F20203 		movt	r3, 16386
 239 00e4 5A60     		str	r2, [r3, #4]
 240              		.loc 1 89 0
 241 00e6 D0F89410 		ldr	r1, [r0, #148]
 242 00ea 9960     		str	r1, [r3, #8]
 243              		.loc 1 90 0
 244 00ec D0F89820 		ldr	r2, [r0, #152]
 245 00f0 DA60     		str	r2, [r3, #12]
 246              		.loc 1 91 0
 247 00f2 D0F89C10 		ldr	r1, [r0, #156]
 248 00f6 5961     		str	r1, [r3, #20]
 249              		.loc 1 92 0
 250 00f8 D0F8A020 		ldr	r2, [r0, #160]
 251 00fc 1A62     		str	r2, [r3, #32]
 252              		.loc 1 93 0
 253 00fe D0F8A410 		ldr	r1, [r0, #164]
 254 0102 5962     		str	r1, [r3, #36]
 255              		.loc 1 94 0
 256 0104 D0F88C00 		ldr	r0, [r0, #140]
 257              	.LVL7:
 258 0108 1860     		str	r0, [r3, #0]
 259 010a 7047     		bx	lr
 260              	.LBE43:
 261              	.LBE45:
 262              		.cfi_endproc
 263              	.LFE119:
 264              		.size	_pal_lld_init, .-_pal_lld_init
 265 010c AFF30080 		.section	.text._pal_lld_setgroupmode,"ax",%progbits
 266              		.align	2
 267              		.p2align 4,,15
 268              		.global	_pal_lld_setgroupmode
 269              		.thumb
 270              		.thumb_func
 271              		.type	_pal_lld_setgroupmode, %function
 272              	_pal_lld_setgroupmode:
 273              	.LFB120:
 274              		.loc 1 178 0
 275              		.cfi_startproc
 276              		@ args = 0, pretend = 0, frame = 0
 277              		@ frame_needed = 0, uses_anonymous_args = 0
 278              		@ link register save eliminated.
 279              	.LVL8:
 280 0000 2DE9F00F 		push	{r4, r5, r6, r7, r8, r9, sl, fp}
 281              	.LCFI0:
 282              		.cfi_def_cfa_offset 32
 283              		.cfi_offset 4, -32
 284              		.cfi_offset 5, -28
 285              		.cfi_offset 6, -24
ARM GAS  C:\Users\Vergil\AppData\Local\Temp\ccxsndqP.s 			page 6


 286              		.cfi_offset 7, -20
 287              		.cfi_offset 8, -16
 288              		.cfi_offset 9, -12
 289              		.cfi_offset 10, -8
 290              		.cfi_offset 11, -4
 291              		.loc 1 185 0
 292 0004 0023     		movs	r3, #0
 293              		.loc 1 180 0
 294 0006 02F00307 		and	r7, r2, #3
 295              	.LVL9:
 296              		.loc 1 181 0
 297 000a C2F38006 		ubfx	r6, r2, #2, #1
 298              	.LVL10:
 299              		.loc 1 182 0
 300 000e C2F3C105 		ubfx	r5, r2, #3, #2
 301              	.LVL11:
 302              		.loc 1 183 0
 303 0012 C2F34114 		ubfx	r4, r2, #5, #2
 304              	.LVL12:
 305              	.LBB46:
 306              		.loc 1 191 0
 307 0016 4FF00F09 		mov	r9, #15
 308              	.LBE46:
 309              		.loc 1 184 0
 310 001a C2F3C312 		ubfx	r2, r2, #7, #4
 311              	.LVL13:
 312              	.LBB47:
 313              		.loc 1 196 0
 314 001e 4FF0010A 		mov	sl, #1
 315 0022 38E0     		b	.L7
 316              	.LVL14:
 317              	.L12:
 318              		.loc 1 193 0
 319 0024 D0F820B0 		ldr	fp, [r0, #32]
 320 0028 2BEA0C0C 		bic	ip, fp, ip
 321              	.LVL15:
 322 002c 4CEA0808 		orr	r8, ip, r8
 323              	.LVL16:
 324 0030 C0F82080 		str	r8, [r0, #32]
 325              	.L5:
 326              	.LVL17:
 327              		.loc 1 197 0
 328 0034 D0F804B0 		ldr	fp, [r0, #4]
 329              		.loc 1 196 0
 330 0038 0AFA03FC 		lsl	ip, sl, r3
 331              		.loc 1 197 0
 332 003c 2BEA0C08 		bic	r8, fp, ip
 333 0040 48EA060B 		orr	fp, r8, r6
 334 0044 C0F804B0 		str	fp, [r0, #4]
 335              	.LVL18:
 336              		.loc 1 176 0
 337 0048 4FEA430C 		lsl	ip, r3, #1
 338              		.loc 1 198 0
 339 004c 4FF0030B 		mov	fp, #3
 340              		.loc 1 199 0
 341 0050 D0F80880 		ldr	r8, [r0, #8]
 342              		.loc 1 198 0
ARM GAS  C:\Users\Vergil\AppData\Local\Temp\ccxsndqP.s 			page 7


 343 0054 0BFA0CFC 		lsl	ip, fp, ip
 344              	.LVL19:
 345              		.loc 1 199 0
 346 0058 6FEA0C0C 		mvn	ip, ip
 347              	.LVL20:
 348 005c 0CEA0808 		and	r8, ip, r8
 349 0060 48EA0508 		orr	r8, r8, r5
 350 0064 C0F80880 		str	r8, [r0, #8]
 351              		.loc 1 200 0
 352 0068 D0F80C80 		ldr	r8, [r0, #12]
 353 006c 0CEA0808 		and	r8, ip, r8
 354 0070 48EA0408 		orr	r8, r8, r4
 355 0074 C0F80C80 		str	r8, [r0, #12]
 356              		.loc 1 201 0
 357 0078 D0F80080 		ldr	r8, [r0, #0]
 358 007c 0CEA080C 		and	ip, ip, r8
 359              	.LVL21:
 360 0080 4CEA070C 		orr	ip, ip, r7
 361 0084 C0F800C0 		str	ip, [r0, #0]
 362              	.LVL22:
 363              	.L3:
 364              	.LBE47:
 365              		.loc 1 204 0
 366 0088 4908     		lsrs	r1, r1, #1
 367              	.LVL23:
 368 008a 1AD0     		beq	.L2
 369              		.loc 1 206 0
 370 008c 7600     		lsls	r6, r6, #1
 371              	.LVL24:
 372              		.loc 1 207 0
 373 008e AD00     		lsls	r5, r5, #2
 374              	.LVL25:
 375              		.loc 1 208 0
 376 0090 A400     		lsls	r4, r4, #2
 377              	.LVL26:
 378              		.loc 1 209 0
 379 0092 BF00     		lsls	r7, r7, #2
 380              	.LVL27:
 381              		.loc 1 210 0
 382 0094 0133     		adds	r3, r3, #1
 383              	.LVL28:
 384              	.L7:
 385              	.LBB48:
 386              		.loc 1 190 0
 387 0096 03F0070C 		and	ip, r3, #7
 388 009a 4FEA8C0C 		lsl	ip, ip, #2
 389              	.LBE48:
 390              		.loc 1 187 0
 391 009e 11F0010F 		tst	r1, #1
 392              	.LBB49:
 393              		.loc 1 190 0
 394 00a2 02FA0CF8 		lsl	r8, r2, ip
 395              	.LVL29:
 396              		.loc 1 191 0
 397 00a6 09FA0CFC 		lsl	ip, r9, ip
 398              	.LVL30:
 399              	.LBE49:
ARM GAS  C:\Users\Vergil\AppData\Local\Temp\ccxsndqP.s 			page 8


 400              		.loc 1 187 0
 401 00aa EDD0     		beq	.L3
 402              	.LBB50:
 403              		.loc 1 192 0
 404 00ac 072B     		cmp	r3, #7
 405 00ae B9D9     		bls	.L12
 406              		.loc 1 195 0
 407 00b0 D0F824B0 		ldr	fp, [r0, #36]
 408 00b4 2BEA0C0C 		bic	ip, fp, ip
 409              	.LVL31:
 410 00b8 4CEA0808 		orr	r8, ip, r8
 411              	.LVL32:
 412 00bc C0F82480 		str	r8, [r0, #36]
 413 00c0 B8E7     		b	.L5
 414              	.L2:
 415              	.LBE50:
 416              		.loc 1 212 0
 417 00c2 BDE8F00F 		pop	{r4, r5, r6, r7, r8, r9, sl, fp}
 418 00c6 7047     		bx	lr
 419              		.cfi_endproc
 420              	.LFE120:
 421              		.size	_pal_lld_setgroupmode, .-_pal_lld_setgroupmode
 422 00c8 AFF30080 		.text
 422      AFF30080 
 423              	.Letext0:
 424              		.file 2 "c:\\chibistudio\\tools\\gnu tools arm embedded\\4.7 2014q2\\bin\\../lib/gcc/arm-none-eabi
 425              		.file 3 "../../os/hal/platforms/STM32F4xx/stm32f4xx.h"
 426              		.file 4 "../../os/hal/platforms/STM32/GPIOv2/pal_lld.h"
 427              		.file 5 "../../os/ports/common/ARMCMx/CMSIS/include/core_cm4.h"