ARM GAS  C:\Users\Vergil\AppData\Local\Temp\ccl0Rg49.s 			page 1


   1              		.syntax unified
   2              		.cpu cortex-m4
   3              		.eabi_attribute 27, 3
   4              		.eabi_attribute 28, 1
   5              		.fpu fpv4-sp-d16
   6              		.eabi_attribute 20, 1
   7              		.eabi_attribute 21, 1
   8              		.eabi_attribute 23, 3
   9              		.eabi_attribute 24, 1
  10              		.eabi_attribute 25, 1
  11              		.eabi_attribute 26, 1
  12              		.eabi_attribute 30, 2
  13              		.eabi_attribute 34, 1
  14              		.eabi_attribute 18, 4
  15              		.thumb
  16              		.file	"security.c"
  17              		.text
  18              	.Ltext0:
  19              		.cfi_sections	.debug_frame
  20              		.section	.text.expandKey,"ax",%progbits
  21              		.align	2
  22              		.p2align 4,,15
  23              		.global	expandKey
  24              		.thumb
  25              		.thumb_func
  26              		.type	expandKey, %function
  27              	expandKey:
  28              	.LFB0:
  29              		.file 1 "C:\\Users\\Vergil\\ChibiOS_CC3000_SPI/CC3000HostDriver/security.c"
  30              		.loc 1 104 0
  31              		.cfi_startproc
  32              		@ args = 0, pretend = 0, frame = 56
  33              		@ frame_needed = 0, uses_anonymous_args = 0
  34              		@ link register save eliminated.
  35              	.LVL0:
  36 0000 2DE9F00F 		push	{r4, r5, r6, r7, r8, r9, sl, fp}
  37              	.LCFI0:
  38              		.cfi_def_cfa_offset 32
  39              		.cfi_offset 4, -32
  40              		.cfi_offset 5, -28
  41              		.cfi_offset 6, -24
  42              		.cfi_offset 7, -20
  43              		.cfi_offset 8, -16
  44              		.cfi_offset 9, -12
  45              		.cfi_offset 10, -8
  46              		.cfi_offset 11, -4
  47              		.loc 1 107 0
  48 0004 0B78     		ldrb	r3, [r1, #0]	@ zero_extendqisi2
  49 0006 594A     		ldr	r2, .L5
  50 0008 0370     		strb	r3, [r0, #0]
  51              	.LVL1:
  52 000a 4C78     		ldrb	r4, [r1, #1]	@ zero_extendqisi2
  53 000c 4470     		strb	r4, [r0, #1]
  54              	.LVL2:
  55 000e 8D78     		ldrb	r5, [r1, #2]	@ zero_extendqisi2
  56 0010 8570     		strb	r5, [r0, #2]
  57              	.LVL3:
ARM GAS  C:\Users\Vergil\AppData\Local\Temp\ccl0Rg49.s 			page 2


  58 0012 CE78     		ldrb	r6, [r1, #3]	@ zero_extendqisi2
  59 0014 C670     		strb	r6, [r0, #3]
  60              	.LVL4:
  61 0016 0F79     		ldrb	r7, [r1, #4]	@ zero_extendqisi2
  62 0018 0771     		strb	r7, [r0, #4]
  63              	.LVL5:
  64 001a 4B79     		ldrb	r3, [r1, #5]	@ zero_extendqisi2
  65              		.loc 1 104 0
  66 001c 8EB0     		sub	sp, sp, #56
  67              	.LCFI1:
  68              		.cfi_def_cfa_offset 88
  69              		.loc 1 107 0
  70 001e 4371     		strb	r3, [r0, #5]
  71              	.LVL6:
  72 0020 0892     		str	r2, [sp, #32]
  73 0022 8A79     		ldrb	r2, [r1, #6]	@ zero_extendqisi2
  74 0024 8271     		strb	r2, [r0, #6]
  75              	.LVL7:
  76 0026 CC79     		ldrb	r4, [r1, #7]	@ zero_extendqisi2
  77 0028 C471     		strb	r4, [r0, #7]
  78              	.LVL8:
  79 002a 0D7A     		ldrb	r5, [r1, #8]	@ zero_extendqisi2
  80 002c 0572     		strb	r5, [r0, #8]
  81              	.LVL9:
  82 002e 4E7A     		ldrb	r6, [r1, #9]	@ zero_extendqisi2
  83 0030 4672     		strb	r6, [r0, #9]
  84              	.LVL10:
  85 0032 8F7A     		ldrb	r7, [r1, #10]	@ zero_extendqisi2
  86 0034 8772     		strb	r7, [r0, #10]
  87              	.LVL11:
  88 0036 CB7A     		ldrb	r3, [r1, #11]	@ zero_extendqisi2
  89 0038 C372     		strb	r3, [r0, #11]
  90              	.LVL12:
  91 003a 0A7B     		ldrb	r2, [r1, #12]	@ zero_extendqisi2
  92 003c 0273     		strb	r2, [r0, #12]
  93              	.LVL13:
  94 003e 4C7B     		ldrb	r4, [r1, #13]	@ zero_extendqisi2
  95 0040 4473     		strb	r4, [r0, #13]
  96              	.LVL14:
  97 0042 8D7B     		ldrb	r5, [r1, #14]	@ zero_extendqisi2
  98 0044 8573     		strb	r5, [r0, #14]
  99              	.LVL15:
 100 0046 C97B     		ldrb	r1, [r1, #15]	@ zero_extendqisi2
 101              	.LVL16:
 102 0048 0446     		mov	r4, r0
 103 004a C173     		strb	r1, [r0, #15]
 104              	.LVL17:
 105 004c 4FF0010B 		mov	fp, #1
 106              	.LVL18:
 107              	.L2:
 108              		.loc 1 111 0 discriminator 2
 109 0050 A67B     		ldrb	r6, [r4, #14]	@ zero_extendqisi2
 110              		.loc 1 112 0 discriminator 2
 111 0052 E77B     		ldrb	r7, [r4, #15]	@ zero_extendqisi2
 112              		.loc 1 111 0 discriminator 2
 113 0054 0596     		str	r6, [sp, #20]
 114 0056 40F20001 		movw	r1, #:lower16:.LANCHOR1
ARM GAS  C:\Users\Vergil\AppData\Local\Temp\ccl0Rg49.s 			page 3


 115              		.loc 1 110 0 discriminator 2
 116 005a 637B     		ldrb	r3, [r4, #13]	@ zero_extendqisi2
 117 005c 089A     		ldr	r2, [sp, #32]
 118              		.loc 1 111 0 discriminator 2
 119 005e 059E     		ldr	r6, [sp, #20]
 120              		.loc 1 109 0 discriminator 2
 121 0060 207B     		ldrb	r0, [r4, #12]	@ zero_extendqisi2
 122              		.loc 1 112 0 discriminator 2
 123 0062 0797     		str	r7, [sp, #28]
 124              		.loc 1 111 0 discriminator 2
 125 0064 C0F20001 		movt	r1, #:upper16:.LANCHOR1
 126              		.loc 1 110 0 discriminator 2
 127 0068 12F8017F 		ldrb	r7, [r2, #1]!	@ zero_extendqisi2
 128 006c 0493     		str	r3, [sp, #16]
 129              		.loc 1 111 0 discriminator 2
 130 006e 8B5D     		ldrb	r3, [r1, r6]	@ zero_extendqisi2
 131              		.loc 1 109 0 discriminator 2
 132 0070 0390     		str	r0, [sp, #12]
 133              	.LVL19:
 134              		.loc 1 113 0 discriminator 2
 135 0072 039E     		ldr	r6, [sp, #12]
 136              		.loc 1 110 0 discriminator 2
 137 0074 0892     		str	r2, [sp, #32]
 138              		.loc 1 111 0 discriminator 2
 139 0076 0693     		str	r3, [sp, #24]
 140              		.loc 1 112 0 discriminator 2
 141 0078 079A     		ldr	r2, [sp, #28]
 142              		.loc 1 110 0 discriminator 2
 143 007a 049B     		ldr	r3, [sp, #16]
 144              		.loc 1 112 0 discriminator 2
 145 007c 11F80290 		ldrb	r9, [r1, r2]	@ zero_extendqisi2
 146              		.loc 1 113 0 discriminator 2
 147 0080 11F806C0 		ldrb	ip, [r1, r6]	@ zero_extendqisi2
 148              		.loc 1 110 0 discriminator 2
 149 0084 C95C     		ldrb	r1, [r1, r3]	@ zero_extendqisi2
 150              		.loc 1 116 0 discriminator 2
 151 0086 A379     		ldrb	r3, [r4, #6]	@ zero_extendqisi2
 152              		.loc 1 110 0 discriminator 2
 153 0088 2078     		ldrb	r0, [r4, #0]	@ zero_extendqisi2
 154              		.loc 1 116 0 discriminator 2
 155 008a 0193     		str	r3, [sp, #4]
 156              		.loc 1 117 0 discriminator 2
 157 008c E379     		ldrb	r3, [r4, #7]	@ zero_extendqisi2
 158              		.loc 1 112 0 discriminator 2
 159 008e 94F80280 		ldrb	r8, [r4, #2]	@ zero_extendqisi2
 160              		.loc 1 117 0 discriminator 2
 161 0092 0993     		str	r3, [sp, #36]
 162              		.loc 1 118 0 discriminator 2
 163 0094 237A     		ldrb	r3, [r4, #8]	@ zero_extendqisi2
 164              		.loc 1 113 0 discriminator 2
 165 0096 E578     		ldrb	r5, [r4, #3]	@ zero_extendqisi2
 166              		.loc 1 118 0 discriminator 2
 167 0098 0A93     		str	r3, [sp, #40]
 168              		.loc 1 119 0 discriminator 2
 169 009a 637A     		ldrb	r3, [r4, #9]	@ zero_extendqisi2
 170              		.loc 1 115 0 discriminator 2
 171 009c 6279     		ldrb	r2, [r4, #5]	@ zero_extendqisi2
ARM GAS  C:\Users\Vergil\AppData\Local\Temp\ccl0Rg49.s 			page 4


 172              		.loc 1 111 0 discriminator 2
 173 009e 94F801A0 		ldrb	sl, [r4, #1]	@ zero_extendqisi2
 174              		.loc 1 114 0 discriminator 2
 175 00a2 2679     		ldrb	r6, [r4, #4]	@ zero_extendqisi2
 176              		.loc 1 119 0 discriminator 2
 177 00a4 0B93     		str	r3, [sp, #44]
 178              		.loc 1 120 0 discriminator 2
 179 00a6 A37A     		ldrb	r3, [r4, #10]	@ zero_extendqisi2
 180 00a8 0C93     		str	r3, [sp, #48]
 181              		.loc 1 121 0 discriminator 2
 182 00aa E37A     		ldrb	r3, [r4, #11]	@ zero_extendqisi2
 183 00ac 0D93     		str	r3, [sp, #52]
 184              		.loc 1 111 0 discriminator 2
 185 00ae 069B     		ldr	r3, [sp, #24]
 186 00b0 83EA0A0A 		eor	sl, r3, sl
 187 00b4 CDF818A0 		str	sl, [sp, #24]
 188              		.loc 1 110 0 discriminator 2
 189 00b8 4740     		eors	r7, r7, r0
 190 00ba 4F40     		eors	r7, r7, r1
 191              		.loc 1 115 0 discriminator 2
 192 00bc 0698     		ldr	r0, [sp, #24]
 193              		.loc 1 110 0 discriminator 2
 194 00be 2774     		strb	r7, [r4, #16]
 195              		.loc 1 114 0 discriminator 2
 196 00c0 7E40     		eors	r6, r6, r7
 197 00c2 0296     		str	r6, [sp, #8]
 198              		.loc 1 115 0 discriminator 2
 199 00c4 C3B2     		uxtb	r3, r0
 200              		.loc 1 112 0 discriminator 2
 201 00c6 89EA080A 		eor	sl, r9, r8
 202              		.loc 1 117 0 discriminator 2
 203 00ca 0998     		ldr	r0, [sp, #36]
 204              		.loc 1 112 0 discriminator 2
 205 00cc 84F812A0 		strb	sl, [r4, #18]
 206              		.loc 1 115 0 discriminator 2
 207 00d0 83EA0208 		eor	r8, r3, r2
 208              		.loc 1 113 0 discriminator 2
 209 00d4 8CEA0509 		eor	r9, ip, r5
 210              		.loc 1 118 0 discriminator 2
 211 00d8 029B     		ldr	r3, [sp, #8]
 212              		.loc 1 116 0 discriminator 2
 213 00da 019A     		ldr	r2, [sp, #4]
 214              		.loc 1 113 0 discriminator 2
 215 00dc 84F81390 		strb	r9, [r4, #19]
 216              		.loc 1 117 0 discriminator 2
 217 00e0 5FFA89F5 		uxtb	r5, r9
 218 00e4 4540     		eors	r5, r5, r0
 219              		.loc 1 118 0 discriminator 2
 220 00e6 D8B2     		uxtb	r0, r3
 221 00e8 0A9B     		ldr	r3, [sp, #40]
 222              		.loc 1 115 0 discriminator 2
 223 00ea 84F81580 		strb	r8, [r4, #21]
 224              		.loc 1 116 0 discriminator 2
 225 00ee 5FFA8AF1 		uxtb	r1, sl
 226              		.loc 1 121 0 discriminator 2
 227 00f2 EEB2     		uxtb	r6, r5
 228              		.loc 1 118 0 discriminator 2
ARM GAS  C:\Users\Vergil\AppData\Local\Temp\ccl0Rg49.s 			page 5


 229 00f4 5840     		eors	r0, r0, r3
 230              		.loc 1 116 0 discriminator 2
 231 00f6 81EA020C 		eor	ip, r1, r2
 232              		.loc 1 121 0 discriminator 2
 233 00fa 0996     		str	r6, [sp, #36]
 234              		.loc 1 120 0 discriminator 2
 235 00fc 0C9B     		ldr	r3, [sp, #48]
 236              		.loc 1 119 0 discriminator 2
 237 00fe 0B9E     		ldr	r6, [sp, #44]
 238 0100 5FFA88F1 		uxtb	r1, r8
 239              		.loc 1 120 0 discriminator 2
 240 0104 5FFA8CF2 		uxtb	r2, ip
 241              		.loc 1 119 0 discriminator 2
 242 0108 7140     		eors	r1, r1, r6
 243              		.loc 1 120 0 discriminator 2
 244 010a 5A40     		eors	r2, r2, r3
 245              		.loc 1 121 0 discriminator 2
 246 010c 0D9E     		ldr	r6, [sp, #52]
 247 010e 099B     		ldr	r3, [sp, #36]
 248 0110 7340     		eors	r3, r3, r6
 249              		.loc 1 122 0 discriminator 2
 250 0112 039E     		ldr	r6, [sp, #12]
 251 0114 4640     		eors	r6, r6, r0
 252 0116 0396     		str	r6, [sp, #12]
 253              		.loc 1 123 0 discriminator 2
 254 0118 049E     		ldr	r6, [sp, #16]
 255 011a 4E40     		eors	r6, r6, r1
 256 011c 0496     		str	r6, [sp, #16]
 257              		.loc 1 124 0 discriminator 2
 258 011e 059E     		ldr	r6, [sp, #20]
 259 0120 5640     		eors	r6, r6, r2
 260 0122 0596     		str	r6, [sp, #20]
 261              		.loc 1 125 0 discriminator 2
 262 0124 079E     		ldr	r6, [sp, #28]
 263 0126 5E40     		eors	r6, r6, r3
 264 0128 0796     		str	r6, [sp, #28]
 265              		.loc 1 111 0 discriminator 2
 266 012a 069E     		ldr	r6, [sp, #24]
 267 012c 6674     		strb	r6, [r4, #17]
 268              		.loc 1 114 0 discriminator 2
 269 012e 029E     		ldr	r6, [sp, #8]
 270              		.loc 1 108 0 discriminator 2
 271 0130 0BF1010B 		add	fp, fp, #1
 272              		.loc 1 114 0 discriminator 2
 273 0134 2675     		strb	r6, [r4, #20]
 274              		.loc 1 116 0 discriminator 2
 275 0136 84F816C0 		strb	ip, [r4, #22]
 276              		.loc 1 118 0 discriminator 2
 277 013a 2076     		strb	r0, [r4, #24]
 278              		.loc 1 119 0 discriminator 2
 279 013c 6176     		strb	r1, [r4, #25]
 280              		.loc 1 120 0 discriminator 2
 281 013e A276     		strb	r2, [r4, #26]
 282              		.loc 1 122 0 discriminator 2
 283 0140 0398     		ldr	r0, [sp, #12]
 284              		.loc 1 123 0 discriminator 2
 285 0142 0499     		ldr	r1, [sp, #16]
ARM GAS  C:\Users\Vergil\AppData\Local\Temp\ccl0Rg49.s 			page 6


 286              		.loc 1 124 0 discriminator 2
 287 0144 059E     		ldr	r6, [sp, #20]
 288              		.loc 1 125 0 discriminator 2
 289 0146 079A     		ldr	r2, [sp, #28]
 290              		.loc 1 117 0 discriminator 2
 291 0148 E575     		strb	r5, [r4, #23]
 292              		.loc 1 108 0 discriminator 2
 293 014a 1FFA8BFB 		uxth	fp, fp
 294              		.loc 1 121 0 discriminator 2
 295 014e E376     		strb	r3, [r4, #27]
 296              		.loc 1 122 0 discriminator 2
 297 0150 2077     		strb	r0, [r4, #28]
 298              	.LVL20:
 299              		.loc 1 123 0 discriminator 2
 300 0152 6177     		strb	r1, [r4, #29]
 301              		.loc 1 124 0 discriminator 2
 302 0154 A677     		strb	r6, [r4, #30]
 303              		.loc 1 125 0 discriminator 2
 304 0156 E277     		strb	r2, [r4, #31]
 305 0158 1034     		adds	r4, r4, #16
 306              		.loc 1 108 0 discriminator 2
 307 015a BBF10B0F 		cmp	fp, #11
 308 015e 7FF477AF 		bne	.L2
 309              		.loc 1 128 0
 310 0162 0EB0     		add	sp, sp, #56
 311 0164 BDE8F00F 		pop	{r4, r5, r6, r7, r8, r9, sl, fp}
 312 0168 7047     		bx	lr
 313              	.L6:
 314 016a 00BF     		.align	2
 315              	.L5:
 316 016c 00000000 		.word	.LANCHOR0
 317              		.cfi_endproc
 318              	.LFE0:
 319              		.size	expandKey, .-expandKey
 320              		.section	.text.galois_mul2,"ax",%progbits
 321              		.align	2
 322              		.p2align 4,,15
 323              		.global	galois_mul2
 324              		.thumb
 325              		.thumb_func
 326              		.type	galois_mul2, %function
 327              	galois_mul2:
 328              	.LFB1:
 329              		.loc 1 143 0
 330              		.cfi_startproc
 331              		@ args = 0, pretend = 0, frame = 0
 332              		@ frame_needed = 0, uses_anonymous_args = 0
 333              		@ link register save eliminated.
 334              	.LVL21:
 335              		.loc 1 144 0
 336 0000 10F0800F 		tst	r0, #128
 337              		.loc 1 146 0
 338 0004 4FEA4000 		lsl	r0, r0, #1
 339              	.LVL22:
 340              		.loc 1 147 0
 341 0008 18BF     		it	ne
 342 000a 80F01B00 		eorne	r0, r0, #27
ARM GAS  C:\Users\Vergil\AppData\Local\Temp\ccl0Rg49.s 			page 7


 343              	.LVL23:
 344              		.loc 1 149 0
 345 000e C0B2     		uxtb	r0, r0
 346              		.loc 1 150 0
 347 0010 7047     		bx	lr
 348              		.cfi_endproc
 349              	.LFE1:
 350              		.size	galois_mul2, .-galois_mul2
 351 0012 00BFAFF3 		.section	.text.aes_encr,"ax",%progbits
 351      0080AFF3 
 351      0080AFF3 
 351      0080
 352              		.align	2
 353              		.p2align 4,,15
 354              		.global	aes_encr
 355              		.thumb
 356              		.thumb_func
 357              		.type	aes_encr, %function
 358              	aes_encr:
 359              	.LFB2:
 360              		.loc 1 177 0
 361              		.cfi_startproc
 362              		@ args = 0, pretend = 0, frame = 72
 363              		@ frame_needed = 0, uses_anonymous_args = 0
 364              		@ link register save eliminated.
 365              	.LVL24:
 366 0000 2DE9F00F 		push	{r4, r5, r6, r7, r8, r9, sl, fp}
 367              	.LCFI2:
 368              		.cfi_def_cfa_offset 32
 369              		.cfi_offset 4, -32
 370              		.cfi_offset 5, -28
 371              		.cfi_offset 6, -24
 372              		.cfi_offset 7, -20
 373              		.cfi_offset 8, -16
 374              		.cfi_offset 9, -12
 375              		.cfi_offset 10, -8
 376              		.cfi_offset 11, -4
 377 0004 8346     		mov	fp, r0
 378 0006 92B0     		sub	sp, sp, #72
 379              	.LCFI3:
 380              		.cfi_def_cfa_offset 104
 381 0008 9BF80240 		ldrb	r4, [fp, #2]	@ zero_extendqisi2
 382              		.loc 1 177 0
 383 000c 0A91     		str	r1, [sp, #40]
 384 000e 9BF80530 		ldrb	r3, [fp, #5]	@ zero_extendqisi2
 385 0012 0078     		ldrb	r0, [r0, #0]	@ zero_extendqisi2
 386              	.LVL25:
 387 0014 9BF80120 		ldrb	r2, [fp, #1]	@ zero_extendqisi2
 388 0018 9BF80770 		ldrb	r7, [fp, #7]	@ zero_extendqisi2
 389 001c 0C94     		str	r4, [sp, #48]
 390 001e 0A9C     		ldr	r4, [sp, #40]
 391 0020 0193     		str	r3, [sp, #4]
 392 0022 9BF80410 		ldrb	r1, [fp, #4]	@ zero_extendqisi2
 393              	.LVL26:
 394 0026 9BF80650 		ldrb	r5, [fp, #6]	@ zero_extendqisi2
 395 002a 0890     		str	r0, [sp, #32]
 396 002c 0B92     		str	r2, [sp, #44]
ARM GAS  C:\Users\Vergil\AppData\Local\Temp\ccl0Rg49.s 			page 8


 397 002e 9BF80BC0 		ldrb	ip, [fp, #11]	@ zero_extendqisi2
 398 0032 1097     		str	r7, [sp, #64]
 399 0034 9BF80300 		ldrb	r0, [fp, #3]	@ zero_extendqisi2
 400              		.loc 1 176 0
 401 0038 019F     		ldr	r7, [sp, #4]
 402 003a 0E91     		str	r1, [sp, #56]
 403 003c 2246     		mov	r2, r4
 404 003e 9032     		adds	r2, r2, #144
 405 0040 0F95     		str	r5, [sp, #60]
 406 0042 9BF80890 		ldrb	r9, [fp, #8]	@ zero_extendqisi2
 407 0046 9BF80C10 		ldrb	r1, [fp, #12]	@ zero_extendqisi2
 408 004a 9BF80960 		ldrb	r6, [fp, #9]	@ zero_extendqisi2
 409 004e 9BF80D30 		ldrb	r3, [fp, #13]	@ zero_extendqisi2
 410 0052 9BF80A80 		ldrb	r8, [fp, #10]	@ zero_extendqisi2
 411 0056 9BF80E50 		ldrb	r5, [fp, #14]	@ zero_extendqisi2
 412 005a 9BF80FA0 		ldrb	sl, [fp, #15]	@ zero_extendqisi2
 413 005e CDF808C0 		str	ip, [sp, #8]
 414 0062 0D90     		str	r0, [sp, #52]
 415 0064 1192     		str	r2, [sp, #68]
 416 0066 0097     		str	r7, [sp, #0]
 417 0068 0FE0     		b	.L43
 418              	.LVL27:
 419              	.L41:
 420              	.LBB98:
 421              	.LBB99:
 422              		.loc 1 149 0
 423 006a 0198     		ldr	r0, [sp, #4]
 424 006c 4FEA400A 		lsl	sl, r0, #1
 425              	.LVL28:
 426 0070 5FFA8AF0 		uxtb	r0, sl
 427              	.LVL29:
 428              	.L42:
 429              	.LBE99:
 430              	.LBE98:
 431              		.loc 1 235 0
 432 0074 099F     		ldr	r7, [sp, #36]
 433 0076 7A40     		eors	r2, r2, r7
 434              	.LVL30:
 435 0078 80EA020A 		eor	sl, r0, r2
 436              		.loc 1 180 0
 437 007c 119A     		ldr	r2, [sp, #68]
 438              		.loc 1 235 0
 439 007e 8BF80FA0 		strb	sl, [fp, #15]
 440 0082 1034     		adds	r4, r4, #16
 441              	.LVL31:
 442              		.loc 1 180 0
 443 0084 9442     		cmp	r4, r2
 444 0086 00F0C481 		beq	.L45
 445              	.LVL32:
 446              	.L43:
 447              		.loc 1 183 0 discriminator 2
 448 008a 2078     		ldrb	r0, [r4, #0]	@ zero_extendqisi2
 449 008c 089F     		ldr	r7, [sp, #32]
 450 008e 40F20002 		movw	r2, #:lower16:.LANCHOR1
 451 0092 4740     		eors	r7, r7, r0
 452 0094 C0F20002 		movt	r2, #:upper16:.LANCHOR1
 453 0098 D05D     		ldrb	r0, [r2, r7]	@ zero_extendqisi2
ARM GAS  C:\Users\Vergil\AppData\Local\Temp\ccl0Rg49.s 			page 9


 454              		.loc 1 184 0 discriminator 2
 455 009a 0E9A     		ldr	r2, [sp, #56]
 456              		.loc 1 183 0 discriminator 2
 457 009c 8BF80000 		strb	r0, [fp, #0]
 458              		.loc 1 184 0 discriminator 2
 459 00a0 2779     		ldrb	r7, [r4, #4]	@ zero_extendqisi2
 460 00a2 7A40     		eors	r2, r2, r7
 461 00a4 40F20007 		movw	r7, #:lower16:.LANCHOR1
 462 00a8 C0F20007 		movt	r7, #:upper16:.LANCHOR1
 463 00ac BA5C     		ldrb	r2, [r7, r2]	@ zero_extendqisi2
 464 00ae 8BF80420 		strb	r2, [fp, #4]
 465              		.loc 1 185 0 discriminator 2
 466 00b2 277A     		ldrb	r7, [r4, #8]	@ zero_extendqisi2
 467              		.loc 1 184 0 discriminator 2
 468 00b4 0192     		str	r2, [sp, #4]
 469              		.loc 1 185 0 discriminator 2
 470 00b6 40F20002 		movw	r2, #:lower16:.LANCHOR1
 471 00ba 89EA0709 		eor	r9, r9, r7
 472 00be C0F20002 		movt	r2, #:upper16:.LANCHOR1
 473 00c2 12F80990 		ldrb	r9, [r2, r9]	@ zero_extendqisi2
 474 00c6 8BF80890 		strb	r9, [fp, #8]
 475              		.loc 1 186 0 discriminator 2
 476 00ca 277B     		ldrb	r7, [r4, #12]	@ zero_extendqisi2
 477              		.loc 1 185 0 discriminator 2
 478 00cc CDF80890 		str	r9, [sp, #8]
 479              		.loc 1 186 0 discriminator 2
 480 00d0 40F20002 		movw	r2, #:lower16:.LANCHOR1
 481 00d4 7940     		eors	r1, r1, r7
 482 00d6 C0F20002 		movt	r2, #:upper16:.LANCHOR1
 483 00da 515C     		ldrb	r1, [r2, r1]	@ zero_extendqisi2
 484              		.loc 1 189 0 discriminator 2
 485 00dc 009A     		ldr	r2, [sp, #0]
 486              		.loc 1 186 0 discriminator 2
 487 00de 8BF80C10 		strb	r1, [fp, #12]
 488              		.loc 1 188 0 discriminator 2
 489 00e2 94F80190 		ldrb	r9, [r4, #1]	@ zero_extendqisi2
 490              		.loc 1 186 0 discriminator 2
 491 00e6 0391     		str	r1, [sp, #12]
 492              		.loc 1 188 0 discriminator 2
 493 00e8 0B99     		ldr	r1, [sp, #44]
 494              		.loc 1 189 0 discriminator 2
 495 00ea 6779     		ldrb	r7, [r4, #5]	@ zero_extendqisi2
 496              		.loc 1 188 0 discriminator 2
 497 00ec 81EA0909 		eor	r9, r1, r9
 498              	.LVL33:
 499              		.loc 1 189 0 discriminator 2
 500 00f0 40F20001 		movw	r1, #:lower16:.LANCHOR1
 501 00f4 C0F20001 		movt	r1, #:upper16:.LANCHOR1
 502 00f8 7A40     		eors	r2, r2, r7
 503              		.loc 1 192 0 discriminator 2
 504 00fa 11F80990 		ldrb	r9, [r1, r9]	@ zero_extendqisi2
 505              	.LVL34:
 506              		.loc 1 189 0 discriminator 2
 507 00fe 8F5C     		ldrb	r7, [r1, r2]	@ zero_extendqisi2
 508              		.loc 1 192 0 discriminator 2
 509 0100 CDF81490 		str	r9, [sp, #20]
 510              		.loc 1 189 0 discriminator 2
ARM GAS  C:\Users\Vergil\AppData\Local\Temp\ccl0Rg49.s 			page 10


 511 0104 8BF80170 		strb	r7, [fp, #1]
 512              		.loc 1 190 0 discriminator 2
 513 0108 627A     		ldrb	r2, [r4, #9]	@ zero_extendqisi2
 514 010a 5640     		eors	r6, r6, r2
 515              		.loc 1 209 0 discriminator 2
 516 010c 87EA0009 		eor	r9, r7, r0
 517              		.loc 1 190 0 discriminator 2
 518 0110 8A5D     		ldrb	r2, [r1, r6]	@ zero_extendqisi2
 519              		.loc 1 192 0 discriminator 2
 520 0112 059E     		ldr	r6, [sp, #20]
 521              		.loc 1 190 0 discriminator 2
 522 0114 8BF80520 		strb	r2, [fp, #5]
 523              		.loc 1 191 0 discriminator 2
 524 0118 617B     		ldrb	r1, [r4, #13]	@ zero_extendqisi2
 525              		.loc 1 192 0 discriminator 2
 526 011a 8BF80D60 		strb	r6, [fp, #13]
 527              		.loc 1 191 0 discriminator 2
 528 011e 4B40     		eors	r3, r3, r1
 529 0120 40F20001 		movw	r1, #:lower16:.LANCHOR1
 530 0124 C0F20001 		movt	r1, #:upper16:.LANCHOR1
 531              	.LBB102:
 532              	.LBB103:
 533              		.loc 1 144 0 discriminator 2
 534 0128 19F0800F 		tst	r9, #128
 535              	.LBE103:
 536              	.LBE102:
 537              		.loc 1 191 0 discriminator 2
 538 012c CB5C     		ldrb	r3, [r1, r3]	@ zero_extendqisi2
 539 012e 0493     		str	r3, [sp, #16]
 540 0130 8BF80930 		strb	r3, [fp, #9]
 541              		.loc 1 195 0 discriminator 2
 542 0134 A379     		ldrb	r3, [r4, #6]	@ zero_extendqisi2
 543              		.loc 1 196 0 discriminator 2
 544 0136 A67A     		ldrb	r6, [r4, #10]	@ zero_extendqisi2
 545              		.loc 1 195 0 discriminator 2
 546 0138 0793     		str	r3, [sp, #28]
 547              		.loc 1 196 0 discriminator 2
 548 013a 40F20003 		movw	r3, #:lower16:.LANCHOR1
 549              		.loc 1 194 0 discriminator 2
 550 013e A178     		ldrb	r1, [r4, #2]	@ zero_extendqisi2
 551              		.loc 1 196 0 discriminator 2
 552 0140 88EA0608 		eor	r8, r8, r6
 553 0144 C0F20003 		movt	r3, #:upper16:.LANCHOR1
 554              		.loc 1 194 0 discriminator 2
 555 0148 0C9E     		ldr	r6, [sp, #48]
 556 014a 86EA0101 		eor	r1, r6, r1
 557              	.LVL35:
 558              		.loc 1 196 0 discriminator 2
 559 014e 13F80860 		ldrb	r6, [r3, r8]	@ zero_extendqisi2
 560              		.loc 1 198 0 discriminator 2
 561 0152 595C     		ldrb	r1, [r3, r1]	@ zero_extendqisi2
 562              	.LVL36:
 563              		.loc 1 196 0 discriminator 2
 564 0154 8BF80260 		strb	r6, [fp, #2]
 565              		.loc 1 197 0 discriminator 2
 566 0158 A37B     		ldrb	r3, [r4, #14]	@ zero_extendqisi2
 567              		.loc 1 198 0 discriminator 2
ARM GAS  C:\Users\Vergil\AppData\Local\Temp\ccl0Rg49.s 			page 11


 568 015a 0691     		str	r1, [sp, #24]
 569              		.loc 1 197 0 discriminator 2
 570 015c 85EA0305 		eor	r5, r5, r3
 571              		.loc 1 195 0 discriminator 2
 572 0160 0F99     		ldr	r1, [sp, #60]
 573 0162 079B     		ldr	r3, [sp, #28]
 574              		.loc 1 197 0 discriminator 2
 575 0164 40F20008 		movw	r8, #:lower16:.LANCHOR1
 576 0168 C0F20008 		movt	r8, #:upper16:.LANCHOR1
 577              		.loc 1 195 0 discriminator 2
 578 016c 81EA0301 		eor	r1, r1, r3
 579              	.LVL37:
 580              		.loc 1 197 0 discriminator 2
 581 0170 18F80530 		ldrb	r3, [r8, r5]	@ zero_extendqisi2
 582              		.loc 1 199 0 discriminator 2
 583 0174 18F80110 		ldrb	r1, [r8, r1]	@ zero_extendqisi2
 584              	.LVL38:
 585              		.loc 1 198 0 discriminator 2
 586 0178 069D     		ldr	r5, [sp, #24]
 587              		.loc 1 197 0 discriminator 2
 588 017a 8BF80630 		strb	r3, [fp, #6]
 589              		.loc 1 198 0 discriminator 2
 590 017e 8BF80A50 		strb	r5, [fp, #10]
 591              		.loc 1 199 0 discriminator 2
 592 0182 8BF80E10 		strb	r1, [fp, #14]
 593 0186 0791     		str	r1, [sp, #28]
 594              		.loc 1 202 0 discriminator 2
 595 0188 E17A     		ldrb	r1, [r4, #11]	@ zero_extendqisi2
 596              		.loc 1 201 0 discriminator 2
 597 018a E57B     		ldrb	r5, [r4, #15]	@ zero_extendqisi2
 598              		.loc 1 202 0 discriminator 2
 599 018c 8CEA0101 		eor	r1, ip, r1
 600              		.loc 1 201 0 discriminator 2
 601 0190 8AEA050A 		eor	sl, sl, r5
 602              	.LVL39:
 603              		.loc 1 202 0 discriminator 2
 604 0194 18F80150 		ldrb	r5, [r8, r1]	@ zero_extendqisi2
 605              		.loc 1 205 0 discriminator 2
 606 0198 18F80AC0 		ldrb	ip, [r8, sl]	@ zero_extendqisi2
 607              		.loc 1 202 0 discriminator 2
 608 019c 8BF80F50 		strb	r5, [fp, #15]
 609              		.loc 1 203 0 discriminator 2
 610 01a0 E179     		ldrb	r1, [r4, #7]	@ zero_extendqisi2
 611 01a2 DDF84080 		ldr	r8, [sp, #64]
 612              		.loc 1 202 0 discriminator 2
 613 01a6 0995     		str	r5, [sp, #36]
 614              		.loc 1 205 0 discriminator 2
 615 01a8 CDF838C0 		str	ip, [sp, #56]
 616              		.loc 1 203 0 discriminator 2
 617 01ac 88EA0105 		eor	r5, r8, r1
 618              		.loc 1 209 0 discriminator 2
 619 01b0 8CEA0608 		eor	r8, ip, r6
 620              		.loc 1 203 0 discriminator 2
 621 01b4 40F2000C 		movw	ip, #:lower16:.LANCHOR1
 622 01b8 C0F2000C 		movt	ip, #:upper16:.LANCHOR1
 623              		.loc 1 204 0 discriminator 2
 624 01bc 0D99     		ldr	r1, [sp, #52]
ARM GAS  C:\Users\Vergil\AppData\Local\Temp\ccl0Rg49.s 			page 12


 625              		.loc 1 203 0 discriminator 2
 626 01be 1CF805A0 		ldrb	sl, [ip, r5]	@ zero_extendqisi2
 627              	.LVL40:
 628 01c2 8BF80BA0 		strb	sl, [fp, #11]
 629              		.loc 1 204 0 discriminator 2
 630 01c6 E578     		ldrb	r5, [r4, #3]	@ zero_extendqisi2
 631 01c8 81EA0501 		eor	r1, r1, r5
 632 01cc 0891     		str	r1, [sp, #32]
 633 01ce 089D     		ldr	r5, [sp, #32]
 634              		.loc 1 209 0 discriminator 2
 635 01d0 88EA0901 		eor	r1, r8, r9
 636              	.LVL41:
 637              		.loc 1 204 0 discriminator 2
 638 01d4 1CF80550 		ldrb	r5, [ip, r5]	@ zero_extendqisi2
 639              	.LBB106:
 640              	.LBB104:
 641              		.loc 1 146 0 discriminator 2
 642 01d8 4FEA4909 		lsl	r9, r9, #1
 643              	.LVL42:
 644              		.loc 1 147 0 discriminator 2
 645 01dc 18BF     		it	ne
 646 01de 89F01B09 		eorne	r9, r9, #27
 647              	.LBE104:
 648              	.LBE106:
 649              		.loc 1 204 0 discriminator 2
 650 01e2 1095     		str	r5, [sp, #64]
 651              	.LVL43:
 652              	.LBB107:
 653              	.LBB105:
 654              		.loc 1 149 0 discriminator 2
 655 01e4 5FFA89FC 		uxtb	ip, r9
 656              	.LVL44:
 657              	.LBE105:
 658              	.LBE107:
 659              		.loc 1 211 0 discriminator 2
 660 01e8 81EA0005 		eor	r5, r1, r0
 661 01ec 8CEA0509 		eor	r9, ip, r5
 662              		.loc 1 212 0 discriminator 2
 663 01f0 86EA0705 		eor	r5, r6, r7
 664              	.LVL45:
 665              		.loc 1 211 0 discriminator 2
 666 01f4 CDF82090 		str	r9, [sp, #32]
 667              	.LBB108:
 668              	.LBB109:
 669              		.loc 1 146 0 discriminator 2
 670 01f8 4FEA4509 		lsl	r9, r5, #1
 671              		.loc 1 144 0 discriminator 2
 672 01fc 15F0800F 		tst	r5, #128
 673              		.loc 1 146 0 discriminator 2
 674 0200 5FFA89F5 		uxtb	r5, r9
 675              	.LVL46:
 676              	.LBE109:
 677              	.LBE108:
 678              		.loc 1 212 0 discriminator 2
 679 0204 81EA0707 		eor	r7, r1, r7
 680              	.LBB111:
 681              	.LBB110:
ARM GAS  C:\Users\Vergil\AppData\Local\Temp\ccl0Rg49.s 			page 13


 682              		.loc 1 147 0 discriminator 2
 683 0208 18BF     		it	ne
 684 020a 85F01B05 		eorne	r5, r5, #27
 685              	.LBE110:
 686              	.LBE111:
 687              		.loc 1 212 0 discriminator 2
 688 020e 7D40     		eors	r5, r5, r7
 689              	.LBB112:
 690              	.LBB113:
 691              		.loc 1 144 0 discriminator 2
 692 0210 18F0800F 		tst	r8, #128
 693              	.LBE113:
 694              	.LBE112:
 695              		.loc 1 212 0 discriminator 2
 696 0214 0B95     		str	r5, [sp, #44]
 697              	.LBB117:
 698              	.LBB114:
 699              		.loc 1 146 0 discriminator 2
 700 0216 4FEA4808 		lsl	r8, r8, #1
 701              	.LBE114:
 702              	.LBE117:
 703              		.loc 1 212 0 discriminator 2
 704 021a 8BF80150 		strb	r5, [fp, #1]
 705              	.LVL47:
 706              		.loc 1 214 0 discriminator 2
 707 021e 0E9D     		ldr	r5, [sp, #56]
 708              		.loc 1 211 0 discriminator 2
 709 0220 DDF820C0 		ldr	ip, [sp, #32]
 710              	.LBB118:
 711              	.LBB115:
 712              		.loc 1 147 0 discriminator 2
 713 0224 18BF     		it	ne
 714 0226 88F01B08 		eorne	r8, r8, #27
 715              	.LVL48:
 716              	.LBE115:
 717              	.LBE118:
 718              		.loc 1 214 0 discriminator 2
 719 022a 6840     		eors	r0, r0, r5
 720              	.LVL49:
 721              		.loc 1 213 0 discriminator 2
 722 022c 4E40     		eors	r6, r6, r1
 723              	.LVL50:
 724              	.LBB119:
 725              	.LBB116:
 726              		.loc 1 149 0 discriminator 2
 727 022e 5FFA88F7 		uxtb	r7, r8
 728              	.LBE116:
 729              	.LBE119:
 730              		.loc 1 213 0 discriminator 2
 731 0232 7740     		eors	r7, r7, r6
 732              		.loc 1 214 0 discriminator 2
 733 0234 0E9D     		ldr	r5, [sp, #56]
 734              		.loc 1 213 0 discriminator 2
 735 0236 0C97     		str	r7, [sp, #48]
 736              	.LBB120:
 737              	.LBB121:
 738              		.loc 1 146 0 discriminator 2
ARM GAS  C:\Users\Vergil\AppData\Local\Temp\ccl0Rg49.s 			page 14


 739 0238 4FEA4006 		lsl	r6, r0, #1
 740              		.loc 1 144 0 discriminator 2
 741 023c 10F0800F 		tst	r0, #128
 742              	.LBE121:
 743              	.LBE120:
 744              		.loc 1 213 0 discriminator 2
 745 0240 8BF80270 		strb	r7, [fp, #2]
 746              	.LBB123:
 747              	.LBB122:
 748              		.loc 1 146 0 discriminator 2
 749 0244 F7B2     		uxtb	r7, r6
 750              	.LVL51:
 751              		.loc 1 147 0 discriminator 2
 752 0246 18BF     		it	ne
 753 0248 87F01B07 		eorne	r7, r7, #27
 754              	.LBE122:
 755              	.LBE123:
 756              		.loc 1 214 0 discriminator 2
 757 024c 6940     		eors	r1, r1, r5
 758              	.LVL52:
 759 024e 7940     		eors	r1, r1, r7
 760              		.loc 1 211 0 discriminator 2
 761 0250 8BF800C0 		strb	ip, [fp, #0]
 762              		.loc 1 216 0 discriminator 2
 763 0254 DDF804C0 		ldr	ip, [sp, #4]
 764              		.loc 1 214 0 discriminator 2
 765 0258 0D91     		str	r1, [sp, #52]
 766              		.loc 1 216 0 discriminator 2
 767 025a 1099     		ldr	r1, [sp, #64]
 768              		.loc 1 218 0 discriminator 2
 769 025c 019D     		ldr	r5, [sp, #4]
 770              		.loc 1 214 0 discriminator 2
 771 025e DDF83490 		ldr	r9, [sp, #52]
 772              	.LVL53:
 773              		.loc 1 223 0 discriminator 2
 774 0262 DDF80880 		ldr	r8, [sp, #8]
 775              		.loc 1 214 0 discriminator 2
 776 0266 8BF80390 		strb	r9, [fp, #3]
 777              		.loc 1 216 0 discriminator 2
 778 026a 82EA0C06 		eor	r6, r2, ip
 779              	.LVL54:
 780 026e 5940     		eors	r1, r1, r3
 781              	.LBB124:
 782              	.LBB125:
 783              		.loc 1 144 0 discriminator 2
 784 0270 16F0800F 		tst	r6, #128
 785              		.loc 1 146 0 discriminator 2
 786 0274 4FEA4607 		lsl	r7, r6, #1
 787              	.LBE125:
 788              	.LBE124:
 789              		.loc 1 216 0 discriminator 2
 790 0278 81EA0600 		eor	r0, r1, r6
 791              	.LVL55:
 792              	.LBB128:
 793              	.LBB126:
 794              		.loc 1 147 0 discriminator 2
 795 027c 18BF     		it	ne
ARM GAS  C:\Users\Vergil\AppData\Local\Temp\ccl0Rg49.s 			page 15


 796 027e 87F01B07 		eorne	r7, r7, #27
 797              	.LVL56:
 798              	.LBE126:
 799              	.LBE128:
 800              		.loc 1 218 0 discriminator 2
 801 0282 80EA0506 		eor	r6, r0, r5
 802              	.LVL57:
 803              	.LBB129:
 804              	.LBB127:
 805              		.loc 1 149 0 discriminator 2
 806 0286 FFB2     		uxtb	r7, r7
 807              	.LBE127:
 808              	.LBE129:
 809              		.loc 1 219 0 discriminator 2
 810 0288 83EA0205 		eor	r5, r3, r2
 811              	.LVL58:
 812              		.loc 1 218 0 discriminator 2
 813 028c 7740     		eors	r7, r7, r6
 814 028e 0E97     		str	r7, [sp, #56]
 815              	.LBB130:
 816              	.LBB131:
 817              		.loc 1 146 0 discriminator 2
 818 0290 4FEA4507 		lsl	r7, r5, #1
 819              	.LBE131:
 820              	.LBE130:
 821              		.loc 1 218 0 discriminator 2
 822 0294 0E9E     		ldr	r6, [sp, #56]
 823              		.loc 1 223 0 discriminator 2
 824 0296 DDF818C0 		ldr	ip, [sp, #24]
 825              	.LVL59:
 826              		.loc 1 218 0 discriminator 2
 827 029a 8BF80460 		strb	r6, [fp, #4]
 828              	.LBB133:
 829              	.LBB132:
 830              		.loc 1 144 0 discriminator 2
 831 029e 15F0800F 		tst	r5, #128
 832              		.loc 1 146 0 discriminator 2
 833 02a2 FDB2     		uxtb	r5, r7
 834              	.LVL60:
 835              		.loc 1 147 0 discriminator 2
 836 02a4 18BF     		it	ne
 837 02a6 85F01B05 		eorne	r5, r5, #27
 838              	.LBE132:
 839              	.LBE133:
 840              		.loc 1 219 0 discriminator 2
 841 02aa 4240     		eors	r2, r2, r0
 842              	.LVL61:
 843              	.LBB134:
 844              	.LBB135:
 845              		.loc 1 144 0 discriminator 2
 846 02ac 11F0800F 		tst	r1, #128
 847              		.loc 1 146 0 discriminator 2
 848 02b0 4FEA4101 		lsl	r1, r1, #1
 849              	.LBE135:
 850              	.LBE134:
 851              		.loc 1 219 0 discriminator 2
 852 02b4 85EA0206 		eor	r6, r5, r2
ARM GAS  C:\Users\Vergil\AppData\Local\Temp\ccl0Rg49.s 			page 16


 853              	.LBB137:
 854              	.LBB136:
 855              		.loc 1 147 0 discriminator 2
 856 02b8 18BF     		it	ne
 857 02ba 81F01B01 		eorne	r1, r1, #27
 858              		.loc 1 149 0 discriminator 2
 859 02be CFB2     		uxtb	r7, r1
 860              	.LVL62:
 861              	.LBE136:
 862              	.LBE137:
 863              		.loc 1 220 0 discriminator 2
 864 02c0 4340     		eors	r3, r3, r0
 865              		.loc 1 221 0 discriminator 2
 866 02c2 019A     		ldr	r2, [sp, #4]
 867              		.loc 1 219 0 discriminator 2
 868 02c4 0096     		str	r6, [sp, #0]
 869 02c6 8BF80560 		strb	r6, [fp, #5]
 870              		.loc 1 221 0 discriminator 2
 871 02ca 109E     		ldr	r6, [sp, #64]
 872              		.loc 1 220 0 discriminator 2
 873 02cc 87EA0305 		eor	r5, r7, r3
 874              		.loc 1 221 0 discriminator 2
 875 02d0 5640     		eors	r6, r6, r2
 876              	.LVL63:
 877              		.loc 1 220 0 discriminator 2
 878 02d2 0F95     		str	r5, [sp, #60]
 879              		.loc 1 223 0 discriminator 2
 880 02d4 049A     		ldr	r2, [sp, #16]
 881              		.loc 1 220 0 discriminator 2
 882 02d6 0F99     		ldr	r1, [sp, #60]
 883              		.loc 1 221 0 discriminator 2
 884 02d8 109D     		ldr	r5, [sp, #64]
 885              		.loc 1 220 0 discriminator 2
 886 02da 8BF80610 		strb	r1, [fp, #6]
 887              	.LBB138:
 888              	.LBB139:
 889              		.loc 1 146 0 discriminator 2
 890 02de 4FEA4607 		lsl	r7, r6, #1
 891              	.LBE139:
 892              	.LBE138:
 893              		.loc 1 223 0 discriminator 2
 894 02e2 82EA0809 		eor	r9, r2, r8
 895              	.LBB142:
 896              	.LBB140:
 897              		.loc 1 146 0 discriminator 2
 898 02e6 FBB2     		uxtb	r3, r7
 899              	.LVL64:
 900              		.loc 1 144 0 discriminator 2
 901 02e8 16F0800F 		tst	r6, #128
 902              	.LBE140:
 903              	.LBE142:
 904              	.LBB143:
 905              	.LBB144:
 906              		.loc 1 146 0 discriminator 2
 907 02ec 4FEA4901 		lsl	r1, r9, #1
 908              	.LBE144:
 909              	.LBE143:
ARM GAS  C:\Users\Vergil\AppData\Local\Temp\ccl0Rg49.s 			page 17


 910              	.LBB148:
 911              	.LBB141:
 912              		.loc 1 147 0 discriminator 2
 913 02f0 18BF     		it	ne
 914 02f2 83F01B03 		eorne	r3, r3, #27
 915              	.LBE141:
 916              	.LBE148:
 917              	.LBB149:
 918              	.LBB145:
 919              		.loc 1 144 0 discriminator 2
 920 02f6 19F0800F 		tst	r9, #128
 921              	.LBE145:
 922              	.LBE149:
 923              		.loc 1 221 0 discriminator 2
 924 02fa 80EA0500 		eor	r0, r0, r5
 925              	.LVL65:
 926              	.LBB150:
 927              	.LBB146:
 928              		.loc 1 147 0 discriminator 2
 929 02fe 18BF     		it	ne
 930 0300 81F01B01 		eorne	r1, r1, #27
 931              	.LBE146:
 932              	.LBE150:
 933              		.loc 1 223 0 discriminator 2
 934 0304 8AEA0C07 		eor	r7, sl, ip
 935              	.LVL66:
 936              		.loc 1 221 0 discriminator 2
 937 0308 83EA0006 		eor	r6, r3, r0
 938              	.LVL67:
 939              	.LBB151:
 940              	.LBB147:
 941              		.loc 1 149 0 discriminator 2
 942 030c CDB2     		uxtb	r5, r1
 943              	.LVL68:
 944              	.LBE147:
 945              	.LBE151:
 946              		.loc 1 225 0 discriminator 2
 947 030e 0298     		ldr	r0, [sp, #8]
 948              		.loc 1 226 0 discriminator 2
 949 0310 0499     		ldr	r1, [sp, #16]
 950 0312 069A     		ldr	r2, [sp, #24]
 951              		.loc 1 221 0 discriminator 2
 952 0314 1096     		str	r6, [sp, #64]
 953              		.loc 1 223 0 discriminator 2
 954 0316 87EA0903 		eor	r3, r7, r9
 955              	.LVL69:
 956              		.loc 1 226 0 discriminator 2
 957 031a 4A40     		eors	r2, r2, r1
 958              	.LVL70:
 959              		.loc 1 221 0 discriminator 2
 960 031c 8BF80760 		strb	r6, [fp, #7]
 961              		.loc 1 225 0 discriminator 2
 962 0320 83EA0006 		eor	r6, r3, r0
 963 0324 85EA0609 		eor	r9, r5, r6
 964              	.LBB152:
 965              	.LBB153:
 966              		.loc 1 146 0 discriminator 2
ARM GAS  C:\Users\Vergil\AppData\Local\Temp\ccl0Rg49.s 			page 18


 967 0328 4FEA4205 		lsl	r5, r2, #1
 968              	.LBE153:
 969              	.LBE152:
 970              		.loc 1 225 0 discriminator 2
 971 032c 8BF80890 		strb	r9, [fp, #8]
 972              	.LBB156:
 973              	.LBB154:
 974              		.loc 1 144 0 discriminator 2
 975 0330 12F0800F 		tst	r2, #128
 976              		.loc 1 146 0 discriminator 2
 977 0334 EEB2     		uxtb	r6, r5
 978              	.LVL71:
 979              	.LBE154:
 980              	.LBE156:
 981              		.loc 1 226 0 discriminator 2
 982 0336 0498     		ldr	r0, [sp, #16]
 983              	.LBB157:
 984              	.LBB158:
 985              		.loc 1 146 0 discriminator 2
 986 0338 4FEA4708 		lsl	r8, r7, #1
 987              	.LBE158:
 988              	.LBE157:
 989              	.LBB162:
 990              	.LBB155:
 991              		.loc 1 147 0 discriminator 2
 992 033c 18BF     		it	ne
 993 033e 86F01B06 		eorne	r6, r6, #27
 994              	.LBE155:
 995              	.LBE162:
 996              	.LBB163:
 997              	.LBB159:
 998              		.loc 1 144 0 discriminator 2
 999 0342 17F0800F 		tst	r7, #128
 1000              	.LBE159:
 1001              	.LBE163:
 1002              		.loc 1 227 0 discriminator 2
 1003 0346 069F     		ldr	r7, [sp, #24]
 1004              		.loc 1 226 0 discriminator 2
 1005 0348 83EA0002 		eor	r2, r3, r0
 1006              	.LBB164:
 1007              	.LBB160:
 1008              		.loc 1 147 0 discriminator 2
 1009 034c 18BF     		it	ne
 1010 034e 88F01B08 		eorne	r8, r8, #27
 1011              	.LBE160:
 1012              	.LBE164:
 1013              		.loc 1 228 0 discriminator 2
 1014 0352 0298     		ldr	r0, [sp, #8]
 1015              		.loc 1 227 0 discriminator 2
 1016 0354 83EA0705 		eor	r5, r3, r7
 1017              	.LVL72:
 1018              	.LBB165:
 1019              	.LBB161:
 1020              		.loc 1 149 0 discriminator 2
 1021 0358 5FFA88F1 		uxtb	r1, r8
 1022              	.LVL73:
 1023              	.LBE161:
ARM GAS  C:\Users\Vergil\AppData\Local\Temp\ccl0Rg49.s 			page 19


 1024              	.LBE165:
 1025              		.loc 1 228 0 discriminator 2
 1026 035c 8AEA000C 		eor	ip, sl, r0
 1027              		.loc 1 227 0 discriminator 2
 1028 0360 81EA0508 		eor	r8, r1, r5
 1029              		.loc 1 230 0 discriminator 2
 1030 0364 059F     		ldr	r7, [sp, #20]
 1031              	.LVL74:
 1032 0366 039D     		ldr	r5, [sp, #12]
 1033 0368 0798     		ldr	r0, [sp, #28]
 1034              		.loc 1 227 0 discriminator 2
 1035 036a 8BF80A80 		strb	r8, [fp, #10]
 1036              		.loc 1 226 0 discriminator 2
 1037 036e 5640     		eors	r6, r6, r2
 1038              	.LBB166:
 1039              	.LBB167:
 1040              		.loc 1 146 0 discriminator 2
 1041 0370 4FEA4C02 		lsl	r2, ip, #1
 1042              	.LBE167:
 1043              	.LBE166:
 1044              		.loc 1 230 0 discriminator 2
 1045 0374 6F40     		eors	r7, r7, r5
 1046              	.LBB170:
 1047              	.LBB168:
 1048              		.loc 1 146 0 discriminator 2
 1049 0376 D1B2     		uxtb	r1, r2
 1050              		.loc 1 144 0 discriminator 2
 1051 0378 1CF0800F 		tst	ip, #128
 1052              	.LBE168:
 1053              	.LBE170:
 1054              		.loc 1 230 0 discriminator 2
 1055 037c 099D     		ldr	r5, [sp, #36]
 1056              		.loc 1 226 0 discriminator 2
 1057 037e 8BF80960 		strb	r6, [fp, #9]
 1058              	.LVL75:
 1059              	.LBB171:
 1060              	.LBB169:
 1061              		.loc 1 147 0 discriminator 2
 1062 0382 18BF     		it	ne
 1063 0384 81F01B01 		eorne	r1, r1, #27
 1064              	.LBE169:
 1065              	.LBE171:
 1066              		.loc 1 228 0 discriminator 2
 1067 0388 83EA0A03 		eor	r3, r3, sl
 1068              	.LVL76:
 1069              		.loc 1 230 0 discriminator 2
 1070 038c 4540     		eors	r5, r5, r0
 1071              		.loc 1 228 0 discriminator 2
 1072 038e 81EA030C 		eor	ip, r1, r3
 1073              		.loc 1 232 0 discriminator 2
 1074 0392 039B     		ldr	r3, [sp, #12]
 1075              		.loc 1 233 0 discriminator 2
 1076 0394 0598     		ldr	r0, [sp, #20]
 1077              		.loc 1 234 0 discriminator 2
 1078 0396 DDF81CA0 		ldr	sl, [sp, #28]
 1079              	.LVL77:
 1080              		.loc 1 228 0 discriminator 2
ARM GAS  C:\Users\Vergil\AppData\Local\Temp\ccl0Rg49.s 			page 20


 1081 039a 8BF80BC0 		strb	ip, [fp, #11]
 1082              		.loc 1 230 0 discriminator 2
 1083 039e 85EA0702 		eor	r2, r5, r7
 1084              	.LVL78:
 1085              	.LBB172:
 1086              	.LBB173:
 1087              		.loc 1 144 0 discriminator 2
 1088 03a2 17F0800F 		tst	r7, #128
 1089              		.loc 1 146 0 discriminator 2
 1090 03a6 4FEA4701 		lsl	r1, r7, #1
 1091              	.LVL79:
 1092              	.LBE173:
 1093              	.LBE172:
 1094              		.loc 1 232 0 discriminator 2
 1095 03aa 82EA0307 		eor	r7, r2, r3
 1096              		.loc 1 233 0 discriminator 2
 1097 03ae 079B     		ldr	r3, [sp, #28]
 1098              	.LBB176:
 1099              	.LBB174:
 1100              		.loc 1 147 0 discriminator 2
 1101 03b0 18BF     		it	ne
 1102 03b2 81F01B01 		eorne	r1, r1, #27
 1103              	.LVL80:
 1104              	.LBE174:
 1105              	.LBE176:
 1106              		.loc 1 233 0 discriminator 2
 1107 03b6 4340     		eors	r3, r3, r0
 1108              	.LVL81:
 1109              	.LBB177:
 1110              	.LBB175:
 1111              		.loc 1 149 0 discriminator 2
 1112 03b8 C9B2     		uxtb	r1, r1
 1113              	.LBE175:
 1114              	.LBE177:
 1115              		.loc 1 232 0 discriminator 2
 1116 03ba 7940     		eors	r1, r1, r7
 1117              	.LBB178:
 1118              	.LBB179:
 1119              		.loc 1 146 0 discriminator 2
 1120 03bc 4FEA4307 		lsl	r7, r3, #1
 1121              		.loc 1 144 0 discriminator 2
 1122 03c0 13F0800F 		tst	r3, #128
 1123              		.loc 1 146 0 discriminator 2
 1124 03c4 FBB2     		uxtb	r3, r7
 1125              	.LVL82:
 1126              		.loc 1 147 0 discriminator 2
 1127 03c6 18BF     		it	ne
 1128 03c8 83F01B03 		eorne	r3, r3, #27
 1129              	.LBE179:
 1130              	.LBE178:
 1131              		.loc 1 233 0 discriminator 2
 1132 03cc 0598     		ldr	r0, [sp, #20]
 1133              		.loc 1 232 0 discriminator 2
 1134 03ce 8BF80C10 		strb	r1, [fp, #12]
 1135              	.LBB180:
 1136              	.LBB181:
 1137              		.loc 1 144 0 discriminator 2
ARM GAS  C:\Users\Vergil\AppData\Local\Temp\ccl0Rg49.s 			page 21


 1138 03d2 15F0800F 		tst	r5, #128
 1139              		.loc 1 146 0 discriminator 2
 1140 03d6 4FEA4505 		lsl	r5, r5, #1
 1141              		.loc 1 147 0 discriminator 2
 1142 03da 18BF     		it	ne
 1143 03dc 85F01B05 		eorne	r5, r5, #27
 1144              	.LBE181:
 1145              	.LBE180:
 1146              		.loc 1 233 0 discriminator 2
 1147 03e0 82EA0007 		eor	r7, r2, r0
 1148              	.LVL83:
 1149              	.LBB183:
 1150              	.LBB182:
 1151              		.loc 1 149 0 discriminator 2
 1152 03e4 EDB2     		uxtb	r5, r5
 1153              	.LBE182:
 1154              	.LBE183:
 1155              		.loc 1 234 0 discriminator 2
 1156 03e6 82EA0A00 		eor	r0, r2, sl
 1157              	.LVL84:
 1158              		.loc 1 233 0 discriminator 2
 1159 03ea 7B40     		eors	r3, r3, r7
 1160              		.loc 1 234 0 discriminator 2
 1161 03ec 4540     		eors	r5, r5, r0
 1162              		.loc 1 235 0 discriminator 2
 1163 03ee 039F     		ldr	r7, [sp, #12]
 1164 03f0 0998     		ldr	r0, [sp, #36]
 1165              		.loc 1 233 0 discriminator 2
 1166 03f2 8BF80D30 		strb	r3, [fp, #13]
 1167              		.loc 1 235 0 discriminator 2
 1168 03f6 7840     		eors	r0, r0, r7
 1169              	.LBB184:
 1170              	.LBB100:
 1171              		.loc 1 144 0 discriminator 2
 1172 03f8 0706     		lsls	r7, r0, #24
 1173              	.LBE100:
 1174              	.LBE184:
 1175              		.loc 1 235 0 discriminator 2
 1176 03fa 0190     		str	r0, [sp, #4]
 1177              	.LVL85:
 1178              		.loc 1 234 0 discriminator 2
 1179 03fc 8BF80E50 		strb	r5, [fp, #14]
 1180              	.LBB185:
 1181              	.LBB101:
 1182              		.loc 1 144 0 discriminator 2
 1183 0400 7FF533AE 		bpl	.L41
 1184              		.loc 1 146 0
 1185 0404 4FEA4007 		lsl	r7, r0, #1
 1186 0408 5FFA87FA 		uxtb	sl, r7
 1187              	.LVL86:
 1188              		.loc 1 147 0
 1189 040c 8AF01B00 		eor	r0, sl, #27
 1190 0410 30E6     		b	.L42
 1191              	.LVL87:
 1192              	.L45:
 1193 0412 009C     		ldr	r4, [sp, #0]
 1194              	.LVL88:
ARM GAS  C:\Users\Vergil\AppData\Local\Temp\ccl0Rg49.s 			page 22


 1195              	.LBE101:
 1196              	.LBE185:
 1197              		.loc 1 239 0
 1198 0414 089F     		ldr	r7, [sp, #32]
 1199 0416 0194     		str	r4, [sp, #4]
 1200 0418 0A9C     		ldr	r4, [sp, #40]
 1201 041a CDF808C0 		str	ip, [sp, #8]
 1202 041e 94F89000 		ldrb	r0, [r4, #144]	@ zero_extendqisi2
 1203 0422 40F2000C 		movw	ip, #:lower16:.LANCHOR1
 1204 0426 87EA0002 		eor	r2, r7, r0
 1205 042a C0F2000C 		movt	ip, #:upper16:.LANCHOR1
 1206 042e 1CF80200 		ldrb	r0, [ip, r2]	@ zero_extendqisi2
 1207              		.loc 1 240 0
 1208 0432 0E9A     		ldr	r2, [sp, #56]
 1209              		.loc 1 239 0
 1210 0434 8BF80000 		strb	r0, [fp, #0]
 1211              		.loc 1 240 0
 1212 0438 94F89470 		ldrb	r7, [r4, #148]	@ zero_extendqisi2
 1213              		.loc 1 239 0
 1214 043c 0390     		str	r0, [sp, #12]
 1215              		.loc 1 240 0
 1216 043e 40F20000 		movw	r0, #:lower16:.LANCHOR1
 1217 0442 82EA070C 		eor	ip, r2, r7
 1218 0446 C0F20000 		movt	r0, #:upper16:.LANCHOR1
 1219 044a 10F80CC0 		ldrb	ip, [r0, ip]	@ zero_extendqisi2
 1220 044e 8BF804C0 		strb	ip, [fp, #4]
 1221              		.loc 1 241 0
 1222 0452 94F89870 		ldrb	r7, [r4, #152]	@ zero_extendqisi2
 1223              		.loc 1 240 0
 1224 0456 CDF810C0 		str	ip, [sp, #16]
 1225              		.loc 1 241 0
 1226 045a 89EA0702 		eor	r2, r9, r7
 1227              		.loc 1 245 0
 1228 045e 0A9F     		ldr	r7, [sp, #40]
 1229              		.loc 1 241 0
 1230 0460 805C     		ldrb	r0, [r0, r2]	@ zero_extendqisi2
 1231              		.loc 1 245 0
 1232 0462 DDF80490 		ldr	r9, [sp, #4]
 1233              		.loc 1 241 0
 1234 0466 8BF80800 		strb	r0, [fp, #8]
 1235              		.loc 1 242 0
 1236 046a 94F89C40 		ldrb	r4, [r4, #156]	@ zero_extendqisi2
 1237              		.loc 1 241 0
 1238 046e 0590     		str	r0, [sp, #20]
 1239              		.loc 1 242 0
 1240 0470 6140     		eors	r1, r1, r4
 1241 0472 40F20004 		movw	r4, #:lower16:.LANCHOR1
 1242 0476 C0F20004 		movt	r4, #:upper16:.LANCHOR1
 1243              		.loc 1 246 0
 1244 047a DDF828C0 		ldr	ip, [sp, #40]
 1245              		.loc 1 242 0
 1246 047e 615C     		ldrb	r1, [r4, r1]	@ zero_extendqisi2
 1247 0480 8BF80C10 		strb	r1, [fp, #12]
 1248              		.loc 1 245 0
 1249 0484 97F89520 		ldrb	r2, [r7, #149]	@ zero_extendqisi2
 1250              		.loc 1 242 0
 1251 0488 0691     		str	r1, [sp, #24]
ARM GAS  C:\Users\Vergil\AppData\Local\Temp\ccl0Rg49.s 			page 23


 1252              		.loc 1 245 0
 1253 048a 89EA0200 		eor	r0, r9, r2
 1254              		.loc 1 244 0
 1255 048e 97F89110 		ldrb	r1, [r7, #145]	@ zero_extendqisi2
 1256 0492 0B9F     		ldr	r7, [sp, #44]
 1257 0494 87EA0102 		eor	r2, r7, r1
 1258              	.LVL89:
 1259              		.loc 1 245 0
 1260 0498 2746     		mov	r7, r4
 1261 049a 245C     		ldrb	r4, [r4, r0]	@ zero_extendqisi2
 1262              		.loc 1 248 0
 1263 049c B95C     		ldrb	r1, [r7, r2]	@ zero_extendqisi2
 1264              		.loc 1 245 0
 1265 049e 8BF80140 		strb	r4, [fp, #1]
 1266              		.loc 1 246 0
 1267 04a2 9CF89900 		ldrb	r0, [ip, #153]	@ zero_extendqisi2
 1268              		.loc 1 248 0
 1269 04a6 0791     		str	r1, [sp, #28]
 1270              		.loc 1 246 0
 1271 04a8 4640     		eors	r6, r6, r0
 1272 04aa BA5D     		ldrb	r2, [r7, r6]	@ zero_extendqisi2
 1273              	.LVL90:
 1274 04ac 0192     		str	r2, [sp, #4]
 1275 04ae 8BF80520 		strb	r2, [fp, #5]
 1276              		.loc 1 247 0
 1277 04b2 9CF89D00 		ldrb	r0, [ip, #157]	@ zero_extendqisi2
 1278              		.loc 1 248 0
 1279 04b6 8BF80D10 		strb	r1, [fp, #13]
 1280              		.loc 1 247 0
 1281 04ba 4340     		eors	r3, r3, r0
 1282              		.loc 1 250 0
 1283 04bc 0C9A     		ldr	r2, [sp, #48]
 1284              		.loc 1 247 0
 1285 04be 17F80390 		ldrb	r9, [r7, r3]	@ zero_extendqisi2
 1286 04c2 8BF80990 		strb	r9, [fp, #9]
 1287              		.loc 1 252 0
 1288 04c6 9CF89A10 		ldrb	r1, [ip, #154]	@ zero_extendqisi2
 1289              		.loc 1 250 0
 1290 04ca 9CF89270 		ldrb	r7, [ip, #146]	@ zero_extendqisi2
 1291              		.loc 1 251 0
 1292 04ce 9CF89630 		ldrb	r3, [ip, #150]	@ zero_extendqisi2
 1293              		.loc 1 252 0
 1294 04d2 88EA0106 		eor	r6, r8, r1
 1295              		.loc 1 250 0
 1296 04d6 82EA0701 		eor	r1, r2, r7
 1297              	.LVL91:
 1298              		.loc 1 252 0
 1299 04da 40F20002 		movw	r2, #:lower16:.LANCHOR1
 1300 04de C0F20002 		movt	r2, #:upper16:.LANCHOR1
 1301              		.loc 1 258 0
 1302 04e2 DDF80880 		ldr	r8, [sp, #8]
 1303              		.loc 1 252 0
 1304 04e6 905D     		ldrb	r0, [r2, r6]	@ zero_extendqisi2
 1305              		.loc 1 254 0
 1306 04e8 515C     		ldrb	r1, [r2, r1]	@ zero_extendqisi2
 1307              	.LVL92:
 1308              		.loc 1 252 0
ARM GAS  C:\Users\Vergil\AppData\Local\Temp\ccl0Rg49.s 			page 24


 1309 04ea 8BF80200 		strb	r0, [fp, #2]
 1310              		.loc 1 253 0
 1311 04ee 9CF89E70 		ldrb	r7, [ip, #158]	@ zero_extendqisi2
 1312              	.LVL93:
 1313              		.loc 1 254 0
 1314 04f2 8BF80A10 		strb	r1, [fp, #10]
 1315              		.loc 1 253 0
 1316 04f6 85EA0706 		eor	r6, r5, r7
 1317              		.loc 1 251 0
 1318 04fa 0F9D     		ldr	r5, [sp, #60]
 1319              		.loc 1 253 0
 1320 04fc 965D     		ldrb	r6, [r2, r6]	@ zero_extendqisi2
 1321              		.loc 1 251 0
 1322 04fe 6B40     		eors	r3, r3, r5
 1323              	.LVL94:
 1324              		.loc 1 253 0
 1325 0500 8BF80660 		strb	r6, [fp, #6]
 1326              		.loc 1 255 0
 1327 0504 D25C     		ldrb	r2, [r2, r3]	@ zero_extendqisi2
 1328 0506 8BF80E20 		strb	r2, [fp, #14]
 1329              		.loc 1 258 0
 1330 050a 9CF89B50 		ldrb	r5, [ip, #155]	@ zero_extendqisi2
 1331              		.loc 1 257 0
 1332 050e 9CF89F70 		ldrb	r7, [ip, #159]	@ zero_extendqisi2
 1333              		.loc 1 258 0
 1334 0512 88EA0503 		eor	r3, r8, r5
 1335              	.LVL95:
 1336              		.loc 1 257 0
 1337 0516 8AEA0705 		eor	r5, sl, r7
 1338              	.LVL96:
 1339              		.loc 1 258 0
 1340 051a 40F2000A 		movw	sl, #:lower16:.LANCHOR1
 1341 051e C0F2000A 		movt	sl, #:upper16:.LANCHOR1
 1342 0522 1AF80330 		ldrb	r3, [sl, r3]	@ zero_extendqisi2
 1343              		.loc 1 261 0
 1344 0526 1AF80550 		ldrb	r5, [sl, r5]	@ zero_extendqisi2
 1345              	.LVL97:
 1346              		.loc 1 258 0
 1347 052a 8BF80F30 		strb	r3, [fp, #15]
 1348              		.loc 1 259 0
 1349 052e 9CF89770 		ldrb	r7, [ip, #151]	@ zero_extendqisi2
 1350 0532 DDF840C0 		ldr	ip, [sp, #64]
 1351              	.LVL98:
 1352 0536 8CEA0707 		eor	r7, ip, r7
 1353              		.loc 1 260 0
 1354 053a DDF834C0 		ldr	ip, [sp, #52]
 1355              		.loc 1 259 0
 1356 053e 1AF80780 		ldrb	r8, [sl, r7]	@ zero_extendqisi2
 1357              		.loc 1 260 0
 1358 0542 DDF828A0 		ldr	sl, [sp, #40]
 1359              		.loc 1 259 0
 1360 0546 8BF80B80 		strb	r8, [fp, #11]
 1361              		.loc 1 260 0
 1362 054a 9AF89370 		ldrb	r7, [sl, #147]	@ zero_extendqisi2
 1363              		.loc 1 261 0
 1364 054e 8BF80350 		strb	r5, [fp, #3]
 1365              		.loc 1 260 0
ARM GAS  C:\Users\Vergil\AppData\Local\Temp\ccl0Rg49.s 			page 25


 1366 0552 40F2000A 		movw	sl, #:lower16:.LANCHOR1
 1367 0556 8CEA0707 		eor	r7, ip, r7
 1368 055a C0F2000A 		movt	sl, #:upper16:.LANCHOR1
 1369 055e 1AF80770 		ldrb	r7, [sl, r7]	@ zero_extendqisi2
 1370 0562 8BF80770 		strb	r7, [fp, #7]
 1371              		.loc 1 263 0
 1372 0566 DDF828C0 		ldr	ip, [sp, #40]
 1373 056a DDF80CA0 		ldr	sl, [sp, #12]
 1374 056e 9CF8A0C0 		ldrb	ip, [ip, #160]	@ zero_extendqisi2
 1375 0572 8AEA0C0C 		eor	ip, sl, ip
 1376              		.loc 1 264 0
 1377 0576 DDF828A0 		ldr	sl, [sp, #40]
 1378              		.loc 1 263 0
 1379 057a 8BF800C0 		strb	ip, [fp, #0]
 1380              		.loc 1 264 0
 1381 057e 9AF8A1C0 		ldrb	ip, [sl, #161]	@ zero_extendqisi2
 1382 0582 84EA0C04 		eor	r4, r4, ip
 1383 0586 8BF80140 		strb	r4, [fp, #1]
 1384              		.loc 1 265 0
 1385 058a 9AF8A2C0 		ldrb	ip, [sl, #162]	@ zero_extendqisi2
 1386 058e 80EA0C00 		eor	r0, r0, ip
 1387 0592 8BF80200 		strb	r0, [fp, #2]
 1388              		.loc 1 266 0
 1389 0596 9AF8A340 		ldrb	r4, [sl, #163]	@ zero_extendqisi2
 1390              		.loc 1 267 0
 1391 059a DDF810C0 		ldr	ip, [sp, #16]
 1392              		.loc 1 266 0
 1393 059e 6540     		eors	r5, r5, r4
 1394 05a0 8BF80350 		strb	r5, [fp, #3]
 1395              		.loc 1 267 0
 1396 05a4 9AF8A450 		ldrb	r5, [sl, #164]	@ zero_extendqisi2
 1397              		.loc 1 268 0
 1398 05a8 019C     		ldr	r4, [sp, #4]
 1399              		.loc 1 267 0
 1400 05aa 8CEA0500 		eor	r0, ip, r5
 1401 05ae 8BF80400 		strb	r0, [fp, #4]
 1402              		.loc 1 268 0
 1403 05b2 9AF8A550 		ldrb	r5, [sl, #165]	@ zero_extendqisi2
 1404 05b6 84EA0500 		eor	r0, r4, r5
 1405 05ba 8BF80500 		strb	r0, [fp, #5]
 1406              		.loc 1 269 0
 1407 05be 9AF8A650 		ldrb	r5, [sl, #166]	@ zero_extendqisi2
 1408 05c2 6E40     		eors	r6, r6, r5
 1409 05c4 8BF80660 		strb	r6, [fp, #6]
 1410              		.loc 1 270 0
 1411 05c8 9AF8A760 		ldrb	r6, [sl, #167]	@ zero_extendqisi2
 1412              		.loc 1 271 0
 1413 05cc 059D     		ldr	r5, [sp, #20]
 1414              		.loc 1 270 0
 1415 05ce 7740     		eors	r7, r7, r6
 1416 05d0 8BF80770 		strb	r7, [fp, #7]
 1417              		.loc 1 271 0
 1418 05d4 9AF8A870 		ldrb	r7, [sl, #168]	@ zero_extendqisi2
 1419 05d8 85EA0704 		eor	r4, r5, r7
 1420 05dc 8BF80840 		strb	r4, [fp, #8]
 1421              		.loc 1 272 0
 1422 05e0 9AF8A900 		ldrb	r0, [sl, #169]	@ zero_extendqisi2
ARM GAS  C:\Users\Vergil\AppData\Local\Temp\ccl0Rg49.s 			page 26


 1423 05e4 89EA0009 		eor	r9, r9, r0
 1424 05e8 8BF80990 		strb	r9, [fp, #9]
 1425              		.loc 1 273 0
 1426 05ec 9AF8AA60 		ldrb	r6, [sl, #170]	@ zero_extendqisi2
 1427 05f0 7140     		eors	r1, r1, r6
 1428 05f2 8BF80A10 		strb	r1, [fp, #10]
 1429              		.loc 1 274 0
 1430 05f6 9AF8AB10 		ldrb	r1, [sl, #171]	@ zero_extendqisi2
 1431              		.loc 1 275 0
 1432 05fa 069E     		ldr	r6, [sp, #24]
 1433              		.loc 1 274 0
 1434 05fc 88EA0104 		eor	r4, r8, r1
 1435 0600 8BF80B40 		strb	r4, [fp, #11]
 1436              		.loc 1 275 0
 1437 0604 9AF8AC70 		ldrb	r7, [sl, #172]	@ zero_extendqisi2
 1438 0608 86EA0700 		eor	r0, r6, r7
 1439 060c 8BF80C00 		strb	r0, [fp, #12]
 1440              		.loc 1 276 0
 1441 0610 9AF8AD10 		ldrb	r1, [sl, #173]	@ zero_extendqisi2
 1442 0614 079F     		ldr	r7, [sp, #28]
 1443 0616 87EA0100 		eor	r0, r7, r1
 1444 061a 8BF80D00 		strb	r0, [fp, #13]
 1445              		.loc 1 277 0
 1446 061e 9AF8AE10 		ldrb	r1, [sl, #174]	@ zero_extendqisi2
 1447 0622 4A40     		eors	r2, r2, r1
 1448 0624 8BF80E20 		strb	r2, [fp, #14]
 1449              		.loc 1 278 0
 1450 0628 9AF8AF20 		ldrb	r2, [sl, #175]	@ zero_extendqisi2
 1451 062c 5340     		eors	r3, r3, r2
 1452 062e 8BF80F30 		strb	r3, [fp, #15]
 1453              		.loc 1 279 0
 1454 0632 12B0     		add	sp, sp, #72
 1455 0634 BDE8F00F 		pop	{r4, r5, r6, r7, r8, r9, sl, fp}
 1456 0638 7047     		bx	lr
 1457              		.cfi_endproc
 1458              	.LFE2:
 1459              		.size	aes_encr, .-aes_encr
 1460              		.section	.text.aes_decr,"ax",%progbits
 1461              		.align	2
 1462              		.p2align 4,,15
 1463              		.global	aes_decr
 1464              		.thumb
 1465              		.thumb_func
 1466              		.type	aes_decr, %function
 1467              	aes_decr:
 1468              	.LFB3:
 1469              		.loc 1 304 0
 1470              		.cfi_startproc
 1471              		@ args = 0, pretend = 0, frame = 64
 1472              		@ frame_needed = 0, uses_anonymous_args = 0
 1473              		@ link register save eliminated.
 1474              	.LVL99:
 1475 0000 2DE9F00F 		push	{r4, r5, r6, r7, r8, r9, sl, fp}
 1476              	.LCFI4:
 1477              		.cfi_def_cfa_offset 32
 1478              		.cfi_offset 4, -32
 1479              		.cfi_offset 5, -28
ARM GAS  C:\Users\Vergil\AppData\Local\Temp\ccl0Rg49.s 			page 27


 1480              		.cfi_offset 6, -24
 1481              		.cfi_offset 7, -20
 1482              		.cfi_offset 8, -16
 1483              		.cfi_offset 9, -12
 1484              		.cfi_offset 10, -8
 1485              		.cfi_offset 11, -4
 1486              		.loc 1 310 0
 1487 0004 0278     		ldrb	r2, [r0, #0]	@ zero_extendqisi2
 1488 0006 91F8A0A0 		ldrb	sl, [r1, #160]	@ zero_extendqisi2
 1489              		.loc 1 311 0
 1490 000a 90F80180 		ldrb	r8, [r0, #1]	@ zero_extendqisi2
 1491              		.loc 1 312 0
 1492 000e 90F802C0 		ldrb	ip, [r0, #2]	@ zero_extendqisi2
 1493              		.loc 1 313 0
 1494 0012 C778     		ldrb	r7, [r0, #3]	@ zero_extendqisi2
 1495              		.loc 1 304 0
 1496 0014 8146     		mov	r9, r0
 1497              		.loc 1 310 0
 1498 0016 8AEA0202 		eor	r2, sl, r2
 1499              		.loc 1 314 0
 1500 001a 0079     		ldrb	r0, [r0, #4]	@ zero_extendqisi2
 1501              	.LVL100:
 1502              		.loc 1 310 0
 1503 001c 89F80020 		strb	r2, [r9, #0]
 1504              		.loc 1 311 0
 1505 0020 91F8A1A0 		ldrb	sl, [r1, #161]	@ zero_extendqisi2
 1506              		.loc 1 315 0
 1507 0024 99F80530 		ldrb	r3, [r9, #5]	@ zero_extendqisi2
 1508              		.loc 1 316 0
 1509 0028 99F80660 		ldrb	r6, [r9, #6]	@ zero_extendqisi2
 1510              		.loc 1 319 0
 1511 002c 99F809B0 		ldrb	fp, [r9, #9]	@ zero_extendqisi2
 1512              		.loc 1 317 0
 1513 0030 99F80750 		ldrb	r5, [r9, #7]	@ zero_extendqisi2
 1514              		.loc 1 318 0
 1515 0034 99F80840 		ldrb	r4, [r9, #8]	@ zero_extendqisi2
 1516              		.loc 1 311 0
 1517 0038 8AEA080A 		eor	sl, sl, r8
 1518 003c 89F801A0 		strb	sl, [r9, #1]
 1519              		.loc 1 312 0
 1520 0040 91F8A280 		ldrb	r8, [r1, #162]	@ zero_extendqisi2
 1521              		.loc 1 304 0
 1522 0044 90B0     		sub	sp, sp, #64
 1523              	.LCFI5:
 1524              		.cfi_def_cfa_offset 96
 1525              		.loc 1 312 0
 1526 0046 88EA0C0C 		eor	ip, r8, ip
 1527 004a 89F802C0 		strb	ip, [r9, #2]
 1528              		.loc 1 310 0
 1529 004e 0692     		str	r2, [sp, #24]
 1530              		.loc 1 313 0
 1531 0050 91F8A320 		ldrb	r2, [r1, #163]	@ zero_extendqisi2
 1532              		.loc 1 319 0
 1533 0054 CDF81CB0 		str	fp, [sp, #28]
 1534              		.loc 1 313 0
 1535 0058 5740     		eors	r7, r7, r2
 1536 005a 89F80370 		strb	r7, [r9, #3]
ARM GAS  C:\Users\Vergil\AppData\Local\Temp\ccl0Rg49.s 			page 28


 1537              		.loc 1 314 0
 1538 005e 91F8A420 		ldrb	r2, [r1, #164]	@ zero_extendqisi2
 1539              		.loc 1 313 0
 1540 0062 0197     		str	r7, [sp, #4]
 1541              		.loc 1 314 0
 1542 0064 5040     		eors	r0, r0, r2
 1543 0066 89F80400 		strb	r0, [r9, #4]
 1544              		.loc 1 315 0
 1545 006a 91F8A570 		ldrb	r7, [r1, #165]	@ zero_extendqisi2
 1546              		.loc 1 320 0
 1547 006e 99F80AB0 		ldrb	fp, [r9, #10]	@ zero_extendqisi2
 1548              		.loc 1 312 0
 1549 0072 CDF814C0 		str	ip, [sp, #20]
 1550              		.loc 1 315 0
 1551 0076 7B40     		eors	r3, r3, r7
 1552 0078 89F80530 		strb	r3, [r9, #5]
 1553              		.loc 1 316 0
 1554 007c 91F8A620 		ldrb	r2, [r1, #166]	@ zero_extendqisi2
 1555              		.loc 1 320 0
 1556 0080 CDF808B0 		str	fp, [sp, #8]
 1557              		.loc 1 316 0
 1558 0084 5640     		eors	r6, r6, r2
 1559 0086 89F80660 		strb	r6, [r9, #6]
 1560              		.loc 1 317 0
 1561 008a 91F8A770 		ldrb	r7, [r1, #167]	@ zero_extendqisi2
 1562              		.loc 1 321 0
 1563 008e 99F80BB0 		ldrb	fp, [r9, #11]	@ zero_extendqisi2
 1564              		.loc 1 316 0
 1565 0092 0096     		str	r6, [sp, #0]
 1566              		.loc 1 317 0
 1567 0094 7D40     		eors	r5, r5, r7
 1568 0096 0495     		str	r5, [sp, #16]
 1569 0098 89F80750 		strb	r5, [r9, #7]
 1570              		.loc 1 318 0
 1571 009c 91F8A820 		ldrb	r2, [r1, #168]	@ zero_extendqisi2
 1572              		.loc 1 319 0
 1573 00a0 079E     		ldr	r6, [sp, #28]
 1574              		.loc 1 320 0
 1575 00a2 029F     		ldr	r7, [sp, #8]
 1576              		.loc 1 322 0
 1577 00a4 99F80C80 		ldrb	r8, [r9, #12]	@ zero_extendqisi2
 1578              		.loc 1 323 0
 1579 00a8 99F80DC0 		ldrb	ip, [r9, #13]	@ zero_extendqisi2
 1580              		.loc 1 318 0
 1581 00ac 5440     		eors	r4, r4, r2
 1582 00ae 89F80840 		strb	r4, [r9, #8]
 1583              		.loc 1 319 0
 1584 00b2 91F8A950 		ldrb	r5, [r1, #169]	@ zero_extendqisi2
 1585 00b6 7540     		eors	r5, r5, r6
 1586 00b8 89F80950 		strb	r5, [r9, #9]
 1587              		.loc 1 320 0
 1588 00bc 91F8AA20 		ldrb	r2, [r1, #170]	@ zero_extendqisi2
 1589 00c0 7A40     		eors	r2, r2, r7
 1590 00c2 89F80A20 		strb	r2, [r9, #10]
 1591              		.loc 1 321 0
 1592 00c6 91F8AB60 		ldrb	r6, [r1, #171]	@ zero_extendqisi2
 1593              		.loc 1 325 0
ARM GAS  C:\Users\Vergil\AppData\Local\Temp\ccl0Rg49.s 			page 29


 1594 00ca 99F80F70 		ldrb	r7, [r9, #15]	@ zero_extendqisi2
 1595              		.loc 1 320 0
 1596 00ce 0892     		str	r2, [sp, #32]
 1597              		.loc 1 321 0
 1598 00d0 86EA0B02 		eor	r2, r6, fp
 1599 00d4 89F80B20 		strb	r2, [r9, #11]
 1600 00d8 0992     		str	r2, [sp, #36]
 1601              		.loc 1 328 0
 1602 00da 40F20002 		movw	r2, #:lower16:.LANCHOR2
 1603 00de C0F20002 		movt	r2, #:upper16:.LANCHOR2
 1604              		.loc 1 322 0
 1605 00e2 91F8ACB0 		ldrb	fp, [r1, #172]	@ zero_extendqisi2
 1606              		.loc 1 325 0
 1607 00e6 0397     		str	r7, [sp, #12]
 1608              		.loc 1 328 0
 1609 00e8 069F     		ldr	r7, [sp, #24]
 1610              		.loc 1 324 0
 1611 00ea 99F80E60 		ldrb	r6, [r9, #14]	@ zero_extendqisi2
 1612              		.loc 1 328 0
 1613 00ee D75D     		ldrb	r7, [r2, r7]	@ zero_extendqisi2
 1614              		.loc 1 334 0
 1615 00f0 555D     		ldrb	r5, [r2, r5]	@ zero_extendqisi2
 1616              		.loc 1 328 0
 1617 00f2 0297     		str	r7, [sp, #8]
 1618              		.loc 1 322 0
 1619 00f4 8BEA080B 		eor	fp, fp, r8
 1620 00f8 89F80CB0 		strb	fp, [r9, #12]
 1621              		.loc 1 323 0
 1622 00fc 91F8AD70 		ldrb	r7, [r1, #173]	@ zero_extendqisi2
 1623              		.loc 1 335 0
 1624 0100 D35C     		ldrb	r3, [r2, r3]	@ zero_extendqisi2
 1625              		.loc 1 336 0
 1626 0102 12F80AA0 		ldrb	sl, [r2, sl]	@ zero_extendqisi2
 1627              		.loc 1 329 0
 1628 0106 105C     		ldrb	r0, [r2, r0]	@ zero_extendqisi2
 1629              		.loc 1 330 0
 1630 0108 145D     		ldrb	r4, [r2, r4]	@ zero_extendqisi2
 1631              		.loc 1 334 0
 1632 010a 0695     		str	r5, [sp, #24]
 1633              		.loc 1 323 0
 1634 010c 87EA0C0C 		eor	ip, r7, ip
 1635 0110 89F80DC0 		strb	ip, [r9, #13]
 1636              		.loc 1 324 0
 1637 0114 91F8AE80 		ldrb	r8, [r1, #174]	@ zero_extendqisi2
 1638              		.loc 1 331 0
 1639 0118 12F80B50 		ldrb	r5, [r2, fp]	@ zero_extendqisi2
 1640              		.loc 1 335 0
 1641 011c 0793     		str	r3, [sp, #28]
 1642              		.loc 1 324 0
 1643 011e 88EA0606 		eor	r6, r8, r6
 1644              		.loc 1 333 0
 1645 0122 12F80C30 		ldrb	r3, [r2, ip]	@ zero_extendqisi2
 1646              		.loc 1 324 0
 1647 0126 89F80E60 		strb	r6, [r9, #14]
 1648              		.loc 1 325 0
 1649 012a 91F8AF20 		ldrb	r2, [r1, #175]	@ zero_extendqisi2
 1650 012e 039F     		ldr	r7, [sp, #12]
ARM GAS  C:\Users\Vergil\AppData\Local\Temp\ccl0Rg49.s 			page 30


 1651 0130 82EA070B 		eor	fp, r2, r7
 1652 0134 89F80FB0 		strb	fp, [r9, #15]
 1653              		.loc 1 328 0
 1654 0138 91F89070 		ldrb	r7, [r1, #144]	@ zero_extendqisi2
 1655 013c 029A     		ldr	r2, [sp, #8]
 1656 013e 7A40     		eors	r2, r2, r7
 1657 0140 89F80020 		strb	r2, [r9, #0]
 1658              		.loc 1 329 0
 1659 0144 91F89470 		ldrb	r7, [r1, #148]	@ zero_extendqisi2
 1660              		.loc 1 328 0
 1661 0148 0A92     		str	r2, [sp, #40]
 1662              		.loc 1 329 0
 1663 014a 7840     		eors	r0, r0, r7
 1664 014c 89F80400 		strb	r0, [r9, #4]
 1665              		.loc 1 330 0
 1666 0150 91F89820 		ldrb	r2, [r1, #152]	@ zero_extendqisi2
 1667              		.loc 1 329 0
 1668 0154 0B90     		str	r0, [sp, #44]
 1669              		.loc 1 330 0
 1670 0156 5440     		eors	r4, r4, r2
 1671 0158 89F80840 		strb	r4, [r9, #8]
 1672              		.loc 1 331 0
 1673 015c 91F89C70 		ldrb	r7, [r1, #156]	@ zero_extendqisi2
 1674              		.loc 1 330 0
 1675 0160 0294     		str	r4, [sp, #8]
 1676              		.loc 1 331 0
 1677 0162 7D40     		eors	r5, r5, r7
 1678 0164 89F80C50 		strb	r5, [r9, #12]
 1679              		.loc 1 334 0
 1680 0168 91F89D20 		ldrb	r2, [r1, #157]	@ zero_extendqisi2
 1681 016c 069C     		ldr	r4, [sp, #24]
 1682              		.loc 1 333 0
 1683 016e 91F89100 		ldrb	r0, [r1, #145]	@ zero_extendqisi2
 1684              		.loc 1 331 0
 1685 0172 0395     		str	r5, [sp, #12]
 1686              		.loc 1 334 0
 1687 0174 5440     		eors	r4, r4, r2
 1688 0176 89F80D40 		strb	r4, [r9, #13]
 1689              		.loc 1 335 0
 1690 017a 91F89970 		ldrb	r7, [r1, #153]	@ zero_extendqisi2
 1691 017e 079D     		ldr	r5, [sp, #28]
 1692              		.loc 1 334 0
 1693 0180 0694     		str	r4, [sp, #24]
 1694              		.loc 1 335 0
 1695 0182 7D40     		eors	r5, r5, r7
 1696 0184 89F80950 		strb	r5, [r9, #9]
 1697              		.loc 1 336 0
 1698 0188 91F89520 		ldrb	r2, [r1, #149]	@ zero_extendqisi2
 1699              		.loc 1 335 0
 1700 018c 0795     		str	r5, [sp, #28]
 1701              		.loc 1 333 0
 1702 018e 83EA0008 		eor	r8, r3, r0
 1703              	.LVL101:
 1704              		.loc 1 336 0
 1705 0192 8AEA0203 		eor	r3, sl, r2
 1706 0196 89F80530 		strb	r3, [r9, #5]
 1707              		.loc 1 337 0
ARM GAS  C:\Users\Vergil\AppData\Local\Temp\ccl0Rg49.s 			page 31


 1708 019a 89F80180 		strb	r8, [r9, #1]
 1709              		.loc 1 341 0
 1710 019e 40F2000C 		movw	ip, #:lower16:.LANCHOR2
 1711 01a2 C0F2000C 		movt	ip, #:upper16:.LANCHOR2
 1712 01a6 0898     		ldr	r0, [sp, #32]
 1713              		.loc 1 339 0
 1714 01a8 91F89A40 		ldrb	r4, [r1, #154]	@ zero_extendqisi2
 1715              		.loc 1 341 0
 1716 01ac 1CF80020 		ldrb	r2, [ip, r0]	@ zero_extendqisi2
 1717              		.loc 1 336 0
 1718 01b0 0C93     		str	r3, [sp, #48]
 1719              		.loc 1 341 0
 1720 01b2 91F89230 		ldrb	r3, [r1, #146]	@ zero_extendqisi2
 1721              		.loc 1 339 0
 1722 01b6 0894     		str	r4, [sp, #32]
 1723 01b8 059F     		ldr	r7, [sp, #20]
 1724              		.loc 1 340 0
 1725 01ba 009C     		ldr	r4, [sp, #0]
 1726              		.loc 1 339 0
 1727 01bc 1CF80700 		ldrb	r0, [ip, r7]	@ zero_extendqisi2
 1728              		.loc 1 348 0
 1729 01c0 099F     		ldr	r7, [sp, #36]
 1730              		.loc 1 340 0
 1731 01c2 1CF804A0 		ldrb	sl, [ip, r4]	@ zero_extendqisi2
 1732              		.loc 1 348 0
 1733 01c6 1CF80770 		ldrb	r7, [ip, r7]	@ zero_extendqisi2
 1734              		.loc 1 342 0
 1735 01ca 1CF80640 		ldrb	r4, [ip, r6]	@ zero_extendqisi2
 1736              		.loc 1 348 0
 1737 01ce 0997     		str	r7, [sp, #36]
 1738              		.loc 1 347 0
 1739 01d0 049E     		ldr	r6, [sp, #16]
 1740              		.loc 1 346 0
 1741 01d2 019F     		ldr	r7, [sp, #4]
 1742              		.loc 1 340 0
 1743 01d4 91F89E50 		ldrb	r5, [r1, #158]	@ zero_extendqisi2
 1744              		.loc 1 347 0
 1745 01d8 1CF80660 		ldrb	r6, [ip, r6]	@ zero_extendqisi2
 1746              		.loc 1 346 0
 1747 01dc 1CF80770 		ldrb	r7, [ip, r7]	@ zero_extendqisi2
 1748              		.loc 1 349 0
 1749 01e0 1CF80BC0 		ldrb	ip, [ip, fp]	@ zero_extendqisi2
 1750              		.loc 1 339 0
 1751 01e4 DDF820B0 		ldr	fp, [sp, #32]
 1752              		.loc 1 346 0
 1753 01e8 0497     		str	r7, [sp, #16]
 1754              		.loc 1 341 0
 1755 01ea 5A40     		eors	r2, r2, r3
 1756 01ec 89F80220 		strb	r2, [r9, #2]
 1757              		.loc 1 342 0
 1758 01f0 91F89630 		ldrb	r3, [r1, #150]	@ zero_extendqisi2
 1759              		.loc 1 339 0
 1760 01f4 80EA0B00 		eor	r0, r0, fp
 1761              		.loc 1 340 0
 1762 01f8 8AEA0505 		eor	r5, sl, r5
 1763              		.loc 1 342 0
 1764 01fc 5C40     		eors	r4, r4, r3
ARM GAS  C:\Users\Vergil\AppData\Local\Temp\ccl0Rg49.s 			page 32


 1765              		.loc 1 343 0
 1766 01fe 89F80A00 		strb	r0, [r9, #10]
 1767              		.loc 1 342 0
 1768 0202 89F80640 		strb	r4, [r9, #6]
 1769              		.loc 1 344 0
 1770 0206 89F80E50 		strb	r5, [r9, #14]
 1771              		.loc 1 347 0
 1772 020a 91F89370 		ldrb	r7, [r1, #147]	@ zero_extendqisi2
 1773              		.loc 1 339 0
 1774 020e 0590     		str	r0, [sp, #20]
 1775              	.LVL102:
 1776              		.loc 1 347 0
 1777 0210 86EA0700 		eor	r0, r6, r7
 1778              		.loc 1 340 0
 1779 0214 0195     		str	r5, [sp, #4]
 1780              	.LVL103:
 1781              		.loc 1 346 0
 1782 0216 91F89F50 		ldrb	r5, [r1, #159]	@ zero_extendqisi2
 1783              		.loc 1 347 0
 1784 021a 89F80300 		strb	r0, [r9, #3]
 1785              		.loc 1 348 0
 1786 021e 91F897A0 		ldrb	sl, [r1, #151]	@ zero_extendqisi2
 1787 0222 099E     		ldr	r6, [sp, #36]
 1788              		.loc 1 346 0
 1789 0224 049F     		ldr	r7, [sp, #16]
 1790              		.loc 1 348 0
 1791 0226 86EA0A03 		eor	r3, r6, sl
 1792 022a 89F80730 		strb	r3, [r9, #7]
 1793              		.loc 1 349 0
 1794 022e 91F89BB0 		ldrb	fp, [r1, #155]	@ zero_extendqisi2
 1795 0232 DDF82CA0 		ldr	sl, [sp, #44]
 1796              		.loc 1 346 0
 1797 0236 6F40     		eors	r7, r7, r5
 1798              	.LVL104:
 1799              		.loc 1 349 0
 1800 0238 8CEA0B0B 		eor	fp, ip, fp
 1801              	.LVL105:
 1802 023c 0925     		movs	r5, #9
 1803 023e 0F95     		str	r5, [sp, #60]
 1804 0240 0097     		str	r7, [sp, #0]
 1805 0242 0546     		mov	r5, r0
 1806 0244 8C46     		mov	ip, r1
 1807 0246 0C98     		ldr	r0, [sp, #48]
 1808 0248 CDF810B0 		str	fp, [sp, #16]
 1809 024c 1F46     		mov	r7, r3
 1810              	.LVL106:
 1811 024e DDF828B0 		ldr	fp, [sp, #40]
 1812 0252 45E1     		b	.L111
 1813              	.LVL107:
 1814              	.L91:
 1815              	.LBB186:
 1816              	.LBB187:
 1817              		.loc 1 149 0
 1818 0254 6400     		lsls	r4, r4, #1
 1819              	.LVL108:
 1820 0256 E1B2     		uxtb	r1, r4
 1821              	.LVL109:
ARM GAS  C:\Users\Vergil\AppData\Local\Temp\ccl0Rg49.s 			page 33


 1822              	.L92:
 1823              	.LBE187:
 1824              	.LBE186:
 1825              		.loc 1 384 0
 1826 0258 099D     		ldr	r5, [sp, #36]
 1827 025a 0A98     		ldr	r0, [sp, #40]
 1828 025c 0A9A     		ldr	r2, [sp, #40]
 1829 025e 80EA0504 		eor	r4, r0, r5
 1830              	.LVL110:
 1831              		.loc 1 383 0
 1832 0262 87EA0A0A 		eor	sl, r7, sl
 1833 0266 81EA0A0B 		eor	fp, r1, sl
 1834              	.LVL111:
 1835              		.loc 1 386 0
 1836 026a 0298     		ldr	r0, [sp, #8]
 1837              		.loc 1 383 0
 1838 026c 89F806B0 		strb	fp, [r9, #6]
 1839              	.LBB190:
 1840              	.LBB191:
 1841              		.loc 1 146 0
 1842 0270 4FEA4401 		lsl	r1, r4, #1
 1843 0274 CBB2     		uxtb	r3, r1
 1844              	.LVL112:
 1845              		.loc 1 144 0
 1846 0276 14F0800F 		tst	r4, #128
 1847              	.LBE191:
 1848              	.LBE190:
 1849              		.loc 1 386 0
 1850 027a 86EA0005 		eor	r5, r6, r0
 1851              	.LBB193:
 1852              	.LBB192:
 1853              		.loc 1 147 0
 1854 027e 18BF     		it	ne
 1855 0280 83F01B03 		eorne	r3, r3, #27
 1856              	.LBE192:
 1857              	.LBE193:
 1858              		.loc 1 384 0
 1859 0284 5740     		eors	r7, r7, r2
 1860              	.LVL113:
 1861              		.loc 1 386 0
 1862 0286 079C     		ldr	r4, [sp, #28]
 1863 0288 0599     		ldr	r1, [sp, #20]
 1864              	.LVL114:
 1865              		.loc 1 389 0
 1866 028a 0798     		ldr	r0, [sp, #28]
 1867              		.loc 1 388 0
 1868 028c 029A     		ldr	r2, [sp, #8]
 1869              	.LVL115:
 1870              		.loc 1 384 0
 1871 028e 5F40     		eors	r7, r7, r3
 1872              	.LBB194:
 1873              	.LBB195:
 1874              		.loc 1 144 0
 1875 0290 15F0800F 		tst	r5, #128
 1876              		.loc 1 146 0
 1877 0294 4FEA4503 		lsl	r3, r5, #1
 1878              		.loc 1 147 0
ARM GAS  C:\Users\Vergil\AppData\Local\Temp\ccl0Rg49.s 			page 34


 1879 0298 18BF     		it	ne
 1880 029a 83F01B03 		eorne	r3, r3, #27
 1881              	.LBE195:
 1882              	.LBE194:
 1883              		.loc 1 386 0
 1884 029e 6140     		eors	r1, r1, r4
 1885 02a0 81EA0504 		eor	r4, r1, r5
 1886              	.LVL116:
 1887              	.LBB197:
 1888              	.LBB196:
 1889              		.loc 1 149 0
 1890 02a4 DDB2     		uxtb	r5, r3
 1891              	.LBE196:
 1892              	.LBE197:
 1893              		.loc 1 389 0
 1894 02a6 86EA0003 		eor	r3, r6, r0
 1895              	.LVL117:
 1896              		.loc 1 384 0
 1897 02aa 0997     		str	r7, [sp, #36]
 1898 02ac 89F80770 		strb	r7, [r9, #7]
 1899              		.loc 1 388 0
 1900 02b0 84EA0207 		eor	r7, r4, r2
 1901              	.LBB198:
 1902              	.LBB199:
 1903              		.loc 1 146 0
 1904 02b4 4FEA4302 		lsl	r2, r3, #1
 1905              		.loc 1 144 0
 1906 02b8 13F0800F 		tst	r3, #128
 1907              		.loc 1 146 0
 1908 02bc D0B2     		uxtb	r0, r2
 1909              	.LVL118:
 1910              		.loc 1 147 0
 1911 02be 18BF     		it	ne
 1912 02c0 80F01B00 		eorne	r0, r0, #27
 1913              	.LBE199:
 1914              	.LBE198:
 1915              		.loc 1 389 0
 1916 02c4 6640     		eors	r6, r6, r4
 1917              		.loc 1 388 0
 1918 02c6 7D40     		eors	r5, r5, r7
 1919              		.loc 1 389 0
 1920 02c8 7040     		eors	r0, r0, r6
 1921              	.LBB200:
 1922              	.LBB201:
 1923              		.loc 1 144 0
 1924 02ca 0F06     		lsls	r7, r1, #24
 1925              	.LBE201:
 1926              	.LBE200:
 1927              		.loc 1 388 0
 1928 02cc 89F80850 		strb	r5, [r9, #8]
 1929              		.loc 1 389 0
 1930 02d0 89F80900 		strb	r0, [r9, #9]
 1931              	.LVL119:
 1932              	.LBB204:
 1933              	.LBB202:
 1934              		.loc 1 144 0
 1935 02d4 00F14182 		bmi	.L113
ARM GAS  C:\Users\Vergil\AppData\Local\Temp\ccl0Rg49.s 			page 35


 1936              		.loc 1 149 0
 1937 02d8 4900     		lsls	r1, r1, #1
 1938              	.LVL120:
 1939 02da CFB2     		uxtb	r7, r1
 1940              	.LVL121:
 1941              	.L100:
 1942              	.LBE202:
 1943              	.LBE204:
 1944              		.loc 1 390 0
 1945 02dc 079E     		ldr	r6, [sp, #28]
 1946              		.loc 1 391 0
 1947 02de 029B     		ldr	r3, [sp, #8]
 1948              		.loc 1 390 0
 1949 02e0 84EA0601 		eor	r1, r4, r6
 1950 02e4 7940     		eors	r1, r1, r7
 1951              		.loc 1 391 0
 1952 02e6 059F     		ldr	r7, [sp, #20]
 1953              		.loc 1 390 0
 1954 02e8 89F80A10 		strb	r1, [r9, #10]
 1955              		.loc 1 391 0
 1956 02ec 87EA0308 		eor	r8, r7, r3
 1957              	.LVL122:
 1958              	.LBB205:
 1959              	.LBB206:
 1960              		.loc 1 146 0
 1961 02f0 4FEA4802 		lsl	r2, r8, #1
 1962              	.LBE206:
 1963              	.LBE205:
 1964              		.loc 1 391 0
 1965 02f4 059F     		ldr	r7, [sp, #20]
 1966              		.loc 1 393 0
 1967 02f6 039B     		ldr	r3, [sp, #12]
 1968              	.LBB208:
 1969              	.LBB207:
 1970              		.loc 1 146 0
 1971 02f8 D6B2     		uxtb	r6, r2
 1972              	.LVL123:
 1973              		.loc 1 144 0
 1974 02fa 18F0800F 		tst	r8, #128
 1975              		.loc 1 147 0
 1976 02fe 18BF     		it	ne
 1977 0300 86F01B06 		eorne	r6, r6, #27
 1978              	.LBE207:
 1979              	.LBE208:
 1980              		.loc 1 391 0
 1981 0304 7C40     		eors	r4, r4, r7
 1982              	.LVL124:
 1983 0306 7440     		eors	r4, r4, r6
 1984 0308 0A94     		str	r4, [sp, #40]
 1985              		.loc 1 393 0
 1986 030a 069C     		ldr	r4, [sp, #24]
 1987              		.loc 1 391 0
 1988 030c 0A9A     		ldr	r2, [sp, #40]
 1989              	.LVL125:
 1990              		.loc 1 393 0
 1991 030e 5C40     		eors	r4, r4, r3
 1992 0310 9DE88800 		ldmia	sp, {r3, r7}
ARM GAS  C:\Users\Vergil\AppData\Local\Temp\ccl0Rg49.s 			page 36


 1993              	.LBB209:
 1994              	.LBB210:
 1995              		.loc 1 144 0
 1996 0314 14F0800F 		tst	r4, #128
 1997              	.LBE210:
 1998              	.LBE209:
 1999              		.loc 1 393 0
 2000 0318 83EA0703 		eor	r3, r3, r7
 2001              	.LBB214:
 2002              	.LBB211:
 2003              		.loc 1 146 0
 2004 031c 4FEA4406 		lsl	r6, r4, #1
 2005              	.LBE211:
 2006              	.LBE214:
 2007              		.loc 1 395 0
 2008 0320 039F     		ldr	r7, [sp, #12]
 2009              		.loc 1 391 0
 2010 0322 89F80B20 		strb	r2, [r9, #11]
 2011              		.loc 1 393 0
 2012 0326 83EA040A 		eor	sl, r3, r4
 2013              	.LVL126:
 2014              	.LBB215:
 2015              	.LBB212:
 2016              		.loc 1 147 0
 2017 032a 18BF     		it	ne
 2018 032c 86F01B06 		eorne	r6, r6, #27
 2019              	.LVL127:
 2020              	.LBE212:
 2021              	.LBE215:
 2022              		.loc 1 395 0
 2023 0330 8AEA0702 		eor	r2, sl, r7
 2024              	.LBB216:
 2025              	.LBB213:
 2026              		.loc 1 149 0
 2027 0334 F4B2     		uxtb	r4, r6
 2028              	.LVL128:
 2029              	.LBE213:
 2030              	.LBE216:
 2031              		.loc 1 396 0
 2032 0336 019F     		ldr	r7, [sp, #4]
 2033              	.LVL129:
 2034 0338 069E     		ldr	r6, [sp, #24]
 2035 033a 7E40     		eors	r6, r6, r7
 2036              	.LVL130:
 2037              	.LBB217:
 2038              	.LBB218:
 2039              		.loc 1 144 0
 2040 033c 16F0800F 		tst	r6, #128
 2041              	.LBE218:
 2042              	.LBE217:
 2043              		.loc 1 395 0
 2044 0340 84EA0204 		eor	r4, r4, r2
 2045              	.LBB221:
 2046              	.LBB219:
 2047              		.loc 1 146 0
 2048 0344 4FEA4602 		lsl	r2, r6, #1
 2049              	.LBE219:
ARM GAS  C:\Users\Vergil\AppData\Local\Temp\ccl0Rg49.s 			page 37


 2050              	.LBE221:
 2051              		.loc 1 396 0
 2052 0348 069E     		ldr	r6, [sp, #24]
 2053              	.LVL131:
 2054              		.loc 1 395 0
 2055 034a 89F80C40 		strb	r4, [r9, #12]
 2056              	.LBB222:
 2057              	.LBB220:
 2058              		.loc 1 146 0
 2059 034e D2B2     		uxtb	r2, r2
 2060              	.LVL132:
 2061              		.loc 1 147 0
 2062 0350 18BF     		it	ne
 2063 0352 82F01B02 		eorne	r2, r2, #27
 2064              	.LVL133:
 2065              	.LBE220:
 2066              	.LBE222:
 2067              		.loc 1 396 0
 2068 0356 8AEA0607 		eor	r7, sl, r6
 2069              	.LVL134:
 2070 035a 7A40     		eors	r2, r2, r7
 2071              	.LBB223:
 2072              	.LBB224:
 2073              		.loc 1 144 0
 2074 035c 1E06     		lsls	r6, r3, #24
 2075              	.LBE224:
 2076              	.LBE223:
 2077              		.loc 1 396 0
 2078 035e 89F80D20 		strb	r2, [r9, #13]
 2079              	.LVL135:
 2080              	.LBB227:
 2081              	.LBB225:
 2082              		.loc 1 144 0
 2083 0362 00F1F581 		bmi	.L114
 2084              		.loc 1 149 0
 2085 0366 5B00     		lsls	r3, r3, #1
 2086              	.LVL136:
 2087 0368 DEB2     		uxtb	r6, r3
 2088              	.LVL137:
 2089              	.L108:
 2090              	.LBE225:
 2091              	.LBE227:
 2092              		.loc 1 397 0
 2093 036a 019F     		ldr	r7, [sp, #4]
 2094 036c 8AEA0703 		eor	r3, sl, r7
 2095 0370 7340     		eors	r3, r3, r6
 2096              		.loc 1 398 0
 2097 0372 009F     		ldr	r7, [sp, #0]
 2098 0374 039E     		ldr	r6, [sp, #12]
 2099              		.loc 1 397 0
 2100 0376 89F80E30 		strb	r3, [r9, #14]
 2101              		.loc 1 398 0
 2102 037a 7740     		eors	r7, r7, r6
 2103              	.LVL138:
 2104              	.LBB228:
 2105              	.LBB229:
 2106              		.loc 1 144 0
ARM GAS  C:\Users\Vergil\AppData\Local\Temp\ccl0Rg49.s 			page 38


 2107 037c 17F0800F 		tst	r7, #128
 2108              	.LBE229:
 2109              	.LBE228:
 2110              		.loc 1 398 0
 2111 0380 009E     		ldr	r6, [sp, #0]
 2112              	.LBB231:
 2113              	.LBB230:
 2114              		.loc 1 146 0
 2115 0382 4FEA4707 		lsl	r7, r7, #1
 2116              	.LVL139:
 2117 0386 FFB2     		uxtb	r7, r7
 2118              	.LVL140:
 2119              		.loc 1 147 0
 2120 0388 18BF     		it	ne
 2121 038a 87F01B07 		eorne	r7, r7, #27
 2122              	.LVL141:
 2123              	.LBE230:
 2124              	.LBE231:
 2125              		.loc 1 398 0
 2126 038e 8AEA0608 		eor	r8, sl, r6
 2127              	.LVL142:
 2128              		.loc 1 402 0
 2129 0392 40F20006 		movw	r6, #:lower16:.LANCHOR2
 2130              	.LVL143:
 2131 0396 C0F20006 		movt	r6, #:upper16:.LANCHOR2
 2132              		.loc 1 398 0
 2133 039a 87EA080A 		eor	sl, r7, r8
 2134              	.LVL144:
 2135              		.loc 1 402 0
 2136 039e 049F     		ldr	r7, [sp, #16]
 2137              		.loc 1 404 0
 2138 03a0 755D     		ldrb	r5, [r6, r5]	@ zero_extendqisi2
 2139              		.loc 1 402 0
 2140 03a2 F75D     		ldrb	r7, [r6, r7]	@ zero_extendqisi2
 2141              		.loc 1 404 0
 2142 03a4 0395     		str	r5, [sp, #12]
 2143              		.loc 1 402 0
 2144 03a6 0297     		str	r7, [sp, #8]
 2145              		.loc 1 403 0
 2146 03a8 0D9F     		ldr	r7, [sp, #52]
 2147              		.loc 1 398 0
 2148 03aa 89F80FA0 		strb	sl, [r9, #15]
 2149              		.loc 1 403 0
 2150 03ae 16F80780 		ldrb	r8, [r6, r7]	@ zero_extendqisi2
 2151              		.loc 1 405 0
 2152 03b2 375D     		ldrb	r7, [r6, r4]	@ zero_extendqisi2
 2153              		.loc 1 398 0
 2154 03b4 CDF800A0 		str	sl, [sp, #0]
 2155              		.loc 1 408 0
 2156 03b8 3446     		mov	r4, r6
 2157 03ba 365C     		ldrb	r6, [r6, r0]	@ zero_extendqisi2
 2158              		.loc 1 409 0
 2159 03bc 0E98     		ldr	r0, [sp, #56]
 2160              		.loc 1 402 0
 2161 03be 9CF880A0 		ldrb	sl, [ip, #128]	@ zero_extendqisi2
 2162              		.loc 1 409 0
 2163 03c2 255C     		ldrb	r5, [r4, r0]	@ zero_extendqisi2
ARM GAS  C:\Users\Vergil\AppData\Local\Temp\ccl0Rg49.s 			page 39


 2164              		.loc 1 407 0
 2165 03c4 2046     		mov	r0, r4
 2166 03c6 A45C     		ldrb	r4, [r4, r2]	@ zero_extendqisi2
 2167              		.loc 1 410 0
 2168 03c8 0B9A     		ldr	r2, [sp, #44]
 2169              		.loc 1 414 0
 2170 03ca 10F80BB0 		ldrb	fp, [r0, fp]	@ zero_extendqisi2
 2171              		.loc 1 410 0
 2172 03ce 825C     		ldrb	r2, [r0, r2]	@ zero_extendqisi2
 2173              		.loc 1 416 0
 2174 03d0 C35C     		ldrb	r3, [r0, r3]	@ zero_extendqisi2
 2175              		.loc 1 410 0
 2176 03d2 0492     		str	r2, [sp, #16]
 2177              		.loc 1 415 0
 2178 03d4 425C     		ldrb	r2, [r0, r1]	@ zero_extendqisi2
 2179              		.loc 1 413 0
 2180 03d6 0C99     		ldr	r1, [sp, #48]
 2181              		.loc 1 414 0
 2182 03d8 CDF804B0 		str	fp, [sp, #4]
 2183              		.loc 1 413 0
 2184 03dc 415C     		ldrb	r1, [r0, r1]	@ zero_extendqisi2
 2185              		.loc 1 402 0
 2186 03de 0298     		ldr	r0, [sp, #8]
 2187              		.loc 1 413 0
 2188 03e0 0591     		str	r1, [sp, #20]
 2189              		.loc 1 402 0
 2190 03e2 80EA0A0B 		eor	fp, r0, sl
 2191 03e6 89F800B0 		strb	fp, [r9, #0]
 2192              		.loc 1 403 0
 2193 03ea 9CF884A0 		ldrb	sl, [ip, #132]	@ zero_extendqisi2
 2194 03ee 88EA0A0A 		eor	sl, r8, sl
 2195 03f2 89F804A0 		strb	sl, [r9, #4]
 2196              		.loc 1 404 0
 2197 03f6 9CF88880 		ldrb	r8, [ip, #136]	@ zero_extendqisi2
 2198 03fa 0399     		ldr	r1, [sp, #12]
 2199 03fc 81EA0808 		eor	r8, r1, r8
 2200 0400 89F80880 		strb	r8, [r9, #8]
 2201              		.loc 1 405 0
 2202 0404 9CF88C00 		ldrb	r0, [ip, #140]	@ zero_extendqisi2
 2203              		.loc 1 404 0
 2204 0408 CDF80880 		str	r8, [sp, #8]
 2205              		.loc 1 405 0
 2206 040c 87EA0008 		eor	r8, r7, r0
 2207 0410 89F80C80 		strb	r8, [r9, #12]
 2208              		.loc 1 408 0
 2209 0414 9CF88D70 		ldrb	r7, [ip, #141]	@ zero_extendqisi2
 2210              		.loc 1 407 0
 2211 0418 9CF88110 		ldrb	r1, [ip, #129]	@ zero_extendqisi2
 2212              		.loc 1 405 0
 2213 041c CDF80C80 		str	r8, [sp, #12]
 2214              		.loc 1 408 0
 2215 0420 7E40     		eors	r6, r6, r7
 2216 0422 89F80D60 		strb	r6, [r9, #13]
 2217              		.loc 1 409 0
 2218 0426 9CF88900 		ldrb	r0, [ip, #137]	@ zero_extendqisi2
 2219              		.loc 1 408 0
 2220 042a 0696     		str	r6, [sp, #24]
ARM GAS  C:\Users\Vergil\AppData\Local\Temp\ccl0Rg49.s 			page 40


 2221              		.loc 1 409 0
 2222 042c 4540     		eors	r5, r5, r0
 2223 042e 89F80950 		strb	r5, [r9, #9]
 2224              		.loc 1 410 0
 2225 0432 9CF88570 		ldrb	r7, [ip, #133]	@ zero_extendqisi2
 2226 0436 0498     		ldr	r0, [sp, #16]
 2227              		.loc 1 409 0
 2228 0438 0795     		str	r5, [sp, #28]
 2229              		.loc 1 407 0
 2230 043a 84EA0108 		eor	r8, r4, r1
 2231              	.LVL145:
 2232              		.loc 1 410 0
 2233 043e 7840     		eors	r0, r0, r7
 2234 0440 89F80500 		strb	r0, [r9, #5]
 2235              		.loc 1 411 0
 2236 0444 89F80180 		strb	r8, [r9, #1]
 2237              		.loc 1 415 0
 2238 0448 9CF88240 		ldrb	r4, [ip, #130]	@ zero_extendqisi2
 2239              		.loc 1 413 0
 2240 044c 9CF88A10 		ldrb	r1, [ip, #138]	@ zero_extendqisi2
 2241 0450 059F     		ldr	r7, [sp, #20]
 2242              		.loc 1 414 0
 2243 0452 9CF88E60 		ldrb	r6, [ip, #142]	@ zero_extendqisi2
 2244              		.loc 1 415 0
 2245 0456 6240     		eors	r2, r2, r4
 2246 0458 89F80220 		strb	r2, [r9, #2]
 2247              		.loc 1 416 0
 2248 045c 9CF88650 		ldrb	r5, [ip, #134]	@ zero_extendqisi2
 2249              		.loc 1 413 0
 2250 0460 4F40     		eors	r7, r7, r1
 2251              		.loc 1 414 0
 2252 0462 0199     		ldr	r1, [sp, #4]
 2253              		.loc 1 417 0
 2254 0464 89F80A70 		strb	r7, [r9, #10]
 2255              		.loc 1 414 0
 2256 0468 7140     		eors	r1, r1, r6
 2257              		.loc 1 416 0
 2258 046a 83EA0504 		eor	r4, r3, r5
 2259 046e 89F80640 		strb	r4, [r9, #6]
 2260              		.loc 1 418 0
 2261 0472 89F80E10 		strb	r1, [r9, #14]
 2262              		.loc 1 413 0
 2263 0476 0597     		str	r7, [sp, #20]
 2264              	.LVL146:
 2265              		.loc 1 421 0
 2266 0478 40F20007 		movw	r7, #:lower16:.LANCHOR2
 2267 047c C0F20007 		movt	r7, #:upper16:.LANCHOR2
 2268 0480 099B     		ldr	r3, [sp, #36]
 2269              		.loc 1 414 0
 2270 0482 0191     		str	r1, [sp, #4]
 2271              	.LVL147:
 2272              		.loc 1 420 0
 2273 0484 9CF88F10 		ldrb	r1, [ip, #143]	@ zero_extendqisi2
 2274              		.loc 1 421 0
 2275 0488 FE5C     		ldrb	r6, [r7, r3]	@ zero_extendqisi2
 2276 048a 9CF88350 		ldrb	r5, [ip, #131]	@ zero_extendqisi2
 2277              		.loc 1 420 0
ARM GAS  C:\Users\Vergil\AppData\Local\Temp\ccl0Rg49.s 			page 41


 2278 048e 0991     		str	r1, [sp, #36]
 2279              		.loc 1 422 0
 2280 0490 3946     		mov	r1, r7
 2281              		.loc 1 420 0
 2282 0492 089B     		ldr	r3, [sp, #32]
 2283              		.loc 1 422 0
 2284 0494 0A9F     		ldr	r7, [sp, #40]
 2285              		.loc 1 420 0
 2286 0496 CB5C     		ldrb	r3, [r1, r3]	@ zero_extendqisi2
 2287              		.loc 1 422 0
 2288 0498 CF5D     		ldrb	r7, [r1, r7]	@ zero_extendqisi2
 2289              		.loc 1 420 0
 2290 049a 0893     		str	r3, [sp, #32]
 2291              		.loc 1 423 0
 2292 049c 009B     		ldr	r3, [sp, #0]
 2293              		.loc 1 421 0
 2294 049e 7540     		eors	r5, r5, r6
 2295              		.loc 1 423 0
 2296 04a0 C95C     		ldrb	r1, [r1, r3]	@ zero_extendqisi2
 2297              		.loc 1 421 0
 2298 04a2 89F80350 		strb	r5, [r9, #3]
 2299              		.loc 1 422 0
 2300 04a6 9CF88760 		ldrb	r6, [ip, #135]	@ zero_extendqisi2
 2301              		.loc 1 423 0
 2302 04aa 0491     		str	r1, [sp, #16]
 2303              		.loc 1 420 0
 2304 04ac 099B     		ldr	r3, [sp, #36]
 2305 04ae 0899     		ldr	r1, [sp, #32]
 2306              		.loc 1 422 0
 2307 04b0 7740     		eors	r7, r7, r6
 2308              		.loc 1 420 0
 2309 04b2 5940     		eors	r1, r1, r3
 2310              		.loc 1 422 0
 2311 04b4 89F80770 		strb	r7, [r9, #7]
 2312              		.loc 1 423 0
 2313 04b8 9CF88B60 		ldrb	r6, [ip, #139]	@ zero_extendqisi2
 2314              		.loc 1 420 0
 2315 04bc 0091     		str	r1, [sp, #0]
 2316              	.LVL148:
 2317              		.loc 1 423 0
 2318 04be 0499     		ldr	r1, [sp, #16]
 2319 04c0 7140     		eors	r1, r1, r6
 2320 04c2 0F9E     		ldr	r6, [sp, #60]
 2321 04c4 0491     		str	r1, [sp, #16]
 2322 04c6 731E     		subs	r3, r6, #1
 2323 04c8 89F80B10 		strb	r1, [r9, #11]
 2324              		.loc 1 424 0
 2325 04cc 0099     		ldr	r1, [sp, #0]
 2326              		.loc 1 352 0
 2327 04ce 13F0FF03 		ands	r3, r3, #255
 2328              		.loc 1 424 0
 2329 04d2 89F80F10 		strb	r1, [r9, #15]
 2330 04d6 ACF1100C 		sub	ip, ip, #16
 2331              		.loc 1 352 0
 2332 04da 0F93     		str	r3, [sp, #60]
 2333 04dc 00F04281 		beq	.L115
 2334              	.LVL149:
ARM GAS  C:\Users\Vergil\AppData\Local\Temp\ccl0Rg49.s 			page 42


 2335              	.L111:
 2336              		.loc 1 355 0 discriminator 2
 2337 04e0 82EA0B06 		eor	r6, r2, fp
 2338              	.LVL150:
 2339              	.LBB232:
 2340              	.LBB233:
 2341              		.loc 1 146 0 discriminator 2
 2342 04e4 4FEA4603 		lsl	r3, r6, #1
 2343              	.LVL151:
 2344              		.loc 1 144 0 discriminator 2
 2345 04e8 16F0800F 		tst	r6, #128
 2346              		.loc 1 147 0 discriminator 2
 2347 04ec 18BF     		it	ne
 2348 04ee 83F01B03 		eorne	r3, r3, #27
 2349              	.LVL152:
 2350              		.loc 1 149 0 discriminator 2
 2351 04f2 D9B2     		uxtb	r1, r3
 2352              	.LVL153:
 2353              	.LBE233:
 2354              	.LBE232:
 2355              	.LBB234:
 2356              	.LBB235:
 2357              		.loc 1 144 0 discriminator 2
 2358 04f4 11F0800F 		tst	r1, #128
 2359              		.loc 1 146 0 discriminator 2
 2360 04f8 4FEA4106 		lsl	r6, r1, #1
 2361              	.LVL154:
 2362              	.LBE235:
 2363              	.LBE234:
 2364              		.loc 1 356 0 discriminator 2
 2365 04fc 85EA0803 		eor	r3, r5, r8
 2366              	.LVL155:
 2367              	.LBB237:
 2368              	.LBB236:
 2369              		.loc 1 147 0 discriminator 2
 2370 0500 18BF     		it	ne
 2371 0502 86F01B06 		eorne	r6, r6, #27
 2372              	.LVL156:
 2373              		.loc 1 149 0 discriminator 2
 2374 0506 F1B2     		uxtb	r1, r6
 2375              	.LVL157:
 2376              	.LBE236:
 2377              	.LBE237:
 2378              	.LBB238:
 2379              	.LBB239:
 2380              		.loc 1 144 0 discriminator 2
 2381 0508 13F0800F 		tst	r3, #128
 2382              		.loc 1 146 0 discriminator 2
 2383 050c 4FEA4306 		lsl	r6, r3, #1
 2384              	.LVL158:
 2385              		.loc 1 147 0 discriminator 2
 2386 0510 18BF     		it	ne
 2387 0512 86F01B06 		eorne	r6, r6, #27
 2388              	.LVL159:
 2389              		.loc 1 149 0 discriminator 2
 2390 0516 F3B2     		uxtb	r3, r6
 2391              	.LVL160:
ARM GAS  C:\Users\Vergil\AppData\Local\Temp\ccl0Rg49.s 			page 43


 2392              	.LBE239:
 2393              	.LBE238:
 2394              	.LBB240:
 2395              	.LBB241:
 2396              		.loc 1 144 0 discriminator 2
 2397 0518 13F0800F 		tst	r3, #128
 2398              		.loc 1 146 0 discriminator 2
 2399 051c 4FEA4306 		lsl	r6, r3, #1
 2400              	.LVL161:
 2401              	.LBE241:
 2402              	.LBE240:
 2403              		.loc 1 359 0 discriminator 2
 2404 0520 84EA0A03 		eor	r3, r4, sl
 2405              	.LVL162:
 2406              		.loc 1 357 0 discriminator 2
 2407 0524 81EA0B0B 		eor	fp, r1, fp
 2408              	.LVL163:
 2409 0528 81EA0202 		eor	r2, r1, r2
 2410              	.LBB244:
 2411              	.LBB242:
 2412              		.loc 1 147 0 discriminator 2
 2413 052c 18BF     		it	ne
 2414 052e 86F01B06 		eorne	r6, r6, #27
 2415              	.LVL164:
 2416              	.LBE242:
 2417              	.LBE244:
 2418              	.LBB245:
 2419              	.LBB246:
 2420              		.loc 1 146 0 discriminator 2
 2421 0532 4FEA4301 		lsl	r1, r3, #1
 2422              	.LVL165:
 2423              		.loc 1 144 0 discriminator 2
 2424 0536 13F0800F 		tst	r3, #128
 2425              	.LBE246:
 2426              	.LBE245:
 2427              	.LBB249:
 2428              	.LBB243:
 2429              		.loc 1 149 0 discriminator 2
 2430 053a F6B2     		uxtb	r6, r6
 2431              	.LBE243:
 2432              	.LBE249:
 2433              	.LBB250:
 2434              	.LBB247:
 2435              		.loc 1 147 0 discriminator 2
 2436 053c 18BF     		it	ne
 2437 053e 81F01B01 		eorne	r1, r1, #27
 2438              	.LVL166:
 2439              	.LBE247:
 2440              	.LBE250:
 2441              		.loc 1 357 0 discriminator 2
 2442 0542 86EA0808 		eor	r8, r6, r8
 2443              	.LVL167:
 2444 0546 7540     		eors	r5, r5, r6
 2445              	.LBB251:
 2446              	.LBB248:
 2447              		.loc 1 149 0 discriminator 2
 2448 0548 CEB2     		uxtb	r6, r1
ARM GAS  C:\Users\Vergil\AppData\Local\Temp\ccl0Rg49.s 			page 44


 2449              	.LVL168:
 2450              	.LBE248:
 2451              	.LBE251:
 2452              		.loc 1 357 0 discriminator 2
 2453 054a 0895     		str	r5, [sp, #32]
 2454              	.LBB252:
 2455              	.LBB253:
 2456              		.loc 1 144 0 discriminator 2
 2457 054c 16F0800F 		tst	r6, #128
 2458              	.LBE253:
 2459              	.LBE252:
 2460              		.loc 1 360 0 discriminator 2
 2461 0550 87EA0005 		eor	r5, r7, r0
 2462              	.LBB257:
 2463              	.LBB254:
 2464              		.loc 1 146 0 discriminator 2
 2465 0554 4FEA4603 		lsl	r3, r6, #1
 2466              	.LVL169:
 2467              	.LBE254:
 2468              	.LBE257:
 2469              	.LBB258:
 2470              	.LBB259:
 2471 0558 4FEA4501 		lsl	r1, r5, #1
 2472              	.LVL170:
 2473              	.LBE259:
 2474              	.LBE258:
 2475              	.LBB261:
 2476              	.LBB255:
 2477              		.loc 1 147 0 discriminator 2
 2478 055c 18BF     		it	ne
 2479 055e 83F01B03 		eorne	r3, r3, #27
 2480              	.LVL171:
 2481              	.LBE255:
 2482              	.LBE261:
 2483              	.LBB262:
 2484              	.LBB260:
 2485              		.loc 1 144 0 discriminator 2
 2486 0562 15F0800F 		tst	r5, #128
 2487              		.loc 1 147 0 discriminator 2
 2488 0566 18BF     		it	ne
 2489 0568 81F01B01 		eorne	r1, r1, #27
 2490              	.LVL172:
 2491              		.loc 1 149 0 discriminator 2
 2492 056c CEB2     		uxtb	r6, r1
 2493              	.LVL173:
 2494              	.LBE260:
 2495              	.LBE262:
 2496              	.LBB263:
 2497              	.LBB264:
 2498              		.loc 1 144 0 discriminator 2
 2499 056e 16F0800F 		tst	r6, #128
 2500              		.loc 1 146 0 discriminator 2
 2501 0572 4FEA4605 		lsl	r5, r6, #1
 2502              	.LVL174:
 2503              	.LBE264:
 2504              	.LBE263:
 2505              		.loc 1 363 0 discriminator 2
ARM GAS  C:\Users\Vergil\AppData\Local\Temp\ccl0Rg49.s 			page 45


 2506 0576 0599     		ldr	r1, [sp, #20]
 2507 0578 029E     		ldr	r6, [sp, #8]
 2508              	.LBB267:
 2509              	.LBB256:
 2510              		.loc 1 149 0 discriminator 2
 2511 057a DBB2     		uxtb	r3, r3
 2512              	.LBE256:
 2513              	.LBE267:
 2514              	.LBB268:
 2515              	.LBB265:
 2516              		.loc 1 147 0 discriminator 2
 2517 057c 18BF     		it	ne
 2518 057e 85F01B05 		eorne	r5, r5, #27
 2519              	.LVL175:
 2520              	.LBE265:
 2521              	.LBE268:
 2522              		.loc 1 363 0 discriminator 2
 2523 0582 7140     		eors	r1, r1, r6
 2524              	.LVL176:
 2525              	.LBB269:
 2526              	.LBB266:
 2527              		.loc 1 149 0 discriminator 2
 2528 0584 EDB2     		uxtb	r5, r5
 2529              	.LBE266:
 2530              	.LBE269:
 2531              		.loc 1 361 0 discriminator 2
 2532 0586 83EA0A0A 		eor	sl, r3, sl
 2533              	.LVL177:
 2534              	.LBB270:
 2535              	.LBB271:
 2536              		.loc 1 144 0 discriminator 2
 2537 058a 11F0800F 		tst	r1, #128
 2538              	.LBE271:
 2539              	.LBE270:
 2540              		.loc 1 361 0 discriminator 2
 2541 058e CDF824A0 		str	sl, [sp, #36]
 2542 0592 83EA040A 		eor	sl, r3, r4
 2543 0596 85EA0704 		eor	r4, r5, r7
 2544              	.LBB274:
 2545              	.LBB272:
 2546              		.loc 1 146 0 discriminator 2
 2547 059a 4FEA4107 		lsl	r7, r1, #1
 2548              	.LVL178:
 2549              		.loc 1 147 0 discriminator 2
 2550 059e 18BF     		it	ne
 2551 05a0 87F01B07 		eorne	r7, r7, #27
 2552              	.LVL179:
 2553              	.LBE272:
 2554              	.LBE274:
 2555              		.loc 1 364 0 discriminator 2
 2556 05a4 049E     		ldr	r6, [sp, #16]
 2557              		.loc 1 361 0 discriminator 2
 2558 05a6 0A94     		str	r4, [sp, #40]
 2559              		.loc 1 364 0 discriminator 2
 2560 05a8 079C     		ldr	r4, [sp, #28]
 2561              	.LBB275:
 2562              	.LBB273:
ARM GAS  C:\Users\Vergil\AppData\Local\Temp\ccl0Rg49.s 			page 46


 2563              		.loc 1 149 0 discriminator 2
 2564 05aa FBB2     		uxtb	r3, r7
 2565              	.LVL180:
 2566              	.LBE273:
 2567              	.LBE275:
 2568              		.loc 1 361 0 discriminator 2
 2569 05ac 6840     		eors	r0, r0, r5
 2570              		.loc 1 364 0 discriminator 2
 2571 05ae 6640     		eors	r6, r6, r4
 2572              	.LBB276:
 2573              	.LBB277:
 2574              		.loc 1 146 0 discriminator 2
 2575 05b0 4FEA4305 		lsl	r5, r3, #1
 2576              	.LVL181:
 2577              		.loc 1 144 0 discriminator 2
 2578 05b4 13F0800F 		tst	r3, #128
 2579              	.LBE277:
 2580              	.LBE276:
 2581              	.LBB280:
 2582              	.LBB281:
 2583              		.loc 1 146 0 discriminator 2
 2584 05b8 4FEA4607 		lsl	r7, r6, #1
 2585              	.LVL182:
 2586              	.LBE281:
 2587              	.LBE280:
 2588              	.LBB283:
 2589              	.LBB278:
 2590              		.loc 1 147 0 discriminator 2
 2591 05bc 18BF     		it	ne
 2592 05be 85F01B05 		eorne	r5, r5, #27
 2593              	.LVL183:
 2594              	.LBE278:
 2595              	.LBE283:
 2596              	.LBB284:
 2597              	.LBB282:
 2598              		.loc 1 144 0 discriminator 2
 2599 05c2 16F0800F 		tst	r6, #128
 2600              		.loc 1 147 0 discriminator 2
 2601 05c6 18BF     		it	ne
 2602 05c8 87F01B07 		eorne	r7, r7, #27
 2603              	.LVL184:
 2604              		.loc 1 149 0 discriminator 2
 2605 05cc FBB2     		uxtb	r3, r7
 2606              	.LVL185:
 2607              	.LBE282:
 2608              	.LBE284:
 2609              	.LBB285:
 2610              	.LBB279:
 2611 05ce E9B2     		uxtb	r1, r5
 2612              	.LVL186:
 2613              	.LBE279:
 2614              	.LBE285:
 2615              		.loc 1 365 0 discriminator 2
 2616 05d0 029F     		ldr	r7, [sp, #8]
 2617              	.LVL187:
 2618              		.loc 1 367 0 discriminator 2
 2619 05d2 039E     		ldr	r6, [sp, #12]
ARM GAS  C:\Users\Vergil\AppData\Local\Temp\ccl0Rg49.s 			page 47


 2620              	.LVL188:
 2621              	.LBB286:
 2622              	.LBB287:
 2623              		.loc 1 146 0 discriminator 2
 2624 05d4 4FEA4305 		lsl	r5, r3, #1
 2625              	.LVL189:
 2626              		.loc 1 144 0 discriminator 2
 2627 05d8 13F0800F 		tst	r3, #128
 2628              		.loc 1 147 0 discriminator 2
 2629 05dc 18BF     		it	ne
 2630 05de 85F01B05 		eorne	r5, r5, #27
 2631              	.LVL190:
 2632              		.loc 1 149 0 discriminator 2
 2633 05e2 ECB2     		uxtb	r4, r5
 2634              	.LVL191:
 2635              	.LBE287:
 2636              	.LBE286:
 2637              		.loc 1 365 0 discriminator 2
 2638 05e4 81EA0705 		eor	r5, r1, r7
 2639 05e8 059F     		ldr	r7, [sp, #20]
 2640              		.loc 1 367 0 discriminator 2
 2641 05ea 019B     		ldr	r3, [sp, #4]
 2642              	.LVL192:
 2643              		.loc 1 365 0 discriminator 2
 2644 05ec 0295     		str	r5, [sp, #8]
 2645 05ee 7940     		eors	r1, r1, r7
 2646              		.loc 1 367 0 discriminator 2
 2647 05f0 7340     		eors	r3, r3, r6
 2648              	.LVL193:
 2649              		.loc 1 365 0 discriminator 2
 2650 05f2 079E     		ldr	r6, [sp, #28]
 2651 05f4 0791     		str	r1, [sp, #28]
 2652 05f6 0499     		ldr	r1, [sp, #16]
 2653              		.loc 1 368 0 discriminator 2
 2654 05f8 009F     		ldr	r7, [sp, #0]
 2655              		.loc 1 365 0 discriminator 2
 2656 05fa 6640     		eors	r6, r6, r4
 2657 05fc 4C40     		eors	r4, r4, r1
 2658              	.LBB288:
 2659              	.LBB289:
 2660              		.loc 1 144 0 discriminator 2
 2661 05fe 13F0800F 		tst	r3, #128
 2662              	.LBE289:
 2663              	.LBE288:
 2664              		.loc 1 365 0 discriminator 2
 2665 0602 0594     		str	r4, [sp, #20]
 2666              	.LBB292:
 2667              	.LBB290:
 2668              		.loc 1 146 0 discriminator 2
 2669 0604 4FEA4304 		lsl	r4, r3, #1
 2670              	.LVL194:
 2671              	.LBE290:
 2672              	.LBE292:
 2673              		.loc 1 368 0 discriminator 2
 2674 0608 0699     		ldr	r1, [sp, #24]
 2675              	.LBB293:
 2676              	.LBB291:
ARM GAS  C:\Users\Vergil\AppData\Local\Temp\ccl0Rg49.s 			page 48


 2677              		.loc 1 147 0 discriminator 2
 2678 060a 18BF     		it	ne
 2679 060c 84F01B04 		eorne	r4, r4, #27
 2680              	.LVL195:
 2681              		.loc 1 149 0 discriminator 2
 2682 0610 E3B2     		uxtb	r3, r4
 2683              	.LVL196:
 2684              	.LBE291:
 2685              	.LBE293:
 2686              		.loc 1 368 0 discriminator 2
 2687 0612 4F40     		eors	r7, r7, r1
 2688              	.LBB294:
 2689              	.LBB295:
 2690              		.loc 1 144 0 discriminator 2
 2691 0614 13F0800F 		tst	r3, #128
 2692              		.loc 1 146 0 discriminator 2
 2693 0618 4FEA4305 		lsl	r5, r3, #1
 2694              	.LVL197:
 2695              	.LBE295:
 2696              	.LBE294:
 2697              	.LBB298:
 2698              	.LBB299:
 2699 061c 4FEA4704 		lsl	r4, r7, #1
 2700              	.LVL198:
 2701              	.LBE299:
 2702              	.LBE298:
 2703              	.LBB302:
 2704              	.LBB296:
 2705              		.loc 1 147 0 discriminator 2
 2706 0620 18BF     		it	ne
 2707 0622 85F01B05 		eorne	r5, r5, #27
 2708              	.LVL199:
 2709              	.LBE296:
 2710              	.LBE302:
 2711              	.LBB303:
 2712              	.LBB300:
 2713              		.loc 1 144 0 discriminator 2
 2714 0626 17F0800F 		tst	r7, #128
 2715              		.loc 1 147 0 discriminator 2
 2716 062a 18BF     		it	ne
 2717 062c 84F01B04 		eorne	r4, r4, #27
 2718              	.LVL200:
 2719              	.LBE300:
 2720              	.LBE303:
 2721              	.LBB304:
 2722              	.LBB297:
 2723              		.loc 1 149 0 discriminator 2
 2724 0630 EBB2     		uxtb	r3, r5
 2725              	.LVL201:
 2726              	.LBE297:
 2727              	.LBE304:
 2728              	.LBB305:
 2729              	.LBB301:
 2730 0632 E5B2     		uxtb	r5, r4
 2731              	.LVL202:
 2732              	.LBE301:
 2733              	.LBE305:
ARM GAS  C:\Users\Vergil\AppData\Local\Temp\ccl0Rg49.s 			page 49


 2734              	.LBB306:
 2735              	.LBB307:
 2736              		.loc 1 146 0 discriminator 2
 2737 0634 4FEA4507 		lsl	r7, r5, #1
 2738              	.LVL203:
 2739              		.loc 1 144 0 discriminator 2
 2740 0638 15F0800F 		tst	r5, #128
 2741              	.LBE307:
 2742              	.LBE306:
 2743              		.loc 1 369 0 discriminator 2
 2744 063c 039D     		ldr	r5, [sp, #12]
 2745 063e 83EA0505 		eor	r5, r3, r5
 2746              	.LBB310:
 2747              	.LBB308:
 2748              		.loc 1 147 0 discriminator 2
 2749 0642 18BF     		it	ne
 2750 0644 87F01B07 		eorne	r7, r7, #27
 2751              	.LVL204:
 2752              	.LBE308:
 2753              	.LBE310:
 2754              		.loc 1 369 0 discriminator 2
 2755 0648 0395     		str	r5, [sp, #12]
 2756 064a 069D     		ldr	r5, [sp, #24]
 2757              	.LBB311:
 2758              	.LBB309:
 2759              		.loc 1 149 0 discriminator 2
 2760 064c F9B2     		uxtb	r1, r7
 2761              	.LVL205:
 2762              	.LBE309:
 2763              	.LBE311:
 2764              		.loc 1 369 0 discriminator 2
 2765 064e 4D40     		eors	r5, r5, r1
 2766              	.LVL206:
 2767 0650 0695     		str	r5, [sp, #24]
 2768 0652 019D     		ldr	r5, [sp, #4]
 2769              		.loc 1 372 0 discriminator 2
 2770 0654 089F     		ldr	r7, [sp, #32]
 2771              		.loc 1 369 0 discriminator 2
 2772 0656 6B40     		eors	r3, r3, r5
 2773 0658 0193     		str	r3, [sp, #4]
 2774 065a 009B     		ldr	r3, [sp, #0]
 2775              		.loc 1 372 0 discriminator 2
 2776 065c 88EA0B04 		eor	r4, r8, fp
 2777              	.LVL207:
 2778              		.loc 1 369 0 discriminator 2
 2779 0660 5940     		eors	r1, r1, r3
 2780              		.loc 1 372 0 discriminator 2
 2781 0662 5740     		eors	r7, r7, r2
 2782              	.LBB312:
 2783              	.LBB313:
 2784              		.loc 1 144 0 discriminator 2
 2785 0664 14F0800F 		tst	r4, #128
 2786              	.LBE313:
 2787              	.LBE312:
 2788              		.loc 1 369 0 discriminator 2
 2789 0668 0091     		str	r1, [sp, #0]
 2790              	.LBB317:
ARM GAS  C:\Users\Vergil\AppData\Local\Temp\ccl0Rg49.s 			page 50


 2791              	.LBB314:
 2792              		.loc 1 146 0 discriminator 2
 2793 066a 4FEA4401 		lsl	r1, r4, #1
 2794              	.LBE314:
 2795              	.LBE317:
 2796              		.loc 1 372 0 discriminator 2
 2797 066e 87EA0405 		eor	r5, r7, r4
 2798              	.LVL208:
 2799              	.LBB318:
 2800              	.LBB315:
 2801              		.loc 1 147 0 discriminator 2
 2802 0672 18BF     		it	ne
 2803 0674 81F01B01 		eorne	r1, r1, #27
 2804              	.LVL209:
 2805              	.LBE315:
 2806              	.LBE318:
 2807              		.loc 1 374 0 discriminator 2
 2808 0678 85EA0B03 		eor	r3, r5, fp
 2809              	.LBB319:
 2810              	.LBB316:
 2811              		.loc 1 149 0 discriminator 2
 2812 067c CCB2     		uxtb	r4, r1
 2813              	.LVL210:
 2814              	.LBE316:
 2815              	.LBE319:
 2816              		.loc 1 374 0 discriminator 2
 2817 067e 84EA0301 		eor	r1, r4, r3
 2818              		.loc 1 375 0 discriminator 2
 2819 0682 88EA0203 		eor	r3, r8, r2
 2820              	.LVL211:
 2821              		.loc 1 374 0 discriminator 2
 2822 0686 0491     		str	r1, [sp, #16]
 2823              	.LBB320:
 2824              	.LBB321:
 2825              		.loc 1 146 0 discriminator 2
 2826 0688 4FEA4301 		lsl	r1, r3, #1
 2827              		.loc 1 144 0 discriminator 2
 2828 068c 13F0800F 		tst	r3, #128
 2829              		.loc 1 146 0 discriminator 2
 2830 0690 CBB2     		uxtb	r3, r1
 2831              	.LVL212:
 2832              	.LBE321:
 2833              	.LBE320:
 2834              		.loc 1 374 0 discriminator 2
 2835 0692 049C     		ldr	r4, [sp, #16]
 2836              	.LBB323:
 2837              	.LBB322:
 2838              		.loc 1 147 0 discriminator 2
 2839 0694 18BF     		it	ne
 2840 0696 83F01B03 		eorne	r3, r3, #27
 2841              	.LBE322:
 2842              	.LBE323:
 2843              		.loc 1 375 0 discriminator 2
 2844 069a 85EA0808 		eor	r8, r5, r8
 2845              	.LVL213:
 2846              	.LBB324:
 2847              	.LBB325:
ARM GAS  C:\Users\Vergil\AppData\Local\Temp\ccl0Rg49.s 			page 51


 2848              		.loc 1 144 0 discriminator 2
 2849 069e 17F0800F 		tst	r7, #128
 2850              		.loc 1 146 0 discriminator 2
 2851 06a2 4FEA4707 		lsl	r7, r7, #1
 2852              	.LBE325:
 2853              	.LBE324:
 2854              		.loc 1 375 0 discriminator 2
 2855 06a6 83EA0808 		eor	r8, r3, r8
 2856              	.LBB328:
 2857              	.LBB326:
 2858              		.loc 1 147 0 discriminator 2
 2859 06aa 18BF     		it	ne
 2860 06ac 87F01B07 		eorne	r7, r7, #27
 2861              	.LBE326:
 2862              	.LBE328:
 2863              		.loc 1 377 0 discriminator 2
 2864 06b0 089B     		ldr	r3, [sp, #32]
 2865              		.loc 1 374 0 discriminator 2
 2866 06b2 89F80040 		strb	r4, [r9, #0]
 2867              		.loc 1 376 0 discriminator 2
 2868 06b6 6A40     		eors	r2, r2, r5
 2869              	.LBB329:
 2870              	.LBB327:
 2871              		.loc 1 149 0 discriminator 2
 2872 06b8 FCB2     		uxtb	r4, r7
 2873              	.LBE327:
 2874              	.LBE329:
 2875              		.loc 1 376 0 discriminator 2
 2876 06ba 84EA0201 		eor	r1, r4, r2
 2877              	.LVL214:
 2878              		.loc 1 377 0 discriminator 2
 2879 06be 83EA0B0B 		eor	fp, r3, fp
 2880              	.LVL215:
 2881              		.loc 1 375 0 discriminator 2
 2882 06c2 CDF82C80 		str	r8, [sp, #44]
 2883 06c6 89F80180 		strb	r8, [r9, #1]
 2884              	.LVL216:
 2885              		.loc 1 376 0 discriminator 2
 2886 06ca 0C91     		str	r1, [sp, #48]
 2887              	.LBB330:
 2888              	.LBB331:
 2889              		.loc 1 146 0 discriminator 2
 2890 06cc 4FEA4B07 		lsl	r7, fp, #1
 2891              	.LBE331:
 2892              	.LBE330:
 2893              		.loc 1 376 0 discriminator 2
 2894 06d0 89F80210 		strb	r1, [r9, #2]
 2895              		.loc 1 377 0 discriminator 2
 2896 06d4 089A     		ldr	r2, [sp, #32]
 2897              		.loc 1 379 0 discriminator 2
 2898 06d6 0999     		ldr	r1, [sp, #36]
 2899 06d8 0A9B     		ldr	r3, [sp, #40]
 2900              	.LBB333:
 2901              	.LBB332:
 2902              		.loc 1 146 0 discriminator 2
 2903 06da FCB2     		uxtb	r4, r7
 2904              	.LVL217:
ARM GAS  C:\Users\Vergil\AppData\Local\Temp\ccl0Rg49.s 			page 52


 2905              		.loc 1 144 0 discriminator 2
 2906 06dc 1BF0800F 		tst	fp, #128
 2907              		.loc 1 147 0 discriminator 2
 2908 06e0 18BF     		it	ne
 2909 06e2 84F01B04 		eorne	r4, r4, #27
 2910              	.LBE332:
 2911              	.LBE333:
 2912              		.loc 1 377 0 discriminator 2
 2913 06e6 5540     		eors	r5, r5, r2
 2914              	.LVL218:
 2915 06e8 6540     		eors	r5, r5, r4
 2916              		.loc 1 379 0 discriminator 2
 2917 06ea 80EA0102 		eor	r2, r0, r1
 2918 06ee 83EA0A04 		eor	r4, r3, sl
 2919 06f2 84EA0207 		eor	r7, r4, r2
 2920              	.LVL219:
 2921              	.LBB334:
 2922              	.LBB335:
 2923              		.loc 1 144 0 discriminator 2
 2924 06f6 12F0800F 		tst	r2, #128
 2925              	.LBE335:
 2926              	.LBE334:
 2927              		.loc 1 377 0 discriminator 2
 2928 06fa 0895     		str	r5, [sp, #32]
 2929 06fc 89F80350 		strb	r5, [r9, #3]
 2930              	.LBB339:
 2931              	.LBB336:
 2932              		.loc 1 146 0 discriminator 2
 2933 0700 4FEA4205 		lsl	r5, r2, #1
 2934              	.LVL220:
 2935              	.LBE336:
 2936              	.LBE339:
 2937              		.loc 1 381 0 discriminator 2
 2938 0704 099A     		ldr	r2, [sp, #36]
 2939              	.LBB340:
 2940              	.LBB337:
 2941              		.loc 1 147 0 discriminator 2
 2942 0706 18BF     		it	ne
 2943 0708 85F01B05 		eorne	r5, r5, #27
 2944              	.LVL221:
 2945              	.LBE337:
 2946              	.LBE340:
 2947              		.loc 1 381 0 discriminator 2
 2948 070c 87EA0203 		eor	r3, r7, r2
 2949              	.LBB341:
 2950              	.LBB338:
 2951              		.loc 1 149 0 discriminator 2
 2952 0710 E9B2     		uxtb	r1, r5
 2953              	.LVL222:
 2954              	.LBE338:
 2955              	.LBE341:
 2956              		.loc 1 381 0 discriminator 2
 2957 0712 81EA0305 		eor	r5, r1, r3
 2958              		.loc 1 382 0 discriminator 2
 2959 0716 80EA0A01 		eor	r1, r0, sl
 2960              	.LVL223:
 2961              	.LBB342:
ARM GAS  C:\Users\Vergil\AppData\Local\Temp\ccl0Rg49.s 			page 53


 2962              	.LBB343:
 2963              		.loc 1 146 0 discriminator 2
 2964 071a 4FEA4102 		lsl	r2, r1, #1
 2965              	.LVL224:
 2966 071e D3B2     		uxtb	r3, r2
 2967              	.LVL225:
 2968              	.LBE343:
 2969              	.LBE342:
 2970              		.loc 1 381 0 discriminator 2
 2971 0720 0D95     		str	r5, [sp, #52]
 2972              	.LBB345:
 2973              	.LBB344:
 2974              		.loc 1 144 0 discriminator 2
 2975 0722 11F0800F 		tst	r1, #128
 2976              		.loc 1 147 0 discriminator 2
 2977 0726 18BF     		it	ne
 2978 0728 83F01B03 		eorne	r3, r3, #27
 2979              	.LBE344:
 2980              	.LBE345:
 2981              		.loc 1 381 0 discriminator 2
 2982 072c DDF83480 		ldr	r8, [sp, #52]
 2983              		.loc 1 382 0 discriminator 2
 2984 0730 7840     		eors	r0, r0, r7
 2985              	.LVL226:
 2986 0732 83EA0005 		eor	r5, r3, r0
 2987              	.LBB346:
 2988              	.LBB188:
 2989              		.loc 1 144 0 discriminator 2
 2990 0736 2206     		lsls	r2, r4, #24
 2991              	.LVL227:
 2992              	.LBE188:
 2993              	.LBE346:
 2994              		.loc 1 381 0 discriminator 2
 2995 0738 89F80480 		strb	r8, [r9, #4]
 2996              		.loc 1 382 0 discriminator 2
 2997 073c 0E95     		str	r5, [sp, #56]
 2998 073e 89F80550 		strb	r5, [r9, #5]
 2999              	.LVL228:
 3000              	.LBB347:
 3001              	.LBB189:
 3002              		.loc 1 144 0 discriminator 2
 3003 0742 7FF587AD 		bpl	.L91
 3004              	.LVL229:
 3005              		.loc 1 146 0
 3006 0746 6200     		lsls	r2, r4, #1
 3007              		.loc 1 147 0
 3008 0748 82F01B03 		eor	r3, r2, #27
 3009 074c D9B2     		uxtb	r1, r3
 3010              	.LVL230:
 3011 074e 83E5     		b	.L92
 3012              	.LVL231:
 3013              	.L114:
 3014              	.LBE189:
 3015              	.LBE347:
 3016              	.LBB348:
 3017              	.LBB226:
 3018              		.loc 1 146 0
ARM GAS  C:\Users\Vergil\AppData\Local\Temp\ccl0Rg49.s 			page 54


 3019 0750 5F00     		lsls	r7, r3, #1
 3020              		.loc 1 147 0
 3021 0752 87F01B03 		eor	r3, r7, #27
 3022              	.LVL232:
 3023 0756 DEB2     		uxtb	r6, r3
 3024 0758 07E6     		b	.L108
 3025              	.LVL233:
 3026              	.L113:
 3027              	.LBE226:
 3028              	.LBE348:
 3029              	.LBB349:
 3030              	.LBB203:
 3031              		.loc 1 146 0
 3032 075a 4B00     		lsls	r3, r1, #1
 3033              		.loc 1 147 0
 3034 075c 83F01B02 		eor	r2, r3, #27
 3035              	.LVL234:
 3036 0760 D7B2     		uxtb	r7, r2
 3037 0762 BBE5     		b	.L100
 3038              	.LVL235:
 3039              	.L115:
 3040              	.LBE203:
 3041              	.LBE349:
 3042              		.loc 1 427 0
 3043 0764 10B0     		add	sp, sp, #64
 3044 0766 BDE8F00F 		pop	{r4, r5, r6, r7, r8, r9, sl, fp}
 3045 076a 7047     		bx	lr
 3046              		.cfi_endproc
 3047              	.LFE3:
 3048              		.size	aes_decr, .-aes_decr
 3049 076c AFF30080 		.section	.text.aes_encrypt,"ax",%progbits
 3050              		.align	2
 3051              		.p2align 4,,15
 3052              		.global	aes_encrypt
 3053              		.thumb
 3054              		.thumb_func
 3055              		.type	aes_encrypt, %function
 3056              	aes_encrypt:
 3057              	.LFB4:
 3058              		.loc 1 447 0
 3059              		.cfi_startproc
 3060              		@ args = 0, pretend = 0, frame = 0
 3061              		@ frame_needed = 0, uses_anonymous_args = 0
 3062              	.LVL236:
 3063 0000 38B5     		push	{r3, r4, r5, lr}
 3064              	.LCFI6:
 3065              		.cfi_def_cfa_offset 16
 3066              		.cfi_offset 3, -16
 3067              		.cfi_offset 4, -12
 3068              		.cfi_offset 5, -8
 3069              		.cfi_offset 14, -4
 3070              		.loc 1 449 0
 3071 0002 40F20004 		movw	r4, #:lower16:.LANCHOR3
 3072 0006 C0F20004 		movt	r4, #:upper16:.LANCHOR3
 3073              		.loc 1 447 0
 3074 000a 0546     		mov	r5, r0
 3075              		.loc 1 449 0
ARM GAS  C:\Users\Vergil\AppData\Local\Temp\ccl0Rg49.s 			page 55


 3076 000c 2046     		mov	r0, r4
 3077              	.LVL237:
 3078 000e FFF7FEFF 		bl	expandKey
 3079              	.LVL238:
 3080              		.loc 1 450 0
 3081 0012 2846     		mov	r0, r5
 3082 0014 2146     		mov	r1, r4
 3083              		.loc 1 451 0
 3084 0016 BDE83840 		pop	{r3, r4, r5, lr}
 3085              		.loc 1 450 0
 3086 001a FFF7FEBF 		b	aes_encr
 3087              	.LVL239:
 3088              		.cfi_endproc
 3089              	.LFE4:
 3090              		.size	aes_encrypt, .-aes_encrypt
 3091 001e 00BF     		.section	.text.aes_decrypt,"ax",%progbits
 3092              		.align	2
 3093              		.p2align 4,,15
 3094              		.global	aes_decrypt
 3095              		.thumb
 3096              		.thumb_func
 3097              		.type	aes_decrypt, %function
 3098              	aes_decrypt:
 3099              	.LFB5:
 3100              		.loc 1 471 0
 3101              		.cfi_startproc
 3102              		@ args = 0, pretend = 0, frame = 0
 3103              		@ frame_needed = 0, uses_anonymous_args = 0
 3104              	.LVL240:
 3105 0000 38B5     		push	{r3, r4, r5, lr}
 3106              	.LCFI7:
 3107              		.cfi_def_cfa_offset 16
 3108              		.cfi_offset 3, -16
 3109              		.cfi_offset 4, -12
 3110              		.cfi_offset 5, -8
 3111              		.cfi_offset 14, -4
 3112              		.loc 1 472 0
 3113 0002 40F20004 		movw	r4, #:lower16:.LANCHOR3
 3114 0006 C0F20004 		movt	r4, #:upper16:.LANCHOR3
 3115              		.loc 1 471 0
 3116 000a 0546     		mov	r5, r0
 3117              		.loc 1 472 0
 3118 000c 2046     		mov	r0, r4
 3119              	.LVL241:
 3120 000e FFF7FEFF 		bl	expandKey
 3121              	.LVL242:
 3122              		.loc 1 473 0
 3123 0012 2846     		mov	r0, r5
 3124 0014 2146     		mov	r1, r4
 3125              		.loc 1 474 0
 3126 0016 BDE83840 		pop	{r3, r4, r5, lr}
 3127              		.loc 1 473 0
 3128 001a FFF7FEBF 		b	aes_decr
 3129              	.LVL243:
 3130              		.cfi_endproc
 3131              	.LFE5:
 3132              		.size	aes_decrypt, .-aes_decrypt
ARM GAS  C:\Users\Vergil\AppData\Local\Temp\ccl0Rg49.s 			page 56


 3133 001e 00BF     		.section	.text.aes_read_key,"ax",%progbits
 3134              		.align	2
 3135              		.p2align 4,,15
 3136              		.global	aes_read_key
 3137              		.thumb
 3138              		.thumb_func
 3139              		.type	aes_read_key, %function
 3140              	aes_read_key:
 3141              	.LFB6:
 3142              		.loc 1 492 0
 3143              		.cfi_startproc
 3144              		@ args = 0, pretend = 0, frame = 0
 3145              		@ frame_needed = 0, uses_anonymous_args = 0
 3146              		@ link register save eliminated.
 3147              	.LVL244:
 3148              		.loc 1 492 0
 3149 0000 0346     		mov	r3, r0
 3150              		.loc 1 495 0
 3151 0002 1021     		movs	r1, #16
 3152 0004 0C20     		movs	r0, #12
 3153              	.LVL245:
 3154 0006 0022     		movs	r2, #0
 3155              		.loc 1 498 0
 3156              		.loc 1 495 0
 3157 0008 FFF7FEBF 		b	nvmem_read
 3158              	.LVL246:
 3159              		.cfi_endproc
 3160              	.LFE6:
 3161              		.size	aes_read_key, .-aes_read_key
 3162 000c AFF30080 		.section	.text.aes_write_key,"ax",%progbits
 3163              		.align	2
 3164              		.p2align 4,,15
 3165              		.global	aes_write_key
 3166              		.thumb
 3167              		.thumb_func
 3168              		.type	aes_write_key, %function
 3169              	aes_write_key:
 3170              	.LFB7:
 3171              		.loc 1 515 0
 3172              		.cfi_startproc
 3173              		@ args = 0, pretend = 0, frame = 0
 3174              		@ frame_needed = 0, uses_anonymous_args = 0
 3175              		@ link register save eliminated.
 3176              	.LVL247:
 3177              		.loc 1 515 0
 3178 0000 0346     		mov	r3, r0
 3179              		.loc 1 518 0
 3180 0002 1021     		movs	r1, #16
 3181 0004 0C20     		movs	r0, #12
 3182              	.LVL248:
 3183 0006 0022     		movs	r2, #0
 3184              		.loc 1 521 0
 3185              		.loc 1 518 0
 3186 0008 FFF7FEBF 		b	nvmem_write
 3187              	.LVL249:
 3188              		.cfi_endproc
 3189              	.LFE7:
ARM GAS  C:\Users\Vergil\AppData\Local\Temp\ccl0Rg49.s 			page 57


 3190              		.size	aes_write_key, .-aes_write_key
 3191              		.global	expandedKey
 3192              		.global	Rcon
 3193              		.global	rsbox
 3194              		.global	sbox
 3195 000c AFF30080 		.section	.bss.expandedKey,"aw",%nobits
 3196              		.align	2
 3197              		.set	.LANCHOR3,. + 0
 3198              		.type	expandedKey, %object
 3199              		.size	expandedKey, 176
 3200              	expandedKey:
 3201 0000 00000000 		.space	176
 3201      00000000 
 3201      00000000 
 3201      00000000 
 3201      00000000 
 3202              		.section	.rodata.sbox,"a",%progbits
 3203              		.align	2
 3204              		.set	.LANCHOR1,. + 0
 3205              		.type	sbox, %object
 3206              		.size	sbox, 256
 3207              	sbox:
 3208 0000 63       		.byte	99
 3209 0001 7C       		.byte	124
 3210 0002 77       		.byte	119
 3211 0003 7B       		.byte	123
 3212 0004 F2       		.byte	-14
 3213 0005 6B       		.byte	107
 3214 0006 6F       		.byte	111
 3215 0007 C5       		.byte	-59
 3216 0008 30       		.byte	48
 3217 0009 01       		.byte	1
 3218 000a 67       		.byte	103
 3219 000b 2B       		.byte	43
 3220 000c FE       		.byte	-2
 3221 000d D7       		.byte	-41
 3222 000e AB       		.byte	-85
 3223 000f 76       		.byte	118
 3224 0010 CA       		.byte	-54
 3225 0011 82       		.byte	-126
 3226 0012 C9       		.byte	-55
 3227 0013 7D       		.byte	125
 3228 0014 FA       		.byte	-6
 3229 0015 59       		.byte	89
 3230 0016 47       		.byte	71
 3231 0017 F0       		.byte	-16
 3232 0018 AD       		.byte	-83
 3233 0019 D4       		.byte	-44
 3234 001a A2       		.byte	-94
 3235 001b AF       		.byte	-81
 3236 001c 9C       		.byte	-100
 3237 001d A4       		.byte	-92
 3238 001e 72       		.byte	114
 3239 001f C0       		.byte	-64
 3240 0020 B7       		.byte	-73
 3241 0021 FD       		.byte	-3
 3242 0022 93       		.byte	-109
ARM GAS  C:\Users\Vergil\AppData\Local\Temp\ccl0Rg49.s 			page 58


 3243 0023 26       		.byte	38
 3244 0024 36       		.byte	54
 3245 0025 3F       		.byte	63
 3246 0026 F7       		.byte	-9
 3247 0027 CC       		.byte	-52
 3248 0028 34       		.byte	52
 3249 0029 A5       		.byte	-91
 3250 002a E5       		.byte	-27
 3251 002b F1       		.byte	-15
 3252 002c 71       		.byte	113
 3253 002d D8       		.byte	-40
 3254 002e 31       		.byte	49
 3255 002f 15       		.byte	21
 3256 0030 04       		.byte	4
 3257 0031 C7       		.byte	-57
 3258 0032 23       		.byte	35
 3259 0033 C3       		.byte	-61
 3260 0034 18       		.byte	24
 3261 0035 96       		.byte	-106
 3262 0036 05       		.byte	5
 3263 0037 9A       		.byte	-102
 3264 0038 07       		.byte	7
 3265 0039 12       		.byte	18
 3266 003a 80       		.byte	-128
 3267 003b E2       		.byte	-30
 3268 003c EB       		.byte	-21
 3269 003d 27       		.byte	39
 3270 003e B2       		.byte	-78
 3271 003f 75       		.byte	117
 3272 0040 09       		.byte	9
 3273 0041 83       		.byte	-125
 3274 0042 2C       		.byte	44
 3275 0043 1A       		.byte	26
 3276 0044 1B       		.byte	27
 3277 0045 6E       		.byte	110
 3278 0046 5A       		.byte	90
 3279 0047 A0       		.byte	-96
 3280 0048 52       		.byte	82
 3281 0049 3B       		.byte	59
 3282 004a D6       		.byte	-42
 3283 004b B3       		.byte	-77
 3284 004c 29       		.byte	41
 3285 004d E3       		.byte	-29
 3286 004e 2F       		.byte	47
 3287 004f 84       		.byte	-124
 3288 0050 53       		.byte	83
 3289 0051 D1       		.byte	-47
 3290 0052 00       		.byte	0
 3291 0053 ED       		.byte	-19
 3292 0054 20       		.byte	32
 3293 0055 FC       		.byte	-4
 3294 0056 B1       		.byte	-79
 3295 0057 5B       		.byte	91
 3296 0058 6A       		.byte	106
 3297 0059 CB       		.byte	-53
 3298 005a BE       		.byte	-66
 3299 005b 39       		.byte	57
ARM GAS  C:\Users\Vergil\AppData\Local\Temp\ccl0Rg49.s 			page 59


 3300 005c 4A       		.byte	74
 3301 005d 4C       		.byte	76
 3302 005e 58       		.byte	88
 3303 005f CF       		.byte	-49
 3304 0060 D0       		.byte	-48
 3305 0061 EF       		.byte	-17
 3306 0062 AA       		.byte	-86
 3307 0063 FB       		.byte	-5
 3308 0064 43       		.byte	67
 3309 0065 4D       		.byte	77
 3310 0066 33       		.byte	51
 3311 0067 85       		.byte	-123
 3312 0068 45       		.byte	69
 3313 0069 F9       		.byte	-7
 3314 006a 02       		.byte	2
 3315 006b 7F       		.byte	127
 3316 006c 50       		.byte	80
 3317 006d 3C       		.byte	60
 3318 006e 9F       		.byte	-97
 3319 006f A8       		.byte	-88
 3320 0070 51       		.byte	81
 3321 0071 A3       		.byte	-93
 3322 0072 40       		.byte	64
 3323 0073 8F       		.byte	-113
 3324 0074 92       		.byte	-110
 3325 0075 9D       		.byte	-99
 3326 0076 38       		.byte	56
 3327 0077 F5       		.byte	-11
 3328 0078 BC       		.byte	-68
 3329 0079 B6       		.byte	-74
 3330 007a DA       		.byte	-38
 3331 007b 21       		.byte	33
 3332 007c 10       		.byte	16
 3333 007d FF       		.byte	-1
 3334 007e F3       		.byte	-13
 3335 007f D2       		.byte	-46
 3336 0080 CD       		.byte	-51
 3337 0081 0C       		.byte	12
 3338 0082 13       		.byte	19
 3339 0083 EC       		.byte	-20
 3340 0084 5F       		.byte	95
 3341 0085 97       		.byte	-105
 3342 0086 44       		.byte	68
 3343 0087 17       		.byte	23
 3344 0088 C4       		.byte	-60
 3345 0089 A7       		.byte	-89
 3346 008a 7E       		.byte	126
 3347 008b 3D       		.byte	61
 3348 008c 64       		.byte	100
 3349 008d 5D       		.byte	93
 3350 008e 19       		.byte	25
 3351 008f 73       		.byte	115
 3352 0090 60       		.byte	96
 3353 0091 81       		.byte	-127
 3354 0092 4F       		.byte	79
 3355 0093 DC       		.byte	-36
 3356 0094 22       		.byte	34
ARM GAS  C:\Users\Vergil\AppData\Local\Temp\ccl0Rg49.s 			page 60


 3357 0095 2A       		.byte	42
 3358 0096 90       		.byte	-112
 3359 0097 88       		.byte	-120
 3360 0098 46       		.byte	70
 3361 0099 EE       		.byte	-18
 3362 009a B8       		.byte	-72
 3363 009b 14       		.byte	20
 3364 009c DE       		.byte	-34
 3365 009d 5E       		.byte	94
 3366 009e 0B       		.byte	11
 3367 009f DB       		.byte	-37
 3368 00a0 E0       		.byte	-32
 3369 00a1 32       		.byte	50
 3370 00a2 3A       		.byte	58
 3371 00a3 0A       		.byte	10
 3372 00a4 49       		.byte	73
 3373 00a5 06       		.byte	6
 3374 00a6 24       		.byte	36
 3375 00a7 5C       		.byte	92
 3376 00a8 C2       		.byte	-62
 3377 00a9 D3       		.byte	-45
 3378 00aa AC       		.byte	-84
 3379 00ab 62       		.byte	98
 3380 00ac 91       		.byte	-111
 3381 00ad 95       		.byte	-107
 3382 00ae E4       		.byte	-28
 3383 00af 79       		.byte	121
 3384 00b0 E7       		.byte	-25
 3385 00b1 C8       		.byte	-56
 3386 00b2 37       		.byte	55
 3387 00b3 6D       		.byte	109
 3388 00b4 8D       		.byte	-115
 3389 00b5 D5       		.byte	-43
 3390 00b6 4E       		.byte	78
 3391 00b7 A9       		.byte	-87
 3392 00b8 6C       		.byte	108
 3393 00b9 56       		.byte	86
 3394 00ba F4       		.byte	-12
 3395 00bb EA       		.byte	-22
 3396 00bc 65       		.byte	101
 3397 00bd 7A       		.byte	122
 3398 00be AE       		.byte	-82
 3399 00bf 08       		.byte	8
 3400 00c0 BA       		.byte	-70
 3401 00c1 78       		.byte	120
 3402 00c2 25       		.byte	37
 3403 00c3 2E       		.byte	46
 3404 00c4 1C       		.byte	28
 3405 00c5 A6       		.byte	-90
 3406 00c6 B4       		.byte	-76
 3407 00c7 C6       		.byte	-58
 3408 00c8 E8       		.byte	-24
 3409 00c9 DD       		.byte	-35
 3410 00ca 74       		.byte	116
 3411 00cb 1F       		.byte	31
 3412 00cc 4B       		.byte	75
 3413 00cd BD       		.byte	-67
ARM GAS  C:\Users\Vergil\AppData\Local\Temp\ccl0Rg49.s 			page 61


 3414 00ce 8B       		.byte	-117
 3415 00cf 8A       		.byte	-118
 3416 00d0 70       		.byte	112
 3417 00d1 3E       		.byte	62
 3418 00d2 B5       		.byte	-75
 3419 00d3 66       		.byte	102
 3420 00d4 48       		.byte	72
 3421 00d5 03       		.byte	3
 3422 00d6 F6       		.byte	-10
 3423 00d7 0E       		.byte	14
 3424 00d8 61       		.byte	97
 3425 00d9 35       		.byte	53
 3426 00da 57       		.byte	87
 3427 00db B9       		.byte	-71
 3428 00dc 86       		.byte	-122
 3429 00dd C1       		.byte	-63
 3430 00de 1D       		.byte	29
 3431 00df 9E       		.byte	-98
 3432 00e0 E1       		.byte	-31
 3433 00e1 F8       		.byte	-8
 3434 00e2 98       		.byte	-104
 3435 00e3 11       		.byte	17
 3436 00e4 69       		.byte	105
 3437 00e5 D9       		.byte	-39
 3438 00e6 8E       		.byte	-114
 3439 00e7 94       		.byte	-108
 3440 00e8 9B       		.byte	-101
 3441 00e9 1E       		.byte	30
 3442 00ea 87       		.byte	-121
 3443 00eb E9       		.byte	-23
 3444 00ec CE       		.byte	-50
 3445 00ed 55       		.byte	85
 3446 00ee 28       		.byte	40
 3447 00ef DF       		.byte	-33
 3448 00f0 8C       		.byte	-116
 3449 00f1 A1       		.byte	-95
 3450 00f2 89       		.byte	-119
 3451 00f3 0D       		.byte	13
 3452 00f4 BF       		.byte	-65
 3453 00f5 E6       		.byte	-26
 3454 00f6 42       		.byte	66
 3455 00f7 68       		.byte	104
 3456 00f8 41       		.byte	65
 3457 00f9 99       		.byte	-103
 3458 00fa 2D       		.byte	45
 3459 00fb 0F       		.byte	15
 3460 00fc B0       		.byte	-80
 3461 00fd 54       		.byte	84
 3462 00fe BB       		.byte	-69
 3463 00ff 16       		.byte	22
 3464              		.section	.rodata.rsbox,"a",%progbits
 3465              		.align	2
 3466              		.set	.LANCHOR2,. + 0
 3467              		.type	rsbox, %object
 3468              		.size	rsbox, 256
 3469              	rsbox:
 3470 0000 52       		.byte	82
ARM GAS  C:\Users\Vergil\AppData\Local\Temp\ccl0Rg49.s 			page 62


 3471 0001 09       		.byte	9
 3472 0002 6A       		.byte	106
 3473 0003 D5       		.byte	-43
 3474 0004 30       		.byte	48
 3475 0005 36       		.byte	54
 3476 0006 A5       		.byte	-91
 3477 0007 38       		.byte	56
 3478 0008 BF       		.byte	-65
 3479 0009 40       		.byte	64
 3480 000a A3       		.byte	-93
 3481 000b 9E       		.byte	-98
 3482 000c 81       		.byte	-127
 3483 000d F3       		.byte	-13
 3484 000e D7       		.byte	-41
 3485 000f FB       		.byte	-5
 3486 0010 7C       		.byte	124
 3487 0011 E3       		.byte	-29
 3488 0012 39       		.byte	57
 3489 0013 82       		.byte	-126
 3490 0014 9B       		.byte	-101
 3491 0015 2F       		.byte	47
 3492 0016 FF       		.byte	-1
 3493 0017 87       		.byte	-121
 3494 0018 34       		.byte	52
 3495 0019 8E       		.byte	-114
 3496 001a 43       		.byte	67
 3497 001b 44       		.byte	68
 3498 001c C4       		.byte	-60
 3499 001d DE       		.byte	-34
 3500 001e E9       		.byte	-23
 3501 001f CB       		.byte	-53
 3502 0020 54       		.byte	84
 3503 0021 7B       		.byte	123
 3504 0022 94       		.byte	-108
 3505 0023 32       		.byte	50
 3506 0024 A6       		.byte	-90
 3507 0025 C2       		.byte	-62
 3508 0026 23       		.byte	35
 3509 0027 3D       		.byte	61
 3510 0028 EE       		.byte	-18
 3511 0029 4C       		.byte	76
 3512 002a 95       		.byte	-107
 3513 002b 0B       		.byte	11
 3514 002c 42       		.byte	66
 3515 002d FA       		.byte	-6
 3516 002e C3       		.byte	-61
 3517 002f 4E       		.byte	78
 3518 0030 08       		.byte	8
 3519 0031 2E       		.byte	46
 3520 0032 A1       		.byte	-95
 3521 0033 66       		.byte	102
 3522 0034 28       		.byte	40
 3523 0035 D9       		.byte	-39
 3524 0036 24       		.byte	36
 3525 0037 B2       		.byte	-78
 3526 0038 76       		.byte	118
 3527 0039 5B       		.byte	91
ARM GAS  C:\Users\Vergil\AppData\Local\Temp\ccl0Rg49.s 			page 63


 3528 003a A2       		.byte	-94
 3529 003b 49       		.byte	73
 3530 003c 6D       		.byte	109
 3531 003d 8B       		.byte	-117
 3532 003e D1       		.byte	-47
 3533 003f 25       		.byte	37
 3534 0040 72       		.byte	114
 3535 0041 F8       		.byte	-8
 3536 0042 F6       		.byte	-10
 3537 0043 64       		.byte	100
 3538 0044 86       		.byte	-122
 3539 0045 68       		.byte	104
 3540 0046 98       		.byte	-104
 3541 0047 16       		.byte	22
 3542 0048 D4       		.byte	-44
 3543 0049 A4       		.byte	-92
 3544 004a 5C       		.byte	92
 3545 004b CC       		.byte	-52
 3546 004c 5D       		.byte	93
 3547 004d 65       		.byte	101
 3548 004e B6       		.byte	-74
 3549 004f 92       		.byte	-110
 3550 0050 6C       		.byte	108
 3551 0051 70       		.byte	112
 3552 0052 48       		.byte	72
 3553 0053 50       		.byte	80
 3554 0054 FD       		.byte	-3
 3555 0055 ED       		.byte	-19
 3556 0056 B9       		.byte	-71
 3557 0057 DA       		.byte	-38
 3558 0058 5E       		.byte	94
 3559 0059 15       		.byte	21
 3560 005a 46       		.byte	70
 3561 005b 57       		.byte	87
 3562 005c A7       		.byte	-89
 3563 005d 8D       		.byte	-115
 3564 005e 9D       		.byte	-99
 3565 005f 84       		.byte	-124
 3566 0060 90       		.byte	-112
 3567 0061 D8       		.byte	-40
 3568 0062 AB       		.byte	-85
 3569 0063 00       		.byte	0
 3570 0064 8C       		.byte	-116
 3571 0065 BC       		.byte	-68
 3572 0066 D3       		.byte	-45
 3573 0067 0A       		.byte	10
 3574 0068 F7       		.byte	-9
 3575 0069 E4       		.byte	-28
 3576 006a 58       		.byte	88
 3577 006b 05       		.byte	5
 3578 006c B8       		.byte	-72
 3579 006d B3       		.byte	-77
 3580 006e 45       		.byte	69
 3581 006f 06       		.byte	6
 3582 0070 D0       		.byte	-48
 3583 0071 2C       		.byte	44
 3584 0072 1E       		.byte	30
ARM GAS  C:\Users\Vergil\AppData\Local\Temp\ccl0Rg49.s 			page 64


 3585 0073 8F       		.byte	-113
 3586 0074 CA       		.byte	-54
 3587 0075 3F       		.byte	63
 3588 0076 0F       		.byte	15
 3589 0077 02       		.byte	2
 3590 0078 C1       		.byte	-63
 3591 0079 AF       		.byte	-81
 3592 007a BD       		.byte	-67
 3593 007b 03       		.byte	3
 3594 007c 01       		.byte	1
 3595 007d 13       		.byte	19
 3596 007e 8A       		.byte	-118
 3597 007f 6B       		.byte	107
 3598 0080 3A       		.byte	58
 3599 0081 91       		.byte	-111
 3600 0082 11       		.byte	17
 3601 0083 41       		.byte	65
 3602 0084 4F       		.byte	79
 3603 0085 67       		.byte	103
 3604 0086 DC       		.byte	-36
 3605 0087 EA       		.byte	-22
 3606 0088 97       		.byte	-105
 3607 0089 F2       		.byte	-14
 3608 008a CF       		.byte	-49
 3609 008b CE       		.byte	-50
 3610 008c F0       		.byte	-16
 3611 008d B4       		.byte	-76
 3612 008e E6       		.byte	-26
 3613 008f 73       		.byte	115
 3614 0090 96       		.byte	-106
 3615 0091 AC       		.byte	-84
 3616 0092 74       		.byte	116
 3617 0093 22       		.byte	34
 3618 0094 E7       		.byte	-25
 3619 0095 AD       		.byte	-83
 3620 0096 35       		.byte	53
 3621 0097 85       		.byte	-123
 3622 0098 E2       		.byte	-30
 3623 0099 F9       		.byte	-7
 3624 009a 37       		.byte	55
 3625 009b E8       		.byte	-24
 3626 009c 1C       		.byte	28
 3627 009d 75       		.byte	117
 3628 009e DF       		.byte	-33
 3629 009f 6E       		.byte	110
 3630 00a0 47       		.byte	71
 3631 00a1 F1       		.byte	-15
 3632 00a2 1A       		.byte	26
 3633 00a3 71       		.byte	113
 3634 00a4 1D       		.byte	29
 3635 00a5 29       		.byte	41
 3636 00a6 C5       		.byte	-59
 3637 00a7 89       		.byte	-119
 3638 00a8 6F       		.byte	111
 3639 00a9 B7       		.byte	-73
 3640 00aa 62       		.byte	98
 3641 00ab 0E       		.byte	14
ARM GAS  C:\Users\Vergil\AppData\Local\Temp\ccl0Rg49.s 			page 65


 3642 00ac AA       		.byte	-86
 3643 00ad 18       		.byte	24
 3644 00ae BE       		.byte	-66
 3645 00af 1B       		.byte	27
 3646 00b0 FC       		.byte	-4
 3647 00b1 56       		.byte	86
 3648 00b2 3E       		.byte	62
 3649 00b3 4B       		.byte	75
 3650 00b4 C6       		.byte	-58
 3651 00b5 D2       		.byte	-46
 3652 00b6 79       		.byte	121
 3653 00b7 20       		.byte	32
 3654 00b8 9A       		.byte	-102
 3655 00b9 DB       		.byte	-37
 3656 00ba C0       		.byte	-64
 3657 00bb FE       		.byte	-2
 3658 00bc 78       		.byte	120
 3659 00bd CD       		.byte	-51
 3660 00be 5A       		.byte	90
 3661 00bf F4       		.byte	-12
 3662 00c0 1F       		.byte	31
 3663 00c1 DD       		.byte	-35
 3664 00c2 A8       		.byte	-88
 3665 00c3 33       		.byte	51
 3666 00c4 88       		.byte	-120
 3667 00c5 07       		.byte	7
 3668 00c6 C7       		.byte	-57
 3669 00c7 31       		.byte	49
 3670 00c8 B1       		.byte	-79
 3671 00c9 12       		.byte	18
 3672 00ca 10       		.byte	16
 3673 00cb 59       		.byte	89
 3674 00cc 27       		.byte	39
 3675 00cd 80       		.byte	-128
 3676 00ce EC       		.byte	-20
 3677 00cf 5F       		.byte	95
 3678 00d0 60       		.byte	96
 3679 00d1 51       		.byte	81
 3680 00d2 7F       		.byte	127
 3681 00d3 A9       		.byte	-87
 3682 00d4 19       		.byte	25
 3683 00d5 B5       		.byte	-75
 3684 00d6 4A       		.byte	74
 3685 00d7 0D       		.byte	13
 3686 00d8 2D       		.byte	45
 3687 00d9 E5       		.byte	-27
 3688 00da 7A       		.byte	122
 3689 00db 9F       		.byte	-97
 3690 00dc 93       		.byte	-109
 3691 00dd C9       		.byte	-55
 3692 00de 9C       		.byte	-100
 3693 00df EF       		.byte	-17
 3694 00e0 A0       		.byte	-96
 3695 00e1 E0       		.byte	-32
 3696 00e2 3B       		.byte	59
 3697 00e3 4D       		.byte	77
 3698 00e4 AE       		.byte	-82
ARM GAS  C:\Users\Vergil\AppData\Local\Temp\ccl0Rg49.s 			page 66


 3699 00e5 2A       		.byte	42
 3700 00e6 F5       		.byte	-11
 3701 00e7 B0       		.byte	-80
 3702 00e8 C8       		.byte	-56
 3703 00e9 EB       		.byte	-21
 3704 00ea BB       		.byte	-69
 3705 00eb 3C       		.byte	60
 3706 00ec 83       		.byte	-125
 3707 00ed 53       		.byte	83
 3708 00ee 99       		.byte	-103
 3709 00ef 61       		.byte	97
 3710 00f0 17       		.byte	23
 3711 00f1 2B       		.byte	43
 3712 00f2 04       		.byte	4
 3713 00f3 7E       		.byte	126
 3714 00f4 BA       		.byte	-70
 3715 00f5 77       		.byte	119
 3716 00f6 D6       		.byte	-42
 3717 00f7 26       		.byte	38
 3718 00f8 E1       		.byte	-31
 3719 00f9 69       		.byte	105
 3720 00fa 14       		.byte	20
 3721 00fb 63       		.byte	99
 3722 00fc 55       		.byte	85
 3723 00fd 21       		.byte	33
 3724 00fe 0C       		.byte	12
 3725 00ff 7D       		.byte	125
 3726              		.section	.rodata.Rcon,"a",%progbits
 3727              		.align	2
 3728              		.set	.LANCHOR0,. + 0
 3729              		.type	Rcon, %object
 3730              		.size	Rcon, 11
 3731              	Rcon:
 3732 0000 8D       		.byte	-115
 3733 0001 01       		.byte	1
 3734 0002 02       		.byte	2
 3735 0003 04       		.byte	4
 3736 0004 08       		.byte	8
 3737 0005 10       		.byte	16
 3738 0006 20       		.byte	32
 3739 0007 40       		.byte	64
 3740 0008 80       		.byte	-128
 3741 0009 1B       		.byte	27
 3742 000a 36       		.byte	54
 3743 000b 00       		.text
 3744              	.Letext0:
 3745              		.file 2 "C:\\Users\\Vergil\\ChibiOS_CC3000_SPI/CC3000HostDriver/data_types.h"
 3746              		.file 3 "C:\\Users\\Vergil\\ChibiOS_CC3000_SPI/CC3000HostDriver/nvmem.h"