ARM GAS  C:\Users\Vergil\AppData\Local\Temp\ccl0Rg49.s 			page 1


   1              		.syntax unified
   2              		.cpu cortex-m4
   3              		.eabi_attribute 27, 3
   4              		.eabi_attribute 28, 1
   5              		.fpu fpv4-sp-d16
   6              		.eabi_attribute 20, 1
   7              		.eabi_attribute 21, 1
   8              		.eabi_attribute 23, 3
   9              		.eabi_attribute 24, 1
  10              		.eabi_attribute 25, 1
  11              		.eabi_attribute 26, 1
  12              		.eabi_attribute 30, 2
  13              		.eabi_attribute 34, 1
  14              		.eabi_attribute 18, 4
  15              		.thumb
  16              		.file	"security.c"
  17              		.text
  18              	.Ltext0:
  19              		.cfi_sections	.debug_frame
  20              		.section	.text.expandKey,"ax",%progbits
  21              		.align	2
  22              		.p2align 4,,15
  23              		.global	expandKey
  24              		.thumb
  25              		.thumb_func
  26              		.type	expandKey, %function
  27              	expandKey:
  28              	.LFB0:
  29              		.file 1 "C:\\Users\\Vergil\\ChibiOS_CC3000_SPI/CC3000HostDriver/security.c"
  30              		.loc 1 104 0
  31              		.cfi_startproc
  32              		@ args = 0, pretend = 0, frame = 56
  33              		@ frame_needed = 0, uses_anonymous_args = 0
  34              		@ link register save eliminated.
  35              	.LVL0:
  36 0000 2DE9F00F 		push	{r4, r5, r6, r7, r8, r9, sl, fp}
  37              	.LCFI0:
  38              		.cfi_def_cfa_offset 32
  39              		.cfi_offset 4, -32
  40              		.cfi_offset 5, -28
  41              		.cfi_offset 6, -24
  42              		.cfi_offset 7, -20
  43              		.cfi_offset 8, -16
  44              		.cfi_offset 9, -12
  45              		.cfi_offset 10, -8
  46              		.cfi_offset 11, -4
  47              		.loc 1 107 0
  48 0004 0B78     		ldrb	r3, [r1, #0]	@ zero_extendqisi2
  49 0006 594A     		ldr	r2, .L5
  50 0008 0370     		strb	r3, [r0, #0]
  51              	.LVL1:
  52 000a 4C78     		ldrb	r4, [r1, #1]	@ zero_extendqisi2
  53 000c 4470     		strb	r4, [r0, #1]
  54              	.LVL2:
  55 000e 8D78     		ldrb	r5, [r1, #2]	@ zero_extendqisi2
  56 0010 8570     		strb	r5, [r0, #2]
  57              	.LVL3:
ARM GAS  C:\Users\Vergil\AppData\Local\Temp\ccl0Rg49.s 			page 2


  58 0012 CE78     		ldrb	r6, [r1, #3]	@ zero_extendqisi2
  59 0014 C670     		strb	r6, [r0, #3]
  60              	.LVL4:
  61 0016 0F79     		ldrb	r7, [r1, #4]	@ zero_extendqisi2
  62 0018 0771     		strb	r7, [r0, #4]
  63              	.LVL5:
  64 001a 4B79     		ldrb	r3, [r1, #5]	@ zero_extendqisi2
  65              		.loc 1 104 0
  66 001c 8EB0     		sub	sp, sp, #56
  67              	.LCFI1:
  68              		.cfi_def_cfa_offset 88
  69              		.loc 1 107 0
  70 001e 4371     		strb	r3, [r0, #5]
  71              	.LVL6:
  72 0020 0892     		str	r2, [sp, #32]
  73 0022 8A79     		ldrb	r2, [r1, #6]	@ zero_extendqisi2
  74 0024 8271     		strb	r2, [r0, #6]
  75              	.LVL7:
  76 0026 CC79     		ldrb	r4, [r1, #7]	@ zero_extendqisi2
  77 0028 C471     		strb	r4, [r0, #7]
  78              	.LVL8:
  79 002a 0D7A     		ldrb	r5, [r1, #8]	@ zero_extendqisi2
  80 002c 0572     		strb	r5, [r0, #8]
  81              	.LVL9:
  82 002e 4E7A     		ldrb	r6, [r1, #9]	@ zero_extendqisi2
  83 0030 4672     		strb	r6, [r0, #9]
  84              	.LVL10:
  85 0032 8F7A     		ldrb	r7, [r1, #10]	@ zero_extendqisi2
  86 0034 8772     		strb	r7, [r0, #10]
  87              	.LVL11:
  88 0036 CB7A     		ldrb	r3, [r1, #11]	@ zero_extendqisi2
  89 0038 C372     		strb	r3, [r0, #11]
  90              	.LVL12:
  91 003a 0A7B     		ldrb	r2, [r1, #12]	@ zero_extendqisi2
  92 003c 0273     		strb	r2, [r0, #12]
  93              	.LVL13:
  94 003e 4C7B     		ldrb	r4, [r1, #13]	@ zero_extendqisi2
  95 0040 4473     		strb	r4, [r0, #13]
  96              	.LVL14:
  97 0042 8D7B     		ldrb	r5, [r1, #14]	@ zero_extendqisi2
  98 0044 8573     		strb	r5, [r0, #14]
  99              	.LVL15:
 100 0046 C97B     		ldrb	r1, [r1, #15]	@ zero_extendqisi2
 101              	.LVL16:
 102 0048 0446     		mov	r4, r0
 103 004a C173     		strb	r1, [r0, #15]
 104              	.LVL17:
 105 004c 4FF0010B 		mov	fp, #1
 106              	.LVL18:
 107              	.L2:
 108              		.loc 1 111 0 discriminator 2
 109 0050 A67B     		ldrb	r6, [r4, #14]	@ zero_extendqisi2
 110              		.loc 1 112 0 discriminator 2
 111 0052 E77B     		ldrb	r7, [r4, #15]	@ zero_extendqisi2
 112              		.loc 1 111 0 discriminator 2
 113 0054 0596     		str	r6, [sp, #20]
 114 0056 40F20001 		movw	r1, #:lower16:.LANCHOR1
ARM GAS  C:\Users\Vergil\AppData\Local\Temp\ccl0Rg49.s 			page 3


 115              		.loc 1 110 0 discriminator 2
 116 005a 637B     		ldrb	r3, [r4, #13]	@ zero_extendqisi2
 117 005c 089A     		ldr	r2, [sp, #32]
 118              		.loc 1 111 0 discriminator 2
 119 005e 059E     		ldr	r6, [sp, #20]
 120              		.loc 1 109 0 discriminator 2
 121 0060 207B     		ldrb	r0, [r4, #12]	@ zero_extendqisi2
 122              		.loc 1 112 0 discriminator 2
 123 0062 0797     		str	r7, [sp, #28]
 124              		.loc 1 111 0 discriminator 2
 125 0064 C0F20001 		movt	r1, #:upper16:.LANCHOR1
 126              		.loc 1 110 0 discriminator 2
 127 0068 12F8017F 		ldrb	r7, [r2, #1]!	@ zero_extendqisi2
 128 006c 0493     		str	r3, [sp, #16]
 129              		.loc 1 111 0 discriminator 2
 130 006e 8B5D     		ldrb	r3, [r1, r6]	@ zero_extendqisi2
 131              		.loc 1 109 0 discriminator 2
 132 0070 0390     		str	r0, [sp, #12]
 133              	.LVL19:
 134              		.loc 1 113 0 discriminator 2
 135 0072 039E     		ldr	r6, [sp, #12]
 136              		.loc 1 110 0 discriminator 2
 137 0074 0892     		str	r2, [sp, #32]
 138              		.loc 1 111 0 discriminator 2
 139 0076 0693     		str	r3, [sp, #24]
 140              		.loc 1 112 0 discriminator 2
 141 0078 079A     		ldr	r2, [sp, #28]
 142              		.loc 1 110 0 discriminator 2
 143 007a 049B     		ldr	r3, [sp, #16]
 144              		.loc 1 112 0 discriminator 2
 145 007c 11F80290 		ldrb	r9, [r1, r2]	@ zero_extendqisi2
 146              		.loc 1 113 0 discriminator 2
 147 0080 11F806C0 		ldrb	ip, [r1, r6]	@ zero_extendqisi2
 148              		.loc 1 110 0 discriminator 2
 149 0084 C95C     		ldrb	r1, [r1, r3]	@ zero_extendqisi2
 150              		.loc 1 116 0 discriminator 2
 151 0086 A379     		ldrb	r3, [r4, #6]	@ zero_extendqisi2
 152              		.loc 1 110 0 discriminator 2
 153 0088 2078     		ldrb	r0, [r4, #0]	@ zero_extendqisi2
 154              		.loc 1 116 0 discriminator 2
 155 008a 0193     		str	r3, [sp, #4]
 156              		.loc 1 117 0 discriminator 2
 157 008c E379     		ldrb	r3, [r4, #7]	@ zero_extendqisi2
 158              		.loc 1 112 0 discriminator 2
 159 008e 94F80280 		ldrb	r8, [r4, #2]	@ zero_extendqisi2
 160              		.loc 1 117 0 discriminator 2
 161 0092 0993     		str	r3, [sp, #36]
 162              		.loc 1 118 0 discriminator 2
 163 0094 237A     		ldrb	r3, [r4, #8]	@ zero_extendqisi2
 164              		.loc 1 113 0 discriminator 2
 165 0096 E578     		ldrb	r5, [r4, #3]	@ zero_extendqisi2
 166              		.loc 1 118 0 discriminator 2
 167 0098 0A93     		str	r3, [sp, #40]
 168              		.loc 1 119 0 discriminator 2
 169 009a 637A     		ldrb	r3, [r4, #9]	@ zero_extendqisi2
 170              		.loc 1 115 0 discriminator 2
 171 009c 6279     		ldrb	r2, [r4, #5]	@ zero_extendqisi2
ARM GAS  C:\Users\Vergil\AppData\Local\Temp\ccl0Rg49.s 			page 4


 172              		.loc 1 111 0 discriminator 2
 173 009e 94F801A0 		ldrb	sl, [r4, #1]	@ zero_extendqisi2
 174              		.loc 1 114 0 discriminator 2
 175 00a2 2679     		ldrb	r6, [r4, #4]	@ zero_extendqisi2
 176              		.loc 1 119 0 discriminator 2
 177 00a4 0B93     		str	r3, [sp, #44]
 178              		.loc 1 120 0 discriminator 2
 179 00a6 A37A     		ldrb	r3, [r4, #10]	@ zero_extendqisi2
 180 00a8 0C93     		str	r3, [sp, #48]
 181              		.loc 1 121 0 discriminator 2
 182 00aa E37A     		ldrb	r3, [r4, #11]	@ zero_extendqisi2
 183 00ac 0D93     		str	r3, [sp, #52]
 184              		.loc 1 111 0 discriminator 2
 185 00ae 069B     		ldr	r3, [sp, #24]
 186 00b0 83EA0A0A 		eor	sl, r3, sl
 187 00b4 CDF818A0 		str	sl, [sp, #24]
 188              		.loc 1 110 0 discriminator 2
 189 00b8 4740     		eors	r7, r7, r0
 190 00ba 4F40     		eors	r7, r7, r1
 191              		.loc 1 115 0 discriminator 2
 192 00bc 0698     		ldr	r0, [sp, #24]
 193              		.loc 1 110 0 discriminator 2
 194 00be 2774     		strb	r7, [r4, #16]
 195              		.loc 1 114 0 discriminator 2
 196 00c0 7E40     		eors	r6, r6, r7
 197 00c2 0296     		str	r6, [sp, #8]
 198              		.loc 1 115 0 discriminator 2
 199 00c4 C3B2     		uxtb	r3, r0
 200              		.loc 1 112 0 discriminator 2
 201 00c6 89EA080A 		eor	sl, r9, r8
 202              		.loc 1 117 0 discriminator 2
 203 00ca 0998     		ldr	r0, [sp, #36]
 204              		.loc 1 112 0 discriminator 2
 205 00cc 84F812A0 		strb	sl, [r4, #18]
 206              		.loc 1 115 0 discriminator 2
 207 00d0 83EA0208 		eor	r8, r3, r2
 208              		.loc 1 113 0 discriminator 2
 209 00d4 8CEA0509 		eor	r9, ip, r5
 210              		.loc 1 118 0 discriminator 2
 211 00d8 029B     		ldr	r3, [sp, #8]
 212              		.loc 1 116 0 discriminator 2
 213 00da 019A     		ldr	r2, [sp, #4]
 214              		.loc 1 113 0 discriminator 2
 215 00dc 84F81390 		strb	r9, [r4, #19]
 216              		.loc 1 117 0 discriminator 2
 217 00e0 5FFA89F5 		uxtb	r5, r9
 218 00e4 4540     		eors	r5, r5, r0
 219              		.loc 1 118 0 discriminator 2
 220 00e6 D8B2     		uxtb	r0, r3
 221 00e8 0A9B     		ldr	r3, [sp, #40]
 222              		.loc 1 115 0 discriminator 2
 223 00ea 84F81580 		strb	r8, [r4, #21]
 224              		.loc 1 116 0 discriminator 2
 225 00ee 5FFA8AF1 		uxtb	r1, sl
 226              		.loc 1 121 0 discriminator 2
 227 00f2 EEB2     		uxtb	r6, r5
 228              		.loc 1 118 0 discriminator 2
ARM GAS  C:\Users\Vergil\AppData\Local\Temp\ccl0Rg49.s 			page 5


 229 00f4 5840     		eors	r0, r0, r3
 230              		.loc 1 116 0 discriminator 2
 231 00f6 81EA020C 		eor	ip, r1, r2
 232              		.loc 1 121 0 discriminator 2
 233 00fa 0996     		str	r6, [sp, #36]
 234              		.loc 1 120 0 discriminator 2
 235 00fc 0C9B     		ldr	r3, [sp, #48]
 236              		.loc 1 119 0 discriminator 2
 237 00fe 0B9E     		ldr	r6, [sp, #44]
 238 0100 5FFA88F1 		uxtb	r1, r8
 239              		.loc 1 120 0 discriminator 2
 240 0104 5FFA8CF2 		uxtb	r2, ip
 241              		.loc 1 119 0 discriminator 2
 242 0108 7140     		eors	r1, r1, r6
 243              		.loc 1 120 0 discriminator 2
 244 010a 5A40     		eors	r2, r2, r3
 245              		.loc 1 121 0 discriminator 2
 246 010c 0D9E     		ldr	r6, [sp, #52]
 247 010e 099B     		ldr	r3, [sp, #36]
 248 0110 7340     		eors	r3, r3, r6
 249              		.loc 1 122 0 discriminator 2
 250 0112 039E     		ldr	r6, [sp, #12]
 251 0114 4640     		eors	r6, r6, r0
 252 0116 0396     		str	r6, [sp, #12]
 253              		.loc 1 123 0 discriminator 2
 254 0118 049E     		ldr	r6, [sp, #16]
 255 011a 4E40     		eors	r6, r6, r1
 256 011c 0496     		str	r6, [sp, #16]
 257              		.loc 1 124 0 discriminator 2
 258 011e 059E     		ldr	r6, [sp, #20]
 259 0120 5640     		eors	r6, r6, r2
 260 0122 0596     		str	r6, [sp, #20]
 261              		.loc 1 125 0 discriminator 2
 262 0124 079E     		ldr	r6, [sp, #28]
 263 0126 5E40     		eors	r6, r6, r3
 264 0128 0796     		str	r6, [sp, #28]
 265              		.loc 1 111 0 discriminator 2
 266 012a 069E     		ldr	r6, [sp, #24]
 267 012c 6674     		strb	r6, [r4, #17]
 268              		.loc 1 114 0 discriminator 2
 269 012e 029E     		ldr	r6, [sp, #8]
 270              		.loc 1 108 0 discriminator 2
 271 0130 0BF1010B 		add	fp, fp, #1
 272              		.loc 1 114 0 discriminator 2
 273 0134 2675     		strb	r6, [r4, #20]
 274              		.loc 1 116 0 discriminator 2
 275 0136 84F816C0 		strb	ip, [r4, #22]
 276              		.loc 1 118 0 discriminator 2
 277 013a 2076     		strb	r0, [r4, #24]
 278              		.loc 1 119 0 discriminator 2
 279 013c 6176     		strb	r1, [r4, #25]
 280              		.loc 1 120 0 discriminator 2
 281 013e A276     		strb	r2, [r4, #26]
 282              		.loc 1 122 0 discriminator 2
 283 0140 0398     		ldr	r0, [sp, #12]
 284              		.loc 1 123 0 discriminator 2
 285 0142 0499     		ldr	r1, [sp, #16]
ARM GAS  C:\Users\Vergil\AppData\Local\Temp\ccl0Rg49.s 			page 6


 286              		.loc 1 124 0 discriminator 2
 287 0144 059E     		ldr	r6, [sp, #20]
 288              		.loc 1 125 0 discriminator 2
 289 0146 079A     		ldr	r2, [sp, #28]
 290              		.loc 1 117 0 discriminator 2
 291 0148 E575     		strb	r5, [r4, #23]
 292              		.loc 1 108 0 discriminator 2
 293 014a 1FFA8BFB 		uxth	fp, fp
 294              		.loc 1 121 0 discriminator 2
 295 014e E376     		strb	r3, [r4, #27]
 296              		.loc 1 122 0 discriminator 2
 297 0150 2077     		strb	r0, [r4, #28]
 298              	.LVL20:
 299              		.loc 1 123 0 discriminator 2
 300 0152 6177     		strb	r1, [r4, #29]
 301              		.loc 1 124 0 discriminator 2
 302 0154 A677     		strb	r6, [r4, #30]
 303              		.loc 1 125 0 discriminator 2
 304 0156 E277     		strb	r2, [r4, #31]
 305 0158 1034     		adds	r4, r4, #16
 306              		.loc 1 108 0 discriminator 2
 307 015a BBF10B0F 		cmp	fp, #11
 308 015e 7FF477AF 		bne	.L2
 309              		.loc 1 128 0
 310 0162 0EB0     		add	sp, sp, #56
 311 0164 BDE8F00F 		pop	{r4, r5, r6, r7, r8, r9, sl, fp}
 312 0168 7047     		bx	lr
 313              	.L6:
 314 016a 00BF     		.align	2
 315              	.L5:
 316 016c 00000000 		.word	.LANCHOR0
 317              		.cfi_endproc
 318              	.LFE0:
 319              		.size	expandKey, .-expandKey
 320              		.section	.text.galois_mul2,"ax",%progbits
 321              		.align	2
 322              		.p2align 4,,15
 323              		.global	galois_mul2
 324              		.thumb
 325              		.thumb_func
 326              		.type	galois_mul2, %function
 327              	galois_mul2:
 328              	.LFB1:
 329              		.loc 1 143 0
 330              		.cfi_startproc
 331              		@ args = 0, pretend = 0, frame = 0
 332              		@ frame_needed = 0, uses_anonymous_args = 0
 333              		@ link register save eliminated.
 334              	.LVL21:
 335              		.loc 1 144 0
 336 0000 10F0800F 		tst	r0, #128
 337              		.loc 1 146 0
 338 0004 4FEA4000 		lsl	r0, r0, #1
 339              	.LVL22:
 340              		.loc 1 147 0
 341 0008 18BF     		it	ne
 342 000a 80F01B00 		eorne	r0, r0, #27
ARM GAS  C:\Users\Vergil\AppData\Local\Temp\ccl0Rg49.s 			page 7


 343              	.LVL23:
 344              		.loc 1 149 0
 345 000e C0B2     		uxtb	r0, r0
 346              		.loc 1 150 0
 347 0010 7047     		bx	lr
 348              		.cfi_endproc
 349              	.LFE1:
 350              		.size	galois_mul2, .-galois_mul2
 351 0012 00BFAFF3 		.section	.text.aes_encr,"ax",%progbits
 351      0080AFF3 
 351      0080AFF3 
 351      0080
 352              		.align	2
 353              		.p2align 4,,15
 354              		.global	aes_encr
 355              		.thumb
 356              		.thumb_func
 357              		.type	aes_encr, %function
 358              	aes_encr:
 359              	.LFB2:
 360              		.loc 1 177 0
 361              		.cfi_startproc
 362              		@ args = 0, pretend = 0, frame = 72
 363              		@ frame_needed = 0, uses_anonymous_args = 0
 364              		@ link register save eliminated.
 365              	.LVL24:
 366 0000 2DE9F00F 		push	{r4, r5, r6, r7, r8, r9, sl, fp}
 367              	.LCFI2:
 368              		.cfi_def_cfa_offset 32
 369              		.cfi_offset 4, -32
 370              		.cfi_offset 5, -28
 371              		.cfi_offset 6, -24
 372              		.cfi_offset 7, -20
 373              		.cfi_offset 8, -16
 374              		.cfi_offset 9, -12
 375              		.cfi_offset 10, -8
 376              		.cfi_offset 11, -4
 377 0004 8346     		mov	fp, r0
 378 0006 92B0     		sub	sp, sp, #72
 379              	.LCFI3:
 380              		.cfi_def_cfa_offset 104
 381 0008 9BF80240 		ldrb	r4, [fp, #2]	@ zero_extendqisi2
 382              		.loc 1 177 0
 383 000c 0A91     		str	r1, [sp, #40]
 384 000e 9BF80530 		ldrb	r3, [fp, #5]	@ zero_extendqisi2
 385 0012 0078     		ldrb	r0, [r0, #0]	@ zero_extendqisi2
 386              	.LVL25:
 387 0014 9BF80120 		ldrb	r2, [fp, #1]	@ zero_extendqisi2
 388 0018 9BF80770 		ldrb	r7, [fp, #7]	@ zero_extendqisi2
 389 001c 0C94     		str	r4, [sp, #48]
 390 001e 0A9C     		ldr	r4, [sp, #40]
 391 0020 0193     		str	r3, [sp, #4]
 392 0022 9BF80410 		ldrb	r1, [fp, #4]	@ zero_extendqisi2
 393              	.LVL26:
 394 0026 9BF80650 		ldrb	r5, [fp, #6]	@ zero_extendqisi2
 395 002a 0890     		str	r0, [sp, #32]
 396 002c 0B92     		str	r2, [sp, #44]
ARM GAS  C:\Users\Vergil\AppData\Local\Temp\ccl0Rg49.s 			page 8


 397 002e 9BF80BC0 		ldrb	ip, [fp, #11]	@ zero_extendqisi2
 398 0032 1097     		str	r7, [sp, #64]
 399 0034 9BF80300 		ldrb	r0, [fp, #3]	@ zero_extendqisi2
 400              		.loc 1 176 0
 401 0038 019F     		ldr	r7, [sp, #4]
 402 003a 0E91     		str	r1, [sp, #56]
 403 003c 2246     		mov	r2, r4
 404 003e 9032     		adds	r2, r2, #144
 405 0040 0F95     		str	r5, [sp, #60]
 406 0042 9BF80890 		ldrb	r9, [fp, #8]	@ zero_extendqisi2
 407 0046 9BF80C10 		ldrb	r1, [fp, #12]	@ zero_extendqisi2
 408 004a 9BF80960 		ldrb	r6, [fp, #9]	@ zero_extendqisi2
 409 004e 9BF80D30 		ldrb	r3, [fp, #13]	@ zero_extendqisi2
 410 0052 9BF80A80 		ldrb	r8, [fp, #10]	@ zero_extendqisi2
 411 0056 9BF80E50 		ldrb	r5, [fp, #14]	@ zero_extendqisi2
 412 005a 9BF80FA0 		ldrb	sl, [fp, #15]	@ zero_extendqisi2
 413 005e CDF808C0 		str	ip, [sp, #8]
 414 0062 0D90     		str	r0, [sp, #52]
 415 0064 1192     		str	r2, [sp, #68]
 416 0066 0097     		str	r7, [sp, #0]
 417 0068 0FE0     		b	.L43
 418              	.LVL27:
 419              	.L41:
 420              	.LBB98:
 421              	.LBB99:
 422              		.loc 1 149 0
 423 006a 0198     		ldr	r0, [sp, #4]
 424 006c 4FEA400A 		lsl	sl, r0, #1
 425              	.LVL28:
 426 0070 5FFA8AF0 		uxtb	r0, sl
 427              	.LVL29:
 428              	.L42:
 429              	.LBE99:
 430              	.LBE98:
 431              		.loc 1 235 0
 432 0074 099F     		ldr	r7, [sp, #36]
 433 0076 7A40     		eors	r2, r2, r7
 434              	.LVL30:
 435 0078 80EA020A 		eor	sl, r0, r2
 436              		.loc 1 180 0
 437 007c 119A     		ldr	r2, [sp, #68]
 438              		.loc 1 235 0
 439 007e 8BF80FA0 		strb	sl, [fp, #15]
 440 0082 1034     		adds	r4, r4, #16
 441              	.LVL31:
 442              		.loc 1 180 0
 443 0084 9442     		cmp	r4, r2
 444 0086 00F0C481 		beq	.L45
 445              	.LVL32:
 446              	.L43:
 447              		.loc 1 183 0 discriminator 2
 448 008a 2078     		ldrb	r0, [r4, #0]	@ zero_extendqisi2
 449 008c 089F     		ldr	r7, [sp, #32]
 450 008e 40F20002 		movw	r2, #:lower16:.LANCHOR1
 451 0092 4740     		eors	r7, r7, r0
 452 0094 C0F20002 		movt	r2, #:upper16:.LANCHOR1
 453 0098 D05D     		ldrb	r0, [r2, r7]	@ zero_extendqisi2
ARM GAS  C:\Users\Vergil\AppData\Local\Temp\ccl0Rg49.s 			page 9


 454              		.loc 1 184 0 discriminator 2
 455 009a 0E9A     		ldr	r2, [sp, #56]
 456              		.loc 1 183 0 discriminator 2
 457 009c 8BF80000 		strb	r0, [fp, #0]
 458              		.loc 1 184 0 discriminator 2
 459 00a0 2779     		ldrb	r7, [r4, #4]	@ zero_extendqisi2
 460 00a2 7A40     		eors	r2, r2, r7
 461 00a4 40F20007 		movw	r7, #:lower16:.LANCHOR1
 462 00a8 C0F20007 		movt	r7, #:upper16:.LANCHOR1
 463 00ac BA5C     		ldrb	r2, [r7, r2]	@ zero_extendqisi2
 464 00ae 8BF80420 		strb	r2, [fp, #4]
 465              		.loc 1 185 0 discriminator 2
 466 00b2 277A     		ldrb	r7, [r4, #8]	@ zero_extendqisi2
 467              		.loc 1 184 0 discriminator 2
 468 00b4 0192     		str	r2, [sp, #4]
 469              		.loc 1 185 0 discriminator 2
 470 00b6 40F20002 		movw	r2, #:lower16:.LANCHOR1
 471 00ba 89EA0709 		eor	r9, r9, r7
 472 00be C0F20002 		movt	r2, #:upper16:.LANCHOR1
 473 00c2 12F80990 		ldrb	r9, [r2, r9]	@ zero_extendqisi2
 474 00c6 8BF80890 		strb	r9, [fp, #8]
 475              		.loc 1 186 0 discriminator 2
 476 00ca 277B     		ldrb	r7, [r4, #12]	@ zero_extendqisi2
 477              		.loc 1 185 0 discriminator 2
 478 00cc CDF80890 		str	r9, [sp, #8]
 479              		.loc 1 186 0 discriminator 2
 480 00d0 40F20002 		movw	r2, #:lower16:.LANCHOR1
 481 00d4 7940     		eors	r1, r1, r7
 482 00d6 C0F20002 		movt	r2, #:upper16:.LANCHOR1
 483 00da 515C     		ldrb	r1, [r2, r1]	@ zero_extendqisi2
 484              		.loc 1 189 0 discriminator 2
 485 00dc 009A     		ldr	r2, [sp, #0]
 486              		.loc 1 186 0 discriminator 2
 487 00de 8BF80C10 		strb	r1, [fp, #12]
 488              		.loc 1 188 0 discriminator 2
 489 00e2 94F80190 		ldrb	r9, [r4, #1]	@ zero_extendqisi2
 490              		.loc 1 186 0 discriminator 2
 491 00e6 0391     		str	r1, [sp, #12]
 492              		.loc 1 188 0 discriminator 2
 493 00e8 0B99     		ldr	r1, [sp, #44]
 494              		.loc 1 189 0 discriminator 2
 495 00ea 6779     		ldrb	r7, [r4, #5]	@ zero_extendqisi2
 496              		.loc 1 188 0 discriminator 2
 497 00ec 81EA0909 		eor	r9, r1, r9
 498              	.LVL33:
 499              		.loc 1 189 0 discriminator 2
 500 00f0 40F20001 		movw	r1, #:lower16:.LANCHOR1
 501 00f4 C0F20001 		movt	r1, #:upper16:.LANCHOR1
 502 00f8 7A40     		eors	r2, r2, r7
 503              		.loc 1 192 0 discriminator 2
 504 00fa 11F80990 		ldrb	r9, [r1, r9]	@ zero_extendqisi2
 505              	.LVL34:
 506              		.loc 1 189 0 discriminator 2
 507 00fe 8F5C     		ldrb	r7, [r1, r2]	@ zero_extendqisi2
 508              		.loc 1 192 0 discriminator 2
 509 0100 CDF81490 		str	r9, [sp, #20]
 510              		.loc 1 189 0 discriminator 2
ARM GAS  C:\Users\Vergil\AppData\Local\Temp\ccl0Rg49.s 			page 10


 511 0104 8BF80170 		strb	r7, [fp, #1]
 512              		.loc 1 190 0 discriminator 2
 513 0108 627A     		ldrb	r2, [r4, #9]	@ zero_extendqisi2
 514 010a 5640     		eors	r6, r6, r2
 515              		.loc 1 209 0 discriminator 2
 516 010c 87EA0009 		eor	r9, r7, r0
 517              		.loc 1 190 0 discriminator 2
 518 0110 8A5D     		ldrb	r2, [r1, r6]	@ zero_extendqisi2
 519              		.loc 1 192 0 discriminator 2
 520 0112 059E     		ldr	r6, [sp, #20]
 521              		.loc 1 190 0 discriminator 2
 522 0114 8BF80520 		strb	r2, [fp, #5]
 523              		.loc 1 191 0 discriminator 2
 524 0118 617B     		ldrb	r1, [r4, #13]	@ zero_extendqisi2
 525              		.loc 1 192 0 discriminator 2
 526 011a 8BF80D60 		strb	r6, [fp, #13]
 527              		.loc 1 191 0 discriminator 2
 528 011e 4B40     		eors	r3, r3, r1
 529 0120 40F20001 		movw	r1, #:lower16:.LANCHOR1
 530 0124 C0F20001 		movt	r1, #:upper16:.LANCHOR1
 531              	.LBB102:
 532              	.LBB103:
 533              		.loc 1 144 0 discriminator 2
 534 0128 19F0800F 		tst	r9, #128
 535              	.LBE103:
 536              	.LBE102:
 537              		.loc 1 191 0 discriminator 2
 538 012c CB5C     		ldrb	r3, [r1, r3]	@ zero_extendqisi2
 539 012e 0493     		str	r3, [sp, #16]
 540 0130 8BF80930 		strb	r3, [fp, #9]
 541              		.loc 1 195 0 discriminator 2
 542 0134 A379     		ldrb	r3, [r4, #6]	@ zero_extendqisi2
 543              		.loc 1 196 0 discriminator 2
 544 0136 A67A     		ldrb	r6, [r4, #10]	@ zero_extendqisi2
 545              		.loc 1 195 0 discriminator 2
 546 0138 0793     		str	r3, [sp, #28]
 547              		.loc 1 196 0 discriminator 2
 548 013a 40F20003 		movw	r3, #:lower16:.LANCHOR1
 549              		.loc 1 194 0 discriminator 2
 550 013e A178     		ldrb	r1, [r4, #2]	@ zero_extendqisi2
 551              		.loc 1 196 0 discriminator 2
 552 0140 88EA0608 		eor	r8, r8, r6
 553 0144 C0F20003 		movt	r3, #:upper16:.LANCHOR1
 554              		.loc 1 194 0 discriminator 2
 555 0148 0C9E     		ldr	r6, [sp, #48]
 556 014a 86EA0101 		eor	r1, r6, r1
 557              	.LVL35:
 558              		.loc 1 196 0 discriminator 2
 559 014e 13F80860 		ldrb	r6, [r3, r8]	@ zero_extendqisi2
 560              		.loc 1 198 0 discriminator 2
 561 0152 595C     		ldrb	r1, [r3, r1]	@ zero_extendqisi2
 562              	.LVL36:
 563              		.loc 1 196 0 discriminator 2
 564 0154 8BF80260 		strb	r6, [fp, #2]
 565              		.loc 1 197 0 discriminator 2
 566 0158 A37B     		ldrb	r3, [r4, #14]	@ zero_extendqisi2
 567              		.loc 1 198 0 discriminator 2
ARM GAS  C:\Users\Vergil\AppData\Local\Temp\ccl0Rg49.s 			page 11


 568 015a 0691     		str	r1, [sp, #24]
 569              		.loc 1 197 0 discriminator 2
 570 015c 85EA0305 		eor	r5, r5, r3
 571              		.loc 1 195 0 discriminator 2
 572 0160 0F99     		ldr	r1, [sp, #60]
 573 0162 079B     		ldr	r3, [sp, #28]
 574              		.loc 1 197 0 discriminator 2
 575 0164 40F20008 		movw	r8, #:lower16:.LANCHOR1
 576 0168 C0F20008 		movt	r8, #:upper16:.LANCHOR1
 577              		.loc 1 195 0 discriminator 2
 578 016c 81EA0301 		eor	r1, r1, r3
 579              	.LVL37:
 580              		.loc 1 197 0 discriminator 2
 581 0170 18F80530 		ldrb	r3, [r8, r5]	@ zero_extendqisi2
 582              		.loc 1 199 0 discriminator 2
 583 0174 18F80110 		ldrb	r1, [r8, r1]	@ zero_extendqisi2
 584              	.LVL38:
 585              		.loc 1 198 0 discriminator 2
 586 0178 069D     		ldr	r5, [sp, #24]
 587              		.loc 1 197 0 discriminator 2
 588 017a 8BF80630 		strb	r3, [fp, #6]
 589              		.loc 1 198 0 discriminator 2
 590 017e 8BF80A50 		strb	r5, [fp, #10]
 591              		.loc 1 199 0 discriminator 2
 592 0182 8BF80E10 		strb	r1, [fp, #14]
 593 0186 0791     		str	r1, [sp, #28]
 594              		.loc 1 202 0 discriminator 2
 595 0188 E17A     		ldrb	r1, [r4, #11]	@ zero_extendqisi2
 596              		.loc 1 201 0 discriminator 2
 597 018a E57B     		ldrb	r5, [r4, #15]	@ zero_extendqisi2
 598              		.loc 1 202 0 discriminator 2
 599 018c 8CEA0101 		eor	r1, ip, r1
 600              		.loc 1 201 0 discriminator 2
 601 0190 8AEA050A 		eor	sl, sl, r5
 602              	.LVL39:
 603              		.loc 1 202 0 discriminator 2
 604 0194 18F80150 		ldrb	r5, [r8, r1]	@ zero_extendqisi2
 605              		.loc 1 205 0 discriminator 2
 606 0198 18F80AC0 		ldrb	ip, [r8, sl]	@ zero_extendqisi2
 607              		.loc 1 202 0 discriminator 2
 608 019c 8BF80F50 		strb	r5, [fp, #15]
 609              		.loc 1 203 0 discriminator 2
 610 01a0 E179     		ldrb	r1, [r4, #7]	@ zero_extendqisi2
 611 01a2 DDF84080 		ldr	r8, [sp, #64]
 612              		.loc 1 202 0 discriminator 2
 613 01a6 0995     		str	r5, [sp, #36]
 614              		.loc 1 205 0 discriminator 2
 615 01a8 CDF838C0 		str	ip, [sp, #56]
 616              		.loc 1 203 0 discriminator 2
 617 01ac 88EA0105 		eor	r5, r8, r1
 618              		.loc 1 209 0 discriminator 2
 619 01b0 8CEA0608 		eor	r8, ip, r6
 620              		.loc 1 203 0 discriminator 2
 621 01b4 40F2000C 		movw	ip, #:lower16:.LANCHOR1
 622 01b8 C0F2000C 		movt	ip, #:upper16:.LANCHOR1
 623              		.loc 1 204 0 discriminator 2
 624 01bc 0D99     		ldr	r1, [sp, #52]
ARM GAS  C:\Users\Vergil\AppData\Local\Temp\ccl0Rg49.s 			page 12


 625              		.loc 1 203 0 discriminator 2
 626 01be 1CF805A0 		ldrb	sl, [ip, r5]	@ zero_extendqisi2
 627              	.LVL40:
 628 01c2 8BF80BA0 		strb	sl, [fp, #11]
 629              		.loc 1 204 0 discriminator 2
 630 01c6 E578     		ldrb	r5, [r4, #3]	@ zero_extendqisi2
 631 01c8 81EA0501 		eor	r1, r1, r5
 632 01cc 0891     		str	r1, [sp, #32]
 633 01ce 089D     		ldr	r5, [sp, #32]
 634              		.loc 1 209 0 discriminator 2
 635 01d0 88EA0901 		eor	r1, r8, r9
 636              	.LVL41:
 637              		.loc 1 204 0 discriminator 2
 638 01d4 1CF80550 		ldrb	r5, [ip, r5]	@ zero_extendqisi2
 639              	.LBB106:
 640              	.LBB104:
 641              		.loc 1 146 0 discriminator 2
 642 01d8 4FEA4909 		lsl	r9, r9, #1
 643              	.LVL42:
 644              		.loc 1 147 0 discriminator 2
 645 01dc 18BF     		it	ne
 646 01de 89F01B09 		eorne	r9, r9, #27
 647              	.LBE104:
 648              	.LBE106:
 649              		.loc 1 204 0 discriminator 2
 650 01e2 1095     		str	r5, [sp, #64]
 651              	.LVL43:
 652              	.LBB107:
 653              	.LBB105:
 654              		.loc 1 149 0 discriminator 2
 655 01e4 5FFA89FC 		uxtb	ip, r9
 656              	.LVL44:
 657              	.LBE105:
 658              	.LBE107:
 659              		.loc 1 211 0 discriminator 2
 660 01e8 81EA0005 		eor	r5, r1, r0
 661 01ec 8CEA0509 		eor	r9, ip, r5
 662              		.loc 1 212 0 discriminator 2
 663 01f0 86EA0705 		eor	r5, r6, r7
 664              	.LVL45:
 665              		.loc 1 211 0 discriminator 2
 666 01f4 CDF82090 		str	r9, [sp, #32]
 667              	.LBB108:
 668              	.LBB109:
 669              		.loc 1 146 0 discriminator 2
 670 01f8 4FEA4509 		lsl	r9, r5, #1
 671              		.loc 1 144 0 discriminator 2
 672 01fc 15F0800F 		tst	r5, #128
 673              		.loc 1 146 0 discriminator 2
 674 0200 5FFA89F5 		uxtb	r5, r9
 675              	.LVL46:
 676              	.LBE109:
 677              	.LBE108:
 678              		.loc 1 212 0 discriminator 2
 679 0204 81EA0707 		eor	r7, r1, r7
 680              	.LBB111:
 681              	.LBB110:
ARM GAS  C:\Users\Vergil\AppData\Local\Temp\ccl0Rg49.s 			page 13


 682              		.loc 1 147 0 discriminator 2
 683 0208 18BF     		it	ne
 684 020a 85F01B05 		eorne	r5, r5, #27
 685              	.LBE110:
 686              	.LBE111:
 687              		.loc 1 212 0 discriminator 2
 688 020e 7D40     		eors	r5, r5, r7
 689              	.LBB112:
 690              	.LBB113:
 691              		.loc 1 144 0 discriminator 2
 692 0210 18F0800F 		tst	r8, #128
 693              	.LBE113:
 694              	.LBE112:
 695              		.loc 1 212 0 discriminator 2
 696 0214 0B95     		str	r5, [sp, #44]
 697              	.LBB117:
 698              	.LBB114:
 699              		.loc 1 146 0 discriminator 2
 700 0216 4FEA4808 		lsl	r8, r8, #1
 701              	.LBE114:
 702              	.LBE117:
 703              		.loc 1 212 0 discriminator 2
 704 021a 8BF80150 		strb	r5, [fp, #1]
 705              	.LVL47:
 706              		.loc 1 214 0 discriminator 2
 707 021e 0E9D     		ldr	r5, [sp, #56]
 708              		.loc 1 211 0 discriminator 2
 709 0220 DDF820C0 		ldr	ip, [sp, #32]
 710              	.LBB118:
 711              	.LBB115:
 712              		.loc 1 147 0 discriminator 2
 713 0224 18BF     		it	ne
 714 0226 88F01B08 		eorne	r8, r8, #27
 715              	.LVL48:
 716              	.LBE115:
 717              	.LBE118:
 718              		.loc 1 214 0 discriminator 2
 719 022a 6840     		eors	r0, r0, r5
 720              	.LVL49:
 721              		.loc 1 213 0 discriminator 2
 722 022c 4E40     		eors	r6, r6, r1
 723              	.LVL50:
 724              	.LBB119:
 725              	.LBB116:
 726              		.loc 1 149 0 discriminator 2
 727 022e 5FFA88F7 		uxtb	r7, r8
 728              	.LBE116:
 729              	.LBE119:
 730              		.loc 1 213 0 discriminator 2
 731 0232 7740     		eors	r7, r7, r6
 732              		.loc 1 214 0 discriminator 2
 733 0234 0E9D     		ldr	r5, [sp, #56]
 734              		.loc 1 213 0 discriminator 2
 735 0236 0C97     		str	r7, [sp, #48]
 736              	.LBB120:
 737              	.LBB121:
 738              		.loc 1 146 0 discriminator 2
ARM GAS  C:\Users\Vergil\AppData\Local\Temp\ccl0Rg49.s 			page 14


 739 0238 4FEA4006 		lsl	r6, r0, #1
 740              		.loc 1 144 0 discriminator 2
 741 023c 10F0800F 		tst	r0, #128
 742              	.LBE121:
 743              	.LBE120:
 744              		.loc 1 213 0 discriminator 2
 745 0240 8BF80270 		strb	r7, [fp, #2]
 746              	.LBB123:
 747              	.LBB122:
 748              		.loc 1 146 0 discriminator 2
 749 0244 F7B2     		uxtb	r7, r6
 750              	.LVL51:
 751              		.loc 1 147 0 discriminator 2
 752 0246 18BF     		it	ne
 753 0248 87F01B07 		eorne	r7, r7, #27
 754              	.LBE122:
 755              	.LBE123:
 756              		.loc 1 214 0 discriminator 2
 757 024c 6940     		eors	r1, r1, r5
 758              	.LVL52:
 759 024e 7940     		eors	r1, r1, r7
 760              		.loc 1 211 0 discriminator 2
 761 0250 8BF800C0 		strb	ip, [fp, #0]
 762              		.loc 1 216 0 discriminator 2
 763 0254 DDF804C0 		ldr	ip, [sp, #4]
 764              		.loc 1 214 0 discriminator 2
 765 0258 0D91     		str	r1, [sp, #52]
 766              		.loc 1 216 0 discriminator 2
 767 025a 1099     		ldr	r1, [sp, #64]
 768              		.loc 1 218 0 discriminator 2
 769 025c 019D     		ldr	r5, [sp, #4]
 770              		.loc 1 214 0 discriminator 2
 771 025e DDF83490 		ldr	r9, [sp, #52]
 772              	.LVL53:
 773              		.loc 1 223 0 discriminator 2
 774 0262 DDF80880 		ldr	r8, [sp, #8]
 775              		.loc 1 214 0 discriminator 2
 776 0266 8BF80390 		strb	r9, [fp, #3]
 777              		.loc 1 216 0 discriminator 2
 778 026a 82EA0C06 		eor	r6, r2, ip
 779              	.LVL54:
 780 026e 5940     		eors	r1, r1, r3
 781              	.LBB124:
 782              	.LBB125:
 783              		.loc 1 144 0 discriminator 2
 784 0270 16F0800F 		tst	r6, #128
 785              		.loc 1 146 0 discriminator 2
 786 0274 4FEA4607 		lsl	r7, r6, #1
 787              	.LBE125:
 788              	.LBE124:
 789              		.loc 1 216 0 discriminator 2
 790 0278 81EA0600 		eor	r0, r1, r6
 791              	.LVL55:
 792              	.LBB128:
 793              	.LBB126:
 794              		.loc 1 147 0 discriminator 2
 795 027c 18BF     		it	ne
ARM GAS  C:\Users\Vergil\AppData\Local\Temp\ccl0Rg49.s 			page 15


 796 027e 87F01B07 		eorne	r7, r7, #27
 797              	.LVL56:
 798              	.LBE126:
 799              	.LBE128:
 800              		.loc 1 218 0 discriminator 2
 801 0282 80EA0506 		eor	r6, r0, r5
 802              	.LVL57:
 803              	.LBB129:
 804              	.LBB127:
 805              		.loc 1 149 0 discriminator 2
 806 0286 FFB2     		uxtb	r7, r7
 807              	.LBE127:
 808              	.LBE129:
 809              		.loc 1 219 0 discriminator 2
 810 0288 83EA0205 		eor	r5, r3, r2
 811              	.LVL58:
 812              		.loc 1 218 0 discriminator 2
 813 028c 7740     		eors	r7, r7, r6
 814 028e 0E97     		str	r7, [sp, #56]
 815              	.LBB130:
 816              	.LBB131:
 817              		.loc 1 146 0 discriminator 2
 818 0290 4FEA4507 		lsl	r7, r5, #1
 819              	.LBE131:
 820              	.LBE130:
 821              		.loc 1 218 0 discriminator 2
 822 0294 0E9E     		ldr	r6, [sp, #56]
 823              		.loc 1 223 0 discriminator 2
 824 0296 DDF818C0 		ldr	ip, [sp, #24]
 825              	.LVL59:
 826              		.loc 1 218 0 discriminator 2
 827 029a 8BF80460 		strb	r6, [fp, #4]
 828              	.LBB133:
 829              	.LBB132:
 830              		.loc 1 144 0 discriminator 2
 831 029e 15F0800F 		tst	r5, #128
 832              		.loc 1 146 0 discriminator 2
 833 02a2 FDB2     		uxtb	r5, r7
 834              	.LVL60:
 835              		.loc 1 147 0 discriminator 2
 836 02a4 18BF     		it	ne
 837 02a6 85F01B05 		eorne	r5, r5, #27
 838              	.LBE132:
 839              	.LBE133:
 840              		.loc 1 219 0 discriminator 2
 841 02aa 4240     		eors	r2, r2, r0
 842              	.LVL61:
 843              	.LBB134:
 844              	.LBB135:
 845              		.loc 1 144 0 discriminator 2
 846 02ac 11F0800F 		tst	r1, #128
 847              		.loc 1 146 0 discriminator 2
 848 02b0 4FEA4101 		lsl	r1, r1, #1
 849              	.LBE135:
 850              	.LBE134:
 851              		.loc 1 219 0 discriminator 2
 852 02b4 85EA0206 		eor	r6, r5, r2
ARM GAS  C:\Users\Vergil\AppData\Local\Temp\ccl0Rg49.s 			page 16


 853              	.LBB137:
 854              	.LBB136:
 855              		.loc 1 147 0 discriminator 2
 856 02b8 18BF     		it	ne
 857 02ba 81F01B01 		eorne	r1, r1, #27
 858              		.loc 1 149 0 discriminator 2
 859 02be CFB2     		uxtb	r7, r1
 860              	.LVL62:
 861              	.LBE136:
 862              	.LBE137:
 863              		.loc 1 220 0 discriminator 2
 864 02c0 4340     		eors	r3, r3, r0
 865              		.loc 1 221 0 discriminator 2
 866 02c2 019A     		ldr	r2, [sp, #4]
 867              		.loc 1 219 0 discriminator 2
 868 02c4 0096     		str	r6, [sp, #0]
 869 02c6 8BF80560 		strb	r6, [fp, #5]
 870              		.loc 1 221 0 discriminator 2
 871 02ca 109E     		ldr	r6, [sp, #64]
 872              		.loc 1 220 0 discriminator 2
 873 02cc 87EA0305 		eor	r5, r7, r3
 874              		.loc 1 221 0 discriminator 2
 875 02d0 5640     		eors	r6, r6, r2
 876              	.LVL63:
 877              		.loc 1 220 0 discriminator 2
 878 02d2 0F95     		str	r5, [sp, #60]
 879              		.loc 1 223 0 discriminator 2
 880 02d4 049A     		ldr	r2, [sp, #16]
 881              		.loc 1 220 0 discriminator 2
 882 02d6 0F99     		ldr	r1, [sp, #60]
 883              		.loc 1 221 0 discriminator 2
 884 02d8 109D     		ldr	r5, [sp, #64]
 885              		.loc 1 220 0 discriminator 2
 886 02da 8BF80610 		strb	r1, [fp, #6]
 887              	.LBB138:
 888              	.LBB139:
 889              		.loc 1 146 0 discriminator 2
 890 02de 4FEA4607 		lsl	r7, r6, #1
 891              	.LBE139:
 892              	.LBE138:
 893              		.loc 1 223 0 discriminator 2
 894 02e2 82EA0809 		eor	r9, r2, r8
 895              	.LBB142:
 896              	.LBB140:
 897              		.loc 1 146 0 discriminator 2
 898 02e6 FBB2     		uxtb	r3, r7
 899              	.LVL64:
 900              		.loc 1 144 0 discriminator 2
 901 02e8 16F0800F 		tst	r6, #128
 902              	.LBE140:
 903              	.LBE142:
 904              	.LBB143:
 905              	.LBB144:
 906              		.loc 1 146 0 discriminator 2
 907 02ec 4FEA4901 		lsl	r1, r9, #1
 908              	.LBE144:
 909              	.LBE143:
ARM GAS  C:\Users\Vergil\AppData\Local\Temp\ccl0Rg49.s 			page 17


 910              	.LBB148:
 911              	.LBB141:
 912              		.loc 1 147 0 discriminator 2
 913 02f0 18BF     		it	ne
 914 02f2 83F01B03 		eorne	r3, r3, #27
 915              	.LBE141:
 916              	.LBE148:
 917              	.LBB149:
 918              	.LBB145:
 919              		.loc 1 144 0 discriminator 2
 920 02f6 19F0800F 		tst	r9, #128
 921              	.LBE145:
 922              	.LBE149:
 923              		.loc 1 221 0 discriminator 2
 924 02fa 80EA0500 		eor	r0, r0, r5
 925              	.LVL65:
 926              	.LBB150:
 927              	.LBB146:
 928              		.loc 1 147 0 discriminator 2
 929 02fe 18BF     		it	ne
 930 0300 81F01B01 		eorne	r1, r1, #27
 931              	.LBE146:
 932              	.LBE150:
 933              		.loc 1 223 0 discriminator 2
 934 0304 8AEA0C07 		eor	r7, sl, ip
 935              	.LVL66:
 936              		.loc 1 221 0 discriminator 2
 937 0308 83EA0006 		eor	r6, r3, r0
 938              	.LVL67:
 939              	.LBB151:
 940              	.LBB147:
 941              		.loc 1 149 0 discriminator 2
 942 030c CDB2     		uxtb	r5, r1
 943              	.LVL68:
 944              	.LBE147:
 945              	.LBE151:
 946              		.loc 1 225 0 discriminator 2
 947 030e 0298     		ldr	r0, [sp, #8]
 948              		.loc 1 226 0 discriminator 2
 949 0310 0499     		ldr	r1, [sp, #16]
 950 0312 069A     		ldr	r2, [sp, #24]
 951              		.loc 1 221 0 discriminator 2
 952 0314 1096     		str	r6, [sp, #64]
 953              		.loc 1 223 0 discriminator 2
 954 0316 87EA0903 		eor	r3, r7, r9
 955              	.LVL69:
 956              		.loc 1 226 0 discriminator 2
 957 031a 4A40     		eors	r2, r2, r1
 958              	.LVL70:
 959              		.loc 1 221 0 discriminator 2
 960 031c 8BF80760 		strb	r6, [fp, #7]
 961              		.loc 1 225 0 discriminator 2
 962 0320 83EA0006 		eor	r6, r3, r0
 963 0324 85EA0609 		eor	r9, r5, r6
 964              	.LBB152:
 965              	.LBB153:
 966              		.loc 1 146 0 discriminator 2
ARM GAS  C:\Users\Vergil\AppData\Local\Temp\ccl0Rg49.s 			page 18


 967 0328 4FEA4205 		lsl	r5, r2, #1
 968              	.LBE153:
 969              	.LBE152:
 970              		.loc 1 225 0 discriminator 2
 971 032c 8BF80890 		strb	r9, [fp, #8]
 972              	.LBB156:
 973              	.LBB154:
 974              		.loc 1 144 0 discriminator 2
 975 0330 12F0800F 		tst	r2, #128
 976              		.loc 1 146 0 discriminator 2
 977 0334 EEB2     		uxtb	r6, r5
 978              	.LVL71:
 979              	.LBE154:
 980              	.LBE156:
 981              		.loc 1 226 0 discriminator 2
 982 0336 0498     		ldr	r0, [sp, #16]
 983              	.LBB157:
 984              	.LBB158:
 985              		.loc 1 146 0 discriminator 2
 986 0338 4FEA4708 		lsl	r8, r7, #1
 987              	.LBE158:
 988              	.LBE157:
 989              	.LBB162:
 990              	.LBB155:
 991              		.loc 1 147 0 discriminator 2
 992 033c 18BF     		it	ne
 993 033e 86F01B06 		eorne	r6, r6, #27
 994              	.LBE155:
 995              	.LBE162:
 996              	.LBB163:
 997              	.LBB159:
 998              		.loc 1 144 0 discriminator 2
 999 0342 17F0800F 		tst	r7, #128
 1000              	.LBE159:
 1001              	.LBE163:
 1002              		.loc 1 227 0 discriminator 2
 1003 0346 069F     		ldr	r7, [sp, #24]
 1004              		.loc 1 226 0 discriminator 2
 1005 0348 83EA0002 		eor	r2, r3, r0
 1006              	.LBB164:
 1007              	.LBB160:
 1008              		.loc 1 147 0 discriminator 2
 1009 034c 18BF     		it	ne
 1010 034e 88F01B08 		eorne	r8, r8, #27
 1011              	.LBE160:
 1012              	.LBE164:
 1013              		.loc 1 228 0 discriminator 2
 1014 0352 0298     		ldr	r0, [sp, #8]
 1015              		.loc 1 227 0 discriminator 2
 1016 0354 83EA0705 		eor	r5, r3, r7
 1017              	.LVL72:
 1018              	.LBB165:
 1019              	.LBB161:
 1020              		.loc 1 149 0 discriminator 2
 1021 0358 5FFA88F1 		uxtb	r1, r8
 1022              	.LVL73:
 1023              	.LBE161:
ARM GAS  C:\Users\Vergil\AppData\Local\Temp\ccl0Rg49.s 			page 19


 1024              	.LBE165:
 1025              		.loc 1 228 0 discriminator 2
 1026 035c 8AEA000C 		eor	ip, sl, r0
 1027              		.loc 1 227 0 discriminator 2
 1028 0360 81EA0508 		eor	r8, r1, r5
 1029              		.loc 1 230 0 discriminator 2
 1030 0364 059F     		ldr	r7, [sp, #20]
 1031              	.LVL74:
 1032 0366 039D     		ldr	r5, [sp, #12]
 1033 0368 0798     		ldr	r0, [sp, #28]
 1034              		.loc 1 227 0 discriminator 2
 1035 036a 8BF80A80 		strb	r8, [fp, #10]
 1036              		.loc 1 226 0 discriminator 2
 1037 036e 5640     		eors	r6, r6, r2
 1038              	.LBB166:
 1039              	.LBB167:
 1040              		.loc 1 146 0 discriminator 2
 1041 0370 4FEA4C02 		lsl	r2, ip, #1
 1042              	.LBE167:
 1043              	.LBE166:
 1044              		.loc 1 230 0 discriminator 2
 1045 0374 6F40     		eors	r7, r7, r5
 1046              	.LBB170:
 1047              	.LBB168:
 1048              		.loc 1 146 0 discriminator 2
 1049 0376 D1B2     		uxtb	r1, r2
 1050              		.loc 1 144 0 discriminator 2
 1051 0378 1CF0800F 		tst	ip, #128
 1052              	.LBE168:
 1053              	.LBE170:
 1054              		.loc 1 230 0 discriminator 2
 1055 037c 099D     		ldr	r5, [sp, #36]
 1056              		.loc 1 226 0 discriminator 2
 1057 037e 8BF80960 		strb	r6, [fp, #9]
 1058              	.LVL75:
 1059              	.LBB171:
 1060              	.LBB169:
 1061              		.loc 1 147 0 discriminator 2
 1062 0382 18BF     		it	ne
 1063 0384 81F01B01 		eorne	r1, r1, #27
 1064              	.LBE169:
 1065              	.LBE171:
 1066              		.loc 1 228 0 discriminator 2
 1067 0388 83EA0A03 		eor	r3, r3, sl
 1068              	.LVL76:
 1069              		.loc 1 230 0 discriminator 2
 1070 038c 4540     		eors	r5, r5, r0
 1071              		.loc 1 228 0 discriminator 2
 1072 038e 81EA030C 		eor	ip, r1, r3
 1073              		.loc 1 232 0 discriminator 2
 1074 0392 039B     		ldr	r3, [sp, #12]
 1075              		.loc 1 233 0 discriminator 2
 1076 0394 0598     		ldr	r0, [sp, #20]
 1077              		.loc 1 234 0 discriminator 2
 1078 0396 DDF81CA0 		ldr	sl, [sp, #28]
 1079              	.LVL77:
 1080              		.loc 1 228 0 discriminator 2
ARM GAS  C:\Users\Vergil\AppData\Local\Temp\ccl0Rg49.s 			page 20


 1081 039a 8BF80BC0 		strb	ip, [fp, #11]
 1082              		.loc 1 230 0 discriminator 2
 1083 039e 85EA0702 		eor	r2, r5, r7
 1084              	.LVL78:
 1085              	.LBB172:
 1086              	.LBB173:
 1087              		.loc 1 144 0 discriminator 2
 1088 03a2 17F0800F 		tst	r7, #128
 1089              		.loc 1 146 0 discriminator 2
 1090 03a6 4FEA4701 		lsl	r1, r7, #1
 1091              	.LVL79:
 1092              	.LBE173:
 1093              	.LBE172:
 1094              		.loc 1 232 0 discriminator 2
 1095 03aa 82EA0307 		eor	r7, r2, r3
 1096              		.loc 1 233 0 discriminator 2
 1097 03ae 079B     		ldr	r3, [sp, #28]
 1098              	.LBB176:
 1099              	.LBB174:
 1100              		.loc 1 147 0 discriminator 2
 1101 03b0 18BF     		it	ne
 1102 03b2 81F01B01 		eorne	r1, r1, #27
 1103              	.LVL80:
 1104              	.LBE174:
 1105              	.LBE176:
 1106              		.loc 1 233 0 discriminator 2
 1107 03b6 4340     		eors	r3, r3, r0
 1108              	.LVL81:
 1109              	.LBB177:
 1110              	.LBB175:
 1111              		.loc 1 149 0 discriminator 2
 1112 03b8 C9B2     		uxtb	r1, r1
 1113              	.LBE175:
 1114              	.LBE177:
 1115              		.loc 1 232 0 discriminator 2
 1116 03ba 7940     		eors	r1, r1, r7
 1117              	.LBB178:
 1118              	.LBB179:
 1119              		.loc 1 146 0 discriminator 2
 1120 03bc 4FEA4307 		lsl	r7, r3, #1
 1121              		.loc 1 144 0 discriminator 2
 1122 03c0 13F0800F 		tst	r3, #128
 1123              		.loc 1 146 0 discriminator 2
 1124 03c4 FBB2     		uxtb	r3, r7
 1125              	.LVL82:
 1126              		.loc 1 147 0 discriminator 2
 1127 03c6 18BF     		it	ne
 1128 03c8 83F01B03 		eorne	r3, r3, #27
 1129              	.LBE179:
 1130              	.LBE178:
 1131              		.loc 1 233 0 discriminator 2
 1132 03cc 0598     		ldr	r0, [sp, #20]
 1133              		.loc 1 232 0 discriminator 2
 1134 03ce 8BF80C10 		strb	r1, [fp, #12]
 1135              	.LBB180:
 1136              	.LBB181:
 1137              		.loc 1 144 0 discriminator 2
ARM GAS  C:\Users\Vergil\AppData\Local\Temp\ccl0Rg49.s 			page 21


 1138 03d2 15F0800F 		tst	r5, #128
 1139              		.loc 1 146 0 discriminator 2
 1140 03d6 4FEA4505 		lsl	r5, r5, #1
 1141              		.loc 1 147 0 discriminator 2
 1142 03da 18BF     		it	ne
 1143 03dc 85F01B05 		eorne	r5, r5, #27
 1144              	.LBE181:
 1145              	.LBE180:
 1146              		.loc 1 233 0 discriminator 2
 1147 03e0 82EA0007 		eor	r7, r2, r0
 1148              	.LVL83:
 1149              	.LBB183:
 1150              	.LBB182:
 1151              		.loc 1 149 0 discriminator 2
 1152 03e4 EDB2     		uxtb	r5, r5
 1153              	.LBE182:
 1154              	.LBE183:
 1155              		.loc 1 234 0 discriminator 2
 1156 03e6 82EA0A00 		eor	r0, r2, sl
 1157              	.LVL84:
 1158              		.loc 1 233 0 discriminator 2
 1159 03ea 7B40     		eors	r3, r3, r7
 1160              		.loc 1 234 0 discriminator 2
 1161 03ec 4540     		eors	r5, r5, r0
 1162              		.loc 1 235 0 discriminator 2
 1163 03ee 039F     		ldr	r7, [sp, #12]
 1164 03f0 0998     		ldr	r0, [sp, #36]
 1165              		.loc 1 233 0 discriminator 2
 1166 03f2 8BF80D30 		strb	r3, [fp, #13]
 1167              		.loc 1 235 0 discriminator 2
 1168 03f6 7840     		eors	r0, r0, r7
 1169              	.LBB184:
 1170              	.LBB100:
 1171              		.loc 1 144 0 discriminator 2
 1172 03f8 0706     		lsls	r7, r0, #24
 1173              	.LBE100:
 1174              	.LBE184:
 1175              		.loc 1 235 0 discriminator 2
 1176 03fa 0190     		str	r0, [sp, #4]
 1177              	.LVL85:
 1178              		.loc 1 234 0 discriminator 2
 1179 03fc 8BF80E50 		strb	r5, [fp, #14]
 1180              	.LBB185:
 1181              	.LBB101:
 1182              		.loc 1 144 0 discriminator 2
 1183 0400 7FF533AE 		bpl	.L41
 1184              		.loc 1 146 0
 1185 0404 4FEA4007 		lsl	r7, r0, #1
 1186 0408 5FFA87FA 		uxtb	sl, r7
 1187              	.LVL86:
 1188              		.loc 1 147 0
 1189 040c 8AF01B00 		eor	r0, sl, #27
 1190 0410 30E6     		b	.L42
 1191              	.LVL87:
 1192              	.L45:
 1193 0412 009C     		ldr	r4, [sp, #0]
 1194              	.LVL88:
ARM GAS  C:\Users\Vergil\AppData\Local\Temp\ccl0Rg49.s 			page 22


 1195              	.LBE101:
 1196              	.LBE185:
 1197              		.loc 1 239 0
 1198 0414 089F     		ldr	r7, [sp, #32]
 1199 0416 0194     		str	r4, [sp, #4]
 1200 0418 0A9C     		ldr	r4, [sp, #40]
 1201 041a CDF808C0 		str	ip, [sp, #8]
 1202 041e 94F89000 		ldrb	r0, [r4, #144]	@ zero_extendqisi2
 1203 0422 40F2000C 		movw	ip, #:lower16:.LANCHOR1
 1204 0426 87EA0002 		eor	r2, r7, r0
 1205 042a C0F2000C 		movt	ip, #:upper16:.LANCHOR1
 1206 042e 1CF80200 		ldrb	r0, [ip, r2]	@ zero_extendqisi2
 1207              		.loc 1 240 0
 1208 0432 0E9A     		ldr	r2, [sp, #56]
 1209              		.loc 1 239 0
 1210 0434 8BF80000 		strb	r0, [fp, #0]
 1211              		.loc 1 240 0
 1212 0438 94F89470 		ldrb	r7, [r4, #148]	@ zero_extendqisi2
 1213              		.loc 1 239 0
 1214 043c 0390     		str	r0, [sp, #12]
 1215              		.loc 1 240 0
 1216 043e 40F20000 		movw	r0, #:lower16:.LANCHOR1
 1217 0442 82EA070C 		eor	ip, r2, r7
 1218 0446 C0F20000 		movt	r0, #:upper16:.LANCHOR1
 1219 044a 10F80CC0 		ldrb	ip, [r0, ip]	@ zero_extendqisi2
 1220 044e 8BF804C0 		strb	ip, [fp, #4]
 1221              		.loc 1 241 0
 1222 0452 94F89870 		ldrb	r7, [r4, #152]	@ zero_extendqisi2
 1223              		.loc 1 240 0
 1224 0456 CDF810C0 		str	ip, [sp, #16]
 1225              		.loc 1 241 0
 1226 045a 89EA0702 		eor	r2, r9, r7
 1227              		.loc 1 245 0
 1228 045e 0A9F     		ldr	r7, [sp, #40]
 1229              		.loc 1 241 0
 1230 0460 805C     		ldrb	r0, [r0, r2]	@ zero_extendqisi2
 1231              		.loc 1 245 0
 1232 0462 DDF80490 		ldr	r9, [sp, #4]
 1233              		.loc 1 241 0
 1234 0466 8BF80800 		strb	r0, [fp, #8]
 1235              		.loc 1 242 0
 1236 046a 94F89C40 		ldrb	r4, [r4, #156]	@ zero_extendqisi2
 1237              		.loc 1 241 0
 1238 046e 0590     		str	r0, [sp, #20]
 1239              		.loc 1 242 0
 1240 0470 6140     		eors	r1, r1, r4
 1241 0472 40F20004 		movw	r4, #:lower16:.LANCHOR1
 1242 0476 C0F20004 		movt	r4, #:upper16:.LANCHOR1
 1243              		.loc 1 246 0
 1244 047a DDF828C0 		ldr	ip, [sp, #40]
 1245              		.loc 1 242 0
 1246 047e 615C     		ldrb	r1, [r4, r1]	@ zero_extendqisi2
 1247 0480 8BF80C10 		strb	r1, [fp, #12]
 1248              		.loc 1 245 0
 1249 0484 97F89520 		ldrb	r2, [r7, #149]	@ zero_extendqisi2
 1250              		.loc 1 242 0
 1251 0488 0691     		str	r1, [sp, #24]
ARM GAS  C:\Users\Vergil\AppData\Local\Temp\ccl0Rg49.s 			page 23


 1252              		.loc 1 245 0
 1253 048a 89EA0200 		eor	r0, r9, r2
 1254              		.loc 1 244 0
 1255 048e 97F89110 		ldrb	r1, [r7, #145]	@ zero_extendqisi2
 1256 0492 0B9F     		ldr	r7, [sp, #44]
 1257 0494 87EA0102 		eor	r2, r7, r1
 1258              	.LVL89:
 1259              		.loc 1 245 0
 1260 0498 2746     		mov	r7, r4
 1261 049a 245C     		ldrb	r4, [r4, r0]	@ zero_extendqisi2
 1262              		.loc 1 248 0
 1263 049c B95C     		ldrb	r1, [r7, r2]	@ zero_extendqisi2
 1264              		.loc 1 245 0
 1265 049e 8BF80140 		strb	r4, [fp, #1]
 1266              		.loc 1 246 0
 1267 04a2 9CF89900 		ldrb	r0, [ip, #153]	@ zero_extendqisi2
 1268              		.loc 1 248 0
 1269 04a6 0791     		str	r1, [sp, #28]
 1270              		.loc 1 246 0
 1271 04a8 4640     		eors	r6, r6, r0
 1272 04aa BA5D     		ldrb	r2, [r7, r6]	@ zero_extendqisi2
 1273              	.LVL90:
 1274 04ac 0192     		str	r2, [sp, #4]
 1275 04ae 8BF80520 		strb	r2, [fp, #5]
 1276              		.loc 1 247 0
 1277 04b2 9CF89D00 		ldrb	r0, [ip, #157]	@ zero_extendqisi2
 1278              		.loc 1 248 0
 1279 04b6 8BF80D10 		strb	r1, [fp, #13]
 1280              		.loc 1 247 0
 1281 04ba 4340     		eors	r3, r3, r0
 1282              		.loc 1 250 0
 1283 04bc 0C9A     		ldr	r2, [sp, #48]
 1284              		.loc 1 247 0
 1285 04be 17F80390 		ldrb	r9, [r7, r3]	@ zero_extendqisi2
 1286 04c2 8BF80990 		strb	r9, [fp, #9]
 1287              		.loc 1 252 0
 1288 04c6 9CF89A10 		ldrb	r1, [ip, #154]	@ zero_extendqisi2
 1289              		.loc 1 250 0
 1290 04ca 9CF89270 		ldrb	r7, [ip, #146]	@ zero_extendqisi2
 1291              		.loc 1 251 0
 1292 04ce 9CF89630 		ldrb	r3, [ip, #150]	@ zero_extendqisi2
 1293              		.loc 1 252 0
 1294 04d2 88EA0106 		eor	r6, r8, r1
 1295              		.loc 1 250 0
 1296 04d6 82EA0701 		eor	r1, r2, r7
 1297              	.LVL91:
 1298              		.loc 1 252 0
 1299 04da 40F20002 		movw	r2, #:lower16:.LANCHOR1
 1300 04de C0F20002 		movt	r2, #:upper16:.LANCHOR1
 1301              		.loc 1 258 0
 1302 04e2 DDF80880 		ldr	r8, [sp, #8]
 1303              		.loc 1 252 0
 1304 04e6 905D     		ldrb	r0, [r2, r6]	@ zero_extendqisi2
 1305              		.loc 1 254 0
 1306 04e8 515C     		ldrb	r1, [r2, r1]	@ zero_extendqisi2
 1307              	.LVL92:
 1308              		.loc 1 252 0
ARM GAS  C:\Users\Vergil\AppData\Local\Temp\ccl0Rg49.s 			page 24


 1309 04ea 8BF80200 		strb	r0, [fp, #2]
 1310              		.loc 1 253 0
 1311 04ee 9CF89E70 		ldrb	r7, [ip, #158]	@ zero_extendqisi2
 1312              	.LVL93:
 1313              		.loc 1 254 0
 1314 04f2 8BF80A10 		strb	r1, [fp, #10]
 1315              		.loc 1 253 0
 1316 04f6 85EA0706 		eor	r6, r5, r7
 1317              		.loc 1 251 0
 1318 04fa 0F9D     		ldr	r5, [sp, #60]
 1319              		.loc 1 253 0
 1320 04fc 965D     		ldrb	r6, [r2, r6]	@ zero_extendqisi2
 1321              		.loc 1 251 0
 1322 04fe 6B40     		eors	r3, r3, r5
 1323              	.LVL94:
 1324              		.loc 1 253 0
 1325 0500 8BF80660 		strb	r6, [fp, #6]
 1326              		.loc 1 255 0
 1327 0504 D25C     		ldrb	r2, [r2, r3]	@ zero_extendqisi2
 1328 0506 8BF80E20 		strb	r2, [fp, #14]
 1329              		.loc 1 258 0
 1330 050a 9CF89B50 		ldrb	r5, [ip, #155]	@ zero_extendqisi2
 1331              		.loc 1 257 0
 1332 050e 9CF89F70 		ldrb	r7, [ip, #159]	@ zero_extendqisi2
 1333              		.loc 1 258 0
 1334 0512 88EA0503 		eor	r3, r8, r5
 1335              	.LVL95:
 1336              		.loc 1 257 0
 1337 0516 8AEA0705 		eor	r5, sl, r7
 1338              	.LVL96:
 1339              		.loc 1 258 0
 1340 051a 40F2000A 		movw	sl, #:lower16:.LANCHOR1
 1341 051e C0F2000A 		movt	sl, #:upper16:.LANCHOR1
 1342 0522 1AF80330 		ldrb	r3, [sl, r3]	@ zero_extendqisi2
 1343              		.loc 1 261 0
 1344 0526 1AF80550 		ldrb	r5, [sl, r5]	@ zero_extendqisi2
 1345              	.LVL97:
 1346              		.loc 1 258 0
 1347 052a 8BF80F30 		strb	r3, [fp, #15]
 1348              		.loc 1 259 0
 1349 052e 9CF89770 		ldrb	r7, [ip, #151]	@ zero_extendqisi2
 1350 0532 DDF840C0 		ldr	ip, [sp, #64]
 1351              	.LVL98:
 1352 0536 8CEA0707 		eor	r7, ip, r7
 1353              		.loc 1 260 0
 1354 053a DDF834C0 		ldr	ip, [sp, #52]
 1355              		.loc 1 259 0
 1356 053e 1AF80780 		ldrb	r8, [sl, r7]	@ zero_extendqisi2
 1357              		.loc 1 260 0
 1358 0542 DDF828A0 		ldr	sl, [sp, #40]
 1359              		.loc 1 259 0
 1360 0546 8BF80B80 		strb	r8, [fp, #11]
 1361              		.loc 1 260 0
 1362 054a 9AF89370 		ldrb	r7, [sl, #147]	@ zero_extendqisi2
 1363              		.loc 1 261 0
 1364 054e 8BF80350 		strb	r5, [fp, #3]
 1365              		.loc 1 260 0
ARM GAS  C:\Users\Vergil\AppData\Local\Temp\ccl0Rg49.s 			page 25


 1366 0552 40F2000A 		movw	sl, #:lower16:.LANCHOR1
 1367 0556 8CEA0707 		eor	r7, ip, r7
 1368 055a C0F2000A 		movt	sl, #:upper16:.LANCHOR1
 1369 055e 1AF80770 		ldrb	r7, [sl, r7]	@ zero_extendqisi2
 1370 0562 8BF80770 		strb	r7, [fp, #7]
 1371              		.loc 1 263 0
 1372 0566 DDF828C0 		ldr	ip, [sp, #40]
 1373 056a DDF80CA0 		ldr	sl, [sp, #12]
 1374 056e 9CF8A0C0 		ldrb	ip, [ip, #160]	@ zero_extendqisi2
 1375 0572 8AEA0C0C 		eor	ip, sl, ip
 1376              		.loc 1 264 0
 1377 0576 DDF828A0 		ldr	sl, [sp, #40]
 1378              		.loc 1 263 0
 1379 057a 8BF800C0 		strb	ip, [fp, #0]
 1380              		.loc 1 264 0
 1381 057e 9AF8A1C0 		ldrb	ip, [sl, #161]	@ zero_extendqisi2
 1382 0582 84EA0C04 		eor	r4, r4, ip
 1383 0586 8BF80140 		strb	r4, [fp, #1]
 1384              		.loc 1 265 0
 1385 058a 9AF8A2C0 		ldrb	ip, [sl, #162]	@ zero_extendqisi2
 1386 058e 80EA0C00 		eor	r0, r0, ip
 1387 0592 8BF80200 		strb	r0, [fp, #2]
 1388              		.loc 1 266 0
 1389 0596 9AF8A340 		ldrb	r4, [sl, #163]	@ zero_extendqisi2
 1390              		.loc 1 267 0
 1391 059a DDF810C0 		ldr	ip, [sp, #16]
 1392              		.loc 1 266 0
 1393 059e 6540     		eors	r5, r5, r4
 1394 05a0 8BF80350 		strb	r5, [fp, #3]
 1395              		.loc 1 267 0
 1396 05a4 9AF8A450 		ldrb	r5, [sl, #164]	@ zero_extendqisi2
 1397              		.loc 1 268 0
 1398 05a8 019C     		ldr	r4, [sp, #4]
 1399              		.loc 1 267 0
 1400 05aa 8CEA0500 		eor	r0, ip, r5
 1401 05ae 8BF80400 		strb	r0, [fp, #4]
 1402              		.loc 1 268 0
 1403 05b2 9AF8A550 		ldrb	r5, [sl, #165]	@ zero_extendqisi2
 1404 05b6 84EA0500 		eor	r0, r4, r5
 1405 05ba 8BF80500 		strb	r0, [fp, #5]
 1406              		.loc 1 269 0
 1407 05be 9AF8A650 		ldrb	r5, [sl, #166]	@ zero_extendqisi2
 1408 05c2 6E40     		eors	r6, r6, r5
 1409 05c4 8BF80660 		strb	r6, [fp, #6]
 1410              		.loc 1 270 0
 1411 05c8 9AF8A760 		ldrb	r6, [sl, #167]	@ zero_extendqisi2
 1412              		.loc 1 271 0
 1413 05cc 059D     		ldr	r5, [sp, #20]
 1414              		.loc 1 270 0
 1415 05ce 7740     		eors	r7, r7, r6
 1416 05d0 8BF80770 		strb	r7, [fp, #7]
 1417              		.loc 1 271 0
 1418 05d4 9AF8A870 		ldrb	r7, [sl, #168]	@ zero_extendqisi2
 1419 05d8 85EA0704 		eor	r4, r5, r7
 1420 05dc 8BF80840 		strb	r4, [fp, #8]
 1421              		.loc 1 272 0
 1422 05e0 9AF8A900 		ldrb	r0, [sl, #169]	@ zero_extendqisi2
ARM GAS  C:\Users\Vergil\AppData\Local\Temp\ccl0Rg49.s 			page 26


 1423 05e4 89EA0009 		eor	r9, r9, r0
 1424 05e8 8BF80990 		strb	r9, [fp, #9]
 1425              		.loc 1 273 0
 1426 05ec 9AF8AA60 		ldrb	r6, [sl, #170]	@ zero_extendqisi2
 1427 05f0 7140     		eors	r1, r1, r6
 1428 05f2 8BF80A10 		strb	r1, [fp, #10]
 1429              		.loc 1 274 0
 1430 05f6 9AF8AB10 		ldrb	r1, [sl, #171]	@ zero_extendqisi2
 1431              		.loc 1 275 0
 1432 05fa 069E     		ldr	r6, [sp, #24]
 1433              		.loc 1 274 0
 1434 05fc 88EA0104 		eor	r4, r8, r1
 1435 0600 8BF80B40 		strb	r4, [fp, #11]
 1436              		.loc 1 275 0
 1437 0604 9AF8AC70 		ldrb	r7, [sl, #172]	@ zero_extendqisi2
 1438 0608 86EA0700 		eor	r0, r6, r7
 1439 060c 8BF80C00 		strb	r0, [fp, #12]
 1440              		.loc 1 276 0
 1441 0610 9AF8AD10 		ldrb	r1, [sl, #173]	@ zero_extendqisi2
 1442 0614 079F     		ldr	r7, [sp, #28]
 1443 0616 87EA0100 		eor	r0, r7, r1
 1444 061a 8BF80D00 		strb	r0, [fp, #13]
 1445              		.loc 1 277 0
 1446 061e 9AF8AE10 		ldrb	r1, [sl, #174]	@ zero_extendqisi2
 1447 0622 4A40     		eors	r2, r2, r1
 1448 0624 8BF80E20 		strb	r2, [fp, #14]
 1449              		.loc 1 278 0
 1450 0628 9AF8AF20 		ldrb	r2, [sl, #175]	@ zero_extendqisi2
 1451 062c 5340     		eors	r3, r3, r2
 1452 062e 8BF80F30 		strb	r3, [fp, #15]
 1453              		.loc 1 279 0
 1454 0632 12B0     		add	sp, sp, #72
 1455 0634 BDE8F00F 		pop	{r4, r5, r6, r7, r8, r9, sl, fp}
 1456 0638 7047     		bx	lr
 1457              		.cfi_endproc
 1458              	.LFE2:
 1459              		.size	aes_encr, .-aes_encr
 1460              		.section	.text.aes_decr,"ax",%progbits
 1461              		.align	2
 1462              		.p2align 4,,15
 1463              		.global	aes_decr
 1464              		.thumb
 1465              		.thumb_func
 1466              		.type	aes_decr, %function
 1467              	aes_decr:
 1468              	.LFB3:
 1469              		.loc 1 304 0
 1470              		.cfi_startproc
 1471              		@ args = 0, pretend = 0, frame = 64
 1472              		@ frame_needed = 0, uses_anonymous_args = 0
 1473              		@ link register save eliminated.
 1474              	.LVL99:
 1475 0000 2DE9F00F 		push	{r4, r5, r6, r7, r8, r9, sl, fp}
 1476              	.LCFI4:
 1477              		.cfi_def_cfa_offset 32
 1478              		.cfi_offset 4, -32
 1479              		.cfi_offset 5, -28
ARM GAS  C:\Users\Vergil\AppData\Local\Temp\ccl0Rg49.s 			page 27


 1480              		.cfi_offset 6, -24
 1481              		.cfi_offset 7, -20
 1482              		.cfi_offset 8, -16
 1483              		.cfi_offset 9, -12
 1484              		.cfi_offset 10, -8
 1485              		.cfi_offset 11, -4
 1486              		.loc 1 310 0
 1487 0004 0278     		ldrb	r2, [r0, #0]	@ zero_extendqisi2
 1488 0006 91F8A0A0 		ldrb	sl, [r1, #160]	@ zero_extendqisi2
 1489              		.loc 1 311 0
 1490 000a 90F80180 		ldrb	r8, [r0, #1]	@ zero_extendqisi2
 1491              		.loc 1 312 0
 1492 000e 90F802C0 		ldrb	ip, [r0, #2]	@ zero_extendqisi2
 1493              		.loc 1 313 0
 1494 0012 C778     		ldrb	r7, [r0, #3]	@ zero_extendqisi2
 1495              		.loc 1 304 0
 1496 0014 8146     		mov	r9, r0
 1497              		.loc 1 310 0
 1498 0016 8AEA0202 		eor	r2, sl, r2
 1499              		.loc 1 314 0
 1500 001a 0079     		ldrb	r0, [r0, #4]	@ zero_extendqisi2
 1501              	.LVL100:
 1502              		.loc 1 310 0
 1503 001c 89F80020 		strb	r2, [r9, #0]
 1504              		.loc 1 311 0
 1505 0020 91F8A1A0 		ldrb	sl, [r1, #161]	@ zero_extendqisi2
 1506              		.loc 1 315 0
 1507 0024 99F80530 		ldrb	r3, [r9, #5]	@ zero_extendqisi2
 1508              		.loc 1 316 0
 1509 0028 99F80660 		ldrb	r6, [r9, #6]	@ zero_extendqisi2
 1510              		.loc 1 319 0
 1511 002c 99F809B0 		ldrb	fp, [r9, #9]	@ zero_extendqisi2
 1512              		.loc 1 317 0
 1513 0030 99F80750 		ldrb	r5, [r9, #7]	@ zero_extendqisi2
 1514              		.loc 1 318 0
 1515 0034 99F80840 		ldrb	r4, [r9, #8]	@ zero_extendqisi2
 1516              		.loc 1 311 0
 1517 0038 8AEA080A 		eor	sl, sl, r8
 1518 003c 89F801A0 		strb	sl, [r9, #1]
 1519              		.loc 1 312 0
 1520 0040 91F8A280 		ldrb	r8, [r1, #162]	@ zero_extendqisi2
 1521              		.loc 1 304 0
 1522 0044 90B0     		sub	sp, sp, #64
 1523              	.LCFI5:
 1524              		.cfi_def_cfa_offset 96
 1525              		.loc 1 312 0
 1526 0046 88EA0C0C 		eor	ip, r8, ip
 1527 004a 89F802C0 		strb	ip, [r9, #2]
 1528              		.loc 1 310 0
 1529 004e 0692     		str	r2, [sp, #24]
 1530              		.loc 1 313 0
 1531 0050 91F8A320 		ldrb	r2, [r1, #163]	@ zero_extendqisi2
 1532              		.loc 1 319 0
 1533 0054 CDF81CB0 		str	fp, [sp, #28]
 1534              		.loc 1 313 0
 1535 0058 5740     		eors	r7, r7, r2
 1536 005a 89F80370 		strb	r7, [r9, #3]
ARM GAS  C:\Users\Vergil\AppData\Local\Temp\ccl0Rg49.s 			page 28


 1537              		.loc 1 314 0
 1538 005e 91F8A420 		ldrb	r2, [r1, #164]	@ zero_extendqisi2
 1539              		.loc 1 313 0
 1540 0062 0197     		str	r7, [sp, #4]
 1541              		.loc 1 314 0
 1542 0064 5040     		eors	r0, r0, r2
 1543 0066 89F80400 		strb	r0, [r9, #4]
 1544              		.loc 1 315 0
 1545 006a 91F8A570 		ldrb	r7, [r1, #165]	@ zero_extendqisi2
 1546              		.loc 1 320 0
 1547 006e 99F80AB0 		ldrb	fp, [r9, #10]	@ zero_extendqisi2
 1548              		.loc 1 312 0
 1549 0072 CDF814C0 		str	ip, [sp, #20]
 1550              		.loc 1 315 0
 1551 0076 7B40     		eors	r3, r3, r7
 1552 0078 89F80530 		strb	r3, [r9, #5]
 1553              		.loc 1 316 0
 1554 007c 91F8A620 		ldrb	r2, [r1, #166]	@ zero_extendqisi2
 1555              		.loc 1 320 0
 1556 0080 CDF808B0 		str	fp, [sp, #8]
 1557              		.loc 1 316 0
 1558 0084 5640     		eors	r6, r6, r2
 1559 0086 89F80660 		strb	r6, [r9, #6]
 1560              		.loc 1 317 0
 1561 008a 91F8A770 		ldrb	r7, [r1, #167]	@ zero_extendqisi2
 1562              		.loc 1 321 0
 1563 008e 99F80BB0 		ldrb	fp, [r9, #11]	@ zero_extendqisi2
 1564              		.loc 1 316 0
 1565 0092 0096     		str	r6, [sp, #0]
 1566              		.loc 1 317 0
 1567 0094 7D40     		eors	r5, r5, r7
 1568 0096 0495     		str	r5, [sp, #16]
 1569 0098 89F80750 		strb	r5, [r9, #7]
 1570              		.loc 1 318 0
 1571 009c 91F8A820 		ldrb	r2, [r1, #168]	@ zero_extendqisi2
 1572              		.loc 1 319 0
 1573 00a0 079E     		ldr	r6, [sp, #28]
 1574              		.loc 1 320 0
 1575 00a2 029F     		ldr	r7, [sp, #8]
 1576              		.loc 1 322 0
 1577 00a4 99F80C80 		ldrb	r8, [r9, #12]	@ zero_extendqisi2
 1578              		.loc 1 323 0
 1579 00a8 99F80DC0 		ldrb	ip, [r9, #13]	@ zero_extendqisi2
 1580              		.loc 1 318 0
 1581 00ac 5440     		eors	r4, r4, r2
 1582 00ae 89F80840 		strb	r4, [r9, #8]
 1583              		.loc 1 319 0
 1584 00b2 91F8A950 		ldrb	r5, [r1, #169]	@ zero_extendqisi2
 1585 00b6 7540     		eors	r5, r5, r6
 1586 00b8 89F80950 		strb	r5, [r9, #9]
 1587              		.loc 1 320 0
 1588 00bc 91F8AA20 		ldrb	r2, [r1, #170]	@ zero_extendqisi2
 1589 00c0 7A40     		eors	r2, r2, r7
 1590 00c2 89F80A20 		strb	r2, [r9, #10]
 1591              		.loc 1 321 0
 1592 00c6 91F8AB60 		ldrb	r6, [r1, #171]	@ zero_extendqisi2
 1593              		.loc 1 325 0
ARM GAS  C:\Users\Vergil\AppData\Local\Temp\ccl0Rg49.s 			page 29


 1594 00ca 99F80F70 		ldrb	r7, [r9, #15]	@ zero_extendqisi2
 1595              		.loc 1 320 0
 1596 00ce 0892     		str	r2, [sp, #32]
 1597              		.loc 1 321 0
 1598 00d0 86EA0B02 		eor	r2, r6, fp
 1599 00d4 89F80B20 		strb	r2, [r9, #11]
 1600 00d8 0992     		str	r2, [sp, #36]
 1601              		.loc 1 328 0
 1602 00da 40F20002 		movw	r2, #:lower16:.LANCHOR2
 1603 00de C0F20002 		movt	r2, #:upper16:.LANCHOR2
 1604              		.loc 1 322 0
 1605 00e2 91F8ACB0 		ldrb	fp, [r1, #172]	@ zero_extendqisi2
 1606              		.loc 1 325 0
 1607 00e6 0397     		str	r7, [sp, #12]
 1608              		.loc 1 328 0
 1609 00e8 069F     		ldr	r7, [sp, #24]
 1610              		.loc 1 324 0
 1611 00ea 99F80E60 		ldrb	r6, [r9, #14]	@ zero_extendqisi2
 1612              		.loc 1 328 0
 1613 00ee D75D     		ldrb	r7, [r2, r7]	@ zero_extendqisi2
 1614              		.loc 1 334 0
 1615 00f0 555D     		ldrb	r5, [r2, r5]	@ zero_extendqisi2
 1616              		.loc 1 328 0
 1617 00f2 0297     		str	r7, [sp, #8]
 1618              		.loc 1 322 0
 1619 00f4 8BEA080B 		eor	fp, fp, r8
 1620 00f8 89F80CB0 		strb	fp, [r9, #12]
 1621              		.loc 1 323 0
 1622 00fc 91F8AD70 		ldrb	r7, [r1, #173]	@ zero_extendqisi2
 1623              		.loc 1 335 0
 1624 0100 D35C     		ldrb	r3, [r2, r3]	@ zero_extendqisi2
 1625              		.loc 1 336 0
 1626 0102 12F80AA0 		ldrb	sl, [r2, sl]	@ zero_extendqisi2
 1627              		.loc 1 329 0
 1628 0106 105C     		ldrb	r0, [r2, r0]	@ zero_extendqisi2
 1629              		.loc 1 330 0
 1630 0108 145D     		ldrb	r4, [r2, r4]	@ zero_extendqisi2
 1631              		.loc 1 334 0
 1632 010a 0695     		str	r5, [sp, #24]
 1633              		.loc 1 323 0
 1634 010c 87EA0C0C 		eor	ip, r7, ip
 1635 0110 89F80DC0 		strb	ip, [r9, #13]
 1636              		.loc 1 324 0
 1637 0114 91F8AE80 		ldrb	r8, [r1, #174]	@ zero_extendqisi2
 1638              		.loc 1 331 0
 1639 0118 12F80B50 		ldrb	r5, [r2, fp]	@ zero_extendqisi2
 1640              		.loc 1 335 0
 1641 011c 0793     		str	r3, [sp, #28]
 1642              		.loc 1 324 0
 1643 011e 88EA0606 		eor	r6, r8, r6
 1644              		.loc 1 333 0
 1645 0122 12F80C30 		ldrb	r3, [r2, ip]	@ zero_extendqisi2
 1646              		.loc 1 324 0
 1647 0126 89F80E60 		strb	r6, [r9, #14]
 1648              		.loc 1 325 0
 1649 012a 91F8AF20 		ldrb	r2, [r1, #175]	@ zero_extendqisi2
 1650 012e 039F     		ldr	r7, [sp, #12]
ARM GAS  C:\Users\Vergil\AppData\Local\Temp\ccl0Rg49.s 			page 30


 1651 0130 82EA070B 		eor	fp, r2, r7
 1652 0134 89F80FB0 		strb	fp, [r9, #15]
 1653              		.loc 1 328 0
 1654 0138 91F89070 		ldrb	r7, [r1, #144]	@ zero_extendqisi2
 1655 013c 029A     		ldr	r2, [sp, #8]
 1656 013e 7A40     		eors	r2, r2, r7
 1657 0140 89F80020 		strb	r2, [r9, #0]
 1658              		.loc 1 329 0
 1659 0144 91F89470 		ldrb	r7, [r1, #148]	@ zero_extendqisi2
 1660              		.loc 1 328 0
 1661 0148 0A92     		str	r2, [sp, #40]
 1662              		.loc 1 329 0
 1663 014a 7840     		eors	r0, r0, r7
 1664 014c 89F80400 		strb	r0, [r9, #4]
 1665              		.loc 1 330 0
 1666 0150 91F89820 		ldrb	r2, [r1, #152]	@ zero_extendqisi2
 1667              		.loc 1 329 0
 1668 0154 0B90     		str	r0, [sp, #44]
 1669              		.loc 1 330 0
 1670 0156 5440     		eors	r4, r4, r2
 1671 0158 89F80840 		strb	r4, [r9, #8]
 1672              		.loc 1 331 0
 1673 015c 91F89C70 		ldrb	r7, [r1, #156]	@ zero_extendqisi2
 1674              		.loc 1 330 0
 1675 0160 0294     		str	r4, [sp, #8]
 1676              		.loc 1 331 0
 1677 0162 7D40     		eors	r5, r5, r7
 1678 0164 89F80C50 		strb	r5, [r9, #12]
 1679              		.loc 1 334 0
 1680 0168 91F89D20 		ldrb	r2, [r1, #157]	@ zero_extendqisi2
 1681 016c 069C     		ldr	r4, [sp, #24]
 1682              		.loc 1 333 0
 1683 016e 91F89100 		ldrb	r0, [r1, #145]	@ zero_extendqisi2
 1684              		.loc 1 331 0
 1685 0172 0395     		str	r5, [sp, #12]
 1686              		.loc 1 334 0
 1687 0174 5440     		eors	r4, r4, r2
 1688 0176 89F80D40 		strb	r4, [r9, #13]
 1689              		.loc 1 335 0
 1690 017a 91F89970 		ldrb	r7, [r1, #153]	@ zero_extendqisi2
 1691 017e 079D     		ldr	r5, [sp, #28]
 1692              		.loc 1 334 0
 1693 0180 0694     		str	r4, [sp, #24]
 1694              		.loc 1 335 0
 1695 0182 7D40     		eors	r5, r5, r7
 1696 0184 89F80950 		strb	r5, [r9, #9]
 1697              		.loc 1 336 0
 1698 0188 91F89520 		ldrb	r2, [r1, #149]	@ zero_extendqisi2
 1699              		.loc 1 335 0
 1700 018c 0795     		str	r5, [sp, #28]
 1701              		.loc 1 333 0
 1702 018e 83EA0008 		eor	r8, r3, r0
 1703              	.LVL101:
 1704              		.loc 1 336 0
 1705 0192 8AEA0203 		eor	r3, sl, r2
 1706 0196 89F80530 		strb	r3, [r9, #5]
 1707              		.loc 1 337 0
ARM GAS  C:\Users\Vergil\AppData\Local\Temp\ccl0Rg49.s 			page 31


 1708 019a 89F80180 		strb	r8, [r9, #1]
 1709              		.loc 1 341 0
 1710 019e 40F2000C 		movw	ip, #:lower16:.LANCHOR2
 1711 01a2 C0F2000C 		movt	ip, #:upper16:.LANCHOR2
 1712 01a6 0898     		ldr	r0, [sp, #32]
 1713              		.loc 1 339 0
 1714 01a8 91F89A40 		ldrb	r4, [r1, #154]	@ zero_extendqisi2
 1715              		.loc 1 341 0
 1716 01ac 1CF80020 		ldrb	r2, [ip, r0]	@ zero_extendqisi2
 1717              		.loc 1 336 0
 1718 01b0 0C93     		str	r3, [sp, #48]
 1719              		.loc 1 341 0
 1720 01b2 91F89230 		ldrb	r3, [r1, #146]	@ zero_extendqisi2
 1721              		.loc 1 339 0
 1722 01b6 0894     		str	r4, [sp, #32]
 1723 01b8 059F     		ldr	r7, [sp, #20]
 1724              		.loc 1 340 0
 1725 01ba 009C     		ldr	r4, [sp, #0]
 1726              		.loc 1 339 0
 1727 01bc 1CF80700 		ldrb	r0, [ip, r7]	@ zero_extendqisi2
 1728              		.loc 1 348 0
 1729 01c0 099F     		ldr	r7, [sp, #36]
 1730              		.loc 1 340 0
 1731 01c2 1CF804A0 		ldrb	sl, [ip, r4]	@ zero_extendqisi2
 1732              		.loc 1 348 0
 1733 01c6 1CF80770 		ldrb	r7, [ip, r7]	@ zero_extendqisi2
 1734              		.loc 1 342 0
 1735 01ca 1CF80640 		ldrb	r4, [ip, r6]	@ zero_extendqisi2
 1736              		.loc 1 348 0
 1737 01ce 0997     		str	r7, [sp, #36]
 1738              		.loc 1 347 0
 1739 01d0 049E     		ldr	r6, [sp, #16]
 1740              		.loc 1 346 0
 1741 01d2 019F     		ldr	r7, [sp, #4]
 1742              		.loc 1 340 0
 1743 01d4 91F89E50 		ldrb	r5, [r1, #158]	@ zero_extendqisi2
 1744              		.loc 1 347 0
 1745 01d8 1CF80660 		ldrb	r6, [ip, r6]	@ zero_extendqisi2
 1746              		.loc 1 346 0
 1747 01dc 1CF80770 		ldrb	r7, [ip, r7]	@ zero_extendqisi2
 1748              		.loc 1 349 0
 1749 01e0 1CF80BC0 		ldrb	ip, [ip, fp]	@ zero_extendqisi2
 1750              		.loc 1 339 0
 1751 01e4 DDF820B0 		ldr	fp, [sp, #32]
 1752              		.loc 1 346 0
 1753 01e8 0497     		str	r7, [sp, #16]
 1754              		.loc 1 341 0
 1755 01ea 5A40     		eors	r2, r2, r3
 1756 01ec 89F80220 		strb	r2, [r9, #2]
 1757              		.loc 1 342 0
 1758 01f0 91F89630 		ldrb	r3, [r1, #150]	@ zero_extendqisi2
 1759              		.loc 1 339 0
 1760 01f4 80EA0B00 		eor	r0, r0, fp
 1761              		.loc 1 340 0
 1762 01f8 8AEA0505 		eor	r5, sl, r5
 1763              		.loc 1 342 0
 1764 01fc 5C40     		eors	r4, r4, r3
ARM GAS  C:\Users\Vergil\AppData\Local\Temp\ccl0Rg49.s 			page 32


 1765              		.loc 1 343 0
 1766 01fe 89F80A00 		strb	r0, [r9, #10]
 1767              		.loc 1 342 0
 1768 0202 89F80640 		strb	r4, [r9, #6]
 1769              		.loc 1 344 0
 1770 0206 89F80E50 		strb	r5, [r9, #14]
 1771              		.loc 1 347 0
 1772 020a 91F89370 		ldrb	r7, [r1, #147]	@ zero_extendqisi2
 1773              		.loc 1 339 0
 1774 020e 0590     		str	r0, [sp, #20]
 1775              	.LVL102:
 1776              		.loc 1 347 0
 1777 0210 86EA0700 		eor	r0, r6, r7
 1778              		.loc 1 340 0
 1779 0214 0195     		str	r5, [sp, #4]
 1780              	.LVL103:
 1781              		.loc 1 346 0
 1782 0216 91F89F50 		ldrb	r5, [r1, #159]	@ zero_extendqisi2
 1783              		.loc 1 347 0
 1784 021a 89F80300 		strb	r0, [r9, #3]
 1785              		.loc 1 348 0
 1786 021e 91F897A0 		ldrb	sl, [r1, #151]	@ zero_extendqisi2
 1787 0222 099E     		ldr	r6, [sp, #36]
 1788              		.loc 1 346 0
 1789 0224 049F     		ldr	r7, [sp, #16]
 1790              		.loc 1 348 0
 1791 0226 86EA0A03 		eor	r3, r6, sl
 1792 022a 89F80730 		strb	r3, [r9, #7]
 1793              		.loc 1 349 0
 1794 022e 91F89BB0 		ldrb	fp, [r1, #155]	@ zero_extendqisi2
 1795 0232 DDF82CA0 		ldr	sl, [sp, #44]
 1796              		.loc 1 346 0
 1797 0236 6F40     		eors	r7, r7, r5
 1798              	.LVL104:
 1799              		.loc 1 349 0
 1800 0238 8CEA0B0B 		eor	fp, ip, fp
 1801              	.LVL105:
 1802 023c 0925     		movs	r5, #9
 1803 023e 0F95     		str	r5, [sp, #60]
 1804 0240 0097     		str	r7, [sp, #0]
 1805 0242 0546     		mov	r5, r0
 1806 0244 8C46     		mov	ip, r1
 1807 0246 0C98     		ldr	r0, [sp, #48]
 1808 0248 CDF810B0 		str	fp, [sp, #16]
 1809 024c 1F46     		mov	r7, r3
 1810              	.LVL106:
 1811 024e DDF828B0 		ldr	fp, [sp, #40]
 1812 0252 45E1     		b	.L111
 1813              	.LVL107:
 1814              	.L91:
 1815              	.LBB186:
 1816              	.LBB187:
 1817              		.loc 1 149 0
 1818 0254 6400     		lsls	r4, r4, #1
 1819              	.LVL108:
 1820 0256 E1B2     		uxtb	r1, r4
 1821              	.LVL109:
ARM GAS  C:\Users\Vergil\AppData\Local\Temp\ccl0Rg49.s 			page 33


 1822              	.L92:
 1823              	.LBE187:
 1824              	.LBE186:
 1825              		.loc 1 384 0
 1826 0258 099D     		ldr	r5, [sp, #36]
 1827 025a 0A98     		ldr	r0, [sp, #40]
 1828 025c 0A9A     		ldr	r2, [sp, #40]
 1829 025e 80EA0504 		eor	r4, r0, r5
 1830              	.LVL110:
 1831              		.loc 1 383 0
 1832 0262 87EA0A0A 		eor	sl, r7, sl
 1833 0266 81EA0A0B 		eor	fp, r1, sl
 1834              	.LVL111:
 1835              		.loc 1 386 0
 1836 026a 0298     		ldr	r0, [sp, #8]
 1837              		.loc 1 383 0
 1838 026c 89F806B0 		strb	fp, [r9, #6]
 1839              	.LBB190:
 1840              	.LBB191:
 1841              		.loc 1 146 0
 1842 0270 4FEA4401 		lsl	r1, r4, #1
 1843 0274 CBB2     		uxtb	r3, r1
 1844              	.LVL112:
 1845              		.loc 1 144 0
 1846 0276 14F0800F 		tst	r4, #128
 1847              	.LBE191:
 1848              	.LBE190:
 1849              		.loc 1 386 0
 1850 027a 86EA0005 		eor	r5, r6, r0
 1851              	.LBB193:
 1852              	.LBB192:
 1853              		.loc 1 147 0
 1854 027e 18BF     		it	ne
 1855 0280 83F01B03 		eorne	r3, r3, #27
 1856              	.LBE192:
 1857              	.LBE193:
 1858              		.loc 1 384 0
 1859 0284 5740     		eors	r7, r7, r2
 1860              	.LVL113:
 1861              		.loc 1 386 0
 1862 0286 079C     		ldr	r4, [sp, #28]
 1863 0288 0599     		ldr	r1, [sp, #20]
 1864              	.LVL114:
 1865              		.loc 1 389 0
 1866 028a 0798     		ldr	r0, [sp, #28]
 1867              		.loc 1 388 0
 1868 028c 029A     		ldr	r2, [sp, #8]
 1869              	.LVL115:
 1870              		.loc 1 384 0
 1871 028e 5F40     		eors	r7, r7, r3
 1872              	.LBB194:
 1873              	.LBB195:
 1874              		.loc 1 144 0
 1875 0290 15F0800F 		tst	r5, #128
 1876              		.loc 1 146 0
 1877 0294 4FEA4503 		lsl	r3, r5, #1
 1878              		.loc 1 147 0
ARM GAS  C:\Users\Vergil\AppData\Local\Temp\ccl0Rg49.s 			page 34


 1879 0298 18BF     		it	ne
 1880 029a 83F01B03 		eorne	r3, r3, #27
 1881              	.LBE195:
 1882              	.LBE194:
 1883              		.loc 1 386 0
 1884 029e 6140     		eors	r1, r1, r4
 1885 02a0 81EA0504 		eor	r4, r1, r5
 1886              	.LVL116:
 1887              	.LBB197:
 1888              	.LBB196:
 1889              		.loc 1 149 0
 1890 02a4 DDB2     		uxtb	r5, r3
 1891              	.LBE196:
 1892              	.LBE197:
 1893              		.loc 1 389 0
 1894 02a6 86EA0003 		eor	r3, r6, r0
 1895              	.LVL117:
 1896              		.loc 1 384 0
 1897 02aa 0997     		str	r7, [sp, #36]
 1898 02ac 89F80770 		strb	r7, [r9, #7]
 1899              		.loc 1 388 0
 1900 02b0 84EA0207 		eor	r7, r4, r2
 1901              	.LBB198:
 1902              	.LBB199:
 1903              		.loc 1 146 0
 1904 02b4 4FEA4302 		lsl	r2, r3, #1
 1905              		.loc 1 144 0
 1906 02b8 13F0800F 		tst	r3, #128
 1907              		.loc 1 146 0
 1908 02bc D0B2     		uxtb	r0, r2
 1909              	.LVL118:
 1910              		.loc 1 147 0
 1911 02be 18BF     		it	ne
 1912 02c0 80F01B00 		eorne	r0, r0, #27
 1913              	.LBE199:
 1914              	.LBE198:
 1915              		.loc 1 389 0
 1916 02c4 6640     		eors	r6, r6, r4
 1917              		.loc 1 388 0
 1918 02c6 7D40     		eors	r5, r5, r7
 1919              		.loc 1 389 0
 1920 02c8 7040     		eors	r0, r0, r6
 1921              	.LBB200:
 1922              	.LBB201:
 1923              		.loc 1 144 0
 1924 02ca 0F06     		lsls	r7, r1, #24
 1925              	.LBE201:
 1926              	.LBE200:
 1927              		.loc 1 388 0
 1928 02cc 89F80850 		strb	r5, [r9, #8]
 1929              		.loc 1 389 0
 1930 02d0 89F80900 		strb	r0, [r9, #9]
 1931              	.LVL119:
 1932              	.LBB204:
 1933              	.LBB202:
 1934              		.loc 1 144 0
 1935 02d4 00F14182 		bmi	.L113
ARM GAS  C:\Users\Vergil\AppData\Local\Temp\ccl0Rg49.s 			page 35


 1936              		.loc 1 149 0
 1937 02d8 4900     		lsls	r1, r1, #1
 1938              	.LVL120:
 1939 02da CFB2     		uxtb	r7, r1
 1940              	.LVL121:
 1941              	.L100:
 1942              	.LBE202:
 1943              	.LBE204:
 1944              		.loc 1 390 0
 1945 02dc 079E     		ldr	r6, [sp, #28]
 1946              		.loc 1 391 0
 1947 02de 029B     		ldr	r3, [sp, #8]
 1948              		.loc 1 390 0
 1949 02e0 84EA0601 		eor	r1, r4, r6
 1950 02e4 7940     		eors	r1, r1, r7
 1951              		.loc 1 391 0
 1952 02e6 059F     		ldr	r7, [sp, #20]
 1953              		.loc 1 390 0
 1954 02e8 89F80A10 		strb	r1, [r9, #10]
 1955              		.loc 1 391 0
 1956 02ec 87EA0308 		eor	r8, r7, r3
 1957              	.LVL122:
 1958              	.LBB205:
 1959              	.LBB206:
 1960              		.loc 1 146 0
 1961 02f0 4FEA4802 		lsl	r2, r8, #1
 1962              	.LBE206:
 1963              	.LBE205:
 1964              		.loc 1 391 0
 1965 02f4 059F     		ldr	r7, [sp, #20]
 1966              		.loc 1 393 0
 1967 02f6 039B     		ldr	r3, [sp, #12]
 1968              	.LBB208:
 1969              	.LBB207:
 1970              		.loc 1 146 0
 1971 02f8 D6B2     		uxtb	r6, r2
 1972              	.LVL123:
 1973              		.loc 1 144 0
 1974 02fa 18F0800F 		tst	r8, #128
 1975              		.loc 1 147 0
 1976 02fe 18BF     		it	ne
 1977 0300 86F01B06 		eorne	r6, r6, #27
 1978              	.LBE207:
 1979              	.LBE208:
 1980              		.loc 1 391 0
 1981 0304 7C40     		eors	r4, r4, r7
 1982              	.LVL124:
 1983 0306 7440     		eors	r4, r4, r6
 1984 0308 0A94     		str	r4, [sp, #40]
 1985              		.loc 1 393 0
 1986 030a 069C     		ldr	r4, [sp, #24]
 1987              		.loc 1 391 0
 1988 030c 0A9A     		ldr	r2, [sp, #40]
 1989              	.LVL125:
 1990              		.loc 1 393 0
 1991 030e 5C40     		eors	r4, r4, r3
 1992 0310 9DE88800 		ldmia	sp, {r3, r7}
ARM GAS  C:\Users\Vergil\AppData\Local\Temp\ccl0Rg49.s 			page 36


 1993              	.LBB209:
 1994              	.LBB210:
 1995              		.loc 1 144 0
 1996 0314 14F0800F 		tst	r4, #128
 1997              	.LBE210:
 1998              	.LBE209:
 1999              		.loc 1 393 0
 2000 0318 83EA0703 		eor	r3, r3, r7
 2001              	.LBB214:
 2002              	.LBB211:
 2003              		.loc 1 146 0
 2004 031c 4FEA4406 		lsl	r6, r4, #1
 2005              	.LBE211:
 2006              	.LBE214:
 2007              		.loc 1 395 0
 2008 0320 039F     		ldr	r7, [sp, #12]
 2009              		.loc 1 391 0
 2010 0322 89F80B20 		strb	r2, [r9, #11]
 2011              		.loc 1 393 0
 2012 0326 83EA040A 		eor	sl, r3, r4
 2013              	.LVL126:
 2014              	.LBB215:
 2015              	.LBB212:
 2016              		.loc 1 147 0
 2017 032a 18BF     		it	ne
 2018 032c 86F01B06 		eorne	r6, r6, #27
 2019              	.LVL127:
 2020              	.LBE212:
 2021              	.LBE215:
 2022              		.loc 1 395 0
 2023 0330 8AEA0702 		eor	r2, sl, r7
 2024              	.LBB216:
 2025              	.LBB213:
 2026              		.loc 1 149 0
 2027 0334 F4B2     		uxtb	r4, r6
 2028              	.LVL128:
 2029              	.LBE213:
 2030              	.LBE216:
 2031              		.loc 1 396 0
 2032 0336 019F     		ldr	r7, [sp, #4]
 2033              	.LVL129:
 2034 0338 069E     		ldr	r6, [sp, #24]
 2035 033a 7E40     		eors	r6, r6, r7
 2036              	.LVL130:
 2037              	.LBB217:
 2038              	.LBB218:
 2039              		.loc 1 144 0
 2040 033c 16F0800F 		tst	r6, #128
 2041              	.LBE218:
 2042              	.LBE217:
 2043              		.loc 1 395 0
 2044 0340 84EA0204 		eor	r4, r4, r2
 2045              	.LBB221:
 2046              	.LBB219:
 2047              		.loc 1 146 0
 2048 0344 4FEA4602 		lsl	r2, r6, #1
 2049              	.LBE219:
ARM GAS  C:\Users\Vergil\AppData\Local\Temp\ccl0Rg49.s 			page 37


 2050              	.LBE221:
 2051              		.loc 1 396 0
 2052 0348 069E     		ldr	r6, [sp, #24]
 2053              	.LVL131:
 2054              		.loc 1 395 0
 2055 034a 89F80C40 		strb	r4, [r9, #12]
 2056              	.LBB222:
 2057              	.LBB220:
 2058              		.loc 1 146 0
 2059 034e D2B2     		uxtb	r2, r2
 2060              	.LVL132:
 2061              		.loc 1 147 0
 2062 0350 18BF     		it	ne
 2063 0352 82F01B02 		eorne	r2, r2, #27
 2064              	.LVL133:
 2065              	.LBE220:
 2066              	.LBE222:
 2067              		.loc 1 396 0
 2068 0356 8AEA0607 		eor	r7, sl, r6
 2069              	.LVL134:
 2070 035a 7A40     		eors	r2, r2, r7
 2071              	.LBB223:
 2072              	.LBB224:
 2073              		.loc 1 144 0
 2074 035c 1E06     		lsls	r6, r3, #24
 2075              	.LBE224:
 2076              	.LBE223:
 2077              		.loc 1 396 0
 2078 035e 89F80D20 		strb	r2, [r9, #13]
 2079              	.LVL135:
 2080              	.LBB227:
 2081              	.LBB225:
 2082              		.loc 1 144 0
 2083 0362 00F1F581 		bmi	.L114
 2084              		.loc 1 149 0
 2085 0366 5B00     		lsls	r3, r3, #1
 2086              	.LVL136:
 2087 0368 DEB2     		uxtb	r6, r3
 2088              	.LVL137:
 2089              	.L108:
 2090              	.LBE225:
 2091              	.LBE227:
 2092              		.loc 1 397 0
 2093 036a 019F     		ldr	r7, [sp, #4]
 2094 036c 8AEA0703 		eor	r3, sl, r7
 2095 0370 7340     		eors	r3, r3, r6
 2096              		.loc 1 398 0
 2097 0372 009F     		ldr	r7, [sp, #0]
 2098 0374 039E     		ldr	r6, [sp, #12]
 2099              		.loc 1 397 0
 2100 0376 89F80E30 		strb	r3, [r9, #14]
 2101              		.loc 1 398 0
 2102 037a 7740     		eors	r7, r7, r6
 2103              	.LVL138:
 2104              	.LBB228:
 2105              	.LBB229:
 2106              		.loc 1 144 0
ARM GAS  C:\Users\Vergil\AppData\Local\Temp\ccl0Rg49.s 			page 38


 2107 037c 17F0800F 		tst	r7, #128
 2108              	.LBE229:
 2109              	.LBE228:
 2110              		.loc 1 398 0
 2111 0380 009E     		ldr	r6, [sp, #0]
 2112              	.LBB231:
 2113              	.LBB230:
 2114              		.loc 1 146 0
 2115 0382 4FEA4707 		lsl	r7, r7, #1
 2116              	.LVL139:
 2117 0386 FFB2     		uxtb	r7, r7
 2118              	.LVL140:
 2119              		.loc 1 147 0
 2120 0388 18BF     		it	ne
 2121 038a 87F01B07 		eorne	r7, r7, #27
 2122              	.LVL141:
 2123              	.LBE230:
 2124              	.LBE231:
 2125              		.loc 1 398 0
 2126 038e 8AEA0608 		eor	r8, sl, r6
 2127              	.LVL142:
 2128              		.loc 1 402 0
 2129 0392 40F20006 		movw	r6, #:lower16:.LANCHOR2
 2130              	.LVL143:
 2131 0396 C0F20006 		movt	r6, #:upper16:.LANCHOR2
 2132              		.loc 1 398 0
 2133 039a 87EA080A 		eor	sl, r7, r8
 2134              	.LVL144:
 2135              		.loc 1 402 0
 2136 039e 049F     		ldr	r7, [sp, #16]
 2137              		.loc 1 404 0
 2138 03a0 755D     		ldrb	r5, [r6, r5]	@ zero_extendqisi2
 2139              		.loc 1 402 0
 2140 03a2 F75D     		ldrb	r7, [r6, r7]	@ zero_extendqisi2
 2141              		.loc 1 404 0
 2142 03a4 0395     		str	r5, [sp, #12]
 2143              		.loc 1 402 0
 2144 03a6 0297     		str	r7, [sp, #8]
 2145              		.loc 1 403 0
 2146 03a8 0D9F     		ldr	r7, [sp, #52]
 2147              		.loc 1 398 0
 2148 03aa 89F80FA0 		strb	sl, [r9, #15]
 2149              		.loc 1 403 0
 2150 03ae 16F80780 		ldrb	r8, [r6, r7]	@ zero_extendqisi2
 2151              		.loc 1 405 0
 2152 03b2 375D     		ldrb	r7, [r6, r4]	@ zero_extendqisi2
 2153              		.loc 1 398 0
 2154 03b4 CDF800A0 		str	sl, [sp, #0]
 2155              		.loc 1 408 0
 2156 03b8 3446     		mov	r4, r6
 2157 03ba 365C     		ldrb	r6, [r6, r0]	@ zero_extendqisi2
 2158              		.loc 1 409 0
 2159 03bc 0E98     		ldr	r0, [sp, #56]
 2160              		.loc 1 402 0
 2161 03be 9CF880A0 		ldrb	sl, [ip, #128]	@ zero_extendqisi2
 2162              		.loc 1 409 0
 2163 03c2 255C     		ldrb	r5, [r4, r0]	@ zero_extendqisi2
ARM GAS  C:\Users\Vergil\AppData\Local\Temp\ccl0Rg49.s 			page 39


 2164              		.loc 1 407 0
 2165 03c4 2046     		mov	r0, r4
 2166 03c6 A45C     		ldrb	r4, [r4, r2]	@ zero_extendqisi2
 2167              		.loc 1 410 0
 2168 03c8 0B9A     		ldr	r2, [sp, #44]
 2169              		.loc 1 414 0
 2170 03ca 10F80BB0 		ldrb	fp, [r0, fp]	@ zero_extendqisi2
 2171              		.loc 1 410 0
 2172 03ce 825C     		ldrb	r2, [r0, r2]	@ zero_extendqisi2
 2173              		.loc 1 416 0
 2174 03d0 C35C     		ldrb	r3, [r0, r3]	@ zero_extendqisi2
 2175              		.loc 1 410 0
 2176 03d2 0492     		str	r2, [sp, #16]
 2177              		.loc 1 415 0
 2178 03d4 425C     		ldrb	r2, [r0, r1]	@ zero_extendqisi2
 2179              		.loc 1 413 0
 2180 03d6 0C99     		ldr	r1, [sp, #48]
 2181              		.loc 1 414 0
 2182 03d8 CDF804B0 		str	fp, [sp, #4]
 2183              		.loc 1 413 0
 2184 03dc 415C     		ldrb	r1, [r0, r1]	@ zero_extendqisi2
 2185              		.loc 1 402 0
 2186 03de 0298     		ldr	r0, [sp, #8]
 2187              		.loc 1 413 0
 2188 03e0 0591     		str	r1, [sp, #20]
 2189              		.loc 1 402 0
 2190 03e2 80EA0A0B 		eor	fp, r0, sl
 2191 03e6 89F800B0 		strb	fp, [r9, #0]
 2192              		.loc 1 403 0
 2193 03ea 9CF884A0 		ldrb	sl, [ip, #132]	@ zero_extendqisi2
 2194 03ee 88EA0A0A 		eor	sl, r8, sl
 2195 03f2 89F804A0 		strb	sl, [r9, #4]
 2196              		.loc 1 404 0
 2197 03f6 9CF88880 		ldrb	r8, [ip, #136]	@ zero_extendqisi2
 2198 03fa 0399     		ldr	r1, [sp, #12]
 2199 03fc 81EA0808 		eor	r8, r1, r8
 2200 0400 89F80880 		strb	r8, [r9, #8]
 2201              		.loc 1 405 0
 2202 0404 9CF88C00 		ldrb	r0, [ip, #140]	@ zero_extendqisi2
 2203              		.loc 1 404 0
 2204 0408 CDF80880 		str	r8, [sp, #8]
 2205              		.loc 1 405 0
 2206 040c 87EA0008 		eor	r8, r7, r0
 2207 0410 89F80C80 		strb	r8, [r9, #12]
 2208              		.loc 1 408 0
 2209 0414 9CF88D70 		ldrb	r7, [ip, #141]	@ zero_extendqisi2
 2210              		.loc 1 407 0
 2211 0418 9CF88110 		ldrb	r1, [ip, #129]	@ zero_extendqisi2
 2212              		.loc 1 405 0
 2213 041c CDF80C80 		str	r8, [sp, #12]
 2214              		.loc 1 408 0
 2215 0420 7E40     		eors	r6, r6, r7
 2216 0422 89F80D60 		strb	r6, [r9, #13]
 2217              		.loc 1 409 0
 2218 0426 9CF88900 		ldrb	r0, [ip, #137]	@ zero_extendqisi2
 2219              		.loc 1 408 0
 2220 042a 0696     		str	r6, [sp, #24]
ARM GAS  C:\Users\Vergil\AppData\Local\Temp\ccl0Rg49.s 			page 40


 2221              		.loc 1 409 0
 2222 042c 4540     		eors	r5, r5, r0
 2223 042e 89F80950 		strb	r5, [r9, #9]
 2224              		.loc 1 410 0
 2225 0432 9CF88570 		ldrb	r7, [ip, #133]	@ zero_extendqisi2
 2226 0436 0498     		ldr	r0, [sp, #16]
 2227              		.loc 1 409 0
 2228 0438 0795     		str	r5, [sp, #28]
 2229              		.loc 1 407 0
 2230 043a 84EA0108 		eor	r8, r4, r1
 2231              	.LVL145:
 2232              		.loc 1 410 0
 2233 043e 7840     		eors	r0, r0, r7
 2234 0440 89F80500 		strb	r0, [r9, #5]
 2235              		.loc 1 411 0
 2236 0444 89F80180 		strb	r8, [r9, #1]
 2237              		.loc 1 415 0
 2238 0448 9CF88240 		ldrb	r4, [ip, #130]	@ zero_extendqisi2
 2239              		.loc 1 413 0
 2240 044c 9CF88A10 		ldrb	r1, [ip, #138]	@ zero_extendqisi2
 2241 0450 059F     		ldr	r7, [sp, #20]
 2242              		.loc 1 414 0
 2243 0452 9CF88E60 		ldrb	r6, [ip, #142]	@ zero_extendqisi2
 2244              		.loc 1 415 0
 2245 0456 6240     		eors	r2, r2, r4
 2246 0458 89F80220 		strb	r2, [r9, #2]
 2247              		.loc 1 416 0
 2248 045c 9CF88650 		ldrb	r5, [ip, #134]	@ zero_extendqisi2
 2249              		.loc 1 413 0
 2250 0460 4F40     		eors	r7, r7, r1
 2251              		.loc 1 414 0
 2252 0462 0199     		ldr	r1, [sp, #4]
 2253              		.loc 1 417 0
 2254 0464 89F80A70 		strb	r7, [r9, #10]
 2255              		.loc 1 414 0
 2256 0468 7140     		eors	r1, r1, r6
 2257              		.loc 1 416 0
 2258 046a 83EA0504 		eor	r4, r3, r5
 2259 046e 89F80640 		strb	r4, [r9, #6]
 2260              		.loc 1 418 0
 2261 0472 89F80E10 		strb	r1, [r9, #14]
 2262              		.loc 1 413 0
 2263 0476 0597     		str	r7, [sp, #20]
 2264              	.LVL146:
 2265              		.loc 1 421 0
 2266 0478 40F20007 		movw	r7, #:lower16:.LANCHOR2
 2267 047c C0F20007 		movt	r7, #:upper16:.LANCHOR2
 2268 0480 099B     		ldr	r3, [sp, #36]
 2269              		.loc 1 414 0
 2270 0482 0191     		str	r1, [sp, #4]
 2271              	.LVL147:
 2272              		.loc 1 420 0
 2273 0484 9CF88F10 		ldrb	r1, [ip, #143]	@ zero_extendqisi2
 2274              		.loc 1 421 0
 2275 0488 FE5C     		ldrb	r6, [r7, r3]	@ zero_extendqisi2
 2276 048a 9CF88350 		ldrb	r5, [ip, #131]	@ zero_extendqisi2
 2277              		.loc 1 420 0
ARM GAS  C:\Users\Vergil\AppData\Local\Temp\ccl0Rg49.s 			page 41


 2278 048e 0991     		str	r1, [sp, #36]
 2279              		.loc 1 422 0
 2280 0490 3946     		mov	r1, r7
 2281              		.loc 1 420 0
 2282 0492 089B     		ldr	r3, [sp, #32]
 2283              		.loc 1 422 0
 2284 0494 0A9F     		ldr	r7, [sp, #40]
 2285              		.loc 1 420 0
 2286 0496 CB5C     		ldrb	r3, [r1, r3]	@ zero_extendqisi2
 2287              		.loc 1 422 0
 2288 0498 CF5D     		ldrb	r7, [r1, r7]	@ zero_extendqisi2
 2289              		.loc 1 420 0
 2290 049a 0893     		str	r3, [sp, #32]
 2291              		.loc 1 423 0
 2292 049c 009B     		ldr	r3, [sp, #0]
 2293              		.loc 1 421 0
 2294 049e 7540     		eors	r5, r5, r6
 2295              		.loc 1 423 0
 2296 04a0 C95C     		ldrb	r1, [r1, r3]	@ zero_extendqisi2
 2297              		.loc 1 421 0
 2298 04a2 89F80350 		strb	r5, [r9, #3]
 2299              		.loc 1 422 0
 2300 04a6 9CF88760 		ldrb	r6, [ip, #135]	@ zero_extendqisi2
 2301              		.loc 1 423 0
 2302 04aa 0491     		str	r1, [sp, #16]
 2303              		.loc 1 420 0
 2304 04ac 099B     		ldr	r3, [sp, #36]
 2305 04ae 0899     		ldr	r1, [sp, #32]
 2306              		.loc 1 422 0
 2307 04b0 7740     		eors	r7, r7, r6
 2308              		.loc 1 420 0
 2309 04b2 5940     		eors	r1, r1, r3
 2310              		.loc 1 422 0
 2311 04b4 89F80770 		strb	r7, [r9, #7]
 2312              		.loc 1 423 0
 2313 04b8 9CF88B60 		ldrb	r6, [ip, #139]	@ zero_extendqisi2
 2314              		.loc 1 420 0
 2315 04bc 0091     		str	r1, [sp, #0]
 2316              	.LVL148:
 2317              		.loc 1 423 0
 2318 04be 0499     		ldr	r1, [sp, #16]
 2319 04c0 7140     		eors	r1, r1, r6
 2320 04c2 0F9E     		ldr	r6, [sp, #60]
 2321 04c4 0491     		str	r1, [sp, #16]
 2322 04c6 731E     		subs	r3, r6, #1
 2323 04c8 89F80B10 		strb	r1, [r9, #11]
 2324              		.loc 1 424 0
 2325 04cc 0099     		ldr	r1, [sp, #0]
 2326              		.loc 1 352 0
 2327 04ce 13F0FF03 		ands	r3, r3, #255
 2328              		.loc 1 424 0
 2329 04d2 89F80F10 		strb	r1, [r9, #15]
 2330 04d6 ACF1100C 		sub	ip, ip, #16
 2331              		.loc 1 352 0
 2332 04da 0F93     		str	r3, [sp, #60]
 2333 04dc 00F04281 		beq	.L115
 2334              	.LVL149:
ARM GAS  C:\Users\Vergil\AppData\Local\Temp\ccl0Rg49.s 			page 42


 2335              	.L111:
 2336              		.loc 1 355 0 discriminator 2
 2337 04e0 82EA0B06 		eor	r6, r2, fp
 2338              	.LVL150:
 2339              	.LBB232:
 2340              	.LBB233:
 2341              		.loc 1 146 0 discriminator 2
 2342 04e4 4FEA4603 		lsl	r3, r6, #1
 2343              	.LVL151:
 2344              		.loc 1 144 0 discriminator 2
 2345 04e8 16F0800F 		tst	r6, #128
 2346              		.loc 1 147 0 discriminator 2
 2347 04ec 18BF     		it	ne
 2348 04ee 83F01B03 		eorne	r3, r3, #27
 2349              	.LVL152:
 2350              		.loc 1 149 0 discriminator 2
 2351 04f2 D9B2     		uxtb	r1, r3
 2352              	.LVL153:
 2353              	.LBE233:
 2354              	.LBE232:
 2355              	.LBB234:
 2356              	.LBB235:
 2357              		.loc 1 144 0 discriminator 2
 2358 04f4 11F0800F 		tst	r1, #128
 2359              		.loc 1 146 0 discriminator 2
 2360 04f8 4FEA4106 		lsl	r6, r1, #1
 2361              	.LVL154:
 2362              	.LBE235:
 2363              	.LBE234:
 2364              		.loc 1 356 0 discriminator 2
 2365 04fc 85EA0803 		eor	r3, r5, r8
 2366              	.LVL155:
 2367              	.LBB237:
 2368              	.LBB236:
 2369              		.loc 1 147 0 discriminator 2
 2370 0500 18BF     		it	ne
 2371 0502 86F01B06 		eorne	r6, r6, #27
 2372              	.LVL156:
 2373              		.loc 1 149 0 discriminator 2
 2374 0506 F1B2     		uxtb	r1, r6
 2375              	.LVL157:
 2376              	.LBE236:
 2377              	.LBE237:
 2378              	.LBB238:
 2379              	.LBB239:
 2380              		.loc 1 144 0 discriminator 2
 2381 0508 13F0800F 		tst	r3, #128
 2382              		.loc 1 146 0 discriminator 2
 2383 050c 4FEA4306 		lsl	r6, r3, #1
 2384              	.LVL158:
 2385              		.loc 1 147 0 discriminator 2
 2386 0510 18BF     		it	ne
 2387 0512 86F01B06 		eorne	r6, r6, #27
 2388              	.LVL159:
 2389              		.loc 1 149 0 discriminator 2
 2390 0516 F3B2     		uxtb	r3, r6
 2391              	.LVL160:
ARM GAS  C:\Users\Vergil\AppData\Local\Temp\ccl0Rg49.s 			page 43


 2392              	.LBE239:
 2393              	.LBE238:
 2394              	.LBB240:
 2395              	.LBB241:
 2396              		.loc 1 144 0 discriminator 2
 2397 0518 13F0800F 		tst	r3, #128
 2398              		.loc 1 146 0 discriminator 2
 2399 051c 4FEA4306 		lsl	r6, r3, #1
 2400              	.LVL161:
 2401              	.LBE241:
 2402              	.LBE240:
 2403              		.loc 1 359 0 discriminator 2
 2404 0520 84EA0A03 		eor	r3, r4, sl
 2405              	.LVL162:
 2406              		.loc 1 357 0 discriminator 2
 2407 0524 81EA0B0B 		eor	fp, r1, fp
 2408              	.LVL163:
 2409 0528 81EA0202 		eor	r2, r1, r2
 2410              	.LBB244:
 2411              	.LBB242:
 2412              		.loc 1 147 0 discriminator 2
 2413 052c 18BF     		it	ne
 2414 052e 86F01B06 		eorne	r6, r6, #27
 2415              	.LVL164:
 2416              	.LBE242:
 2417              	.LBE244:
 2418              	.LBB245:
 2419              	.LBB246:
 2420              		.loc 1 146 0 discriminator 2
 2421 0532 4FEA4301 		lsl	r1, r3, #1
 2422              	.LVL165:
 2423              		.loc 1 144 0 discriminator 2
 2424 0536 13F0800F 		tst	r3, #128
 2425              	.LBE246:
 2426              	.LBE245:
 2427              	.LBB249:
 2428              	.LBB243:
 2429              		.loc 1 149 0 discriminator 2
 2430 053a F6B2     		uxtb	r6, r6
 2431              	.LBE243:
 2432              	.LBE249:
 2433              	.LBB250:
 2434              	.LBB247:
 2435              		.loc 1 147 0 discriminator 2
 2436 053c 18BF     		it	ne
 2437 053e 81F01B01 		eorne	r1, r1, #27
 2438              	.LVL166:
 2439              	.LBE247:
 2440              	.LBE250:
 2441              		.loc 1 357 0 discriminator 2
 2442 0542 86EA0808 		eor	r8, r6, r8
 2443              	.LVL167:
 2444 0546 7540     		eors	r5, r5, r6
 2445              	.LBB251:
 2446              	.LBB248:
 2447              		.loc 1 149 0 discriminator 2
 2448 0548 CEB2     		uxtb	r6, r1
ARM GAS  C:\Users\Vergil\AppData\Local\Temp\ccl0Rg49.s 			page 44


 2449              	.LVL168:
 2450              	.LBE248:
 2451              	.LBE251:
 2452              		.loc 1 357 0 discriminator 2
 2453 054a 0895     		str	r5, [sp, #32]
 2454              	.LBB252:
 2455              	.LBB253:
 2456              		.loc 1 144 0 discriminator 2
 2457 054c 16F0800F 		tst	r6, #128
 2458              	.LBE253:
 2459              	.LBE252:
 2460              		.loc 1 360 0 discriminator 2
 2461 0550 87EA0005 		eor	r5, r7, r0
 2462              	.LBB257:
 2463              	.LBB254:
 2464              		.loc 1 146 0 discriminator 2
 2465 0554 4FEA4603 		lsl	r3, r6, #1
 2466              	.LVL169:
 2467              	.LBE254:
 2468              	.LBE257:
 2469              	.LBB258:
 2470              	.LBB259:
 2471 0558 4FEA4501 		lsl	r1, r5, #1
 2472              	.LVL170:
 2473              	.LBE259:
 2474              	.LBE258:
 2475              	.LBB261:
 2476              	.LBB255:
 2477              		.loc 1 147 0 discriminator 2
 2478 055c 18BF     		it	ne
 2479 055e 83F01B03 		eorne	r3, r3, #27
 2480              	.LVL171:
 2481              	.LBE255:
 2482              	.LBE261:
 2483              	.LBB262:
 2484              	.LBB260:
 2485              		.loc 1 144 0 discriminator 2
 2486 0562 15F0800F 		tst	r5, #128
 2487              		.loc 1 147 0 discriminator 2
 2488 0566 18BF     		it	ne
 2489 0568 81F01B01 		eorne	r1, r1, #27
 2490              	.LVL172:
 2491              		.loc 1 149 0 discriminator 2
 2492 056c CEB2     		uxtb	r6, r1
 2493              	.LVL173:
 2494              	.LBE260:
 2495              	.LBE262:
 2496              	.LBB263:
 2497              	.LBB264:
 2498              		.loc 1 144 0 discriminator 2
 2499 056e 16F0800F 		tst	r6, #128
 2500              		.loc 1 146 0 discriminator 2
 2501 0572 4FEA4605 		lsl	r5, r6, #1
 2502              	.LVL174:
 2503              	.LBE264:
 2504              	.LBE263:
 2505              		.loc 1 363 0 discriminator 2
ARM GAS  C:\Users\Vergil\AppData\Local\Temp\ccl0Rg49.s 			page 45


 2506 0576 0599     		ldr	r1, [sp, #20]
 2507 0578 029E     		ldr	r6, [sp, #8]
 2508              	.LBB267:
 2509              	.LBB256:
 2510              		.loc 1 149 0 discriminator 2
 2511 057a DBB2     		uxtb	r3, r3
 2512              	.LBE256:
 2513              	.LBE267:
 2514              	.LBB268:
 2515              	.LBB265:
 2516              		.loc 1 147 0 discriminator 2
 2517 057c 18BF     		it	ne
 2518 057e 85F01B05 		eorne	r5, r5, #27
 2519              	.LVL175:
 2520              	.LBE265:
 2521              	.LBE268:
 2522              		.loc 1 363 0 discriminator 2
 2523 0582 7140     		eors	r1, r1, r6
 2524              	.LVL176:
 2525              	.LBB269:
 2526              	.LBB266:
 2527              		.loc 1 149 0 discriminator 2
 2528 0584 EDB2     		uxtb	r5, r5
 2529              	.LBE266:
 2530              	.LBE269:
 2531              		.loc 1 361 0 discriminator 2
 2532 0586 83EA0A0A 		eor	sl, r3, sl
 2533              	.LVL177:
 2534              	.LBB270:
 2535              	.LBB271:
 2536              		.loc 1 144 0 discriminator 2
 2537 058a 11F0800F 		tst	r1, #128
 2538              	.LBE271:
 2539              	.LBE270:
 2540              		.loc 1 361 0 discriminator 2
 2541 058e CDF824A0 		str	sl, [sp, #36]
 2542 0592 83EA040A 		eor	sl, r3, r4
 2543 0596 85EA0704 		eor	r4, r5, r7
 2544              	.LBB274:
 2545              	.LBB272:
 2546              		.loc 1 146 0 discriminator 2
 2547 059a 4FEA4107 		lsl	r7, r1, #1
 2548              	.LVL178:
 2549              		.loc 1 147 0 discriminator 2
 2550 059e 18BF     		it	ne
 2551 05a0 87F01B07 		eorne	r7, r7, #27
 2552              	.LVL179:
 2553              	.LBE272:
 2554              	.LBE274:
 2555              		.loc 1 364 0 discriminator 2
 2556 05a4 049E     		ldr	r6, [sp, #16]
 2557              		.loc 1 361 0 discriminator 2
 2558 05a6 0A94     		str	r4, [sp, #40]
 2559              		.loc 1 364 0 discriminator 2
 2560 05a8 079C     		ldr	r4, [sp, #28]
 2561              	.LBB275:
 2562              	.LBB273:
ARM GAS  C:\Users\Vergil\AppData\Local\Temp\ccl0Rg49.s 			page 46


 2563              		.loc 1 149 0 discriminator 2
 2564 05aa FBB2     		uxtb	r3, r7
 2565              	.LVL180:
 2566              	.LBE273:
 2567              	.LBE275:
 2568              		.loc 1 361 0 discriminator 2
 2569 05ac 6840     		eors	r0, r0, r5
 2570              		.loc 1 364 0 discriminator 2
 2571 05ae 6640     		eors	r6, r6, r4
 2572              	.LBB276:
 2573              	.LBB277:
 2574              		.loc 1 146 0 discriminator 2
 2575 05b0 4FEA4305 		lsl	r5, r3, #1
 2576              	.LVL181:
 2577              		.loc 1 144 0 discriminator 2
 2578 05b4 13F0800F 		tst	r3, #128
 2579              	.LBE277:
 2580              	.LBE276:
 2581              	.LBB280:
 2582              	.LBB281:
 2583              		.loc 1 146 0 discriminator 2
 2584 05b8 4FEA4607 		lsl	r7, r6, #1
 2585              	.LVL182:
 2586              	.LBE281:
 2587              	.LBE280:
 2588              	.LBB283:
 2589              	.LBB278:
 2590              		.loc 1 147 0 discriminator 2
 2591 05bc 18BF     		it	ne
 2592 05be 85F01B05 		eorne	r5, r5, #27
 2593              	.LVL183:
 2594              	.LBE278:
 2595              	.LBE283:
 2596              	.LBB284:
 2597              	.LBB282:
 2598              		.loc 1 144 0 discriminator 2
 2599 05c2 16F0800F 		tst	r6, #128
 2600              		.loc 1 147 0 discriminator 2
 2601 05c6 18BF     		it	ne
 2602 05c8 87F01B07 		eorne	r7, r7, #27
 2603              	.LVL184:
 2604              		.loc 1 149 0 discriminator 2
 2605 05cc FBB2     		uxtb	r3, r7
 2606              	.LVL185:
 2607              	.LBE282:
 2608              	.LBE284:
 2609              	.LBB285:
 2610              	.LBB279:
 2611 05ce E9B2     		uxtb	r1, r5
 2612              	.LVL186:
 2613              	.LBE279:
 2614              	.LBE285:
 2615              		.loc 1 365 0 discriminator 2
 2616 05d0 029F     		ldr	r7, [sp, #8]
 2617              	.LVL187:
 2618              		.loc 1 367 0 discriminator 2
 2619 05d2 039E     		ldr	r6, [sp, #12]
ARM GAS  C:\Users\Vergil\AppData\Local\Temp\ccl0Rg49.s 			page 47


 2620              	.LVL188:
 2621              	.LBB286:
 2622              	.LBB287:
 2623              		.loc 1 146 0 discriminator 2
 2624 05d4 4FEA4305 		lsl	r5, r3, #1
 2625              	.LVL189:
 2626              		.loc 1 144 0 discriminator 2
 2627 05d8 13F0800F 		tst	r3, #128
 2628              		.loc 1 147 0 discriminator 2
 2629 05dc 18BF     		it	ne
 2630 05de 85F01B05 		eorne	r5, r5, #27
 2631              	.LVL190:
 2632              		.loc 1 149 0 discriminator 2
 2633 05e2 ECB2     		uxtb	r4, r5
 2634              	.LVL191:
 2635              	.LBE287:
 2636              	.LBE286:
 2637              		.loc 1 365 0 discriminator 2
 2638 05e4 81EA0705 		eor	r5, r1, r7
 2639 05e8 059F     		ldr	r7, [sp, #20]
 2640              		.loc 1 367 0 discriminator 2
 2641 05ea 019B     		ldr	r3, [sp, #4]
 2642              	.LVL192:
 2643              		.loc 1 365 0 discriminator 2
 2644 05ec 0295     		str	r5, [sp, #8]
 2645 05ee 7940     		eors	r1, r1, r7
 2646              		.loc 1 367 0 discriminator 2
 2647 05f0 7340     		eors	r3, r3, r6
 2648              	.LVL193:
 2649              		.loc 1 365 0 discriminator 2
 2650 05f2 079E     		ldr	r6, [sp, #28]
 2651 05f4 0791     		str	r1, [sp, #28]
 2652 05f6 0499     		ldr	r1, [sp, #16]
 2653              		.loc 1 368 0 discriminator 2
 2654 05f8 009F     		ldr	r7, [sp, #0]
 2655              		.loc 1 365 0 discriminator 2
 2656 05fa 6640     		eors	r6, r6, r4
 2657 05fc 4C40     		eors	r4, r4, r1
 2658              	.LBB288:
 2659              	.LBB289:
 2660              		.loc 1 144 0 discriminator 2
 2661 05fe 13F0800F 		tst	r3, #128
 2662              	.LBE289:
 2663              	.LBE288:
 2664              		.loc 1 365 0 discriminator 2
 2665 0602 0594     		str	r4, [sp, #20]
 2666              	.LBB292:
 2667              	.LBB290:
 2668              		.loc 1 146 0 discriminator 2
 2669 0604 4FEA4304 		lsl	r4, r3, #1
 2670              	.LVL194:
 2671              	.LBE290:
 2672              	.LBE292:
 2673              		.loc 1 368 0 discriminator 2
 2674 0608 0699     		ldr	r1, [sp, #24]
 2675              	.LBB293:
 2676              	.LBB291:
ARM GAS  C:\Users\Vergil\AppData\Local\Temp\ccl0Rg49.s 			page 48


 2677              		.loc 1 147 0 discriminator 2
 2678 060a 18BF     		it	ne
 2679 060c 84F01B04 		eorne	r4, r4, #27
 2680              	.LVL195:
 2681              		.loc 1 149 0 discriminator 2
 2682 0610 E3B2     		uxtb	r3, r4
 2683              	.LVL196:
 2684              	.LBE291:
 2685              	.LBE293:
 2686              		.loc 1 368 0 discriminator 2
 2687 0612 4F40     		eors	r7, r7, r1
 2688              	.LBB294:
 2689              	.LBB295:
 2690              		.loc 1 144 0 discriminator 2
 2691 0614 13F0800F 		tst	r3, #128
 2692              		.loc 1 146 0 discriminator 2
 2693 0618 4FEA4305 		lsl	r5, r3, #1
 2694              	.LVL197:
 2695              	.LBE295:
 2696              	.LBE294:
 2697              	.LBB298:
 2698              	.LBB299:
 2699 061c 4FEA4704 		lsl	r4, r7, #1
 2700              	.LVL198:
 2701              	.LBE299:
 2702              	.LBE298:
 2703              	.LBB302:
 2704              	.LBB296:
 2705              		.loc 1 147 0 discriminator 2
 2706 0620 18BF     		it	ne
 2707 0622 85F01B05 		eorne	r5, r5, #27
 2708              	.LVL199:
 2709              	.LBE296:
 2710              	.LBE302:
 2711              	.LBB303:
 2712              	.LBB300:
 2713              		.loc 1 144 0 discriminator 2
 2714 0626 17F0800F 		tst	r7, #128
 2715              		.loc 1 147 0 discriminator 2
 2716 062a 18BF     		it	ne
 2717 062c 84F01B04 		eorne	r4, r4, #27
 2718              	.LVL200:
 2719              	.LBE300:
 2720              	.LBE303:
 2721              	.LBB304:
 2722              	.LBB297:
 2723              		.loc 1 149 0 discriminator 2
 2724 0630 EBB2     		uxtb	r3, r5
 2725              	.LVL201:
 2726              	.LBE297:
 2727              	.LBE304:
 2728              	.LBB305:
 2729              	.LBB301:
 2730 0632 E5B2     		uxtb	r5, r4
 2731              	.LVL202:
 2732              	.LBE301:
 2733              	.LBE305:
ARM GAS  C:\Users\Vergil\AppData\Local\Temp\ccl0Rg49.s 			page 49


 2734              	.LBB306:
 2735              	.LBB307:
 2736              		.loc 1 146 0 discriminator 2
 2737 0634 4FEA4507 		lsl	r7, r5, #1
 2738              	.LVL203:
 2739              		.loc 1 144 0 discriminator 2
 2740 0638 15F0800F 		tst	r5, #128
 2741              	.LBE307:
 2742              	.LBE306:
 2743              		.loc 1 369 0 discriminator 2
 2744 063c 039D     		ldr	r5, [sp, #12]
 2745 063e 83EA0505 		eor	r5, r3, r5
 2746              	.LBB310:
 2747              	.LBB308:
 2748              		.loc 1 147 0 discriminator 2
 2749 0642 18BF     		it	ne
 2750 0644 87F01B07 		eorne	r7, r7, #27
 2751              	.LVL204:
 2752              	.LBE308:
 2753              	.LBE310:
 2754              		.loc 1 369 0 discriminator 2
 2755 0648 0395     		str	r5, [sp, #12]
 2756 064a 069D     		ldr	r5, [sp, #24]
 2757              	.LBB311:
 2758              	.LBB309:
 2759              		.loc 1 149 0 discriminator 2
 2760 064c F9B2     		uxtb	r1, r7
 2761              	.LVL205:
 2762              	.LBE309:
 2763              	.LBE311:
 2764              		.loc 1 369 0 discriminator 2
 2765 064e 4D40     		eors	r5, r5, r1
 2766              	.LVL206:
 2767 0650 0695     		str	r5, [sp, #24]
 2768 0652 019D     		ldr	r5, [sp, #4]
 2769              		.loc 1 372 0 discriminator 2
 2770 0654 089F     		ldr	r7, [sp, #32]
 2771              		.loc 1 369 0 discriminator 2
 2772 0656 6B40     		eors	r3, r3, r5
 2773 0658 0193     		str	r3, [sp, #4]
 2774 065a 009B     		ldr	r3, [sp, #0]
 2775              		.loc 1 372 0 discriminator 2
 2776 065c 88EA0B04 		eor	r4, r8, fp
 2777              	.LVL207:
 2778              		.loc 1 369 0 discriminator 2
 2779 0660 5940     		eors	r1, r1, r3
 2780              		.loc 1 372 0 discriminator 2
 2781 0662 5740     		eors	r7, r7, r2
 2782              	.LBB312:
 2783              	.LBB313:
 2784              		.loc 1 144 0 discriminator 2
 2785 0664 14F0800F 		tst	r4, #128
 2786              	.LBE313:
 2787              	.LBE312:
 2788              		.loc 1 369 0 discriminator 2
 2789 0668 0091     		str	r1, [sp, #0]
 2790              	.LBB317:
ARM GAS  C:\Users\Vergil\AppData\Local\Temp\ccl0Rg49.s 			page 50


 2791              	.LBB314:
 2792              		.loc 1 146 0 discriminator 2
 2793 066a 4FEA4401 		lsl	r1, r4, #1
 2794              	.LBE314:
 2795              	.LBE317:
 2796              		.loc 1 372 0 discriminator 2
 2797 066e 87EA0405 		eor	r5, r7, r4
 2798              	.LVL208:
 2799              	.LBB318:
 2800              	.LBB315:
 2801              		.loc 1 147 0 discriminator 2
 2802 0672 18BF     		it	ne
 2803 0674 81F01B01 		eorne	r1, r1, #27
 2804              	.LVL209:
 2805              	.LBE315:
 2806              	.LBE318:
 2807              		.loc 1 374 0 discriminator 2
 2808 0678 85EA0B03 		eor	r3, r5, fp
 2809              	.LBB319:
 2810              	.LBB316:
 2811              		.loc 1 149 0 discriminator 2
 2812 067c CCB2     		uxtb	r4, r1
 2813              	.LVL210:
 2814              	.LBE316:
 2815              	.LBE319:
 2816              		.loc 1 374 0 discriminator 2
 2817 067e 84EA0301 		eor	r1, r4, r3
 2818              		.loc 1 375 0 discriminator 2
 2819 0682 88EA0203 		eor	r3, r8, r2
 2820              	.LVL211:
 2821              		.loc 1 374 0 discriminator 2
 2822 0686 0491     		str	r1, [sp, #16]
 2823              	.LBB320:
 2824              	.LBB321:
 2825              		.loc 1 146 0 discriminator 2
 2826 0688 4FEA4301 		lsl	r1, r3, #1
 2827              		.loc 1 144 0 discriminator 2
 2828 068c 13F0800F 		tst	r3, #128
 2829              		.loc 1 146 0 discriminator 2
 2830 0690 CBB2     		uxtb	r3, r1
 2831              	.LVL212:
 2832              	.LBE321:
 2833              	.LBE320:
 2834              		.loc 1 374 0 discriminator 2
 2835 0692 049C     		ldr	r4, [sp, #16]
 2836              	.LBB323:
 2837              	.LBB322:
 2838              		.loc 1 147 0 discriminator 2
 2839 0694 18BF     		it	ne
 2840 0696 83F01B03 		eorne	r3, r3, #27
 2841              	.LBE322:
 2842              	.LBE323:
 2843              		.loc 1 375 0 discriminator 2
 2844 069a 85EA0808 		eor	r8, r5, r8
 2845              	.LVL213:
 2846              	.LBB324:
 2847              	.LBB325:
ARM GAS  C:\Users\Vergil\AppData\Local\Temp\ccl0Rg49.s 			page 51


 2848              		.loc 1 144 0 discriminator 2
 2849 069e 17F0800F 		tst	r7, #128
 2850              		.loc 1 146 0 discriminator 2
 2851 06a2 4FEA4707 		lsl	r7, r7, #1
 2852              	.LBE325:
 2853              	.LBE324:
 2854              		.loc 1 375 0 discriminator 2
 2855 06a6 83EA0808 		eor	r8, r3, r8
 2856              	.LBB328:
 2857              	.LBB326:
 2858              		.loc 1 147 0 discriminator 2
 2859 06aa 18BF     		it	ne
 2860 06ac 87F01B07 		eorne	r7, r7, #27
 2861              	.LBE326:
 2862              	.LBE328:
 2863              		.loc 1 377 0 discriminator 2
 2864 06b0 089B     		ldr	r3, [sp, #32]
 2865              		.loc 1 374 0 discriminator 2
 2866 06b2 89F80040 		strb	r4, [r9, #0]
 2867              		.loc 1 376 0 discriminator 2
 2868 06b6 6A40     		eors	r2, r2, r5
 2869              	.LBB329:
 2870              	.LBB327:
 2871              		.loc 1 149 0 discriminator 2
 2872 06b8 FCB2     		uxtb	r4, r7
 2873              	.LBE327:
 2874              	.LBE329:
 2875              		.loc 1 376 0 discriminator 2
 2876 06ba 84EA0201 		eor	r1, r4, r2
 2877              	.LVL214:
 2878              		.loc 1 377 0 discriminator 2
 2879 06be 83EA0B0B 		eor	fp, r3, fp
 2880              	.LVL215:
 2881              		.loc 1 375 0 discriminator 2
 2882 06c2 CDF82C80 		str	r8, [sp, #44]
 2883 06c6 89F80180 		strb	r8, [r9, #1]
 2884              	.LVL216:
 2885              		.loc 1 376 0 discriminator 2
 2886 06ca 0C91     		str	r1, [sp, #48]
 2887              	.LBB330:
 2888              	.LBB331:
 2889              		.loc 1 146 0 discriminator 2
 2890 06cc 4FEA4B07 		lsl	r7, fp, #1
 2891              	.LBE331:
 2892              	.LBE330:
 2893              		.loc 1 376 0 discriminator 2
 2894 06d0 89F80210 		strb	r1, [r9, #2]
 2895              		.loc 1 377 0 discriminator 2
 2896 06d4 089A     		ldr	r2, [sp, #32]
 2897              		.loc 1 379 0 discriminator 2
 2898 06d6 0999     		ldr	r1, [sp, #36]
 2899 06d8 0A9B     		ldr	r3, [sp, #40]
 2900              	.LBB333:
 2901              	.LBB332:
 2902              		.loc 1 146 0 discriminator 2
 2903 06da FCB2     		uxtb	r4, r7
 2904              	.LVL217:
ARM GAS  C:\Users\Vergil\AppData\Local\Temp\ccl0Rg49.s 			page 52


 2905              		.loc 1 144 0 discriminator 2
 2906 06dc 1BF0800F 		tst	fp, #128
 2907              		.loc 1 147 0 discriminator 2
 2908 06e0 18BF     		it	ne
 2909 06e2 84F01B04 		eorne	r4, r4, #27
 2910              	.LBE332:
 2911              	.LBE333:
 2912              		.loc 1 377 0 discriminator 2
 2913 06e6 5540     		eors	r5, r5, r2
 2914              	.LVL218:
 2915 06e8 6540     		eors	r5, r5, r4
 2916              		.loc 1 379 0 discriminator 2
 2917 06ea 80EA0102 		eor	r2, r0, r1
 2918 06ee 83EA0A04 		eor	r4, r3, sl
 2919 06f2 84EA0207 		eor	r7, r4, r2
 2920              	.LVL219:
 2921              	.LBB334:
 2922              	.LBB335:
 2923              		.loc 1 144 0 discriminator 2
 2924 06f6 12F0800F 		tst	r2, #128
 2925              	.LBE335:
 2926              	.LBE334:
 2927              		.loc 1 377 0 discriminator 2
 2928 06fa 0895     		str	r5, [sp, #32]
 2929 06fc 89F80350 		strb	r5, [r9, #3]
 2930              	.LBB339:
 2931              	.LBB336:
 2932              		.loc 1 146 0 discriminator 2
 2933 0700 4FEA4205 		lsl	r5, r2, #1
 2934              	.LVL220:
 2935              	.LBE336:
 2936              	.LBE339:
 2937              		.loc 1 381 0 discriminator 2
 2938 0704 099A     		ldr	r2, [sp, #36]
 2939              	.LBB340:
 2940              	.LBB337:
 2941              		.loc 1 147 0 discriminator 2
 2942 0706 18BF     		it	ne
 2943 0708 85F01B05 		eorne	r5, r5, #27
 2944              	.LVL221:
 2945              	.LBE337:
 2946              	.LBE340:
 2947              		.loc 1 381 0 discriminator 2
 2948 070c 87EA0203 		eor	r3, r7, r2
 2949              	.LBB341:
 2950              	.LBB338:
 2951              		.loc 1 149 0 discriminator 2
 2952 0710 E9B2     		uxtb	r1, r5
 2953              	.LVL222:
 2954              	.LBE338:
 2955              	.LBE341:
 2956              		.loc 1 381 0 discriminator 2
 2957 0712 81EA0305 		eor	r5, r1, r3
 2958              		.loc 1 382 0 discriminator 2
 2959 0716 80EA0A01 		eor	r1, r0, sl
 2960              	.LVL223:
 2961              	.LBB342:
ARM GAS  C:\Users\Vergil\AppData\Local\Temp\ccl0Rg49.s 			page 53


 2962              	.LBB343:
 2963              		.loc 1 146 0 discriminator 2
 2964 071a 4FEA4102 		lsl	r2, r1, #1
 2965              	.LVL224:
 2966 071e D3B2     		uxtb	r3, r2
 2967              	.LVL225:
 2968              	.LBE343:
 2969              	.LBE342:
 2970              		.loc 1 381 0 discriminator 2
 2971 0720 0D95     		str	r5, [sp, #52]
 2972              	.LBB345:
 2973              	.LBB344:
 2974              		.loc 1 144 0 discriminator 2
 2975 0722 11F0800F 		tst	r1, #128
 2976              		.loc 1 147 0 discriminator 2
 2977 0726 18BF     		it	ne
 2978 0728 83F01B03 		eorne	r3, r3, #27
 2979              	.LBE344:
 2980              	.LBE345:
 2981              		.loc 1 381 0 discriminator 2
 2982 072c DDF83480 		ldr	r8, [sp, #52]
 2983              		.loc 1 382 0 discriminator 2
 2984 0730 7840     		eors	r0, r0, r7
 2985              	.LVL226:
 2986 0732 83EA0005 		eor	r5, r3, r0
 2987              	.LBB346:
 2988              	.LBB188:
 2989              		.loc 1 144 0 discriminator 2
 2990 0736 2206     		lsls	r2, r4, #24
 2991              	.LVL227:
 2992              	.LBE188:
 2993              	.LBE346:
 2994              		.loc 1 381 0 discriminator 2
 2995 0738 89F80480 		strb	r8, [r9, #4]
 2996              		.loc 1 382 0 discriminator 2
 2997 073c 0E95     		str	r5, [sp, #56]
 2998 073e 89F80550 		strb	r5, [r9, #5]
 2999              	.LVL228:
 3000              	.LBB347:
 3001              	.LBB189:
 3002              		.loc 1 144 0 discriminator 2
 3003 0742 7FF587AD 		bpl	.L91
 3004              	.LVL229:
 3005              		.loc 1 146 0
 3006 0746 6200     		lsls	r2, r4, #1
 3007              		.loc 1 147 0
 3008 0748 82F01B03 		eor	r3, r2, #27
 3009 074c D9B2     		uxtb	r1, r3
 3010              	.LVL230:
 3011 074e 83E5     		b	.L92
 3012              	.LVL231:
 3013              	.L114:
 3014              	.LBE189:
 3015              	.LBE347:
 3016              	.LBB348:
 3017              	.LBB226:
 3018              		.loc 1 146 0
ARM GAS  C:\Users\Vergil\AppData\Local\Temp\ccl0Rg49.s 			page 54


 3019 0750 5F00     		lsls	r7, r3, #1
 3020              		.loc 1 147 0
 3021 0752 87F01B03 		eor	r3, r7, #27
 3022              	.LVL232:
 3023 0756 DEB2     		uxtb	r6, r3
 3024 0758 07E6     		b	.L108
 3025              	.LVL233:
 3026              	.L113:
 3027              	.LBE226:
 3028              	.LBE348:
 3029              	.LBB349:
 3030              	.LBB203:
 3031              		.loc 1 146 0
 3032 075a 4B00     		lsls	r3, r1, #1
 3033              		.loc 1 147 0
 3034 075c 83F01B02 		eor	r2, r3, #27
 3035              	.LVL234:
 3036 0760 D7B2     		uxtb	r7, r2
 3037 0762 BBE5     		b	.L100
 3038              	.LVL235:
 3039              	.L115:
 3040              	.LBE203:
 3041              	.LBE349:
 3042              		.loc 1 427 0
 3043 0764 10B0     		add	sp, sp, #64
 3044 0766 BDE8F00F 		pop	{r4, r5, r6, r7, r8, r9, sl, fp}
 3045 076a 7047     		bx	lr
 3046              		.cfi_endproc
 3047              	.LFE3:
 3048              		.size	aes_decr, .-aes_decr
 3049 076c AFF30080 		.section	.text.aes_encrypt,"ax",%progbits
 3050              		.align	2
 3051              		.p2align 4,,15
 3052              		.global	aes_encrypt
 3053              		.thumb
 3054              		.thumb_func
 3055              		.type	aes_encrypt, %function
 3056              	aes_encrypt:
 3057              	.LFB4:
 3058              		.loc 1 447 0
 3059              		.cfi_startproc
 3060              		@ args = 0, pretend = 0, frame = 0
 3061              		@ frame_needed = 0, uses_anonymous_args = 0
 3062              	.LVL236:
 3063 0000 38B5     		push	{r3, r4, r5, lr}
 3064              	.LCFI6:
 3065              		.cfi_def_cfa_offset 16
 3066              		.cfi_offset 3, -16
 3067              		.cfi_offset 4, -12
 3068              		.cfi_offset 5, -8
 3069              		.cfi_offset 14, -4
 3070              		.loc 1 449 0
 3071 0002 40F20004 		movw	r4, #:lower16:.LANCHOR3
 3072 0006 C0F20004 		movt	r4, #:upper16:.LANCHOR3
 3073              		.loc 1 447 0
 3074 000a 0546     		mov	r5, r0
 3075              		.loc 1 449 0
ARM GAS  C:\Users\Vergil\AppData\Local\Temp\ccl0Rg49.s 			page 55


 3076 000c 2046     		mov	r0, r4
 3077              	.LVL237:
 3078 000e FFF7FEFF 		bl	expandKey
 3079              	.LVL238:
 3080              		.loc 1 450 0
 3081 0012 2846     		mov	r0, r5
 3082 0014 2146     		mov	r1, r4
 3083              		.loc 1 451 0
 3084 0016 BDE83840 		pop	{r3, r4, r5, lr}
 3085              		.loc 1 450 0
 3086 001a FFF7FEBF 		b	aes_encr
 3087              	.LVL239:
 3088              		.cfi_endproc
 3089              	.LFE4:
 3090              		.size	aes_encrypt, .-aes_encrypt
 3091 001e 00BF     		.section	.text.aes_decrypt,"ax",%progbits
 3092              		.align	2
 3093              		.p2align 4,,15
 3094              		.global	aes_decrypt
 3095              		.thumb
 3096              		.thumb_func
 3097              		.type	aes_decrypt, %function
 3098              	aes_decrypt:
 3099              	.LFB5:
 3100              		.loc 1 471 0
 3101              		.cfi_startproc
 3102              		@ args = 0, pretend = 0, frame = 0
 3103              		@ frame_needed = 0, uses_anonymous_args = 0
 3104              	.LVL240:
 3105 0000 38B5     		push	{r3, r4, r5, lr}
 3106              	.LCFI7:
 3107              		.cfi_def_cfa_offset 16
 3108              		.cfi_offset 3, -16
 3109              		.cfi_offset 4, -12
 3110              		.cfi_offset 5, -8
 3111              		.cfi_offset 14, -4
 3112              		.loc 1 472 0
 3113 0002 40F20004 		movw	r4, #:lower16:.LANCHOR3
 3114 0006 C0F20004 		movt	r4, #:upper16:.LANCHOR3
 3115              		.loc 1 471 0
 3116 000a 0546     		mov	r5, r0
 3117              		.loc 1 472 0
 3118 000c 2046     		mov	r0, r4
 3119              	.LVL241:
 3120 000e FFF7FEFF 		bl	expandKey
 3121              	.LVL242:
 3122              		.loc 1 473 0
 3123 0012 2846     		mov	r0, r5
 3124 0014 2146     		mov	r1, r4
 3125              		.loc 1 474 0
 3126 0016 BDE83840 		pop	{r3, r4, r5, lr}
 3127              		.loc 1 473 0
 3128 001a FFF7FEBF 		b	aes_decr
 3129              	.LVL243:
 3130              		.cfi_endproc
 3131              	.LFE5:
 3132              		.size	aes_decrypt, .-aes_decrypt
ARM GAS  C:\Users\Vergil\AppData\Local\Temp\ccl0Rg49.s 			page 56


 3133 001e 00BF     		.section	.text.aes_read_key,"ax",%progbits
 3134              		.align	2
 3135              		.p2align 4,,15
 3136              		.global	aes_read_key
 3137              		.thumb
 3138              		.thumb_func
 3139              		.type	aes_read_key, %function
 3140              	aes_read_key:
 3141              	.LFB6:
 3142              		.loc 1 492 0
 3143              		.cfi_startproc
 3144              		@ args = 0, pretend = 0, frame = 0
 3145              		@ frame_needed = 0, uses_anonymous_args = 0
 3146              		@ link register save eliminated.
 3147              	.LVL244:
 3148              		.loc 1 492 0
 3149 0000 0346     		mov	r3, r0
 3150              		.loc 1 495 0
 3151 0002 1021     		movs	r1, #16
 3152 0004 0C20     		movs	r0, #12
 3153              	.LVL245:
 3154 0006 0022     		movs	r2, #0
 3155              		.loc 1 498 0
 3156              		.loc 1 495 0
 3157 0008 FFF7FEBF 		b	nvmem_read
 3158              	.LVL246:
 3159              		.cfi_endproc
 3160              	.LFE6:
 3161              		.size	aes_read_key, .-aes_read_key
 3162 000c AFF30080 		.section	.text.aes_write_key,"ax",%progbits
 3163              		.align	2
 3164              		.p2align 4,,15
 3165              		.global	aes_write_key
 3166              		.thumb
 3167              		.thumb_func
 3168              		.type	aes_write_key, %function
 3169              	aes_write_key:
 3170              	.LFB7:
 3171              		.loc 1 515 0
 3172              		.cfi_startproc
 3173              		@ args = 0, pretend = 0, frame = 0
 3174              		@ frame_needed = 0, uses_anonymous_args = 0
 3175              		@ link register save eliminated.
 3176              	.LVL247:
 3177              		.loc 1 515 0
 3178 0000 0346     		mov	r3, r0
 3179              		.loc 1 518 0
 3180 0002 1021     		movs	r1, #16
 3181 0004 0C20     		movs	r0, #12
 3182              	.LVL248:
 3183 0006 0022     		movs	r2, #0
 3184              		.loc 1 521 0
 3185              		.loc 1 518 0
 3186 0008 FFF7FEBF 		b	nvmem_write
 3187              	.LVL249:
 3188              		.cfi_endproc
 3189              	.LFE7:
ARM GAS  C:\Users\Vergil\AppData\Local\Temp\ccl0Rg49.s 			page 57


 3190              		.size	aes_write_key, .-aes_write_key
 3191              		.global	expandedKey
 3192              		.global	Rcon
 3193              		.global	rsbox
 3194              		.global	sbox
 3195 000c AFF30080 		.section	.bss.expandedKey,"aw",%nobits
 3196              		.align	2
 3197              		.set	.LANCHOR3,. + 0
 3198              		.type	expandedKey, %object
 3199              		.size	expandedKey, 176
 3200              	expandedKey:
 3201 0000 00000000 		.space	176
 3201      00000000 
 3201      00000000 
 3201      00000000 
 3201      00000000 
 3202              		.section	.rodata.sbox,"a",%progbits
 3203              		.align	2
 3204              		.set	.LANCHOR1,. + 0
 3205              		.type	sbox, %object
 3206              		.size	sbox, 256
 3207              	sbox:
 3208 0000 63       		.byte	99
 3209 0001 7C       		.byte	124
 3210 0002 77       		.byte	119
 3211 0003 7B       		.byte	123
 3212 0004 F2       		.byte	-14
 3213 0005 6B       		.byte	107
 3214 0006 6F       		.byte	111
 3215 0007 C5       		.byte	-59
 3216 0008 30       		.byte	48
 3217 0009 01       		.byte	1
 3218 000a 67       		.byte	103
 3219 000b 2B       		.byte	43
 3220 000c FE       		.byte	-2
 3221 000d D7       		.byte	-41
 3222 000e AB       		.byte	-85
 3223 000f 76       		.byte	118
 3224 0010 CA       		.byte	-54
 3225 0011 82       		.byte	-126
 3226 0012 C9       		.byte	-55
 3227 0013 7D       		.byte	125
 3228 0014 FA       		.byte	-6
 3229 0015 59       		.byte	89
 3230 0016 47       		.byte	71
 3231 0017 F0       		.byte	-16
 3232 0018 AD       		.byte	-83
 3233 0019 D4       		.byte	-44
 3234 001a A2       		.byte	-94
 3235 001b AF       		.byte	-81
 3236 001c 9C       		.byte	-100
 3237 001d A4       		.byte	-92
 3238 001e 72       		.byte	114
 3239 001f C0       		.byte	-64
 3240 0020 B7       		.byte	-73
 3241 0021 FD       		.byte	-3
 3242 0022 93       		.byte	-109
ARM GAS  C:\Users\Vergil\AppData\Local\Temp\ccl0Rg49.s 			page 58


 3243 0023 26       		.byte	38
 3244 0024 36       		.byte	54
 3245 0025 3F       		.byte	63
 3246 0026 F7       		.byte	-9
 3247 0027 CC       		.byte	-52
 3248 0028 34       		.byte	52
 3249 0029 A5       		.byte	-91
 3250 002a E5       		.byte	-27
 3251 002b F1       		.byte	-15
 3252 002c 71       		.byte	113
 3253 002d D8       		.byte	-40
 3254 002e 31       		.byte	49
 3255 002f 15       		.byte	21
 3256 0030 04       		.byte	4
 3257 0031 C7       		.byte	-57
 3258 0032 23       		.byte	35
 3259 0033 C3       		.byte	-61
 3260 0034 18       		.byte	24
 3261 0035 96       		.byte	-106
 3262 0036 05       		.byte	5
 3263 0037 9A       		.byte	-102
 3264 0038 07       		.byte	7
 3265 0039 12       		.byte	18
 3266 003a 80       		.byte	-128
 3267 003b E2       		.byte	-30
 3268 003c EB       		.byte	-21
 3269 003d 27       		.byte	39
 3270 003e B2       		.byte	-78
 3271 003f 75       		.byte	117
 3272 0040 09       		.byte	9
 3273 0041 83       		.byte	-125
 3274 0042 2C       		.byte	44
 3275 0043 1A       		.byte	26
 3276 0044 1B       		.byte	27
 3277 0045 6E       		.byte	110
 3278 0046 5A       		.byte	90
 3279 0047 A0       		.byte	-96
 3280 0048 52       		.byte	82
 3281 0049 3B       		.byte	59
 3282 004a D6       		.byte	-42
 3283 004b B3       		.byte	-77
 3284 004c 29       		.byte	41
 3285 004d E3       		.byte	-29
 3286 004e 2F       		.byte	47
 3287 004f 84       		.byte	-124
 3288 0050 53       		.byte	83
 3289 0051 D1       		.byte	-47
 3290 0052 00       		.byte	0
 3291 0053 ED       		.byte	-19
 3292 0054 20       		.byte	32
 3293 0055 FC       		.byte	-4
 3294 0056 B1       		.byte	-79
 3295 0057 5B       		.byte	91
 3296 0058 6A       		.byte	106
 3297 0059 CB       		.byte	-53
 3298 005a BE       		.byte	-66
 3299 005b 39       		.byte	57
ARM GAS  C:\Users\Vergil\AppData\Local\Temp\ccl0Rg49.s 			page 59


 3300 005c 4A       		.byte	74
 3301 005d 4C       		.byte	76
 3302 005e 58       		.byte	88
 3303 005f CF       		.byte	-49
 3304 0060 D0       		.byte	-48
 3305 0061 EF       		.byte	-17
 3306 0062 AA       		.byte	-86
 3307 0063 FB       		.byte	-5
 3308 0064 43       		.byte	67
 3309 0065 4D       		.byte	77
 3310 0066 33       		.byte	51
 3311 0067 85       		.byte	-123
 3312 0068 45       		.byte	69
 3313 0069 F9       		.byte	-7
 3314 006a 02       		.byte	2
 3315 006b 7F       		.byte	127
 3316 006c 50       		.byte	80
 3317 006d 3C       		.byte	60
 3318 006e 9F       		.byte	-97
 3319 006f A8       		.byte	-88
 3320 0070 51       		.byte	81
 3321 0071 A3       		.byte	-93
 3322 0072 40       		.byte	64
 3323 0073 8F       		.byte	-113
 3324 0074 92       		.byte	-110
 3325 0075 9D       		.byte	-99
 3326 0076 38       		.byte	56
 3327 0077 F5       		.byte	-11
 3328 0078 BC       		.byte	-68
 3329 0079 B6       		.byte	-74
 3330 007a DA       		.byte	-38
 3331 007b 21       		.byte	33
 3332 007c 10       		.byte	16
 3333 007d FF       		.byte	-1
 3334 007e F3       		.byte	-13
 3335 007f D2       		.byte	-46
 3336 0080 CD       		.byte	-51
 3337 0081 0C       		.byte	12
 3338 0082 13       		.byte	19
 3339 0083 EC       		.byte	-20
 3340 0084 5F       		.byte	95
 3341 0085 97       		.byte	-105
 3342 0086 44       		.byte	68
 3343 0087 17       		.byte	23
 3344 0088 C4       		.byte	-60
 3345 0089 A7       		.byte	-89
 3346 008a 7E       		.byte	126
 3347 008b 3D       		.byte	61
 3348 008c 64       		.byte	100
 3349 008d 5D       		.byte	93
 3350 008e 19       		.byte	25
 3351 008f 73       		.byte	115
 3352 0090 60       		.byte	96
 3353 0091 81       		.byte	-127
 3354 0092 4F       		.byte	79
 3355 0093 DC       		.byte	-36
 3356 0094 22       		.byte	34
ARM GAS  C:\Users\Vergil\AppData\Local\Temp\ccl0Rg49.s 			page 60


 3357 0095 2A       		.byte	42
 3358 0096 90       		.byte	-112
 3359 0097 88       		.byte	-120
 3360 0098 46       		.byte	70
 3361 0099 EE       		.byte	-18
 3362 009a B8       		.byte	-72
 3363 009b 14       		.byte	20
 3364 009c DE       		.byte	-34
 3365 009d 5E       		.byte	94
 3366 009e 0B       		.byte	11
 3367 009f DB       		.byte	-37
 3368 00a0 E0       		.byte	-32
 3369 00a1 32       		.byte	50
 3370 00a2 3A       		.byte	58
 3371 00a3 0A       		.byte	10
 3372 00a4 49       		.byte	73
 3373 00a5 06       		.byte	6
 3374 00a6 24       		.byte	36
 3375 00a7 5C       		.byte	92
 3376 00a8 C2       		.byte	-62
 3377 00a9 D3       		.byte	-45
 3378 00aa AC       		.byte	-84
 3379 00ab 62       		.byte	98
 3380 00ac 91       		.byte	-111
 3381 00ad 95       		.byte	-107
 3382 00ae E4       		.byte	-28
 3383 00af 79       		.byte	121
 3384 00b0 E7       		.byte	-25
 3385 00b1 C8       		.byte	-56
 3386 00b2 37       		.byte	55
 3387 00b3 6D       		.byte	109
 3388 00b4 8D       		.byte	-115
 3389 00b5 D5       		.byte	-43
 3390 00b6 4E       		.byte	78
 3391 00b7 A9       		.byte	-87
 3392 00b8 6C       		.byte	108
 3393 00b9 56       		.byte	86
 3394 00ba F4       		.byte	-12
 3395 00bb EA       		.byte	-22
 3396 00bc 65       		.byte	101
 3397 00bd 7A       		.byte	122
 3398 00be AE       		.byte	-82
 3399 00bf 08       		.byte	8
 3400 00c0 BA       		.byte	-70
 3401 00c1 78       		.byte	120
 3402 00c2 25       		.byte	37
 3403 00c3 2E       		.byte	46
 3404 00c4 1C       		.byte	28
 3405 00c5 A6       		.byte	-90
 3406 00c6 B4       		.byte	-76
 3407 00c7 C6       		.byte	-58
 3408 00c8 E8       		.byte	-24
 3409 00c9 DD       		.byte	-35
 3410 00ca 74       		.byte	116
 3411 00cb 1F       		.byte	31
 3412 00cc 4B       		.byte	75
 3413 00cd BD       		.byte	-67
ARM GAS  C:\Users\Vergil\AppData\Local\Temp\ccl0Rg49.s 			page 61


 3414 00ce 8B       		.byte	-117
 3415 00cf 8A       		.byte	-118
 3416 00d0 70       		.byte	112
 3417 00d1 3E       		.byte	62
 3418 00d2 B5       		.byte	-75
 3419 00d3 66       		.byte	102
 3420 00d4 48       		.byte	72
 3421 00d5 03       		.byte	3
 3422 00d6 F6       		.byte	-10
 3423 00d7 0E       		.byte	14
 3424 00d8 61       		.byte	97
 3425 00d9 35       		.byte	53
 3426 00da 57       		.byte	87
 3427 00db B9       		.byte	-71
 3428 00dc 86       		.byte	-122
 3429 00dd C1       		.byte	-63
 3430 00de 1D       		.byte	29
 3431 00df 9E       		.byte	-98
 3432 00e0 E1       		.byte	-31
 3433 00e1 F8       		.byte	-8
 3434 00e2 98       		.byte	-104
 3435 00e3 11       		.byte	17
 3436 00e4 69       		.byte	105
 3437 00e5 D9       		.byte	-39
 3438 00e6 8E       		.byte	-114
 3439 00e7 94       		.byte	-108
 3440 00e8 9B       		.byte	-101
 3441 00e9 1E       		.byte	30
 3442 00ea 87       		.byte	-121
 3443 00eb E9       		.byte	-23
 3444 00ec CE       		.byte	-50
 3445 00ed 55       		.byte	85
 3446 00ee 28       		.byte	40
 3447 00ef DF       		.byte	-33
 3448 00f0 8C       		.byte	-116
 3449 00f1 A1       		.byte	-95
 3450 00f2 89       		.byte	-119
 3451 00f3 0D       		.byte	13
 3452 00f4 BF       		.byte	-65
 3453 00f5 E6       		.byte	-26
 3454 00f6 42       		.byte	66
 3455 00f7 68       		.byte	104
 3456 00f8 41       		.byte	65
 3457 00f9 99       		.byte	-103
 3458 00fa 2D       		.byte	45
 3459 00fb 0F       		.byte	15
 3460 00fc B0       		.byte	-80
 3461 00fd 54       		.byte	84
 3462 00fe BB       		.byte	-69
 3463 00ff 16       		.byte	22
 3464              		.section	.rodata.rsbox,"a",%progbits
 3465              		.align	2
 3466              		.set	.LANCHOR2,. + 0
 3467              		.type	rsbox, %object
 3468              		.size	rsbox, 256
 3469              	rsbox:
 3470 0000 52       		.byte	82
ARM GAS  C:\Users\Vergil\AppData\Local\Temp\ccl0Rg49.s 			page 62


 3471 0001 09       		.byte	9
 3472 0002 6A       		.byte	106
 3473 0003 D5       		.byte	-43
 3474 0004 30       		.byte	48
 3475 0005 36       		.byte	54
 3476 0006 A5       		.byte	-91
 3477 0007 38       		.byte	56
 3478 0008 BF       		.byte	-65
 3479 0009 40       		.byte	64
 3480 000a A3       		.byte	-93
 3481 000b 9E       		.byte	-98
 3482 000c 81       		.byte	-127
 3483 000d F3       		.byte	-13
 3484 000e D7       		.byte	-41
 3485 000f FB       		.byte	-5
 3486 0010 7C       		.byte	124
 3487 0011 E3       		.byte	-29
 3488 0012 39       		.byte	57
 3489 0013 82       		.byte	-126
 3490 0014 9B       		.byte	-101
 3491 0015 2F       		.byte	47
 3492 0016 FF       		.byte	-1
 3493 0017 87       		.byte	-121
 3494 0018 34       		.byte	52
 3495 0019 8E       		.byte	-114
 3496 001a 43       		.byte	67
 3497 001b 44       		.byte	68
 3498 001c C4       		.byte	-60
 3499 001d DE       		.byte	-34
 3500 001e E9       		.byte	-23
 3501 001f CB       		.byte	-53
 3502 0020 54       		.byte	84
 3503 0021 7B       		.byte	123
 3504 0022 94       		.byte	-108
 3505 0023 32       		.byte	50
 3506 0024 A6       		.byte	-90
 3507 0025 C2       		.byte	-62
 3508 0026 23       		.byte	35
 3509 0027 3D       		.byte	61
 3510 0028 EE       		.byte	-18
 3511 0029 4C       		.byte	76
 3512 002a 95       		.byte	-107
 3513 002b 0B       		.byte	11
 3514 002c 42       		.byte	66
 3515 002d FA       		.byte	-6
 3516 002e C3       		.byte	-61
 3517 002f 4E       		.byte	78
 3518 0030 08       		.byte	8
 3519 0031 2E       		.byte	46
 3520 0032 A1       		.byte	-95
 3521 0033 66       		.byte	102
 3522 0034 28       		.byte	40
 3523 0035 D9       		.byte	-39
 3524 0036 24       		.byte	36
 3525 0037 B2       		.byte	-78
 3526 0038 76       		.byte	118
 3527 0039 5B       		.byte	91
ARM GAS  C:\Users\Vergil\AppData\Local\Temp\ccl0Rg49.s 			page 63


 3528 003a A2       		.byte	-94
 3529 003b 49       		.byte	73
 3530 003c 6D       		.byte	109
 3531 003d 8B       		.byte	-117
 3532 003e D1       		.byte	-47
 3533 003f 25       		.byte	37
 3534 0040 72       		.byte	114
 3535 0041 F8       		.byte	-8
 3536 0042 F6       		.byte	-10
 3537 0043 64       		.byte	100
 3538 0044 86       		.byte	-122
 3539 0045 68       		.byte	104
 3540 0046 98       		.byte	-104
 3541 0047 16       		.byte	22
 3542 0048 D4       		.byte	-44
 3543 0049 A4       		.byte	-92
 3544 004a 5C       		.byte	92
 3545 004b CC       		.byte	-52
 3546 004c 5D       		.byte	93
 3547 004d 65       		.byte	101
 3548 004e B6       		.byte	-74
 3549 004f 92       		.byte	-110
 3550 0050 6C       		.byte	108
 3551 0051 70       		.byte	112
 3552 0052 48       		.byte	72
 3553 0053 50       		.byte	80
 3554 0054 FD       		.byte	-3
 3555 0055 ED       		.byte	-19
 3556 0056 B9       		.byte	-71
 3557 0057 DA       		.byte	-38
 3558 0058 5E       		.byte	94
 3559 0059 15       		.byte	21
 3560 005a 46       		.byte	70
 3561 005b 57       		.byte	87
 3562 005c A7       		.byte	-89
 3563 005d 8D       		.byte	-115
 3564 005e 9D       		.byte	-99
 3565 005f 84       		.byte	-124
 3566 0060 90       		.byte	-112
 3567 0061 D8       		.byte	-40
 3568 0062 AB       		.byte	-85
 3569 0063 00       		.byte	0
 3570 0064 8C       		.byte	-116
 3571 0065 BC       		.byte	-68
 3572 0066 D3       		.byte	-45
 3573 0067 0A       		.byte	10
 3574 0068 F7       		.byte	-9
 3575 0069 E4       		.byte	-28
 3576 006a 58       		.byte	88
 3577 006b 05       		.byte	5
 3578 006c B8       		.byte	-72
 3579 006d B3       		.byte	-77
 3580 006e 45       		.byte	69
 3581 006f 06       		.byte	6
 3582 0070 D0       		.byte	-48
 3583 0071 2C       		.byte	44
 3584 0072 1E       		.byte	30
ARM GAS  C:\Users\Vergil\AppData\Local\Temp\ccl0Rg49.s 			page 64


 3585 0073 8F       		.byte	-113
 3586 0074 CA       		.byte	-54
 3587 0075 3F       		.byte	63
 3588 0076 0F       		.byte	15
 3589 0077 02       		.byte	2
 3590 0078 C1       		.byte	-63
 3591 0079 AF       		.byte	-81
 3592 007a BD       		.byte	-67
 3593 007b 03       		.byte	3
 3594 007c 01       		.byte	1
 3595 007d 13       		.byte	19
 3596 007e 8A       		.byte	-118
 3597 007f 6B       		.byte	107
 3598 0080 3A       		.byte	58
 3599 0081 91       		.byte	-111
 3600 0082 11       		.byte	17
 3601 0083 41       		.byte	65
 3602 0084 4F       		.byte	79
 3603 0085 67       		.byte	103
 3604 0086 DC       		.byte	-36
 3605 0087 EA       		.byte	-22
 3606 0088 97       		.byte	-105
 3607 0089 F2       		.byte	-14
 3608 008a CF       		.byte	-49
 3609 008b CE       		.byte	-50
 3610 008c F0       		.byte	-16
 3611 008d B4       		.byte	-76
 3612 008e E6       		.byte	-26
 3613 008f 73       		.byte	115
 3614 0090 96       		.byte	-106
 3615 0091 AC       		.byte	-84
 3616 0092 74       		.byte	116
 3617 0093 22       		.byte	34
 3618 0094 E7       		.byte	-25
 3619 0095 AD       		.byte	-83
 3620 0096 35       		.byte	53
 3621 0097 85       		.byte	-123
 3622 0098 E2       		.byte	-30
 3623 0099 F9       		.byte	-7
 3624 009a 37       		.byte	55
 3625 009b E8       		.byte	-24
 3626 009c 1C       		.byte	28
 3627 009d 75       		.byte	117
 3628 009e DF       		.byte	-33
 3629 009f 6E       		.byte	110
 3630 00a0 47       		.byte	71
 3631 00a1 F1       		.byte	-15
 3632 00a2 1A       		.byte	26
 3633 00a3 71       		.byte	113
 3634 00a4 1D       		.byte	29
 3635 00a5 29       		.byte	41
 3636 00a6 C5       		.byte	-59
 3637 00a7 89       		.byte	-119
 3638 00a8 6F       		.byte	111
 3639 00a9 B7       		.byte	-73
 3640 00aa 62       		.byte	98
 3641 00ab 0E       		.byte	14
ARM GAS  C:\Users\Vergil\AppData\Local\Temp\ccl0Rg49.s 			page 65


 3642 00ac AA       		.byte	-86
 3643 00ad 18       		.byte	24
 3644 00ae BE       		.byte	-66
 3645 00af 1B       		.byte	27
 3646 00b0 FC       		.byte	-4
 3647 00b1 56       		.byte	86
 3648 00b2 3E       		.byte	62
 3649 00b3 4B       		.byte	75
 3650 00b4 C6       		.byte	-58
 3651 00b5 D2       		.byte	-46
 3652 00b6 79       		.byte	121
 3653 00b7 20       		.byte	32
 3654 00b8 9A       		.byte	-102
 3655 00b9 DB       		.byte	-37
 3656 00ba C0       		.byte	-64
 3657 00bb FE       		.byte	-2
 3658 00bc 78       		.byte	120
 3659 00bd CD       		.byte	-51
 3660 00be 5A       		.byte	90
 3661 00bf F4       		.byte	-12
 3662 00c0 1F       		.byte	31
 3663 00c1 DD       		.byte	-35
 3664 00c2 A8       		.byte	-88
 3665 00c3 33       		.byte	51
 3666 00c4 88       		.byte	-120
 3667 00c5 07       		.byte	7
 3668 00c6 C7       		.byte	-57
 3669 00c7 31       		.byte	49
 3670 00c8 B1       		.byte	-79
 3671 00c9 12       		.byte	18
 3672 00ca 10       		.byte	16
 3673 00cb 59       		.byte	89
 3674 00cc 27       		.byte	39
 3675 00cd 80       		.byte	-128
 3676 00ce EC       		.byte	-20
 3677 00cf 5F       		.byte	95
 3678 00d0 60       		.byte	96
 3679 00d1 51       		.byte	81
 3680 00d2 7F       		.byte	127
 3681 00d3 A9       		.byte	-87
 3682 00d4 19       		.byte	25
 3683 00d5 B5       		.byte	-75
 3684 00d6 4A       		.byte	74
 3685 00d7 0D       		.byte	13
 3686 00d8 2D       		.byte	45
 3687 00d9 E5       		.byte	-27
 3688 00da 7A       		.byte	122
 3689 00db 9F       		.byte	-97
 3690 00dc 93       		.byte	-109
 3691 00dd C9       		.byte	-55
 3692 00de 9C       		.byte	-100
 3693 00df EF       		.byte	-17
 3694 00e0 A0       		.byte	-96
 3695 00e1 E0       		.byte	-32
 3696 00e2 3B       		.byte	59
 3697 00e3 4D       		.byte	77
 3698 00e4 AE       		.byte	-82
ARM GAS  C:\Users\Vergil\AppData\Local\Temp\ccl0Rg49.s 			page 66


 3699 00e5 2A       		.byte	42
 3700 00e6 F5       		.byte	-11
 3701 00e7 B0       		.byte	-80
 3702 00e8 C8       		.byte	-56
 3703 00e9 EB       		.byte	-21
 3704 00ea BB       		.byte	-69
 3705 00eb 3C       		.byte	60
 3706 00ec 83       		.byte	-125
 3707 00ed 53       		.byte	83
 3708 00ee 99       		.byte	-103
 3709 00ef 61       		.byte	97
 3710 00f0 17       		.byte	23
 3711 00f1 2B       		.byte	43
 3712 00f2 04       		.byte	4
 3713 00f3 7E       		.byte	126
 3714 00f4 BA       		.byte	-70
 3715 00f5 77       		.byte	119
 3716 00f6 D6       		.byte	-42
 3717 00f7 26       		.byte	38
 3718 00f8 E1       		.byte	-31
 3719 00f9 69       		.byte	105
 3720 00fa 14       		.byte	20
 3721 00fb 63       		.byte	99
 3722 00fc 55       		.byte	85
 3723 00fd 21       		.byte	33
 3724 00fe 0C       		.byte	12
 3725 00ff 7D       		.byte	125
 3726              		.section	.rodata.Rcon,"a",%progbits
 3727              		.align	2
 3728              		.set	.LANCHOR0,. + 0
 3729              		.type	Rcon, %object
 3730              		.size	Rcon, 11
 3731              	Rcon:
 3732 0000 8D       		.byte	-115
 3733 0001 01       		.byte	1
 3734 0002 02       		.byte	2
 3735 0003 04       		.byte	4
 3736 0004 08       		.byte	8
 3737 0005 10       		.byte	16
 3738 0006 20       		.byte	32
 3739 0007 40       		.byte	64
 3740 0008 80       		.byte	-128
 3741 0009 1B       		.byte	27
 3742 000a 36       		.byte	54
 3743 000b 00       		.text
 3744              	.Letext0:
 3745              		.file 2 "C:\\Users\\Vergil\\ChibiOS_CC3000_SPI/CC3000HostDriver/data_types.h"
 3746              		.file 3 "C:\\Users\\Vergil\\ChibiOS_CC3000_SPI/CC3000HostDriver/nvmem.h"
 3747              		.section	.debug_info,"",%progbits
 3748              	.Ldebug_info0:
 3749 0000 120A0000 		.4byte	0xa12
 3750 0004 0200     		.2byte	0x2
 3751 0006 00000000 		.4byte	.Ldebug_abbrev0
 3752 000a 04       		.byte	0x4
 3753 000b 01       		.uleb128 0x1
 3754 000c 92000000 		.4byte	.LASF35
 3755 0010 01       		.byte	0x1
ARM GAS  C:\Users\Vergil\AppData\Local\Temp\ccl0Rg49.s 			page 67


 3756 0011 21010000 		.4byte	.LASF36
 3757 0015 20050000 		.4byte	.Ldebug_ranges0+0x520
 3758 0019 00000000 		.4byte	0
 3759 001d 00000000 		.4byte	0
 3760 0021 00000000 		.4byte	.Ldebug_line0
 3761 0025 02       		.uleb128 0x2
 3762 0026 8F010000 		.4byte	.LASF0
 3763 002a 02       		.byte	0x2
 3764 002b 43       		.byte	0x43
 3765 002c 30000000 		.4byte	0x30
 3766 0030 03       		.uleb128 0x3
 3767 0031 01       		.byte	0x1
 3768 0032 06       		.byte	0x6
 3769 0033 D0010000 		.4byte	.LASF2
 3770 0037 02       		.uleb128 0x2
 3771 0038 38000000 		.4byte	.LASF1
 3772 003c 02       		.byte	0x2
 3773 003d 48       		.byte	0x48
 3774 003e 42000000 		.4byte	0x42
 3775 0042 03       		.uleb128 0x3
 3776 0043 01       		.byte	0x1
 3777 0044 08       		.byte	0x8
 3778 0045 3E000000 		.4byte	.LASF3
 3779 0049 03       		.uleb128 0x3
 3780 004a 02       		.byte	0x2
 3781 004b 05       		.byte	0x5
 3782 004c A4010000 		.4byte	.LASF4
 3783 0050 02       		.uleb128 0x2
 3784 0051 83010000 		.4byte	.LASF5
 3785 0055 02       		.byte	0x2
 3786 0056 52       		.byte	0x52
 3787 0057 5B000000 		.4byte	0x5b
 3788 005b 03       		.uleb128 0x3
 3789 005c 02       		.byte	0x2
 3790 005d 07       		.byte	0x7
 3791 005e 76000000 		.4byte	.LASF6
 3792 0062 02       		.uleb128 0x2
 3793 0063 1B010000 		.4byte	.LASF7
 3794 0067 02       		.byte	0x2
 3795 0068 5C       		.byte	0x5c
 3796 0069 6D000000 		.4byte	0x6d
 3797 006d 03       		.uleb128 0x3
 3798 006e 04       		.byte	0x4
 3799 006f 05       		.byte	0x5
 3800 0070 C7010000 		.4byte	.LASF8
 3801 0074 02       		.uleb128 0x2
 3802 0075 94010000 		.4byte	.LASF9
 3803 0079 02       		.byte	0x2
 3804 007a 61       		.byte	0x61
 3805 007b 7F000000 		.4byte	0x7f
 3806 007f 03       		.uleb128 0x3
 3807 0080 04       		.byte	0x4
 3808 0081 07       		.byte	0x7
 3809 0082 58000000 		.4byte	.LASF10
 3810 0086 04       		.uleb128 0x4
 3811 0087 04       		.byte	0x4
 3812 0088 05       		.byte	0x5
ARM GAS  C:\Users\Vergil\AppData\Local\Temp\ccl0Rg49.s 			page 68


 3813 0089 696E7400 		.ascii	"int\000"
 3814 008d 03       		.uleb128 0x3
 3815 008e 01       		.byte	0x1
 3816 008f 08       		.byte	0x8
 3817 0090 8A010000 		.4byte	.LASF11
 3818 0094 03       		.uleb128 0x3
 3819 0095 04       		.byte	0x4
 3820 0096 07       		.byte	0x7
 3821 0097 E7000000 		.4byte	.LASF12
 3822 009b 03       		.uleb128 0x3
 3823 009c 08       		.byte	0x8
 3824 009d 05       		.byte	0x5
 3825 009e 75010000 		.4byte	.LASF13
 3826 00a2 03       		.uleb128 0x3
 3827 00a3 08       		.byte	0x8
 3828 00a4 07       		.byte	0x7
 3829 00a5 FF000000 		.4byte	.LASF14
 3830 00a9 03       		.uleb128 0x3
 3831 00aa 04       		.byte	0x4
 3832 00ab 07       		.byte	0x7
 3833 00ac 60010000 		.4byte	.LASF15
 3834 00b0 05       		.uleb128 0x5
 3835 00b1 04       		.byte	0x4
 3836 00b2 37000000 		.4byte	0x37
 3837 00b6 06       		.uleb128 0x6
 3838 00b7 01       		.byte	0x1
 3839 00b8 69010000 		.4byte	.LASF33
 3840 00bc 01       		.byte	0x1
 3841 00bd 8E       		.byte	0x8e
 3842 00be 01       		.byte	0x1
 3843 00bf 37000000 		.4byte	0x37
 3844 00c3 01       		.byte	0x1
 3845 00c4 D4000000 		.4byte	0xd4
 3846 00c8 07       		.uleb128 0x7
 3847 00c9 1F000000 		.4byte	.LASF37
 3848 00cd 01       		.byte	0x1
 3849 00ce 8E       		.byte	0x8e
 3850 00cf 37000000 		.4byte	0x37
 3851 00d3 00       		.byte	0
 3852 00d4 08       		.uleb128 0x8
 3853 00d5 01       		.byte	0x1
 3854 00d6 15000000 		.4byte	.LASF18
 3855 00da 01       		.byte	0x1
 3856 00db 67       		.byte	0x67
 3857 00dc 01       		.byte	0x1
 3858 00dd 00000000 		.4byte	.LFB0
 3859 00e1 70010000 		.4byte	.LFE0
 3860 00e5 00000000 		.4byte	.LLST0
 3861 00e9 01       		.byte	0x1
 3862 00ea 30010000 		.4byte	0x130
 3863 00ee 09       		.uleb128 0x9
 3864 00ef DC010000 		.4byte	.LASF16
 3865 00f3 01       		.byte	0x1
 3866 00f4 67       		.byte	0x67
 3867 00f5 B0000000 		.4byte	0xb0
 3868 00f9 2D000000 		.4byte	.LLST1
 3869 00fd 0A       		.uleb128 0xa
ARM GAS  C:\Users\Vergil\AppData\Local\Temp\ccl0Rg49.s 			page 69


 3870 00fe 6B657900 		.ascii	"key\000"
 3871 0102 01       		.byte	0x1
 3872 0103 67       		.byte	0x67
 3873 0104 B0000000 		.4byte	0xb0
 3874 0108 4E000000 		.4byte	.LLST2
 3875 010c 0B       		.uleb128 0xb
 3876 010d 696900   		.ascii	"ii\000"
 3877 0110 01       		.byte	0x1
 3878 0111 69       		.byte	0x69
 3879 0112 50000000 		.4byte	0x50
 3880 0116 6F000000 		.4byte	.LLST3
 3881 011a 0C       		.uleb128 0xc
 3882 011b 00000000 		.4byte	.LASF17
 3883 011f 01       		.byte	0x1
 3884 0120 69       		.byte	0x69
 3885 0121 50000000 		.4byte	0x50
 3886 0125 09       		.byte	0x9
 3887 0126 91       		.byte	0x91
 3888 0127 B47F     		.sleb128 -76
 3889 0129 94       		.byte	0x94
 3890 012a 01       		.byte	0x1
 3891 012b 08       		.byte	0x8
 3892 012c FF       		.byte	0xff
 3893 012d 1A       		.byte	0x1a
 3894 012e 9F       		.byte	0x9f
 3895 012f 00       		.byte	0
 3896 0130 0D       		.uleb128 0xd
 3897 0131 B6000000 		.4byte	0xb6
 3898 0135 00000000 		.4byte	.LFB1
 3899 0139 12000000 		.4byte	.LFE1
 3900 013d 02       		.byte	0x2
 3901 013e 7D       		.byte	0x7d
 3902 013f 00       		.sleb128 0
 3903 0140 01       		.byte	0x1
 3904 0141 4F010000 		.4byte	0x14f
 3905 0145 0E       		.uleb128 0xe
 3906 0146 C8000000 		.4byte	0xc8
 3907 014a 4E010000 		.4byte	.LLST4
 3908 014e 00       		.byte	0
 3909 014f 08       		.uleb128 0x8
 3910 0150 01       		.byte	0x1
 3911 0151 89000000 		.4byte	.LASF19
 3912 0155 01       		.byte	0x1
 3913 0156 B0       		.byte	0xb0
 3914 0157 01       		.byte	0x1
 3915 0158 00000000 		.4byte	.LFB2
 3916 015c 3A060000 		.4byte	.LFE2
 3917 0160 70010000 		.4byte	.LLST5
 3918 0164 01       		.byte	0x1
 3919 0165 80030000 		.4byte	0x380
 3920 0169 09       		.uleb128 0x9
 3921 016a 0F000000 		.4byte	.LASF20
 3922 016e 01       		.byte	0x1
 3923 016f B0       		.byte	0xb0
 3924 0170 B0000000 		.4byte	0xb0
 3925 0174 9D010000 		.4byte	.LLST6
 3926 0178 09       		.uleb128 0x9
ARM GAS  C:\Users\Vergil\AppData\Local\Temp\ccl0Rg49.s 			page 70


 3927 0179 DC010000 		.4byte	.LASF16
 3928 017d 01       		.byte	0x1
 3929 017e B0       		.byte	0xb0
 3930 017f B0000000 		.4byte	0xb0
 3931 0183 BB010000 		.4byte	.LLST7
 3932 0187 0F       		.uleb128 0xf
 3933 0188 00000000 		.4byte	.LASF17
 3934 018c 01       		.byte	0x1
 3935 018d B2       		.byte	0xb2
 3936 018e 37000000 		.4byte	0x37
 3937 0192 E5010000 		.4byte	.LLST8
 3938 0196 0F       		.uleb128 0xf
 3939 0197 05000000 		.4byte	.LASF21
 3940 019b 01       		.byte	0x1
 3941 019c B2       		.byte	0xb2
 3942 019d 37000000 		.4byte	0x37
 3943 01a1 59030000 		.4byte	.LLST9
 3944 01a5 0F       		.uleb128 0xf
 3945 01a6 0A000000 		.4byte	.LASF22
 3946 01aa 01       		.byte	0x1
 3947 01ab B2       		.byte	0xb2
 3948 01ac 37000000 		.4byte	0x37
 3949 01b0 24040000 		.4byte	.LLST10
 3950 01b4 0F       		.uleb128 0xf
 3951 01b5 E1000000 		.4byte	.LASF23
 3952 01b9 01       		.byte	0x1
 3953 01ba B2       		.byte	0xb2
 3954 01bb 37000000 		.4byte	0x37
 3955 01bf AE040000 		.4byte	.LLST11
 3956 01c3 10       		.uleb128 0x10
 3957 01c4 B6000000 		.4byte	0xb6
 3958 01c8 6A000000 		.4byte	.LBB98
 3959 01cc 00000000 		.4byte	.Ldebug_ranges0+0
 3960 01d0 01       		.byte	0x1
 3961 01d1 EB       		.byte	0xeb
 3962 01d2 E0010000 		.4byte	0x1e0
 3963 01d6 0E       		.uleb128 0xe
 3964 01d7 C8000000 		.4byte	0xc8
 3965 01db C2040000 		.4byte	.LLST12
 3966 01df 00       		.byte	0
 3967 01e0 10       		.uleb128 0x10
 3968 01e1 B6000000 		.4byte	0xb6
 3969 01e5 28010000 		.4byte	.LBB102
 3970 01e9 20000000 		.4byte	.Ldebug_ranges0+0x20
 3971 01ed 01       		.byte	0x1
 3972 01ee D3       		.byte	0xd3
 3973 01ef FD010000 		.4byte	0x1fd
 3974 01f3 0E       		.uleb128 0xe
 3975 01f4 C8000000 		.4byte	0xc8
 3976 01f8 EF040000 		.4byte	.LLST13
 3977 01fc 00       		.byte	0
 3978 01fd 10       		.uleb128 0x10
 3979 01fe B6000000 		.4byte	0xb6
 3980 0202 F8010000 		.4byte	.LBB108
 3981 0206 40000000 		.4byte	.Ldebug_ranges0+0x40
 3982 020a 01       		.byte	0x1
 3983 020b D4       		.byte	0xd4
ARM GAS  C:\Users\Vergil\AppData\Local\Temp\ccl0Rg49.s 			page 71


 3984 020c 1A020000 		.4byte	0x21a
 3985 0210 0E       		.uleb128 0xe
 3986 0211 C8000000 		.4byte	0xc8
 3987 0215 12050000 		.4byte	.LLST14
 3988 0219 00       		.byte	0
 3989 021a 10       		.uleb128 0x10
 3990 021b B6000000 		.4byte	0xb6
 3991 021f 10020000 		.4byte	.LBB112
 3992 0223 58000000 		.4byte	.Ldebug_ranges0+0x58
 3993 0227 01       		.byte	0x1
 3994 0228 D5       		.byte	0xd5
 3995 0229 37020000 		.4byte	0x237
 3996 022d 0E       		.uleb128 0xe
 3997 022e C8000000 		.4byte	0xc8
 3998 0232 30050000 		.4byte	.LLST15
 3999 0236 00       		.byte	0
 4000 0237 10       		.uleb128 0x10
 4001 0238 B6000000 		.4byte	0xb6
 4002 023c 38020000 		.4byte	.LBB120
 4003 0240 80000000 		.4byte	.Ldebug_ranges0+0x80
 4004 0244 01       		.byte	0x1
 4005 0245 D6       		.byte	0xd6
 4006 0246 54020000 		.4byte	0x254
 4007 024a 0E       		.uleb128 0xe
 4008 024b C8000000 		.4byte	0xc8
 4009 024f 5B050000 		.4byte	.LLST16
 4010 0253 00       		.byte	0
 4011 0254 10       		.uleb128 0x10
 4012 0255 B6000000 		.4byte	0xb6
 4013 0259 70020000 		.4byte	.LBB124
 4014 025d 98000000 		.4byte	.Ldebug_ranges0+0x98
 4015 0261 01       		.byte	0x1
 4016 0262 DA       		.byte	0xda
 4017 0263 71020000 		.4byte	0x271
 4018 0267 0E       		.uleb128 0xe
 4019 0268 C8000000 		.4byte	0xc8
 4020 026c 28060000 		.4byte	.LLST17
 4021 0270 00       		.byte	0
 4022 0271 10       		.uleb128 0x10
 4023 0272 B6000000 		.4byte	0xb6
 4024 0276 90020000 		.4byte	.LBB130
 4025 027a B8000000 		.4byte	.Ldebug_ranges0+0xb8
 4026 027e 01       		.byte	0x1
 4027 027f DB       		.byte	0xdb
 4028 0280 8E020000 		.4byte	0x28e
 4029 0284 0E       		.uleb128 0xe
 4030 0285 C8000000 		.4byte	0xc8
 4031 0289 8E060000 		.4byte	.LLST18
 4032 028d 00       		.byte	0
 4033 028e 10       		.uleb128 0x10
 4034 028f B6000000 		.4byte	0xb6
 4035 0293 AC020000 		.4byte	.LBB134
 4036 0297 D0000000 		.4byte	.Ldebug_ranges0+0xd0
 4037 029b 01       		.byte	0x1
 4038 029c DC       		.byte	0xdc
 4039 029d A7020000 		.4byte	0x2a7
 4040 02a1 11       		.uleb128 0x11
ARM GAS  C:\Users\Vergil\AppData\Local\Temp\ccl0Rg49.s 			page 72


 4041 02a2 C8000000 		.4byte	0xc8
 4042 02a6 00       		.byte	0
 4043 02a7 10       		.uleb128 0x10
 4044 02a8 B6000000 		.4byte	0xb6
 4045 02ac DE020000 		.4byte	.LBB138
 4046 02b0 E8000000 		.4byte	.Ldebug_ranges0+0xe8
 4047 02b4 01       		.byte	0x1
 4048 02b5 DD       		.byte	0xdd
 4049 02b6 C4020000 		.4byte	0x2c4
 4050 02ba 0E       		.uleb128 0xe
 4051 02bb C8000000 		.4byte	0xc8
 4052 02bf AC060000 		.4byte	.LLST19
 4053 02c3 00       		.byte	0
 4054 02c4 10       		.uleb128 0x10
 4055 02c5 B6000000 		.4byte	0xb6
 4056 02c9 EC020000 		.4byte	.LBB143
 4057 02cd 08010000 		.4byte	.Ldebug_ranges0+0x108
 4058 02d1 01       		.byte	0x1
 4059 02d2 E1       		.byte	0xe1
 4060 02d3 DD020000 		.4byte	0x2dd
 4061 02d7 11       		.uleb128 0x11
 4062 02d8 C8000000 		.4byte	0xc8
 4063 02dc 00       		.byte	0
 4064 02dd 10       		.uleb128 0x10
 4065 02de B6000000 		.4byte	0xb6
 4066 02e2 28030000 		.4byte	.LBB152
 4067 02e6 30010000 		.4byte	.Ldebug_ranges0+0x130
 4068 02ea 01       		.byte	0x1
 4069 02eb E2       		.byte	0xe2
 4070 02ec FA020000 		.4byte	0x2fa
 4071 02f0 0E       		.uleb128 0xe
 4072 02f1 C8000000 		.4byte	0xc8
 4073 02f5 17070000 		.4byte	.LLST20
 4074 02f9 00       		.byte	0
 4075 02fa 10       		.uleb128 0x10
 4076 02fb B6000000 		.4byte	0xb6
 4077 02ff 38030000 		.4byte	.LBB157
 4078 0303 50010000 		.4byte	.Ldebug_ranges0+0x150
 4079 0307 01       		.byte	0x1
 4080 0308 E3       		.byte	0xe3
 4081 0309 13030000 		.4byte	0x313
 4082 030d 11       		.uleb128 0x11
 4083 030e C8000000 		.4byte	0xc8
 4084 0312 00       		.byte	0
 4085 0313 10       		.uleb128 0x10
 4086 0314 B6000000 		.4byte	0xb6
 4087 0318 70030000 		.4byte	.LBB166
 4088 031c 78010000 		.4byte	.Ldebug_ranges0+0x178
 4089 0320 01       		.byte	0x1
 4090 0321 E4       		.byte	0xe4
 4091 0322 30030000 		.4byte	0x330
 4092 0326 0E       		.uleb128 0xe
 4093 0327 C8000000 		.4byte	0xc8
 4094 032b 87070000 		.4byte	.LLST21
 4095 032f 00       		.byte	0
 4096 0330 10       		.uleb128 0x10
 4097 0331 B6000000 		.4byte	0xb6
ARM GAS  C:\Users\Vergil\AppData\Local\Temp\ccl0Rg49.s 			page 73


 4098 0335 A2030000 		.4byte	.LBB172
 4099 0339 98010000 		.4byte	.Ldebug_ranges0+0x198
 4100 033d 01       		.byte	0x1
 4101 033e E8       		.byte	0xe8
 4102 033f 4D030000 		.4byte	0x34d
 4103 0343 0E       		.uleb128 0xe
 4104 0344 C8000000 		.4byte	0xc8
 4105 0348 3A080000 		.4byte	.LLST22
 4106 034c 00       		.byte	0
 4107 034d 12       		.uleb128 0x12
 4108 034e B6000000 		.4byte	0xb6
 4109 0352 BC030000 		.4byte	.LBB178
 4110 0356 CC030000 		.4byte	.LBE178
 4111 035a 01       		.byte	0x1
 4112 035b E9       		.byte	0xe9
 4113 035c 6A030000 		.4byte	0x36a
 4114 0360 0E       		.uleb128 0xe
 4115 0361 C8000000 		.4byte	0xc8
 4116 0365 A2080000 		.4byte	.LLST23
 4117 0369 00       		.byte	0
 4118 036a 13       		.uleb128 0x13
 4119 036b B6000000 		.4byte	0xb6
 4120 036f D2030000 		.4byte	.LBB180
 4121 0373 B8010000 		.4byte	.Ldebug_ranges0+0x1b8
 4122 0377 01       		.byte	0x1
 4123 0378 EA       		.byte	0xea
 4124 0379 11       		.uleb128 0x11
 4125 037a C8000000 		.4byte	0xc8
 4126 037e 00       		.byte	0
 4127 037f 00       		.byte	0
 4128 0380 14       		.uleb128 0x14
 4129 0381 01       		.byte	0x1
 4130 0382 9B010000 		.4byte	.LASF24
 4131 0386 01       		.byte	0x1
 4132 0387 2F01     		.2byte	0x12f
 4133 0389 01       		.byte	0x1
 4134 038a 00000000 		.4byte	.LFB3
 4135 038e 6C070000 		.4byte	.LFE3
 4136 0392 26090000 		.4byte	.LLST24
 4137 0396 01       		.byte	0x1
 4138 0397 B0070000 		.4byte	0x7b0
 4139 039b 15       		.uleb128 0x15
 4140 039c 0F000000 		.4byte	.LASF20
 4141 03a0 01       		.byte	0x1
 4142 03a1 2F01     		.2byte	0x12f
 4143 03a3 B0000000 		.4byte	0xb0
 4144 03a7 53090000 		.4byte	.LLST25
 4145 03ab 15       		.uleb128 0x15
 4146 03ac DC010000 		.4byte	.LASF16
 4147 03b0 01       		.byte	0x1
 4148 03b1 2F01     		.2byte	0x12f
 4149 03b3 B0000000 		.4byte	0xb0
 4150 03b7 71090000 		.4byte	.LLST26
 4151 03bb 16       		.uleb128 0x16
 4152 03bc 00000000 		.4byte	.LASF17
 4153 03c0 01       		.byte	0x1
 4154 03c1 3101     		.2byte	0x131
ARM GAS  C:\Users\Vergil\AppData\Local\Temp\ccl0Rg49.s 			page 74


 4155 03c3 37000000 		.4byte	0x37
 4156 03c7 92090000 		.4byte	.LLST27
 4157 03cb 16       		.uleb128 0x16
 4158 03cc 05000000 		.4byte	.LASF21
 4159 03d0 01       		.byte	0x1
 4160 03d1 3101     		.2byte	0x131
 4161 03d3 37000000 		.4byte	0x37
 4162 03d7 1D0B0000 		.4byte	.LLST28
 4163 03db 16       		.uleb128 0x16
 4164 03dc 0A000000 		.4byte	.LASF22
 4165 03e0 01       		.byte	0x1
 4166 03e1 3101     		.2byte	0x131
 4167 03e3 37000000 		.4byte	0x37
 4168 03e7 A30B0000 		.4byte	.LLST29
 4169 03eb 16       		.uleb128 0x16
 4170 03ec E1000000 		.4byte	.LASF23
 4171 03f0 01       		.byte	0x1
 4172 03f1 3201     		.2byte	0x132
 4173 03f3 25000000 		.4byte	0x25
 4174 03f7 BF0C0000 		.4byte	.LLST30
 4175 03fb 17       		.uleb128 0x17
 4176 03fc B6000000 		.4byte	0xb6
 4177 0400 54020000 		.4byte	.LBB186
 4178 0404 D0010000 		.4byte	.Ldebug_ranges0+0x1d0
 4179 0408 01       		.byte	0x1
 4180 0409 7F01     		.2byte	0x17f
 4181 040b 19040000 		.4byte	0x419
 4182 040f 0E       		.uleb128 0xe
 4183 0410 C8000000 		.4byte	0xc8
 4184 0414 DF0C0000 		.4byte	.LLST31
 4185 0418 00       		.byte	0
 4186 0419 17       		.uleb128 0x17
 4187 041a B6000000 		.4byte	0xb6
 4188 041e 70020000 		.4byte	.LBB190
 4189 0422 F0010000 		.4byte	.Ldebug_ranges0+0x1f0
 4190 0426 01       		.byte	0x1
 4191 0427 8001     		.2byte	0x180
 4192 0429 37040000 		.4byte	0x437
 4193 042d 0E       		.uleb128 0xe
 4194 042e C8000000 		.4byte	0xc8
 4195 0432 1D0D0000 		.4byte	.LLST32
 4196 0436 00       		.byte	0
 4197 0437 17       		.uleb128 0x17
 4198 0438 B6000000 		.4byte	0xb6
 4199 043c 90020000 		.4byte	.LBB194
 4200 0440 08020000 		.4byte	.Ldebug_ranges0+0x208
 4201 0444 01       		.byte	0x1
 4202 0445 8401     		.2byte	0x184
 4203 0447 51040000 		.4byte	0x451
 4204 044b 11       		.uleb128 0x11
 4205 044c C8000000 		.4byte	0xc8
 4206 0450 00       		.byte	0
 4207 0451 18       		.uleb128 0x18
 4208 0452 B6000000 		.4byte	0xb6
 4209 0456 B4020000 		.4byte	.LBB198
 4210 045a C4020000 		.4byte	.LBE198
 4211 045e 01       		.byte	0x1
ARM GAS  C:\Users\Vergil\AppData\Local\Temp\ccl0Rg49.s 			page 75


 4212 045f 8501     		.2byte	0x185
 4213 0461 6F040000 		.4byte	0x46f
 4214 0465 0E       		.uleb128 0xe
 4215 0466 C8000000 		.4byte	0xc8
 4216 046a 760D0000 		.4byte	.LLST33
 4217 046e 00       		.byte	0
 4218 046f 17       		.uleb128 0x17
 4219 0470 B6000000 		.4byte	0xb6
 4220 0474 CA020000 		.4byte	.LBB200
 4221 0478 20020000 		.4byte	.Ldebug_ranges0+0x220
 4222 047c 01       		.byte	0x1
 4223 047d 8601     		.2byte	0x186
 4224 047f 8D040000 		.4byte	0x48d
 4225 0483 0E       		.uleb128 0xe
 4226 0484 C8000000 		.4byte	0xc8
 4227 0488 AC0F0000 		.4byte	.LLST34
 4228 048c 00       		.byte	0
 4229 048d 17       		.uleb128 0x17
 4230 048e B6000000 		.4byte	0xb6
 4231 0492 F0020000 		.4byte	.LBB205
 4232 0496 40020000 		.4byte	.Ldebug_ranges0+0x240
 4233 049a 01       		.byte	0x1
 4234 049b 8701     		.2byte	0x187
 4235 049d AB040000 		.4byte	0x4ab
 4236 04a1 0E       		.uleb128 0xe
 4237 04a2 C8000000 		.4byte	0xc8
 4238 04a6 E20F0000 		.4byte	.LLST35
 4239 04aa 00       		.byte	0
 4240 04ab 17       		.uleb128 0x17
 4241 04ac B6000000 		.4byte	0xb6
 4242 04b0 14030000 		.4byte	.LBB209
 4243 04b4 58020000 		.4byte	.Ldebug_ranges0+0x258
 4244 04b8 01       		.byte	0x1
 4245 04b9 8B01     		.2byte	0x18b
 4246 04bb C9040000 		.4byte	0x4c9
 4247 04bf 0E       		.uleb128 0xe
 4248 04c0 C8000000 		.4byte	0xc8
 4249 04c4 4A100000 		.4byte	.LLST36
 4250 04c8 00       		.byte	0
 4251 04c9 17       		.uleb128 0x17
 4252 04ca B6000000 		.4byte	0xb6
 4253 04ce 3C030000 		.4byte	.LBB217
 4254 04d2 80020000 		.4byte	.Ldebug_ranges0+0x280
 4255 04d6 01       		.byte	0x1
 4256 04d7 8C01     		.2byte	0x18c
 4257 04d9 E7040000 		.4byte	0x4e7
 4258 04dd 0E       		.uleb128 0xe
 4259 04de C8000000 		.4byte	0xc8
 4260 04e2 D0100000 		.4byte	.LLST37
 4261 04e6 00       		.byte	0
 4262 04e7 17       		.uleb128 0x17
 4263 04e8 B6000000 		.4byte	0xb6
 4264 04ec 5C030000 		.4byte	.LBB223
 4265 04f0 A0020000 		.4byte	.Ldebug_ranges0+0x2a0
 4266 04f4 01       		.byte	0x1
 4267 04f5 8D01     		.2byte	0x18d
 4268 04f7 05050000 		.4byte	0x505
ARM GAS  C:\Users\Vergil\AppData\Local\Temp\ccl0Rg49.s 			page 76


 4269 04fb 0E       		.uleb128 0xe
 4270 04fc C8000000 		.4byte	0xc8
 4271 0500 56110000 		.4byte	.LLST38
 4272 0504 00       		.byte	0
 4273 0505 17       		.uleb128 0x17
 4274 0506 B6000000 		.4byte	0xb6
 4275 050a 7C030000 		.4byte	.LBB228
 4276 050e C0020000 		.4byte	.Ldebug_ranges0+0x2c0
 4277 0512 01       		.byte	0x1
 4278 0513 8E01     		.2byte	0x18e
 4279 0515 23050000 		.4byte	0x523
 4280 0519 0E       		.uleb128 0xe
 4281 051a C8000000 		.4byte	0xc8
 4282 051e A0110000 		.4byte	.LLST39
 4283 0522 00       		.byte	0
 4284 0523 18       		.uleb128 0x18
 4285 0524 B6000000 		.4byte	0xb6
 4286 0528 E4040000 		.4byte	.LBB232
 4287 052c F4040000 		.4byte	.LBE232
 4288 0530 01       		.byte	0x1
 4289 0531 6301     		.2byte	0x163
 4290 0533 41050000 		.4byte	0x541
 4291 0537 0E       		.uleb128 0xe
 4292 0538 C8000000 		.4byte	0xc8
 4293 053c 0E120000 		.4byte	.LLST40
 4294 0540 00       		.byte	0
 4295 0541 17       		.uleb128 0x17
 4296 0542 B6000000 		.4byte	0xb6
 4297 0546 F4040000 		.4byte	.LBB234
 4298 054a D8020000 		.4byte	.Ldebug_ranges0+0x2d8
 4299 054e 01       		.byte	0x1
 4300 054f 6301     		.2byte	0x163
 4301 0551 5F050000 		.4byte	0x55f
 4302 0555 0E       		.uleb128 0xe
 4303 0556 C8000000 		.4byte	0xc8
 4304 055a 55120000 		.4byte	.LLST41
 4305 055e 00       		.byte	0
 4306 055f 18       		.uleb128 0x18
 4307 0560 B6000000 		.4byte	0xb6
 4308 0564 08050000 		.4byte	.LBB238
 4309 0568 18050000 		.4byte	.LBE238
 4310 056c 01       		.byte	0x1
 4311 056d 6401     		.2byte	0x164
 4312 056f 7D050000 		.4byte	0x57d
 4313 0573 0E       		.uleb128 0xe
 4314 0574 C8000000 		.4byte	0xc8
 4315 0578 B8120000 		.4byte	.LLST42
 4316 057c 00       		.byte	0
 4317 057d 17       		.uleb128 0x17
 4318 057e B6000000 		.4byte	0xb6
 4319 0582 18050000 		.4byte	.LBB240
 4320 0586 F0020000 		.4byte	.Ldebug_ranges0+0x2f0
 4321 058a 01       		.byte	0x1
 4322 058b 6401     		.2byte	0x164
 4323 058d 9B050000 		.4byte	0x59b
 4324 0591 0E       		.uleb128 0xe
 4325 0592 C8000000 		.4byte	0xc8
ARM GAS  C:\Users\Vergil\AppData\Local\Temp\ccl0Rg49.s 			page 77


 4326 0596 FF120000 		.4byte	.LLST43
 4327 059a 00       		.byte	0
 4328 059b 17       		.uleb128 0x17
 4329 059c B6000000 		.4byte	0xb6
 4330 05a0 32050000 		.4byte	.LBB245
 4331 05a4 10030000 		.4byte	.Ldebug_ranges0+0x310
 4332 05a8 01       		.byte	0x1
 4333 05a9 6701     		.2byte	0x167
 4334 05ab B9050000 		.4byte	0x5b9
 4335 05af 0E       		.uleb128 0xe
 4336 05b0 C8000000 		.4byte	0xc8
 4337 05b4 51130000 		.4byte	.LLST44
 4338 05b8 00       		.byte	0
 4339 05b9 17       		.uleb128 0x17
 4340 05ba B6000000 		.4byte	0xb6
 4341 05be 4C050000 		.4byte	.LBB252
 4342 05c2 30030000 		.4byte	.Ldebug_ranges0+0x330
 4343 05c6 01       		.byte	0x1
 4344 05c7 6701     		.2byte	0x167
 4345 05c9 D7050000 		.4byte	0x5d7
 4346 05cd 0E       		.uleb128 0xe
 4347 05ce C8000000 		.4byte	0xc8
 4348 05d2 98130000 		.4byte	.LLST45
 4349 05d6 00       		.byte	0
 4350 05d7 17       		.uleb128 0x17
 4351 05d8 B6000000 		.4byte	0xb6
 4352 05dc 58050000 		.4byte	.LBB258
 4353 05e0 58030000 		.4byte	.Ldebug_ranges0+0x358
 4354 05e4 01       		.byte	0x1
 4355 05e5 6801     		.2byte	0x168
 4356 05e7 F5050000 		.4byte	0x5f5
 4357 05eb 0E       		.uleb128 0xe
 4358 05ec C8000000 		.4byte	0xc8
 4359 05f0 FB130000 		.4byte	.LLST46
 4360 05f4 00       		.byte	0
 4361 05f5 17       		.uleb128 0x17
 4362 05f6 B6000000 		.4byte	0xb6
 4363 05fa 6E050000 		.4byte	.LBB263
 4364 05fe 70030000 		.4byte	.Ldebug_ranges0+0x370
 4365 0602 01       		.byte	0x1
 4366 0603 6801     		.2byte	0x168
 4367 0605 13060000 		.4byte	0x613
 4368 0609 0E       		.uleb128 0xe
 4369 060a C8000000 		.4byte	0xc8
 4370 060e 42140000 		.4byte	.LLST47
 4371 0612 00       		.byte	0
 4372 0613 17       		.uleb128 0x17
 4373 0614 B6000000 		.4byte	0xb6
 4374 0618 8A050000 		.4byte	.LBB270
 4375 061c 90030000 		.4byte	.Ldebug_ranges0+0x390
 4376 0620 01       		.byte	0x1
 4377 0621 6B01     		.2byte	0x16b
 4378 0623 31060000 		.4byte	0x631
 4379 0627 0E       		.uleb128 0xe
 4380 0628 C8000000 		.4byte	0xc8
 4381 062c 94140000 		.4byte	.LLST48
 4382 0630 00       		.byte	0
ARM GAS  C:\Users\Vergil\AppData\Local\Temp\ccl0Rg49.s 			page 78


 4383 0631 17       		.uleb128 0x17
 4384 0632 B6000000 		.4byte	0xb6
 4385 0636 B0050000 		.4byte	.LBB276
 4386 063a B0030000 		.4byte	.Ldebug_ranges0+0x3b0
 4387 063e 01       		.byte	0x1
 4388 063f 6B01     		.2byte	0x16b
 4389 0641 4F060000 		.4byte	0x64f
 4390 0645 0E       		.uleb128 0xe
 4391 0646 C8000000 		.4byte	0xc8
 4392 064a F7140000 		.4byte	.LLST49
 4393 064e 00       		.byte	0
 4394 064f 17       		.uleb128 0x17
 4395 0650 B6000000 		.4byte	0xb6
 4396 0654 B8050000 		.4byte	.LBB280
 4397 0658 D0030000 		.4byte	.Ldebug_ranges0+0x3d0
 4398 065c 01       		.byte	0x1
 4399 065d 6C01     		.2byte	0x16c
 4400 065f 6D060000 		.4byte	0x66d
 4401 0663 0E       		.uleb128 0xe
 4402 0664 C8000000 		.4byte	0xc8
 4403 0668 C9150000 		.4byte	.LLST50
 4404 066c 00       		.byte	0
 4405 066d 18       		.uleb128 0x18
 4406 066e B6000000 		.4byte	0xb6
 4407 0672 D4050000 		.4byte	.LBB286
 4408 0676 E4050000 		.4byte	.LBE286
 4409 067a 01       		.byte	0x1
 4410 067b 6C01     		.2byte	0x16c
 4411 067d 8B060000 		.4byte	0x68b
 4412 0681 0E       		.uleb128 0xe
 4413 0682 C8000000 		.4byte	0xc8
 4414 0686 42160000 		.4byte	.LLST51
 4415 068a 00       		.byte	0
 4416 068b 17       		.uleb128 0x17
 4417 068c B6000000 		.4byte	0xb6
 4418 0690 FE050000 		.4byte	.LBB288
 4419 0694 E8030000 		.4byte	.Ldebug_ranges0+0x3e8
 4420 0698 01       		.byte	0x1
 4421 0699 6F01     		.2byte	0x16f
 4422 069b A9060000 		.4byte	0x6a9
 4423 069f 0E       		.uleb128 0xe
 4424 06a0 C8000000 		.4byte	0xc8
 4425 06a4 F8160000 		.4byte	.LLST52
 4426 06a8 00       		.byte	0
 4427 06a9 17       		.uleb128 0x17
 4428 06aa B6000000 		.4byte	0xb6
 4429 06ae 14060000 		.4byte	.LBB294
 4430 06b2 08040000 		.4byte	.Ldebug_ranges0+0x408
 4431 06b6 01       		.byte	0x1
 4432 06b7 6F01     		.2byte	0x16f
 4433 06b9 C7060000 		.4byte	0x6c7
 4434 06bd 0E       		.uleb128 0xe
 4435 06be C8000000 		.4byte	0xc8
 4436 06c2 5B170000 		.4byte	.LLST53
 4437 06c6 00       		.byte	0
 4438 06c7 17       		.uleb128 0x17
 4439 06c8 B6000000 		.4byte	0xb6
ARM GAS  C:\Users\Vergil\AppData\Local\Temp\ccl0Rg49.s 			page 79


 4440 06cc 1C060000 		.4byte	.LBB298
 4441 06d0 28040000 		.4byte	.Ldebug_ranges0+0x428
 4442 06d4 01       		.byte	0x1
 4443 06d5 7001     		.2byte	0x170
 4444 06d7 E5060000 		.4byte	0x6e5
 4445 06db 0E       		.uleb128 0xe
 4446 06dc C8000000 		.4byte	0xc8
 4447 06e0 06180000 		.4byte	.LLST54
 4448 06e4 00       		.byte	0
 4449 06e5 17       		.uleb128 0x17
 4450 06e6 B6000000 		.4byte	0xb6
 4451 06ea 34060000 		.4byte	.LBB306
 4452 06ee 48040000 		.4byte	.Ldebug_ranges0+0x448
 4453 06f2 01       		.byte	0x1
 4454 06f3 7001     		.2byte	0x170
 4455 06f5 03070000 		.4byte	0x703
 4456 06f9 0E       		.uleb128 0xe
 4457 06fa C8000000 		.4byte	0xc8
 4458 06fe 91180000 		.4byte	.LLST55
 4459 0702 00       		.byte	0
 4460 0703 17       		.uleb128 0x17
 4461 0704 B6000000 		.4byte	0xb6
 4462 0708 64060000 		.4byte	.LBB312
 4463 070c 68040000 		.4byte	.Ldebug_ranges0+0x468
 4464 0710 01       		.byte	0x1
 4465 0711 7601     		.2byte	0x176
 4466 0713 21070000 		.4byte	0x721
 4467 0717 0E       		.uleb128 0xe
 4468 0718 C8000000 		.4byte	0xc8
 4469 071c 36190000 		.4byte	.LLST56
 4470 0720 00       		.byte	0
 4471 0721 17       		.uleb128 0x17
 4472 0722 B6000000 		.4byte	0xb6
 4473 0726 88060000 		.4byte	.LBB320
 4474 072a 90040000 		.4byte	.Ldebug_ranges0+0x490
 4475 072e 01       		.byte	0x1
 4476 072f 7701     		.2byte	0x177
 4477 0731 3F070000 		.4byte	0x73f
 4478 0735 0E       		.uleb128 0xe
 4479 0736 C8000000 		.4byte	0xc8
 4480 073a 72190000 		.4byte	.LLST57
 4481 073e 00       		.byte	0
 4482 073f 17       		.uleb128 0x17
 4483 0740 B6000000 		.4byte	0xb6
 4484 0744 9E060000 		.4byte	.LBB324
 4485 0748 A8040000 		.4byte	.Ldebug_ranges0+0x4a8
 4486 074c 01       		.byte	0x1
 4487 074d 7801     		.2byte	0x178
 4488 074f 59070000 		.4byte	0x759
 4489 0753 11       		.uleb128 0x11
 4490 0754 C8000000 		.4byte	0xc8
 4491 0758 00       		.byte	0
 4492 0759 17       		.uleb128 0x17
 4493 075a B6000000 		.4byte	0xb6
 4494 075e CC060000 		.4byte	.LBB330
 4495 0762 C8040000 		.4byte	.Ldebug_ranges0+0x4c8
 4496 0766 01       		.byte	0x1
ARM GAS  C:\Users\Vergil\AppData\Local\Temp\ccl0Rg49.s 			page 80


 4497 0767 7901     		.2byte	0x179
 4498 0769 77070000 		.4byte	0x777
 4499 076d 0E       		.uleb128 0xe
 4500 076e C8000000 		.4byte	0xc8
 4501 0772 90190000 		.4byte	.LLST58
 4502 0776 00       		.byte	0
 4503 0777 17       		.uleb128 0x17
 4504 0778 B6000000 		.4byte	0xb6
 4505 077c F6060000 		.4byte	.LBB334
 4506 0780 E0040000 		.4byte	.Ldebug_ranges0+0x4e0
 4507 0784 01       		.byte	0x1
 4508 0785 7D01     		.2byte	0x17d
 4509 0787 95070000 		.4byte	0x795
 4510 078b 0E       		.uleb128 0xe
 4511 078c C8000000 		.4byte	0xc8
 4512 0790 CC190000 		.4byte	.LLST59
 4513 0794 00       		.byte	0
 4514 0795 19       		.uleb128 0x19
 4515 0796 B6000000 		.4byte	0xb6
 4516 079a 1A070000 		.4byte	.LBB342
 4517 079e 08050000 		.4byte	.Ldebug_ranges0+0x508
 4518 07a2 01       		.byte	0x1
 4519 07a3 7E01     		.2byte	0x17e
 4520 07a5 0E       		.uleb128 0xe
 4521 07a6 C8000000 		.4byte	0xc8
 4522 07aa 2B1A0000 		.4byte	.LLST60
 4523 07ae 00       		.byte	0
 4524 07af 00       		.byte	0
 4525 07b0 14       		.uleb128 0x14
 4526 07b1 01       		.byte	0x1
 4527 07b2 AE010000 		.4byte	.LASF25
 4528 07b6 01       		.byte	0x1
 4529 07b7 BE01     		.2byte	0x1be
 4530 07b9 01       		.byte	0x1
 4531 07ba 00000000 		.4byte	.LFB4
 4532 07be 1E000000 		.4byte	.LFE4
 4533 07c2 671A0000 		.4byte	.LLST61
 4534 07c6 01       		.byte	0x1
 4535 07c7 1E080000 		.4byte	0x81e
 4536 07cb 15       		.uleb128 0x15
 4537 07cc 0F000000 		.4byte	.LASF20
 4538 07d0 01       		.byte	0x1
 4539 07d1 BE01     		.2byte	0x1be
 4540 07d3 B0000000 		.4byte	0xb0
 4541 07d7 871A0000 		.4byte	.LLST62
 4542 07db 1A       		.uleb128 0x1a
 4543 07dc 6B657900 		.ascii	"key\000"
 4544 07e0 01       		.byte	0x1
 4545 07e1 BE01     		.2byte	0x1be
 4546 07e3 B0000000 		.4byte	0xb0
 4547 07e7 A51A0000 		.4byte	.LLST63
 4548 07eb 1B       		.uleb128 0x1b
 4549 07ec 12000000 		.4byte	.LVL238
 4550 07f0 D4000000 		.4byte	0xd4
 4551 07f4 06080000 		.4byte	0x806
 4552 07f8 1C       		.uleb128 0x1c
 4553 07f9 01       		.byte	0x1
ARM GAS  C:\Users\Vergil\AppData\Local\Temp\ccl0Rg49.s 			page 81


 4554 07fa 51       		.byte	0x51
 4555 07fb 03       		.byte	0x3
 4556 07fc F3       		.byte	0xf3
 4557 07fd 01       		.uleb128 0x1
 4558 07fe 51       		.byte	0x51
 4559 07ff 1C       		.uleb128 0x1c
 4560 0800 01       		.byte	0x1
 4561 0801 50       		.byte	0x50
 4562 0802 02       		.byte	0x2
 4563 0803 74       		.byte	0x74
 4564 0804 00       		.sleb128 0
 4565 0805 00       		.byte	0
 4566 0806 1D       		.uleb128 0x1d
 4567 0807 1E000000 		.4byte	.LVL239
 4568 080b 01       		.byte	0x1
 4569 080c 4F010000 		.4byte	0x14f
 4570 0810 1C       		.uleb128 0x1c
 4571 0811 01       		.byte	0x1
 4572 0812 51       		.byte	0x51
 4573 0813 02       		.byte	0x2
 4574 0814 74       		.byte	0x74
 4575 0815 00       		.sleb128 0
 4576 0816 1C       		.uleb128 0x1c
 4577 0817 01       		.byte	0x1
 4578 0818 50       		.byte	0x50
 4579 0819 02       		.byte	0x2
 4580 081a 75       		.byte	0x75
 4581 081b 00       		.sleb128 0
 4582 081c 00       		.byte	0
 4583 081d 00       		.byte	0
 4584 081e 14       		.uleb128 0x14
 4585 081f 01       		.byte	0x1
 4586 0820 E8010000 		.4byte	.LASF26
 4587 0824 01       		.byte	0x1
 4588 0825 D601     		.2byte	0x1d6
 4589 0827 01       		.byte	0x1
 4590 0828 00000000 		.4byte	.LFB5
 4591 082c 1E000000 		.4byte	.LFE5
 4592 0830 C61A0000 		.4byte	.LLST64
 4593 0834 01       		.byte	0x1
 4594 0835 8C080000 		.4byte	0x88c
 4595 0839 15       		.uleb128 0x15
 4596 083a 0F000000 		.4byte	.LASF20
 4597 083e 01       		.byte	0x1
 4598 083f D601     		.2byte	0x1d6
 4599 0841 B0000000 		.4byte	0xb0
 4600 0845 E61A0000 		.4byte	.LLST65
 4601 0849 1A       		.uleb128 0x1a
 4602 084a 6B657900 		.ascii	"key\000"
 4603 084e 01       		.byte	0x1
 4604 084f D601     		.2byte	0x1d6
 4605 0851 B0000000 		.4byte	0xb0
 4606 0855 041B0000 		.4byte	.LLST66
 4607 0859 1B       		.uleb128 0x1b
 4608 085a 12000000 		.4byte	.LVL242
 4609 085e D4000000 		.4byte	0xd4
 4610 0862 74080000 		.4byte	0x874
ARM GAS  C:\Users\Vergil\AppData\Local\Temp\ccl0Rg49.s 			page 82


 4611 0866 1C       		.uleb128 0x1c
 4612 0867 01       		.byte	0x1
 4613 0868 51       		.byte	0x51
 4614 0869 03       		.byte	0x3
 4615 086a F3       		.byte	0xf3
 4616 086b 01       		.uleb128 0x1
 4617 086c 51       		.byte	0x51
 4618 086d 1C       		.uleb128 0x1c
 4619 086e 01       		.byte	0x1
 4620 086f 50       		.byte	0x50
 4621 0870 02       		.byte	0x2
 4622 0871 74       		.byte	0x74
 4623 0872 00       		.sleb128 0
 4624 0873 00       		.byte	0
 4625 0874 1D       		.uleb128 0x1d
 4626 0875 1E000000 		.4byte	.LVL243
 4627 0879 01       		.byte	0x1
 4628 087a 80030000 		.4byte	0x380
 4629 087e 1C       		.uleb128 0x1c
 4630 087f 01       		.byte	0x1
 4631 0880 51       		.byte	0x51
 4632 0881 02       		.byte	0x2
 4633 0882 74       		.byte	0x74
 4634 0883 00       		.sleb128 0
 4635 0884 1C       		.uleb128 0x1c
 4636 0885 01       		.byte	0x1
 4637 0886 50       		.byte	0x50
 4638 0887 02       		.byte	0x2
 4639 0888 75       		.byte	0x75
 4640 0889 00       		.sleb128 0
 4641 088a 00       		.byte	0
 4642 088b 00       		.byte	0
 4643 088c 1E       		.uleb128 0x1e
 4644 088d 01       		.byte	0x1
 4645 088e BA010000 		.4byte	.LASF27
 4646 0892 01       		.byte	0x1
 4647 0893 EB01     		.2byte	0x1eb
 4648 0895 01       		.byte	0x1
 4649 0896 62000000 		.4byte	0x62
 4650 089a 00000000 		.4byte	.LFB6
 4651 089e 0C000000 		.4byte	.LFE6
 4652 08a2 02       		.byte	0x2
 4653 08a3 7D       		.byte	0x7d
 4654 08a4 00       		.sleb128 0
 4655 08a5 01       		.byte	0x1
 4656 08a6 E8080000 		.4byte	0x8e8
 4657 08aa 1A       		.uleb128 0x1a
 4658 08ab 6B657900 		.ascii	"key\000"
 4659 08af 01       		.byte	0x1
 4660 08b0 EB01     		.2byte	0x1eb
 4661 08b2 B0000000 		.4byte	0xb0
 4662 08b6 251B0000 		.4byte	.LLST67
 4663 08ba 1F       		.uleb128 0x1f
 4664 08bb 4C000000 		.4byte	.LASF29
 4665 08bf 01       		.byte	0x1
 4666 08c0 ED01     		.2byte	0x1ed
 4667 08c2 62000000 		.4byte	0x62
ARM GAS  C:\Users\Vergil\AppData\Local\Temp\ccl0Rg49.s 			page 83


 4668 08c6 1D       		.uleb128 0x1d
 4669 08c7 0C000000 		.4byte	.LVL246
 4670 08cb 01       		.byte	0x1
 4671 08cc CB090000 		.4byte	0x9cb
 4672 08d0 1C       		.uleb128 0x1c
 4673 08d1 01       		.byte	0x1
 4674 08d2 53       		.byte	0x53
 4675 08d3 03       		.byte	0x3
 4676 08d4 F3       		.byte	0xf3
 4677 08d5 01       		.uleb128 0x1
 4678 08d6 50       		.byte	0x50
 4679 08d7 1C       		.uleb128 0x1c
 4680 08d8 01       		.byte	0x1
 4681 08d9 52       		.byte	0x52
 4682 08da 01       		.byte	0x1
 4683 08db 30       		.byte	0x30
 4684 08dc 1C       		.uleb128 0x1c
 4685 08dd 01       		.byte	0x1
 4686 08de 51       		.byte	0x51
 4687 08df 01       		.byte	0x1
 4688 08e0 40       		.byte	0x40
 4689 08e1 1C       		.uleb128 0x1c
 4690 08e2 01       		.byte	0x1
 4691 08e3 50       		.byte	0x50
 4692 08e4 01       		.byte	0x1
 4693 08e5 3C       		.byte	0x3c
 4694 08e6 00       		.byte	0
 4695 08e7 00       		.byte	0
 4696 08e8 1E       		.uleb128 0x1e
 4697 08e9 01       		.byte	0x1
 4698 08ea 25000000 		.4byte	.LASF28
 4699 08ee 01       		.byte	0x1
 4700 08ef 0202     		.2byte	0x202
 4701 08f1 01       		.byte	0x1
 4702 08f2 62000000 		.4byte	0x62
 4703 08f6 00000000 		.4byte	.LFB7
 4704 08fa 0C000000 		.4byte	.LFE7
 4705 08fe 02       		.byte	0x2
 4706 08ff 7D       		.byte	0x7d
 4707 0900 00       		.sleb128 0
 4708 0901 01       		.byte	0x1
 4709 0902 44090000 		.4byte	0x944
 4710 0906 1A       		.uleb128 0x1a
 4711 0907 6B657900 		.ascii	"key\000"
 4712 090b 01       		.byte	0x1
 4713 090c 0202     		.2byte	0x202
 4714 090e B0000000 		.4byte	0xb0
 4715 0912 511B0000 		.4byte	.LLST68
 4716 0916 1F       		.uleb128 0x1f
 4717 0917 4C000000 		.4byte	.LASF29
 4718 091b 01       		.byte	0x1
 4719 091c 0402     		.2byte	0x204
 4720 091e 62000000 		.4byte	0x62
 4721 0922 1D       		.uleb128 0x1d
 4722 0923 0C000000 		.4byte	.LVL249
 4723 0927 01       		.byte	0x1
 4724 0928 F2090000 		.4byte	0x9f2
ARM GAS  C:\Users\Vergil\AppData\Local\Temp\ccl0Rg49.s 			page 84


 4725 092c 1C       		.uleb128 0x1c
 4726 092d 01       		.byte	0x1
 4727 092e 53       		.byte	0x53
 4728 092f 03       		.byte	0x3
 4729 0930 F3       		.byte	0xf3
 4730 0931 01       		.uleb128 0x1
 4731 0932 50       		.byte	0x50
 4732 0933 1C       		.uleb128 0x1c
 4733 0934 01       		.byte	0x1
 4734 0935 52       		.byte	0x52
 4735 0936 01       		.byte	0x1
 4736 0937 30       		.byte	0x30
 4737 0938 1C       		.uleb128 0x1c
 4738 0939 01       		.byte	0x1
 4739 093a 51       		.byte	0x51
 4740 093b 01       		.byte	0x1
 4741 093c 40       		.byte	0x40
 4742 093d 1C       		.uleb128 0x1c
 4743 093e 01       		.byte	0x1
 4744 093f 50       		.byte	0x50
 4745 0940 01       		.byte	0x1
 4746 0941 3C       		.byte	0x3c
 4747 0942 00       		.byte	0
 4748 0943 00       		.byte	0
 4749 0944 20       		.uleb128 0x20
 4750 0945 37000000 		.4byte	0x37
 4751 0949 54090000 		.4byte	0x954
 4752 094d 21       		.uleb128 0x21
 4753 094e A9000000 		.4byte	0xa9
 4754 0952 FF       		.byte	0xff
 4755 0953 00       		.byte	0
 4756 0954 22       		.uleb128 0x22
 4757 0955 33000000 		.4byte	.LASF30
 4758 0959 01       		.byte	0x1
 4759 095a 2F       		.byte	0x2f
 4760 095b 66090000 		.4byte	0x966
 4761 095f 01       		.byte	0x1
 4762 0960 05       		.byte	0x5
 4763 0961 03       		.byte	0x3
 4764 0962 00000000 		.4byte	sbox
 4765 0966 23       		.uleb128 0x23
 4766 0967 44090000 		.4byte	0x944
 4767 096b 22       		.uleb128 0x22
 4768 096c DB000000 		.4byte	.LASF31
 4769 0970 01       		.byte	0x1
 4770 0971 42       		.byte	0x42
 4771 0972 7D090000 		.4byte	0x97d
 4772 0976 01       		.byte	0x1
 4773 0977 05       		.byte	0x5
 4774 0978 03       		.byte	0x3
 4775 0979 00000000 		.4byte	rsbox
 4776 097d 23       		.uleb128 0x23
 4777 097e 44090000 		.4byte	0x944
 4778 0982 20       		.uleb128 0x20
 4779 0983 37000000 		.4byte	0x37
 4780 0987 92090000 		.4byte	0x992
 4781 098b 21       		.uleb128 0x21
ARM GAS  C:\Users\Vergil\AppData\Local\Temp\ccl0Rg49.s 			page 85


 4782 098c A9000000 		.4byte	0xa9
 4783 0990 0A       		.byte	0xa
 4784 0991 00       		.byte	0
 4785 0992 22       		.uleb128 0x22
 4786 0993 16010000 		.4byte	.LASF32
 4787 0997 01       		.byte	0x1
 4788 0998 54       		.byte	0x54
 4789 0999 A4090000 		.4byte	0x9a4
 4790 099d 01       		.byte	0x1
 4791 099e 05       		.byte	0x5
 4792 099f 03       		.byte	0x3
 4793 09a0 00000000 		.4byte	Rcon
 4794 09a4 23       		.uleb128 0x23
 4795 09a5 82090000 		.4byte	0x982
 4796 09a9 20       		.uleb128 0x20
 4797 09aa 37000000 		.4byte	0x37
 4798 09ae B9090000 		.4byte	0x9b9
 4799 09b2 21       		.uleb128 0x21
 4800 09b3 A9000000 		.4byte	0xa9
 4801 09b7 AF       		.byte	0xaf
 4802 09b8 00       		.byte	0
 4803 09b9 22       		.uleb128 0x22
 4804 09ba DC010000 		.4byte	.LASF16
 4805 09be 01       		.byte	0x1
 4806 09bf 58       		.byte	0x58
 4807 09c0 A9090000 		.4byte	0x9a9
 4808 09c4 01       		.byte	0x1
 4809 09c5 05       		.byte	0x5
 4810 09c6 03       		.byte	0x3
 4811 09c7 00000000 		.4byte	expandedKey
 4812 09cb 24       		.uleb128 0x24
 4813 09cc 01       		.byte	0x1
 4814 09cd F4000000 		.4byte	.LASF34
 4815 09d1 03       		.byte	0x3
 4816 09d2 6E       		.byte	0x6e
 4817 09d3 01       		.byte	0x1
 4818 09d4 62000000 		.4byte	0x62
 4819 09d8 01       		.byte	0x1
 4820 09d9 F2090000 		.4byte	0x9f2
 4821 09dd 25       		.uleb128 0x25
 4822 09de 74000000 		.4byte	0x74
 4823 09e2 25       		.uleb128 0x25
 4824 09e3 74000000 		.4byte	0x74
 4825 09e7 25       		.uleb128 0x25
 4826 09e8 74000000 		.4byte	0x74
 4827 09ec 25       		.uleb128 0x25
 4828 09ed B0000000 		.4byte	0xb0
 4829 09f1 00       		.byte	0
 4830 09f2 26       		.uleb128 0x26
 4831 09f3 01       		.byte	0x1
 4832 09f4 6A000000 		.4byte	.LASF38
 4833 09f8 03       		.byte	0x3
 4834 09f9 86       		.byte	0x86
 4835 09fa 01       		.byte	0x1
 4836 09fb 62000000 		.4byte	0x62
 4837 09ff 01       		.byte	0x1
 4838 0a00 25       		.uleb128 0x25
ARM GAS  C:\Users\Vergil\AppData\Local\Temp\ccl0Rg49.s 			page 86


 4839 0a01 74000000 		.4byte	0x74
 4840 0a05 25       		.uleb128 0x25
 4841 0a06 74000000 		.4byte	0x74
 4842 0a0a 25       		.uleb128 0x25
 4843 0a0b 74000000 		.4byte	0x74
 4844 0a0f 25       		.uleb128 0x25
 4845 0a10 B0000000 		.4byte	0xb0
 4846 0a14 00       		.byte	0
 4847 0a15 00       		.byte	0
 4848              		.section	.debug_abbrev,"",%progbits
 4849              	.Ldebug_abbrev0:
 4850 0000 01       		.uleb128 0x1
 4851 0001 11       		.uleb128 0x11
 4852 0002 01       		.byte	0x1
 4853 0003 25       		.uleb128 0x25
 4854 0004 0E       		.uleb128 0xe
 4855 0005 13       		.uleb128 0x13
 4856 0006 0B       		.uleb128 0xb
 4857 0007 03       		.uleb128 0x3
 4858 0008 0E       		.uleb128 0xe
 4859 0009 55       		.uleb128 0x55
 4860 000a 06       		.uleb128 0x6
 4861 000b 11       		.uleb128 0x11
 4862 000c 01       		.uleb128 0x1
 4863 000d 52       		.uleb128 0x52
 4864 000e 01       		.uleb128 0x1
 4865 000f 10       		.uleb128 0x10
 4866 0010 06       		.uleb128 0x6
 4867 0011 00       		.byte	0
 4868 0012 00       		.byte	0
 4869 0013 02       		.uleb128 0x2
 4870 0014 16       		.uleb128 0x16
 4871 0015 00       		.byte	0
 4872 0016 03       		.uleb128 0x3
 4873 0017 0E       		.uleb128 0xe
 4874 0018 3A       		.uleb128 0x3a
 4875 0019 0B       		.uleb128 0xb
 4876 001a 3B       		.uleb128 0x3b
 4877 001b 0B       		.uleb128 0xb
 4878 001c 49       		.uleb128 0x49
 4879 001d 13       		.uleb128 0x13
 4880 001e 00       		.byte	0
 4881 001f 00       		.byte	0
 4882 0020 03       		.uleb128 0x3
 4883 0021 24       		.uleb128 0x24
 4884 0022 00       		.byte	0
 4885 0023 0B       		.uleb128 0xb
 4886 0024 0B       		.uleb128 0xb
 4887 0025 3E       		.uleb128 0x3e
 4888 0026 0B       		.uleb128 0xb
 4889 0027 03       		.uleb128 0x3
 4890 0028 0E       		.uleb128 0xe
 4891 0029 00       		.byte	0
 4892 002a 00       		.byte	0
 4893 002b 04       		.uleb128 0x4
 4894 002c 24       		.uleb128 0x24
 4895 002d 00       		.byte	0
ARM GAS  C:\Users\Vergil\AppData\Local\Temp\ccl0Rg49.s 			page 87


 4896 002e 0B       		.uleb128 0xb
 4897 002f 0B       		.uleb128 0xb
 4898 0030 3E       		.uleb128 0x3e
 4899 0031 0B       		.uleb128 0xb
 4900 0032 03       		.uleb128 0x3
 4901 0033 08       		.uleb128 0x8
 4902 0034 00       		.byte	0
 4903 0035 00       		.byte	0
 4904 0036 05       		.uleb128 0x5
 4905 0037 0F       		.uleb128 0xf
 4906 0038 00       		.byte	0
 4907 0039 0B       		.uleb128 0xb
 4908 003a 0B       		.uleb128 0xb
 4909 003b 49       		.uleb128 0x49
 4910 003c 13       		.uleb128 0x13
 4911 003d 00       		.byte	0
 4912 003e 00       		.byte	0
 4913 003f 06       		.uleb128 0x6
 4914 0040 2E       		.uleb128 0x2e
 4915 0041 01       		.byte	0x1
 4916 0042 3F       		.uleb128 0x3f
 4917 0043 0C       		.uleb128 0xc
 4918 0044 03       		.uleb128 0x3
 4919 0045 0E       		.uleb128 0xe
 4920 0046 3A       		.uleb128 0x3a
 4921 0047 0B       		.uleb128 0xb
 4922 0048 3B       		.uleb128 0x3b
 4923 0049 0B       		.uleb128 0xb
 4924 004a 27       		.uleb128 0x27
 4925 004b 0C       		.uleb128 0xc
 4926 004c 49       		.uleb128 0x49
 4927 004d 13       		.uleb128 0x13
 4928 004e 20       		.uleb128 0x20
 4929 004f 0B       		.uleb128 0xb
 4930 0050 01       		.uleb128 0x1
 4931 0051 13       		.uleb128 0x13
 4932 0052 00       		.byte	0
 4933 0053 00       		.byte	0
 4934 0054 07       		.uleb128 0x7
 4935 0055 05       		.uleb128 0x5
 4936 0056 00       		.byte	0
 4937 0057 03       		.uleb128 0x3
 4938 0058 0E       		.uleb128 0xe
 4939 0059 3A       		.uleb128 0x3a
 4940 005a 0B       		.uleb128 0xb
 4941 005b 3B       		.uleb128 0x3b
 4942 005c 0B       		.uleb128 0xb
 4943 005d 49       		.uleb128 0x49
 4944 005e 13       		.uleb128 0x13
 4945 005f 00       		.byte	0
 4946 0060 00       		.byte	0
 4947 0061 08       		.uleb128 0x8
 4948 0062 2E       		.uleb128 0x2e
 4949 0063 01       		.byte	0x1
 4950 0064 3F       		.uleb128 0x3f
 4951 0065 0C       		.uleb128 0xc
 4952 0066 03       		.uleb128 0x3
ARM GAS  C:\Users\Vergil\AppData\Local\Temp\ccl0Rg49.s 			page 88


 4953 0067 0E       		.uleb128 0xe
 4954 0068 3A       		.uleb128 0x3a
 4955 0069 0B       		.uleb128 0xb
 4956 006a 3B       		.uleb128 0x3b
 4957 006b 0B       		.uleb128 0xb
 4958 006c 27       		.uleb128 0x27
 4959 006d 0C       		.uleb128 0xc
 4960 006e 11       		.uleb128 0x11
 4961 006f 01       		.uleb128 0x1
 4962 0070 12       		.uleb128 0x12
 4963 0071 01       		.uleb128 0x1
 4964 0072 40       		.uleb128 0x40
 4965 0073 06       		.uleb128 0x6
 4966 0074 9742     		.uleb128 0x2117
 4967 0076 0C       		.uleb128 0xc
 4968 0077 01       		.uleb128 0x1
 4969 0078 13       		.uleb128 0x13
 4970 0079 00       		.byte	0
 4971 007a 00       		.byte	0
 4972 007b 09       		.uleb128 0x9
 4973 007c 05       		.uleb128 0x5
 4974 007d 00       		.byte	0
 4975 007e 03       		.uleb128 0x3
 4976 007f 0E       		.uleb128 0xe
 4977 0080 3A       		.uleb128 0x3a
 4978 0081 0B       		.uleb128 0xb
 4979 0082 3B       		.uleb128 0x3b
 4980 0083 0B       		.uleb128 0xb
 4981 0084 49       		.uleb128 0x49
 4982 0085 13       		.uleb128 0x13
 4983 0086 02       		.uleb128 0x2
 4984 0087 06       		.uleb128 0x6
 4985 0088 00       		.byte	0
 4986 0089 00       		.byte	0
 4987 008a 0A       		.uleb128 0xa
 4988 008b 05       		.uleb128 0x5
 4989 008c 00       		.byte	0
 4990 008d 03       		.uleb128 0x3
 4991 008e 08       		.uleb128 0x8
 4992 008f 3A       		.uleb128 0x3a
 4993 0090 0B       		.uleb128 0xb
 4994 0091 3B       		.uleb128 0x3b
 4995 0092 0B       		.uleb128 0xb
 4996 0093 49       		.uleb128 0x49
 4997 0094 13       		.uleb128 0x13
 4998 0095 02       		.uleb128 0x2
 4999 0096 06       		.uleb128 0x6
 5000 0097 00       		.byte	0
 5001 0098 00       		.byte	0
 5002 0099 0B       		.uleb128 0xb
 5003 009a 34       		.uleb128 0x34
 5004 009b 00       		.byte	0
 5005 009c 03       		.uleb128 0x3
 5006 009d 08       		.uleb128 0x8
 5007 009e 3A       		.uleb128 0x3a
 5008 009f 0B       		.uleb128 0xb
 5009 00a0 3B       		.uleb128 0x3b
ARM GAS  C:\Users\Vergil\AppData\Local\Temp\ccl0Rg49.s 			page 89


 5010 00a1 0B       		.uleb128 0xb
 5011 00a2 49       		.uleb128 0x49
 5012 00a3 13       		.uleb128 0x13
 5013 00a4 02       		.uleb128 0x2
 5014 00a5 06       		.uleb128 0x6
 5015 00a6 00       		.byte	0
 5016 00a7 00       		.byte	0
 5017 00a8 0C       		.uleb128 0xc
 5018 00a9 34       		.uleb128 0x34
 5019 00aa 00       		.byte	0
 5020 00ab 03       		.uleb128 0x3
 5021 00ac 0E       		.uleb128 0xe
 5022 00ad 3A       		.uleb128 0x3a
 5023 00ae 0B       		.uleb128 0xb
 5024 00af 3B       		.uleb128 0x3b
 5025 00b0 0B       		.uleb128 0xb
 5026 00b1 49       		.uleb128 0x49
 5027 00b2 13       		.uleb128 0x13
 5028 00b3 02       		.uleb128 0x2
 5029 00b4 0A       		.uleb128 0xa
 5030 00b5 00       		.byte	0
 5031 00b6 00       		.byte	0
 5032 00b7 0D       		.uleb128 0xd
 5033 00b8 2E       		.uleb128 0x2e
 5034 00b9 01       		.byte	0x1
 5035 00ba 31       		.uleb128 0x31
 5036 00bb 13       		.uleb128 0x13
 5037 00bc 11       		.uleb128 0x11
 5038 00bd 01       		.uleb128 0x1
 5039 00be 12       		.uleb128 0x12
 5040 00bf 01       		.uleb128 0x1
 5041 00c0 40       		.uleb128 0x40
 5042 00c1 0A       		.uleb128 0xa
 5043 00c2 9742     		.uleb128 0x2117
 5044 00c4 0C       		.uleb128 0xc
 5045 00c5 01       		.uleb128 0x1
 5046 00c6 13       		.uleb128 0x13
 5047 00c7 00       		.byte	0
 5048 00c8 00       		.byte	0
 5049 00c9 0E       		.uleb128 0xe
 5050 00ca 05       		.uleb128 0x5
 5051 00cb 00       		.byte	0
 5052 00cc 31       		.uleb128 0x31
 5053 00cd 13       		.uleb128 0x13
 5054 00ce 02       		.uleb128 0x2
 5055 00cf 06       		.uleb128 0x6
 5056 00d0 00       		.byte	0
 5057 00d1 00       		.byte	0
 5058 00d2 0F       		.uleb128 0xf
 5059 00d3 34       		.uleb128 0x34
 5060 00d4 00       		.byte	0
 5061 00d5 03       		.uleb128 0x3
 5062 00d6 0E       		.uleb128 0xe
 5063 00d7 3A       		.uleb128 0x3a
 5064 00d8 0B       		.uleb128 0xb
 5065 00d9 3B       		.uleb128 0x3b
 5066 00da 0B       		.uleb128 0xb
ARM GAS  C:\Users\Vergil\AppData\Local\Temp\ccl0Rg49.s 			page 90


 5067 00db 49       		.uleb128 0x49
 5068 00dc 13       		.uleb128 0x13
 5069 00dd 02       		.uleb128 0x2
 5070 00de 06       		.uleb128 0x6
 5071 00df 00       		.byte	0
 5072 00e0 00       		.byte	0
 5073 00e1 10       		.uleb128 0x10
 5074 00e2 1D       		.uleb128 0x1d
 5075 00e3 01       		.byte	0x1
 5076 00e4 31       		.uleb128 0x31
 5077 00e5 13       		.uleb128 0x13
 5078 00e6 52       		.uleb128 0x52
 5079 00e7 01       		.uleb128 0x1
 5080 00e8 55       		.uleb128 0x55
 5081 00e9 06       		.uleb128 0x6
 5082 00ea 58       		.uleb128 0x58
 5083 00eb 0B       		.uleb128 0xb
 5084 00ec 59       		.uleb128 0x59
 5085 00ed 0B       		.uleb128 0xb
 5086 00ee 01       		.uleb128 0x1
 5087 00ef 13       		.uleb128 0x13
 5088 00f0 00       		.byte	0
 5089 00f1 00       		.byte	0
 5090 00f2 11       		.uleb128 0x11
 5091 00f3 05       		.uleb128 0x5
 5092 00f4 00       		.byte	0
 5093 00f5 31       		.uleb128 0x31
 5094 00f6 13       		.uleb128 0x13
 5095 00f7 00       		.byte	0
 5096 00f8 00       		.byte	0
 5097 00f9 12       		.uleb128 0x12
 5098 00fa 1D       		.uleb128 0x1d
 5099 00fb 01       		.byte	0x1
 5100 00fc 31       		.uleb128 0x31
 5101 00fd 13       		.uleb128 0x13
 5102 00fe 11       		.uleb128 0x11
 5103 00ff 01       		.uleb128 0x1
 5104 0100 12       		.uleb128 0x12
 5105 0101 01       		.uleb128 0x1
 5106 0102 58       		.uleb128 0x58
 5107 0103 0B       		.uleb128 0xb
 5108 0104 59       		.uleb128 0x59
 5109 0105 0B       		.uleb128 0xb
 5110 0106 01       		.uleb128 0x1
 5111 0107 13       		.uleb128 0x13
 5112 0108 00       		.byte	0
 5113 0109 00       		.byte	0
 5114 010a 13       		.uleb128 0x13
 5115 010b 1D       		.uleb128 0x1d
 5116 010c 01       		.byte	0x1
 5117 010d 31       		.uleb128 0x31
 5118 010e 13       		.uleb128 0x13
 5119 010f 52       		.uleb128 0x52
 5120 0110 01       		.uleb128 0x1
 5121 0111 55       		.uleb128 0x55
 5122 0112 06       		.uleb128 0x6
 5123 0113 58       		.uleb128 0x58
ARM GAS  C:\Users\Vergil\AppData\Local\Temp\ccl0Rg49.s 			page 91


 5124 0114 0B       		.uleb128 0xb
 5125 0115 59       		.uleb128 0x59
 5126 0116 0B       		.uleb128 0xb
 5127 0117 00       		.byte	0
 5128 0118 00       		.byte	0
 5129 0119 14       		.uleb128 0x14
 5130 011a 2E       		.uleb128 0x2e
 5131 011b 01       		.byte	0x1
 5132 011c 3F       		.uleb128 0x3f
 5133 011d 0C       		.uleb128 0xc
 5134 011e 03       		.uleb128 0x3
 5135 011f 0E       		.uleb128 0xe
 5136 0120 3A       		.uleb128 0x3a
 5137 0121 0B       		.uleb128 0xb
 5138 0122 3B       		.uleb128 0x3b
 5139 0123 05       		.uleb128 0x5
 5140 0124 27       		.uleb128 0x27
 5141 0125 0C       		.uleb128 0xc
 5142 0126 11       		.uleb128 0x11
 5143 0127 01       		.uleb128 0x1
 5144 0128 12       		.uleb128 0x12
 5145 0129 01       		.uleb128 0x1
 5146 012a 40       		.uleb128 0x40
 5147 012b 06       		.uleb128 0x6
 5148 012c 9742     		.uleb128 0x2117
 5149 012e 0C       		.uleb128 0xc
 5150 012f 01       		.uleb128 0x1
 5151 0130 13       		.uleb128 0x13
 5152 0131 00       		.byte	0
 5153 0132 00       		.byte	0
 5154 0133 15       		.uleb128 0x15
 5155 0134 05       		.uleb128 0x5
 5156 0135 00       		.byte	0
 5157 0136 03       		.uleb128 0x3
 5158 0137 0E       		.uleb128 0xe
 5159 0138 3A       		.uleb128 0x3a
 5160 0139 0B       		.uleb128 0xb
 5161 013a 3B       		.uleb128 0x3b
 5162 013b 05       		.uleb128 0x5
 5163 013c 49       		.uleb128 0x49
 5164 013d 13       		.uleb128 0x13
 5165 013e 02       		.uleb128 0x2
 5166 013f 06       		.uleb128 0x6
 5167 0140 00       		.byte	0
 5168 0141 00       		.byte	0
 5169 0142 16       		.uleb128 0x16
 5170 0143 34       		.uleb128 0x34
 5171 0144 00       		.byte	0
 5172 0145 03       		.uleb128 0x3
 5173 0146 0E       		.uleb128 0xe
 5174 0147 3A       		.uleb128 0x3a
 5175 0148 0B       		.uleb128 0xb
 5176 0149 3B       		.uleb128 0x3b
 5177 014a 05       		.uleb128 0x5
 5178 014b 49       		.uleb128 0x49
 5179 014c 13       		.uleb128 0x13
 5180 014d 02       		.uleb128 0x2
ARM GAS  C:\Users\Vergil\AppData\Local\Temp\ccl0Rg49.s 			page 92


 5181 014e 06       		.uleb128 0x6
 5182 014f 00       		.byte	0
 5183 0150 00       		.byte	0
 5184 0151 17       		.uleb128 0x17
 5185 0152 1D       		.uleb128 0x1d
 5186 0153 01       		.byte	0x1
 5187 0154 31       		.uleb128 0x31
 5188 0155 13       		.uleb128 0x13
 5189 0156 52       		.uleb128 0x52
 5190 0157 01       		.uleb128 0x1
 5191 0158 55       		.uleb128 0x55
 5192 0159 06       		.uleb128 0x6
 5193 015a 58       		.uleb128 0x58
 5194 015b 0B       		.uleb128 0xb
 5195 015c 59       		.uleb128 0x59
 5196 015d 05       		.uleb128 0x5
 5197 015e 01       		.uleb128 0x1
 5198 015f 13       		.uleb128 0x13
 5199 0160 00       		.byte	0
 5200 0161 00       		.byte	0
 5201 0162 18       		.uleb128 0x18
 5202 0163 1D       		.uleb128 0x1d
 5203 0164 01       		.byte	0x1
 5204 0165 31       		.uleb128 0x31
 5205 0166 13       		.uleb128 0x13
 5206 0167 11       		.uleb128 0x11
 5207 0168 01       		.uleb128 0x1
 5208 0169 12       		.uleb128 0x12
 5209 016a 01       		.uleb128 0x1
 5210 016b 58       		.uleb128 0x58
 5211 016c 0B       		.uleb128 0xb
 5212 016d 59       		.uleb128 0x59
 5213 016e 05       		.uleb128 0x5
 5214 016f 01       		.uleb128 0x1
 5215 0170 13       		.uleb128 0x13
 5216 0171 00       		.byte	0
 5217 0172 00       		.byte	0
 5218 0173 19       		.uleb128 0x19
 5219 0174 1D       		.uleb128 0x1d
 5220 0175 01       		.byte	0x1
 5221 0176 31       		.uleb128 0x31
 5222 0177 13       		.uleb128 0x13
 5223 0178 52       		.uleb128 0x52
 5224 0179 01       		.uleb128 0x1
 5225 017a 55       		.uleb128 0x55
 5226 017b 06       		.uleb128 0x6
 5227 017c 58       		.uleb128 0x58
 5228 017d 0B       		.uleb128 0xb
 5229 017e 59       		.uleb128 0x59
 5230 017f 05       		.uleb128 0x5
 5231 0180 00       		.byte	0
 5232 0181 00       		.byte	0
 5233 0182 1A       		.uleb128 0x1a
 5234 0183 05       		.uleb128 0x5
 5235 0184 00       		.byte	0
 5236 0185 03       		.uleb128 0x3
 5237 0186 08       		.uleb128 0x8
ARM GAS  C:\Users\Vergil\AppData\Local\Temp\ccl0Rg49.s 			page 93


 5238 0187 3A       		.uleb128 0x3a
 5239 0188 0B       		.uleb128 0xb
 5240 0189 3B       		.uleb128 0x3b
 5241 018a 05       		.uleb128 0x5
 5242 018b 49       		.uleb128 0x49
 5243 018c 13       		.uleb128 0x13
 5244 018d 02       		.uleb128 0x2
 5245 018e 06       		.uleb128 0x6
 5246 018f 00       		.byte	0
 5247 0190 00       		.byte	0
 5248 0191 1B       		.uleb128 0x1b
 5249 0192 898201   		.uleb128 0x4109
 5250 0195 01       		.byte	0x1
 5251 0196 11       		.uleb128 0x11
 5252 0197 01       		.uleb128 0x1
 5253 0198 31       		.uleb128 0x31
 5254 0199 13       		.uleb128 0x13
 5255 019a 01       		.uleb128 0x1
 5256 019b 13       		.uleb128 0x13
 5257 019c 00       		.byte	0
 5258 019d 00       		.byte	0
 5259 019e 1C       		.uleb128 0x1c
 5260 019f 8A8201   		.uleb128 0x410a
 5261 01a2 00       		.byte	0
 5262 01a3 02       		.uleb128 0x2
 5263 01a4 0A       		.uleb128 0xa
 5264 01a5 9142     		.uleb128 0x2111
 5265 01a7 0A       		.uleb128 0xa
 5266 01a8 00       		.byte	0
 5267 01a9 00       		.byte	0
 5268 01aa 1D       		.uleb128 0x1d
 5269 01ab 898201   		.uleb128 0x4109
 5270 01ae 01       		.byte	0x1
 5271 01af 11       		.uleb128 0x11
 5272 01b0 01       		.uleb128 0x1
 5273 01b1 9542     		.uleb128 0x2115
 5274 01b3 0C       		.uleb128 0xc
 5275 01b4 31       		.uleb128 0x31
 5276 01b5 13       		.uleb128 0x13
 5277 01b6 00       		.byte	0
 5278 01b7 00       		.byte	0
 5279 01b8 1E       		.uleb128 0x1e
 5280 01b9 2E       		.uleb128 0x2e
 5281 01ba 01       		.byte	0x1
 5282 01bb 3F       		.uleb128 0x3f
 5283 01bc 0C       		.uleb128 0xc
 5284 01bd 03       		.uleb128 0x3
 5285 01be 0E       		.uleb128 0xe
 5286 01bf 3A       		.uleb128 0x3a
 5287 01c0 0B       		.uleb128 0xb
 5288 01c1 3B       		.uleb128 0x3b
 5289 01c2 05       		.uleb128 0x5
 5290 01c3 27       		.uleb128 0x27
 5291 01c4 0C       		.uleb128 0xc
 5292 01c5 49       		.uleb128 0x49
 5293 01c6 13       		.uleb128 0x13
 5294 01c7 11       		.uleb128 0x11
ARM GAS  C:\Users\Vergil\AppData\Local\Temp\ccl0Rg49.s 			page 94


 5295 01c8 01       		.uleb128 0x1
 5296 01c9 12       		.uleb128 0x12
 5297 01ca 01       		.uleb128 0x1
 5298 01cb 40       		.uleb128 0x40
 5299 01cc 0A       		.uleb128 0xa
 5300 01cd 9742     		.uleb128 0x2117
 5301 01cf 0C       		.uleb128 0xc
 5302 01d0 01       		.uleb128 0x1
 5303 01d1 13       		.uleb128 0x13
 5304 01d2 00       		.byte	0
 5305 01d3 00       		.byte	0
 5306 01d4 1F       		.uleb128 0x1f
 5307 01d5 34       		.uleb128 0x34
 5308 01d6 00       		.byte	0
 5309 01d7 03       		.uleb128 0x3
 5310 01d8 0E       		.uleb128 0xe
 5311 01d9 3A       		.uleb128 0x3a
 5312 01da 0B       		.uleb128 0xb
 5313 01db 3B       		.uleb128 0x3b
 5314 01dc 05       		.uleb128 0x5
 5315 01dd 49       		.uleb128 0x49
 5316 01de 13       		.uleb128 0x13
 5317 01df 00       		.byte	0
 5318 01e0 00       		.byte	0
 5319 01e1 20       		.uleb128 0x20
 5320 01e2 01       		.uleb128 0x1
 5321 01e3 01       		.byte	0x1
 5322 01e4 49       		.uleb128 0x49
 5323 01e5 13       		.uleb128 0x13
 5324 01e6 01       		.uleb128 0x1
 5325 01e7 13       		.uleb128 0x13
 5326 01e8 00       		.byte	0
 5327 01e9 00       		.byte	0
 5328 01ea 21       		.uleb128 0x21
 5329 01eb 21       		.uleb128 0x21
 5330 01ec 00       		.byte	0
 5331 01ed 49       		.uleb128 0x49
 5332 01ee 13       		.uleb128 0x13
 5333 01ef 2F       		.uleb128 0x2f
 5334 01f0 0B       		.uleb128 0xb
 5335 01f1 00       		.byte	0
 5336 01f2 00       		.byte	0
 5337 01f3 22       		.uleb128 0x22
 5338 01f4 34       		.uleb128 0x34
 5339 01f5 00       		.byte	0
 5340 01f6 03       		.uleb128 0x3
 5341 01f7 0E       		.uleb128 0xe
 5342 01f8 3A       		.uleb128 0x3a
 5343 01f9 0B       		.uleb128 0xb
 5344 01fa 3B       		.uleb128 0x3b
 5345 01fb 0B       		.uleb128 0xb
 5346 01fc 49       		.uleb128 0x49
 5347 01fd 13       		.uleb128 0x13
 5348 01fe 3F       		.uleb128 0x3f
 5349 01ff 0C       		.uleb128 0xc
 5350 0200 02       		.uleb128 0x2
 5351 0201 0A       		.uleb128 0xa
ARM GAS  C:\Users\Vergil\AppData\Local\Temp\ccl0Rg49.s 			page 95


 5352 0202 00       		.byte	0
 5353 0203 00       		.byte	0
 5354 0204 23       		.uleb128 0x23
 5355 0205 26       		.uleb128 0x26
 5356 0206 00       		.byte	0
 5357 0207 49       		.uleb128 0x49
 5358 0208 13       		.uleb128 0x13
 5359 0209 00       		.byte	0
 5360 020a 00       		.byte	0
 5361 020b 24       		.uleb128 0x24
 5362 020c 2E       		.uleb128 0x2e
 5363 020d 01       		.byte	0x1
 5364 020e 3F       		.uleb128 0x3f
 5365 020f 0C       		.uleb128 0xc
 5366 0210 03       		.uleb128 0x3
 5367 0211 0E       		.uleb128 0xe
 5368 0212 3A       		.uleb128 0x3a
 5369 0213 0B       		.uleb128 0xb
 5370 0214 3B       		.uleb128 0x3b
 5371 0215 0B       		.uleb128 0xb
 5372 0216 27       		.uleb128 0x27
 5373 0217 0C       		.uleb128 0xc
 5374 0218 49       		.uleb128 0x49
 5375 0219 13       		.uleb128 0x13
 5376 021a 3C       		.uleb128 0x3c
 5377 021b 0C       		.uleb128 0xc
 5378 021c 01       		.uleb128 0x1
 5379 021d 13       		.uleb128 0x13
 5380 021e 00       		.byte	0
 5381 021f 00       		.byte	0
 5382 0220 25       		.uleb128 0x25
 5383 0221 05       		.uleb128 0x5
 5384 0222 00       		.byte	0
 5385 0223 49       		.uleb128 0x49
 5386 0224 13       		.uleb128 0x13
 5387 0225 00       		.byte	0
 5388 0226 00       		.byte	0
 5389 0227 26       		.uleb128 0x26
 5390 0228 2E       		.uleb128 0x2e
 5391 0229 01       		.byte	0x1
 5392 022a 3F       		.uleb128 0x3f
 5393 022b 0C       		.uleb128 0xc
 5394 022c 03       		.uleb128 0x3
 5395 022d 0E       		.uleb128 0xe
 5396 022e 3A       		.uleb128 0x3a
 5397 022f 0B       		.uleb128 0xb
 5398 0230 3B       		.uleb128 0x3b
 5399 0231 0B       		.uleb128 0xb
 5400 0232 27       		.uleb128 0x27
 5401 0233 0C       		.uleb128 0xc
 5402 0234 49       		.uleb128 0x49
 5403 0235 13       		.uleb128 0x13
 5404 0236 3C       		.uleb128 0x3c
 5405 0237 0C       		.uleb128 0xc
 5406 0238 00       		.byte	0
 5407 0239 00       		.byte	0
 5408 023a 00       		.byte	0
ARM GAS  C:\Users\Vergil\AppData\Local\Temp\ccl0Rg49.s 			page 96


 5409              		.section	.debug_loc,"",%progbits
 5410              	.Ldebug_loc0:
 5411              	.LLST0:
 5412 0000 00000000 		.4byte	.LFB0
 5413 0004 04000000 		.4byte	.LCFI0
 5414 0008 0200     		.2byte	0x2
 5415 000a 7D       		.byte	0x7d
 5416 000b 00       		.sleb128 0
 5417 000c 04000000 		.4byte	.LCFI0
 5418 0010 1E000000 		.4byte	.LCFI1
 5419 0014 0200     		.2byte	0x2
 5420 0016 7D       		.byte	0x7d
 5421 0017 20       		.sleb128 32
 5422 0018 1E000000 		.4byte	.LCFI1
 5423 001c 70010000 		.4byte	.LFE0
 5424 0020 0300     		.2byte	0x3
 5425 0022 7D       		.byte	0x7d
 5426 0023 D800     		.sleb128 88
 5427 0025 00000000 		.4byte	0
 5428 0029 00000000 		.4byte	0
 5429              	.LLST1:
 5430 002d 00000000 		.4byte	.LVL0
 5431 0031 50000000 		.4byte	.LVL18
 5432 0035 0100     		.2byte	0x1
 5433 0037 50       		.byte	0x50
 5434 0038 50000000 		.4byte	.LVL18
 5435 003c 70010000 		.4byte	.LFE0
 5436 0040 0400     		.2byte	0x4
 5437 0042 F3       		.byte	0xf3
 5438 0043 01       		.uleb128 0x1
 5439 0044 50       		.byte	0x50
 5440 0045 9F       		.byte	0x9f
 5441 0046 00000000 		.4byte	0
 5442 004a 00000000 		.4byte	0
 5443              	.LLST2:
 5444 004e 00000000 		.4byte	.LVL0
 5445 0052 48000000 		.4byte	.LVL16
 5446 0056 0100     		.2byte	0x1
 5447 0058 51       		.byte	0x51
 5448 0059 48000000 		.4byte	.LVL16
 5449 005d 70010000 		.4byte	.LFE0
 5450 0061 0400     		.2byte	0x4
 5451 0063 F3       		.byte	0xf3
 5452 0064 01       		.uleb128 0x1
 5453 0065 51       		.byte	0x51
 5454 0066 9F       		.byte	0x9f
 5455 0067 00000000 		.4byte	0
 5456 006b 00000000 		.4byte	0
 5457              	.LLST3:
 5458 006f 00000000 		.4byte	.LVL0
 5459 0073 0A000000 		.4byte	.LVL1
 5460 0077 0200     		.2byte	0x2
 5461 0079 30       		.byte	0x30
 5462 007a 9F       		.byte	0x9f
 5463 007b 0A000000 		.4byte	.LVL1
 5464 007f 0E000000 		.4byte	.LVL2
 5465 0083 0200     		.2byte	0x2
ARM GAS  C:\Users\Vergil\AppData\Local\Temp\ccl0Rg49.s 			page 97


 5466 0085 31       		.byte	0x31
 5467 0086 9F       		.byte	0x9f
 5468 0087 0E000000 		.4byte	.LVL2
 5469 008b 12000000 		.4byte	.LVL3
 5470 008f 0200     		.2byte	0x2
 5471 0091 32       		.byte	0x32
 5472 0092 9F       		.byte	0x9f
 5473 0093 12000000 		.4byte	.LVL3
 5474 0097 16000000 		.4byte	.LVL4
 5475 009b 0200     		.2byte	0x2
 5476 009d 33       		.byte	0x33
 5477 009e 9F       		.byte	0x9f
 5478 009f 16000000 		.4byte	.LVL4
 5479 00a3 1A000000 		.4byte	.LVL5
 5480 00a7 0200     		.2byte	0x2
 5481 00a9 34       		.byte	0x34
 5482 00aa 9F       		.byte	0x9f
 5483 00ab 1A000000 		.4byte	.LVL5
 5484 00af 20000000 		.4byte	.LVL6
 5485 00b3 0200     		.2byte	0x2
 5486 00b5 35       		.byte	0x35
 5487 00b6 9F       		.byte	0x9f
 5488 00b7 20000000 		.4byte	.LVL6
 5489 00bb 26000000 		.4byte	.LVL7
 5490 00bf 0200     		.2byte	0x2
 5491 00c1 36       		.byte	0x36
 5492 00c2 9F       		.byte	0x9f
 5493 00c3 26000000 		.4byte	.LVL7
 5494 00c7 2A000000 		.4byte	.LVL8
 5495 00cb 0200     		.2byte	0x2
 5496 00cd 37       		.byte	0x37
 5497 00ce 9F       		.byte	0x9f
 5498 00cf 2A000000 		.4byte	.LVL8
 5499 00d3 2E000000 		.4byte	.LVL9
 5500 00d7 0200     		.2byte	0x2
 5501 00d9 38       		.byte	0x38
 5502 00da 9F       		.byte	0x9f
 5503 00db 2E000000 		.4byte	.LVL9
 5504 00df 32000000 		.4byte	.LVL10
 5505 00e3 0200     		.2byte	0x2
 5506 00e5 39       		.byte	0x39
 5507 00e6 9F       		.byte	0x9f
 5508 00e7 32000000 		.4byte	.LVL10
 5509 00eb 36000000 		.4byte	.LVL11
 5510 00ef 0200     		.2byte	0x2
 5511 00f1 3A       		.byte	0x3a
 5512 00f2 9F       		.byte	0x9f
 5513 00f3 36000000 		.4byte	.LVL11
 5514 00f7 3A000000 		.4byte	.LVL12
 5515 00fb 0200     		.2byte	0x2
 5516 00fd 3B       		.byte	0x3b
 5517 00fe 9F       		.byte	0x9f
 5518 00ff 3A000000 		.4byte	.LVL12
 5519 0103 3E000000 		.4byte	.LVL13
 5520 0107 0200     		.2byte	0x2
 5521 0109 3C       		.byte	0x3c
 5522 010a 9F       		.byte	0x9f
ARM GAS  C:\Users\Vergil\AppData\Local\Temp\ccl0Rg49.s 			page 98


 5523 010b 3E000000 		.4byte	.LVL13
 5524 010f 42000000 		.4byte	.LVL14
 5525 0113 0200     		.2byte	0x2
 5526 0115 3D       		.byte	0x3d
 5527 0116 9F       		.byte	0x9f
 5528 0117 42000000 		.4byte	.LVL14
 5529 011b 46000000 		.4byte	.LVL15
 5530 011f 0200     		.2byte	0x2
 5531 0121 3E       		.byte	0x3e
 5532 0122 9F       		.byte	0x9f
 5533 0123 46000000 		.4byte	.LVL15
 5534 0127 4C000000 		.4byte	.LVL17
 5535 012b 0200     		.2byte	0x2
 5536 012d 3F       		.byte	0x3f
 5537 012e 9F       		.byte	0x9f
 5538 012f 4C000000 		.4byte	.LVL17
 5539 0133 50000000 		.4byte	.LVL18
 5540 0137 0200     		.2byte	0x2
 5541 0139 40       		.byte	0x40
 5542 013a 9F       		.byte	0x9f
 5543 013b 52010000 		.4byte	.LVL20
 5544 013f 70010000 		.4byte	.LFE0
 5545 0143 0100     		.2byte	0x1
 5546 0145 5B       		.byte	0x5b
 5547 0146 00000000 		.4byte	0
 5548 014a 00000000 		.4byte	0
 5549              	.LLST4:
 5550 014e 00000000 		.4byte	.LVL21
 5551 0152 08000000 		.4byte	.LVL22
 5552 0156 0100     		.2byte	0x1
 5553 0158 50       		.byte	0x50
 5554 0159 08000000 		.4byte	.LVL22
 5555 015d 0E000000 		.4byte	.LVL23
 5556 0161 0500     		.2byte	0x5
 5557 0163 70       		.byte	0x70
 5558 0164 00       		.sleb128 0
 5559 0165 31       		.byte	0x31
 5560 0166 24       		.byte	0x24
 5561 0167 9F       		.byte	0x9f
 5562 0168 00000000 		.4byte	0
 5563 016c 00000000 		.4byte	0
 5564              	.LLST5:
 5565 0170 00000000 		.4byte	.LFB2
 5566 0174 04000000 		.4byte	.LCFI2
 5567 0178 0200     		.2byte	0x2
 5568 017a 7D       		.byte	0x7d
 5569 017b 00       		.sleb128 0
 5570 017c 04000000 		.4byte	.LCFI2
 5571 0180 08000000 		.4byte	.LCFI3
 5572 0184 0200     		.2byte	0x2
 5573 0186 7D       		.byte	0x7d
 5574 0187 20       		.sleb128 32
 5575 0188 08000000 		.4byte	.LCFI3
 5576 018c 3A060000 		.4byte	.LFE2
 5577 0190 0300     		.2byte	0x3
 5578 0192 7D       		.byte	0x7d
 5579 0193 E800     		.sleb128 104
ARM GAS  C:\Users\Vergil\AppData\Local\Temp\ccl0Rg49.s 			page 99


 5580 0195 00000000 		.4byte	0
 5581 0199 00000000 		.4byte	0
 5582              	.LLST6:
 5583 019d 00000000 		.4byte	.LVL24
 5584 01a1 14000000 		.4byte	.LVL25
 5585 01a5 0100     		.2byte	0x1
 5586 01a7 50       		.byte	0x50
 5587 01a8 14000000 		.4byte	.LVL25
 5588 01ac 3A060000 		.4byte	.LFE2
 5589 01b0 0100     		.2byte	0x1
 5590 01b2 5B       		.byte	0x5b
 5591 01b3 00000000 		.4byte	0
 5592 01b7 00000000 		.4byte	0
 5593              	.LLST7:
 5594 01bb 00000000 		.4byte	.LVL24
 5595 01bf 26000000 		.4byte	.LVL26
 5596 01c3 0100     		.2byte	0x1
 5597 01c5 51       		.byte	0x51
 5598 01c6 26000000 		.4byte	.LVL26
 5599 01ca 6A000000 		.4byte	.LVL27
 5600 01ce 0100     		.2byte	0x1
 5601 01d0 54       		.byte	0x54
 5602 01d1 6A000000 		.4byte	.LVL27
 5603 01d5 3A060000 		.4byte	.LFE2
 5604 01d9 0200     		.2byte	0x2
 5605 01db 91       		.byte	0x91
 5606 01dc 40       		.sleb128 -64
 5607 01dd 00000000 		.4byte	0
 5608 01e1 00000000 		.4byte	0
 5609              	.LLST8:
 5610 01e5 6A000000 		.4byte	.LVL27
 5611 01e9 78000000 		.4byte	.LVL30
 5612 01ed 0100     		.2byte	0x1
 5613 01ef 52       		.byte	0x52
 5614 01f0 78000000 		.4byte	.LVL30
 5615 01f4 8A000000 		.4byte	.LVL32
 5616 01f8 1400     		.2byte	0x14
 5617 01fa 91       		.byte	0x91
 5618 01fb BC7F     		.sleb128 -68
 5619 01fd 06       		.byte	0x6
 5620 01fe 91       		.byte	0x91
 5621 01ff B47F     		.sleb128 -76
 5622 0201 06       		.byte	0x6
 5623 0202 27       		.byte	0x27
 5624 0203 91       		.byte	0x91
 5625 0204 AC7F     		.sleb128 -84
 5626 0206 06       		.byte	0x6
 5627 0207 27       		.byte	0x27
 5628 0208 91       		.byte	0x91
 5629 0209 A47F     		.sleb128 -92
 5630 020b 06       		.byte	0x6
 5631 020c 27       		.byte	0x27
 5632 020d 9F       		.byte	0x9f
 5633 020e F0000000 		.4byte	.LVL33
 5634 0212 FE000000 		.4byte	.LVL34
 5635 0216 0100     		.2byte	0x1
 5636 0218 59       		.byte	0x59
ARM GAS  C:\Users\Vergil\AppData\Local\Temp\ccl0Rg49.s 			page 100


 5637 0219 FE000000 		.4byte	.LVL34
 5638 021d 4E010000 		.4byte	.LVL35
 5639 0221 0C00     		.2byte	0xc
 5640 0223 74       		.byte	0x74
 5641 0224 01       		.sleb128 1
 5642 0225 94       		.byte	0x94
 5643 0226 01       		.byte	0x1
 5644 0227 08       		.byte	0x8
 5645 0228 FF       		.byte	0xff
 5646 0229 1A       		.byte	0x1a
 5647 022a 91       		.byte	0x91
 5648 022b 44       		.sleb128 -60
 5649 022c 06       		.byte	0x6
 5650 022d 27       		.byte	0x27
 5651 022e 9F       		.byte	0x9f
 5652 022f 4E010000 		.4byte	.LVL35
 5653 0233 54010000 		.4byte	.LVL36
 5654 0237 0100     		.2byte	0x1
 5655 0239 51       		.byte	0x51
 5656 023a 54010000 		.4byte	.LVL36
 5657 023e 94010000 		.4byte	.LVL39
 5658 0242 0C00     		.2byte	0xc
 5659 0244 74       		.byte	0x74
 5660 0245 02       		.sleb128 2
 5661 0246 94       		.byte	0x94
 5662 0247 01       		.byte	0x1
 5663 0248 08       		.byte	0x8
 5664 0249 FF       		.byte	0xff
 5665 024a 1A       		.byte	0x1a
 5666 024b 91       		.byte	0x91
 5667 024c 48       		.sleb128 -56
 5668 024d 06       		.byte	0x6
 5669 024e 27       		.byte	0x27
 5670 024f 9F       		.byte	0x9f
 5671 0250 94010000 		.4byte	.LVL39
 5672 0254 C2010000 		.4byte	.LVL40
 5673 0258 0100     		.2byte	0x1
 5674 025a 5A       		.byte	0x5a
 5675 025b D4010000 		.4byte	.LVL41
 5676 025f 4E020000 		.4byte	.LVL52
 5677 0263 0100     		.2byte	0x1
 5678 0265 51       		.byte	0x51
 5679 0266 7C020000 		.4byte	.LVL55
 5680 026a FE020000 		.4byte	.LVL65
 5681 026e 0100     		.2byte	0x1
 5682 0270 50       		.byte	0x50
 5683 0271 1A030000 		.4byte	.LVL69
 5684 0275 8C030000 		.4byte	.LVL76
 5685 0279 0100     		.2byte	0x1
 5686 027b 53       		.byte	0x53
 5687 027c 8C030000 		.4byte	.LVL76
 5688 0280 9A030000 		.4byte	.LVL77
 5689 0284 1200     		.2byte	0x12
 5690 0286 7A       		.byte	0x7a
 5691 0287 00       		.sleb128 0
 5692 0288 91       		.byte	0x91
 5693 0289 B07F     		.sleb128 -80
ARM GAS  C:\Users\Vergil\AppData\Local\Temp\ccl0Rg49.s 			page 101


 5694 028b 06       		.byte	0x6
 5695 028c 27       		.byte	0x27
 5696 028d 91       		.byte	0x91
 5697 028e A87F     		.sleb128 -88
 5698 0290 06       		.byte	0x6
 5699 0291 27       		.byte	0x27
 5700 0292 91       		.byte	0x91
 5701 0293 A07F     		.sleb128 -96
 5702 0295 06       		.byte	0x6
 5703 0296 27       		.byte	0x27
 5704 0297 9F       		.byte	0x9f
 5705 0298 9A030000 		.4byte	.LVL77
 5706 029c A2030000 		.4byte	.LVL78
 5707 02a0 2600     		.2byte	0x26
 5708 02a2 74       		.byte	0x74
 5709 02a3 07       		.sleb128 7
 5710 02a4 94       		.byte	0x94
 5711 02a5 01       		.byte	0x1
 5712 02a6 08       		.byte	0x8
 5713 02a7 FF       		.byte	0xff
 5714 02a8 1A       		.byte	0x1a
 5715 02a9 91       		.byte	0x91
 5716 02aa 58       		.sleb128 -40
 5717 02ab 06       		.byte	0x6
 5718 02ac 27       		.byte	0x27
 5719 02ad 03       		.byte	0x3
 5720 02ae 00000000 		.4byte	.LANCHOR1
 5721 02b2 22       		.byte	0x22
 5722 02b3 94       		.byte	0x94
 5723 02b4 01       		.byte	0x1
 5724 02b5 08       		.byte	0x8
 5725 02b6 FF       		.byte	0xff
 5726 02b7 1A       		.byte	0x1a
 5727 02b8 91       		.byte	0x91
 5728 02b9 B07F     		.sleb128 -80
 5729 02bb 06       		.byte	0x6
 5730 02bc 27       		.byte	0x27
 5731 02bd 91       		.byte	0x91
 5732 02be A87F     		.sleb128 -88
 5733 02c0 06       		.byte	0x6
 5734 02c1 27       		.byte	0x27
 5735 02c2 91       		.byte	0x91
 5736 02c3 A07F     		.sleb128 -96
 5737 02c5 06       		.byte	0x6
 5738 02c6 27       		.byte	0x27
 5739 02c7 9F       		.byte	0x9f
 5740 02c8 A2030000 		.4byte	.LVL78
 5741 02cc 12040000 		.4byte	.LVL87
 5742 02d0 0100     		.2byte	0x1
 5743 02d2 52       		.byte	0x52
 5744 02d3 12040000 		.4byte	.LVL87
 5745 02d7 98040000 		.4byte	.LVL89
 5746 02db 1400     		.2byte	0x14
 5747 02dd 91       		.byte	0x91
 5748 02de BC7F     		.sleb128 -68
 5749 02e0 06       		.byte	0x6
 5750 02e1 91       		.byte	0x91
ARM GAS  C:\Users\Vergil\AppData\Local\Temp\ccl0Rg49.s 			page 102


 5751 02e2 B47F     		.sleb128 -76
 5752 02e4 06       		.byte	0x6
 5753 02e5 27       		.byte	0x27
 5754 02e6 91       		.byte	0x91
 5755 02e7 AC7F     		.sleb128 -84
 5756 02e9 06       		.byte	0x6
 5757 02ea 27       		.byte	0x27
 5758 02eb 91       		.byte	0x91
 5759 02ec A47F     		.sleb128 -92
 5760 02ee 06       		.byte	0x6
 5761 02ef 27       		.byte	0x27
 5762 02f0 9F       		.byte	0x9f
 5763 02f1 98040000 		.4byte	.LVL89
 5764 02f5 AC040000 		.4byte	.LVL90
 5765 02f9 0100     		.2byte	0x1
 5766 02fb 52       		.byte	0x52
 5767 02fc AC040000 		.4byte	.LVL90
 5768 0300 DA040000 		.4byte	.LVL91
 5769 0304 0D00     		.2byte	0xd
 5770 0306 7C       		.byte	0x7c
 5771 0307 9101     		.sleb128 145
 5772 0309 94       		.byte	0x94
 5773 030a 01       		.byte	0x1
 5774 030b 08       		.byte	0x8
 5775 030c FF       		.byte	0xff
 5776 030d 1A       		.byte	0x1a
 5777 030e 91       		.byte	0x91
 5778 030f 44       		.sleb128 -60
 5779 0310 06       		.byte	0x6
 5780 0311 27       		.byte	0x27
 5781 0312 9F       		.byte	0x9f
 5782 0313 DA040000 		.4byte	.LVL91
 5783 0317 EA040000 		.4byte	.LVL92
 5784 031b 0100     		.2byte	0x1
 5785 031d 51       		.byte	0x51
 5786 031e EA040000 		.4byte	.LVL92
 5787 0322 F2040000 		.4byte	.LVL93
 5788 0326 0700     		.2byte	0x7
 5789 0328 91       		.byte	0x91
 5790 0329 48       		.sleb128 -56
 5791 032a 06       		.byte	0x6
 5792 032b 77       		.byte	0x77
 5793 032c 00       		.sleb128 0
 5794 032d 27       		.byte	0x27
 5795 032e 9F       		.byte	0x9f
 5796 032f F2040000 		.4byte	.LVL93
 5797 0333 1A050000 		.4byte	.LVL96
 5798 0337 0D00     		.2byte	0xd
 5799 0339 7C       		.byte	0x7c
 5800 033a 9201     		.sleb128 146
 5801 033c 94       		.byte	0x94
 5802 033d 01       		.byte	0x1
 5803 033e 08       		.byte	0x8
 5804 033f FF       		.byte	0xff
 5805 0340 1A       		.byte	0x1a
 5806 0341 91       		.byte	0x91
 5807 0342 48       		.sleb128 -56
ARM GAS  C:\Users\Vergil\AppData\Local\Temp\ccl0Rg49.s 			page 103


 5808 0343 06       		.byte	0x6
 5809 0344 27       		.byte	0x27
 5810 0345 9F       		.byte	0x9f
 5811 0346 1A050000 		.4byte	.LVL96
 5812 034a 2A050000 		.4byte	.LVL97
 5813 034e 0100     		.2byte	0x1
 5814 0350 55       		.byte	0x55
 5815 0351 00000000 		.4byte	0
 5816 0355 00000000 		.4byte	0
 5817              	.LLST9:
 5818 0359 6A000000 		.4byte	.LVL27
 5819 035d 8A000000 		.4byte	.LVL32
 5820 0361 0300     		.2byte	0x3
 5821 0363 91       		.byte	0x91
 5822 0364 A47F     		.sleb128 -92
 5823 0366 70010000 		.4byte	.LVL37
 5824 036a 78010000 		.4byte	.LVL38
 5825 036e 0100     		.2byte	0x1
 5826 0370 51       		.byte	0x51
 5827 0371 78010000 		.4byte	.LVL38
 5828 0375 D4010000 		.4byte	.LVL41
 5829 0379 0900     		.2byte	0x9
 5830 037b 91       		.byte	0x91
 5831 037c 54       		.sleb128 -44
 5832 037d 06       		.byte	0x6
 5833 037e 91       		.byte	0x91
 5834 037f B47F     		.sleb128 -76
 5835 0381 06       		.byte	0x6
 5836 0382 27       		.byte	0x27
 5837 0383 9F       		.byte	0x9f
 5838 0384 D4010000 		.4byte	.LVL41
 5839 0388 E8010000 		.4byte	.LVL44
 5840 038c 0F00     		.2byte	0xf
 5841 038e 74       		.byte	0x74
 5842 038f 00       		.sleb128 0
 5843 0390 94       		.byte	0x94
 5844 0391 01       		.byte	0x1
 5845 0392 08       		.byte	0x8
 5846 0393 FF       		.byte	0xff
 5847 0394 1A       		.byte	0x1a
 5848 0395 91       		.byte	0x91
 5849 0396 B87F     		.sleb128 -72
 5850 0398 06       		.byte	0x6
 5851 0399 27       		.byte	0x27
 5852 039a 7C       		.byte	0x7c
 5853 039b 00       		.sleb128 0
 5854 039c 22       		.byte	0x22
 5855 039d E8010000 		.4byte	.LVL44
 5856 03a1 7C020000 		.4byte	.LVL55
 5857 03a5 1200     		.2byte	0x12
 5858 03a7 74       		.byte	0x74
 5859 03a8 00       		.sleb128 0
 5860 03a9 94       		.byte	0x94
 5861 03aa 01       		.byte	0x1
 5862 03ab 08       		.byte	0x8
 5863 03ac FF       		.byte	0xff
 5864 03ad 1A       		.byte	0x1a
ARM GAS  C:\Users\Vergil\AppData\Local\Temp\ccl0Rg49.s 			page 104


 5865 03ae 91       		.byte	0x91
 5866 03af B87F     		.sleb128 -72
 5867 03b1 06       		.byte	0x6
 5868 03b2 27       		.byte	0x27
 5869 03b3 03       		.byte	0x3
 5870 03b4 00000000 		.4byte	.LANCHOR1
 5871 03b8 22       		.byte	0x22
 5872 03b9 7C020000 		.4byte	.LVL55
 5873 03bd 1A030000 		.4byte	.LVL69
 5874 03c1 0300     		.2byte	0x3
 5875 03c3 91       		.byte	0x91
 5876 03c4 9C7F     		.sleb128 -100
 5877 03c6 1A030000 		.4byte	.LVL69
 5878 03ca A2030000 		.4byte	.LVL78
 5879 03ce 0300     		.2byte	0x3
 5880 03d0 91       		.byte	0x91
 5881 03d1 A07F     		.sleb128 -96
 5882 03d3 A2030000 		.4byte	.LVL78
 5883 03d7 00050000 		.4byte	.LVL94
 5884 03db 0300     		.2byte	0x3
 5885 03dd 91       		.byte	0x91
 5886 03de A47F     		.sleb128 -92
 5887 03e0 00050000 		.4byte	.LVL94
 5888 03e4 16050000 		.4byte	.LVL95
 5889 03e8 0100     		.2byte	0x1
 5890 03ea 53       		.byte	0x53
 5891 03eb 16050000 		.4byte	.LVL95
 5892 03ef 36050000 		.4byte	.LVL98
 5893 03f3 0D00     		.2byte	0xd
 5894 03f5 7C       		.byte	0x7c
 5895 03f6 9601     		.sleb128 150
 5896 03f8 94       		.byte	0x94
 5897 03f9 01       		.byte	0x1
 5898 03fa 08       		.byte	0x8
 5899 03fb FF       		.byte	0xff
 5900 03fc 1A       		.byte	0x1a
 5901 03fd 91       		.byte	0x91
 5902 03fe 54       		.sleb128 -44
 5903 03ff 06       		.byte	0x6
 5904 0400 27       		.byte	0x27
 5905 0401 9F       		.byte	0x9f
 5906 0402 36050000 		.4byte	.LVL98
 5907 0406 3A060000 		.4byte	.LFE2
 5908 040a 1000     		.2byte	0x10
 5909 040c 91       		.byte	0x91
 5910 040d 40       		.sleb128 -64
 5911 040e 06       		.byte	0x6
 5912 040f 23       		.byte	0x23
 5913 0410 9601     		.uleb128 0x96
 5914 0412 94       		.byte	0x94
 5915 0413 01       		.byte	0x1
 5916 0414 08       		.byte	0x8
 5917 0415 FF       		.byte	0xff
 5918 0416 1A       		.byte	0x1a
 5919 0417 91       		.byte	0x91
 5920 0418 54       		.sleb128 -44
 5921 0419 06       		.byte	0x6
ARM GAS  C:\Users\Vergil\AppData\Local\Temp\ccl0Rg49.s 			page 105


 5922 041a 27       		.byte	0x27
 5923 041b 9F       		.byte	0x9f
 5924 041c 00000000 		.4byte	0
 5925 0420 00000000 		.4byte	0
 5926              	.LLST10:
 5927 0424 6A000000 		.4byte	.LVL27
 5928 0428 74000000 		.4byte	.LVL29
 5929 042c 0300     		.2byte	0x3
 5930 042e 91       		.byte	0x91
 5931 042f 9C7F     		.sleb128 -100
 5932 0431 D4010000 		.4byte	.LVL41
 5933 0435 DC010000 		.4byte	.LVL42
 5934 0439 0100     		.2byte	0x1
 5935 043b 59       		.byte	0x59
 5936 043c DC010000 		.4byte	.LVL42
 5937 0440 E4010000 		.4byte	.LVL43
 5938 0444 0600     		.2byte	0x6
 5939 0446 77       		.byte	0x77
 5940 0447 00       		.sleb128 0
 5941 0448 70       		.byte	0x70
 5942 0449 00       		.sleb128 0
 5943 044a 27       		.byte	0x27
 5944 044b 9F       		.byte	0x9f
 5945 044c F4010000 		.4byte	.LVL45
 5946 0450 04020000 		.4byte	.LVL46
 5947 0454 0100     		.2byte	0x1
 5948 0456 55       		.byte	0x55
 5949 0457 2C020000 		.4byte	.LVL49
 5950 045b 46020000 		.4byte	.LVL51
 5951 045f 0100     		.2byte	0x1
 5952 0461 50       		.byte	0x50
 5953 0462 8C020000 		.4byte	.LVL58
 5954 0466 A4020000 		.4byte	.LVL60
 5955 046a 0100     		.2byte	0x1
 5956 046c 55       		.byte	0x55
 5957 046d D2020000 		.4byte	.LVL63
 5958 0471 E8020000 		.4byte	.LVL64
 5959 0475 0100     		.2byte	0x1
 5960 0477 56       		.byte	0x56
 5961 0478 1C030000 		.4byte	.LVL70
 5962 047c 36030000 		.4byte	.LVL71
 5963 0480 0100     		.2byte	0x1
 5964 0482 52       		.byte	0x52
 5965 0483 A2030000 		.4byte	.LVL78
 5966 0487 AA030000 		.4byte	.LVL79
 5967 048b 0100     		.2byte	0x1
 5968 048d 57       		.byte	0x57
 5969 048e B8030000 		.4byte	.LVL81
 5970 0492 C6030000 		.4byte	.LVL82
 5971 0496 0100     		.2byte	0x1
 5972 0498 53       		.byte	0x53
 5973 0499 FC030000 		.4byte	.LVL85
 5974 049d 12040000 		.4byte	.LVL87
 5975 04a1 0300     		.2byte	0x3
 5976 04a3 91       		.byte	0x91
 5977 04a4 9C7F     		.sleb128 -100
 5978 04a6 00000000 		.4byte	0
ARM GAS  C:\Users\Vergil\AppData\Local\Temp\ccl0Rg49.s 			page 106


 5979 04aa 00000000 		.4byte	0
 5980              	.LLST11:
 5981 04ae 00000000 		.4byte	.LVL24
 5982 04b2 6A000000 		.4byte	.LVL27
 5983 04b6 0200     		.2byte	0x2
 5984 04b8 30       		.byte	0x30
 5985 04b9 9F       		.byte	0x9f
 5986 04ba 00000000 		.4byte	0
 5987 04be 00000000 		.4byte	0
 5988              	.LLST12:
 5989 04c2 6A000000 		.4byte	.LVL27
 5990 04c6 74000000 		.4byte	.LVL29
 5991 04ca 0300     		.2byte	0x3
 5992 04cc 91       		.byte	0x91
 5993 04cd 9C7F     		.sleb128 -100
 5994 04cf FC030000 		.4byte	.LVL85
 5995 04d3 0C040000 		.4byte	.LVL86
 5996 04d7 0300     		.2byte	0x3
 5997 04d9 91       		.byte	0x91
 5998 04da 9C7F     		.sleb128 -100
 5999 04dc 0C040000 		.4byte	.LVL86
 6000 04e0 12040000 		.4byte	.LVL87
 6001 04e4 0100     		.2byte	0x1
 6002 04e6 57       		.byte	0x57
 6003 04e7 00000000 		.4byte	0
 6004 04eb 00000000 		.4byte	0
 6005              	.LLST13:
 6006 04ef D4010000 		.4byte	.LVL41
 6007 04f3 DC010000 		.4byte	.LVL42
 6008 04f7 0100     		.2byte	0x1
 6009 04f9 59       		.byte	0x59
 6010 04fa DC010000 		.4byte	.LVL42
 6011 04fe E4010000 		.4byte	.LVL43
 6012 0502 0600     		.2byte	0x6
 6013 0504 77       		.byte	0x77
 6014 0505 00       		.sleb128 0
 6015 0506 70       		.byte	0x70
 6016 0507 00       		.sleb128 0
 6017 0508 27       		.byte	0x27
 6018 0509 9F       		.byte	0x9f
 6019 050a 00000000 		.4byte	0
 6020 050e 00000000 		.4byte	0
 6021              	.LLST14:
 6022 0512 F4010000 		.4byte	.LVL45
 6023 0516 04020000 		.4byte	.LVL46
 6024 051a 0100     		.2byte	0x1
 6025 051c 55       		.byte	0x55
 6026 051d 04020000 		.4byte	.LVL46
 6027 0521 62020000 		.4byte	.LVL53
 6028 0525 0100     		.2byte	0x1
 6029 0527 59       		.byte	0x59
 6030 0528 00000000 		.4byte	0
 6031 052c 00000000 		.4byte	0
 6032              	.LLST15:
 6033 0530 1E020000 		.4byte	.LVL47
 6034 0534 2A020000 		.4byte	.LVL48
 6035 0538 0500     		.2byte	0x5
ARM GAS  C:\Users\Vergil\AppData\Local\Temp\ccl0Rg49.s 			page 107


 6036 053a 78       		.byte	0x78
 6037 053b 00       		.sleb128 0
 6038 053c 31       		.byte	0x31
 6039 053d 24       		.byte	0x24
 6040 053e 9F       		.byte	0x9f
 6041 053f 2A020000 		.4byte	.LVL48
 6042 0543 2E020000 		.4byte	.LVL50
 6043 0547 0A00     		.2byte	0xa
 6044 0549 75       		.byte	0x75
 6045 054a 00       		.sleb128 0
 6046 054b 76       		.byte	0x76
 6047 054c 00       		.sleb128 0
 6048 054d 27       		.byte	0x27
 6049 054e 31       		.byte	0x31
 6050 054f 24       		.byte	0x24
 6051 0550 31       		.byte	0x31
 6052 0551 24       		.byte	0x24
 6053 0552 9F       		.byte	0x9f
 6054 0553 00000000 		.4byte	0
 6055 0557 00000000 		.4byte	0
 6056              	.LLST16:
 6057 055b 6A000000 		.4byte	.LVL27
 6058 055f 84000000 		.4byte	.LVL31
 6059 0563 1E00     		.2byte	0x1e
 6060 0565 74       		.byte	0x74
 6061 0566 00       		.sleb128 0
 6062 0567 94       		.byte	0x94
 6063 0568 01       		.byte	0x1
 6064 0569 08       		.byte	0x8
 6065 056a FF       		.byte	0xff
 6066 056b 1A       		.byte	0x1a
 6067 056c 91       		.byte	0x91
 6068 056d B87F     		.sleb128 -72
 6069 056f 06       		.byte	0x6
 6070 0570 27       		.byte	0x27
 6071 0571 03       		.byte	0x3
 6072 0572 00000000 		.4byte	.LANCHOR1
 6073 0576 22       		.byte	0x22
 6074 0577 94       		.byte	0x94
 6075 0578 01       		.byte	0x1
 6076 0579 08       		.byte	0x8
 6077 057a FF       		.byte	0xff
 6078 057b 1A       		.byte	0x1a
 6079 057c 91       		.byte	0x91
 6080 057d 50       		.sleb128 -48
 6081 057e 06       		.byte	0x6
 6082 057f 27       		.byte	0x27
 6083 0580 31       		.byte	0x31
 6084 0581 24       		.byte	0x24
 6085 0582 9F       		.byte	0x9f
 6086 0583 84000000 		.4byte	.LVL31
 6087 0587 8A000000 		.4byte	.LVL32
 6088 058b 1E00     		.2byte	0x1e
 6089 058d 74       		.byte	0x74
 6090 058e 70       		.sleb128 -16
 6091 058f 94       		.byte	0x94
 6092 0590 01       		.byte	0x1
ARM GAS  C:\Users\Vergil\AppData\Local\Temp\ccl0Rg49.s 			page 108


 6093 0591 08       		.byte	0x8
 6094 0592 FF       		.byte	0xff
 6095 0593 1A       		.byte	0x1a
 6096 0594 91       		.byte	0x91
 6097 0595 B87F     		.sleb128 -72
 6098 0597 06       		.byte	0x6
 6099 0598 27       		.byte	0x27
 6100 0599 03       		.byte	0x3
 6101 059a 00000000 		.4byte	.LANCHOR1
 6102 059e 22       		.byte	0x22
 6103 059f 94       		.byte	0x94
 6104 05a0 01       		.byte	0x1
 6105 05a1 08       		.byte	0x8
 6106 05a2 FF       		.byte	0xff
 6107 05a3 1A       		.byte	0x1a
 6108 05a4 91       		.byte	0x91
 6109 05a5 50       		.sleb128 -48
 6110 05a6 06       		.byte	0x6
 6111 05a7 27       		.byte	0x27
 6112 05a8 31       		.byte	0x31
 6113 05a9 24       		.byte	0x24
 6114 05aa 9F       		.byte	0x9f
 6115 05ab 2C020000 		.4byte	.LVL49
 6116 05af 46020000 		.4byte	.LVL51
 6117 05b3 0100     		.2byte	0x1
 6118 05b5 50       		.byte	0x50
 6119 05b6 46020000 		.4byte	.LVL51
 6120 05ba 6E020000 		.4byte	.LVL54
 6121 05be 0100     		.2byte	0x1
 6122 05c0 56       		.byte	0x56
 6123 05c1 6E020000 		.4byte	.LVL54
 6124 05c5 7C020000 		.4byte	.LVL55
 6125 05c9 0500     		.2byte	0x5
 6126 05cb 70       		.byte	0x70
 6127 05cc 00       		.sleb128 0
 6128 05cd 31       		.byte	0x31
 6129 05ce 24       		.byte	0x24
 6130 05cf 9F       		.byte	0x9f
 6131 05d0 7C020000 		.4byte	.LVL55
 6132 05d4 12040000 		.4byte	.LVL87
 6133 05d8 1E00     		.2byte	0x1e
 6134 05da 74       		.byte	0x74
 6135 05db 00       		.sleb128 0
 6136 05dc 94       		.byte	0x94
 6137 05dd 01       		.byte	0x1
 6138 05de 08       		.byte	0x8
 6139 05df FF       		.byte	0xff
 6140 05e0 1A       		.byte	0x1a
 6141 05e1 91       		.byte	0x91
 6142 05e2 B87F     		.sleb128 -72
 6143 05e4 06       		.byte	0x6
 6144 05e5 27       		.byte	0x27
 6145 05e6 03       		.byte	0x3
 6146 05e7 00000000 		.4byte	.LANCHOR1
 6147 05eb 22       		.byte	0x22
 6148 05ec 94       		.byte	0x94
 6149 05ed 01       		.byte	0x1
ARM GAS  C:\Users\Vergil\AppData\Local\Temp\ccl0Rg49.s 			page 109


 6150 05ee 08       		.byte	0x8
 6151 05ef FF       		.byte	0xff
 6152 05f0 1A       		.byte	0x1a
 6153 05f1 91       		.byte	0x91
 6154 05f2 50       		.sleb128 -48
 6155 05f3 06       		.byte	0x6
 6156 05f4 27       		.byte	0x27
 6157 05f5 31       		.byte	0x31
 6158 05f6 24       		.byte	0x24
 6159 05f7 9F       		.byte	0x9f
 6160 05f8 12040000 		.4byte	.LVL87
 6161 05fc 14040000 		.4byte	.LVL88
 6162 0600 1E00     		.2byte	0x1e
 6163 0602 74       		.byte	0x74
 6164 0603 70       		.sleb128 -16
 6165 0604 94       		.byte	0x94
 6166 0605 01       		.byte	0x1
 6167 0606 08       		.byte	0x8
 6168 0607 FF       		.byte	0xff
 6169 0608 1A       		.byte	0x1a
 6170 0609 91       		.byte	0x91
 6171 060a B87F     		.sleb128 -72
 6172 060c 06       		.byte	0x6
 6173 060d 27       		.byte	0x27
 6174 060e 03       		.byte	0x3
 6175 060f 00000000 		.4byte	.LANCHOR1
 6176 0613 22       		.byte	0x22
 6177 0614 94       		.byte	0x94
 6178 0615 01       		.byte	0x1
 6179 0616 08       		.byte	0x8
 6180 0617 FF       		.byte	0xff
 6181 0618 1A       		.byte	0x1a
 6182 0619 91       		.byte	0x91
 6183 061a 50       		.sleb128 -48
 6184 061b 06       		.byte	0x6
 6185 061c 27       		.byte	0x27
 6186 061d 31       		.byte	0x31
 6187 061e 24       		.byte	0x24
 6188 061f 9F       		.byte	0x9f
 6189 0620 00000000 		.4byte	0
 6190 0624 00000000 		.4byte	0
 6191              	.LLST17:
 6192 0628 7C020000 		.4byte	.LVL55
 6193 062c 82020000 		.4byte	.LVL56
 6194 0630 0500     		.2byte	0x5
 6195 0632 77       		.byte	0x77
 6196 0633 00       		.sleb128 0
 6197 0634 31       		.byte	0x31
 6198 0635 24       		.byte	0x24
 6199 0636 9F       		.byte	0x9f
 6200 0637 82020000 		.4byte	.LVL56
 6201 063b 86020000 		.4byte	.LVL57
 6202 063f 0700     		.2byte	0x7
 6203 0641 76       		.byte	0x76
 6204 0642 00       		.sleb128 0
 6205 0643 31       		.byte	0x31
 6206 0644 24       		.byte	0x24
ARM GAS  C:\Users\Vergil\AppData\Local\Temp\ccl0Rg49.s 			page 110


 6207 0645 31       		.byte	0x31
 6208 0646 24       		.byte	0x24
 6209 0647 9F       		.byte	0x9f
 6210 0648 86020000 		.4byte	.LVL57
 6211 064c 8C020000 		.4byte	.LVL58
 6212 0650 0A00     		.2byte	0xa
 6213 0652 72       		.byte	0x72
 6214 0653 00       		.sleb128 0
 6215 0654 75       		.byte	0x75
 6216 0655 00       		.sleb128 0
 6217 0656 27       		.byte	0x27
 6218 0657 31       		.byte	0x31
 6219 0658 24       		.byte	0x24
 6220 0659 31       		.byte	0x31
 6221 065a 24       		.byte	0x24
 6222 065b 9F       		.byte	0x9f
 6223 065c 8C020000 		.4byte	.LVL58
 6224 0660 9A020000 		.4byte	.LVL59
 6225 0664 0A00     		.2byte	0xa
 6226 0666 72       		.byte	0x72
 6227 0667 00       		.sleb128 0
 6228 0668 7C       		.byte	0x7c
 6229 0669 00       		.sleb128 0
 6230 066a 27       		.byte	0x27
 6231 066b 31       		.byte	0x31
 6232 066c 24       		.byte	0x24
 6233 066d 31       		.byte	0x31
 6234 066e 24       		.byte	0x24
 6235 066f 9F       		.byte	0x9f
 6236 0670 9A020000 		.4byte	.LVL59
 6237 0674 AC020000 		.4byte	.LVL61
 6238 0678 0C00     		.2byte	0xc
 6239 067a 72       		.byte	0x72
 6240 067b 00       		.sleb128 0
 6241 067c 91       		.byte	0x91
 6242 067d 9C7F     		.sleb128 -100
 6243 067f 06       		.byte	0x6
 6244 0680 27       		.byte	0x27
 6245 0681 31       		.byte	0x31
 6246 0682 24       		.byte	0x24
 6247 0683 31       		.byte	0x31
 6248 0684 24       		.byte	0x24
 6249 0685 9F       		.byte	0x9f
 6250 0686 00000000 		.4byte	0
 6251 068a 00000000 		.4byte	0
 6252              	.LLST18:
 6253 068e 8C020000 		.4byte	.LVL58
 6254 0692 A4020000 		.4byte	.LVL60
 6255 0696 0100     		.2byte	0x1
 6256 0698 55       		.byte	0x55
 6257 0699 A4020000 		.4byte	.LVL60
 6258 069d C0020000 		.4byte	.LVL62
 6259 06a1 0100     		.2byte	0x1
 6260 06a3 57       		.byte	0x57
 6261 06a4 00000000 		.4byte	0
 6262 06a8 00000000 		.4byte	0
 6263              	.LLST19:
ARM GAS  C:\Users\Vergil\AppData\Local\Temp\ccl0Rg49.s 			page 111


 6264 06ac 6A000000 		.4byte	.LVL27
 6265 06b0 8A000000 		.4byte	.LVL32
 6266 06b4 0B00     		.2byte	0xb
 6267 06b6 91       		.byte	0x91
 6268 06b7 58       		.sleb128 -40
 6269 06b8 06       		.byte	0x6
 6270 06b9 91       		.byte	0x91
 6271 06ba 9C7F     		.sleb128 -100
 6272 06bc 06       		.byte	0x6
 6273 06bd 27       		.byte	0x27
 6274 06be 31       		.byte	0x31
 6275 06bf 24       		.byte	0x24
 6276 06c0 9F       		.byte	0x9f
 6277 06c1 D2020000 		.4byte	.LVL63
 6278 06c5 E8020000 		.4byte	.LVL64
 6279 06c9 0100     		.2byte	0x1
 6280 06cb 56       		.byte	0x56
 6281 06cc E8020000 		.4byte	.LVL64
 6282 06d0 08030000 		.4byte	.LVL66
 6283 06d4 0100     		.2byte	0x1
 6284 06d6 57       		.byte	0x57
 6285 06d7 08030000 		.4byte	.LVL66
 6286 06db 0C030000 		.4byte	.LVL67
 6287 06df 0500     		.2byte	0x5
 6288 06e1 76       		.byte	0x76
 6289 06e2 00       		.sleb128 0
 6290 06e3 31       		.byte	0x31
 6291 06e4 24       		.byte	0x24
 6292 06e5 9F       		.byte	0x9f
 6293 06e6 0C030000 		.4byte	.LVL67
 6294 06ea 0E030000 		.4byte	.LVL68
 6295 06ee 0A00     		.2byte	0xa
 6296 06f0 75       		.byte	0x75
 6297 06f1 00       		.sleb128 0
 6298 06f2 91       		.byte	0x91
 6299 06f3 9C7F     		.sleb128 -100
 6300 06f5 06       		.byte	0x6
 6301 06f6 27       		.byte	0x27
 6302 06f7 31       		.byte	0x31
 6303 06f8 24       		.byte	0x24
 6304 06f9 9F       		.byte	0x9f
 6305 06fa 0E030000 		.4byte	.LVL68
 6306 06fe 3A060000 		.4byte	.LFE2
 6307 0702 0B00     		.2byte	0xb
 6308 0704 91       		.byte	0x91
 6309 0705 58       		.sleb128 -40
 6310 0706 06       		.byte	0x6
 6311 0707 91       		.byte	0x91
 6312 0708 9C7F     		.sleb128 -100
 6313 070a 06       		.byte	0x6
 6314 070b 27       		.byte	0x27
 6315 070c 31       		.byte	0x31
 6316 070d 24       		.byte	0x24
 6317 070e 9F       		.byte	0x9f
 6318 070f 00000000 		.4byte	0
 6319 0713 00000000 		.4byte	0
 6320              	.LLST20:
ARM GAS  C:\Users\Vergil\AppData\Local\Temp\ccl0Rg49.s 			page 112


 6321 0717 6A000000 		.4byte	.LVL27
 6322 071b 8A000000 		.4byte	.LVL32
 6323 071f 0C00     		.2byte	0xc
 6324 0721 91       		.byte	0x91
 6325 0722 B07F     		.sleb128 -80
 6326 0724 06       		.byte	0x6
 6327 0725 91       		.byte	0x91
 6328 0726 A87F     		.sleb128 -88
 6329 0728 06       		.byte	0x6
 6330 0729 27       		.byte	0x27
 6331 072a 31       		.byte	0x31
 6332 072b 24       		.byte	0x24
 6333 072c 9F       		.byte	0x9f
 6334 072d 1C030000 		.4byte	.LVL70
 6335 0731 36030000 		.4byte	.LVL71
 6336 0735 0100     		.2byte	0x1
 6337 0737 52       		.byte	0x52
 6338 0738 36030000 		.4byte	.LVL71
 6339 073c 58030000 		.4byte	.LVL72
 6340 0740 0100     		.2byte	0x1
 6341 0742 55       		.byte	0x55
 6342 0743 58030000 		.4byte	.LVL72
 6343 0747 5C030000 		.4byte	.LVL73
 6344 074b 0800     		.2byte	0x8
 6345 074d 77       		.byte	0x77
 6346 074e 00       		.sleb128 0
 6347 074f 71       		.byte	0x71
 6348 0750 00       		.sleb128 0
 6349 0751 27       		.byte	0x27
 6350 0752 31       		.byte	0x31
 6351 0753 24       		.byte	0x24
 6352 0754 9F       		.byte	0x9f
 6353 0755 5C030000 		.4byte	.LVL73
 6354 0759 66030000 		.4byte	.LVL74
 6355 075d 0A00     		.2byte	0xa
 6356 075f 77       		.byte	0x77
 6357 0760 00       		.sleb128 0
 6358 0761 91       		.byte	0x91
 6359 0762 A87F     		.sleb128 -88
 6360 0764 06       		.byte	0x6
 6361 0765 27       		.byte	0x27
 6362 0766 31       		.byte	0x31
 6363 0767 24       		.byte	0x24
 6364 0768 9F       		.byte	0x9f
 6365 0769 66030000 		.4byte	.LVL74
 6366 076d 3A060000 		.4byte	.LFE2
 6367 0771 0C00     		.2byte	0xc
 6368 0773 91       		.byte	0x91
 6369 0774 B07F     		.sleb128 -80
 6370 0776 06       		.byte	0x6
 6371 0777 91       		.byte	0x91
 6372 0778 A87F     		.sleb128 -88
 6373 077a 06       		.byte	0x6
 6374 077b 27       		.byte	0x27
 6375 077c 31       		.byte	0x31
 6376 077d 24       		.byte	0x24
 6377 077e 9F       		.byte	0x9f
ARM GAS  C:\Users\Vergil\AppData\Local\Temp\ccl0Rg49.s 			page 113


 6378 077f 00000000 		.4byte	0
 6379 0783 00000000 		.4byte	0
 6380              	.LLST21:
 6381 0787 6A000000 		.4byte	.LVL27
 6382 078b 84000000 		.4byte	.LVL31
 6383 078f 1E00     		.2byte	0x1e
 6384 0791 74       		.byte	0x74
 6385 0792 07       		.sleb128 7
 6386 0793 94       		.byte	0x94
 6387 0794 01       		.byte	0x1
 6388 0795 08       		.byte	0x8
 6389 0796 FF       		.byte	0xff
 6390 0797 1A       		.byte	0x1a
 6391 0798 91       		.byte	0x91
 6392 0799 58       		.sleb128 -40
 6393 079a 06       		.byte	0x6
 6394 079b 27       		.byte	0x27
 6395 079c 03       		.byte	0x3
 6396 079d 00000000 		.4byte	.LANCHOR1
 6397 07a1 22       		.byte	0x22
 6398 07a2 94       		.byte	0x94
 6399 07a3 01       		.byte	0x1
 6400 07a4 08       		.byte	0x8
 6401 07a5 FF       		.byte	0xff
 6402 07a6 1A       		.byte	0x1a
 6403 07a7 91       		.byte	0x91
 6404 07a8 A07F     		.sleb128 -96
 6405 07aa 06       		.byte	0x6
 6406 07ab 27       		.byte	0x27
 6407 07ac 31       		.byte	0x31
 6408 07ad 24       		.byte	0x24
 6409 07ae 9F       		.byte	0x9f
 6410 07af 84000000 		.4byte	.LVL31
 6411 07b3 8A000000 		.4byte	.LVL32
 6412 07b7 1E00     		.2byte	0x1e
 6413 07b9 74       		.byte	0x74
 6414 07ba 77       		.sleb128 -9
 6415 07bb 94       		.byte	0x94
 6416 07bc 01       		.byte	0x1
 6417 07bd 08       		.byte	0x8
 6418 07be FF       		.byte	0xff
 6419 07bf 1A       		.byte	0x1a
 6420 07c0 91       		.byte	0x91
 6421 07c1 58       		.sleb128 -40
 6422 07c2 06       		.byte	0x6
 6423 07c3 27       		.byte	0x27
 6424 07c4 03       		.byte	0x3
 6425 07c5 00000000 		.4byte	.LANCHOR1
 6426 07c9 22       		.byte	0x22
 6427 07ca 94       		.byte	0x94
 6428 07cb 01       		.byte	0x1
 6429 07cc 08       		.byte	0x8
 6430 07cd FF       		.byte	0xff
 6431 07ce 1A       		.byte	0x1a
 6432 07cf 91       		.byte	0x91
 6433 07d0 A07F     		.sleb128 -96
 6434 07d2 06       		.byte	0x6
ARM GAS  C:\Users\Vergil\AppData\Local\Temp\ccl0Rg49.s 			page 114


 6435 07d3 27       		.byte	0x27
 6436 07d4 31       		.byte	0x31
 6437 07d5 24       		.byte	0x24
 6438 07d6 9F       		.byte	0x9f
 6439 07d7 82030000 		.4byte	.LVL75
 6440 07db A2030000 		.4byte	.LVL78
 6441 07df 0100     		.2byte	0x1
 6442 07e1 52       		.byte	0x52
 6443 07e2 A2030000 		.4byte	.LVL78
 6444 07e6 12040000 		.4byte	.LVL87
 6445 07ea 1E00     		.2byte	0x1e
 6446 07ec 74       		.byte	0x74
 6447 07ed 07       		.sleb128 7
 6448 07ee 94       		.byte	0x94
 6449 07ef 01       		.byte	0x1
 6450 07f0 08       		.byte	0x8
 6451 07f1 FF       		.byte	0xff
 6452 07f2 1A       		.byte	0x1a
 6453 07f3 91       		.byte	0x91
 6454 07f4 58       		.sleb128 -40
 6455 07f5 06       		.byte	0x6
 6456 07f6 27       		.byte	0x27
 6457 07f7 03       		.byte	0x3
 6458 07f8 00000000 		.4byte	.LANCHOR1
 6459 07fc 22       		.byte	0x22
 6460 07fd 94       		.byte	0x94
 6461 07fe 01       		.byte	0x1
 6462 07ff 08       		.byte	0x8
 6463 0800 FF       		.byte	0xff
 6464 0801 1A       		.byte	0x1a
 6465 0802 91       		.byte	0x91
 6466 0803 A07F     		.sleb128 -96
 6467 0805 06       		.byte	0x6
 6468 0806 27       		.byte	0x27
 6469 0807 31       		.byte	0x31
 6470 0808 24       		.byte	0x24
 6471 0809 9F       		.byte	0x9f
 6472 080a 12040000 		.4byte	.LVL87
 6473 080e 14040000 		.4byte	.LVL88
 6474 0812 1E00     		.2byte	0x1e
 6475 0814 74       		.byte	0x74
 6476 0815 77       		.sleb128 -9
 6477 0816 94       		.byte	0x94
 6478 0817 01       		.byte	0x1
 6479 0818 08       		.byte	0x8
 6480 0819 FF       		.byte	0xff
 6481 081a 1A       		.byte	0x1a
 6482 081b 91       		.byte	0x91
 6483 081c 58       		.sleb128 -40
 6484 081d 06       		.byte	0x6
 6485 081e 27       		.byte	0x27
 6486 081f 03       		.byte	0x3
 6487 0820 00000000 		.4byte	.LANCHOR1
 6488 0824 22       		.byte	0x22
 6489 0825 94       		.byte	0x94
 6490 0826 01       		.byte	0x1
 6491 0827 08       		.byte	0x8
ARM GAS  C:\Users\Vergil\AppData\Local\Temp\ccl0Rg49.s 			page 115


 6492 0828 FF       		.byte	0xff
 6493 0829 1A       		.byte	0x1a
 6494 082a 91       		.byte	0x91
 6495 082b A07F     		.sleb128 -96
 6496 082d 06       		.byte	0x6
 6497 082e 27       		.byte	0x27
 6498 082f 31       		.byte	0x31
 6499 0830 24       		.byte	0x24
 6500 0831 9F       		.byte	0x9f
 6501 0832 00000000 		.4byte	0
 6502 0836 00000000 		.4byte	0
 6503              	.LLST22:
 6504 083a 6A000000 		.4byte	.LVL27
 6505 083e 8A000000 		.4byte	.LVL32
 6506 0842 0E00     		.2byte	0xe
 6507 0844 91       		.byte	0x91
 6508 0845 AC7F     		.sleb128 -84
 6509 0847 06       		.byte	0x6
 6510 0848 91       		.byte	0x91
 6511 0849 A47F     		.sleb128 -92
 6512 084b 06       		.byte	0x6
 6513 084c 27       		.byte	0x27
 6514 084d 31       		.byte	0x31
 6515 084e 24       		.byte	0x24
 6516 084f 31       		.byte	0x31
 6517 0850 24       		.byte	0x24
 6518 0851 9F       		.byte	0x9f
 6519 0852 A2030000 		.4byte	.LVL78
 6520 0856 AA030000 		.4byte	.LVL79
 6521 085a 0100     		.2byte	0x1
 6522 085c 57       		.byte	0x57
 6523 085d AA030000 		.4byte	.LVL79
 6524 0861 B6030000 		.4byte	.LVL80
 6525 0865 0500     		.2byte	0x5
 6526 0867 71       		.byte	0x71
 6527 0868 00       		.sleb128 0
 6528 0869 31       		.byte	0x31
 6529 086a 24       		.byte	0x24
 6530 086b 9F       		.byte	0x9f
 6531 086c B6030000 		.4byte	.LVL80
 6532 0870 EA030000 		.4byte	.LVL84
 6533 0874 0C00     		.2byte	0xc
 6534 0876 70       		.byte	0x70
 6535 0877 00       		.sleb128 0
 6536 0878 91       		.byte	0x91
 6537 0879 A47F     		.sleb128 -92
 6538 087b 06       		.byte	0x6
 6539 087c 27       		.byte	0x27
 6540 087d 31       		.byte	0x31
 6541 087e 24       		.byte	0x24
 6542 087f 31       		.byte	0x31
 6543 0880 24       		.byte	0x24
 6544 0881 9F       		.byte	0x9f
 6545 0882 EA030000 		.4byte	.LVL84
 6546 0886 3A060000 		.4byte	.LFE2
 6547 088a 0E00     		.2byte	0xe
 6548 088c 91       		.byte	0x91
ARM GAS  C:\Users\Vergil\AppData\Local\Temp\ccl0Rg49.s 			page 116


 6549 088d AC7F     		.sleb128 -84
 6550 088f 06       		.byte	0x6
 6551 0890 91       		.byte	0x91
 6552 0891 A47F     		.sleb128 -92
 6553 0893 06       		.byte	0x6
 6554 0894 27       		.byte	0x27
 6555 0895 31       		.byte	0x31
 6556 0896 24       		.byte	0x24
 6557 0897 31       		.byte	0x31
 6558 0898 24       		.byte	0x24
 6559 0899 9F       		.byte	0x9f
 6560 089a 00000000 		.4byte	0
 6561 089e 00000000 		.4byte	0
 6562              	.LLST23:
 6563 08a2 6A000000 		.4byte	.LVL27
 6564 08a6 70000000 		.4byte	.LVL28
 6565 08aa 0A00     		.2byte	0xa
 6566 08ac 7A       		.byte	0x7a
 6567 08ad 00       		.sleb128 0
 6568 08ae 91       		.byte	0x91
 6569 08af AC7F     		.sleb128 -84
 6570 08b1 06       		.byte	0x6
 6571 08b2 27       		.byte	0x27
 6572 08b3 31       		.byte	0x31
 6573 08b4 24       		.byte	0x24
 6574 08b5 9F       		.byte	0x9f
 6575 08b6 70000000 		.4byte	.LVL28
 6576 08ba 8A000000 		.4byte	.LVL32
 6577 08be 0C00     		.2byte	0xc
 6578 08c0 91       		.byte	0x91
 6579 08c1 B47F     		.sleb128 -76
 6580 08c3 06       		.byte	0x6
 6581 08c4 91       		.byte	0x91
 6582 08c5 AC7F     		.sleb128 -84
 6583 08c7 06       		.byte	0x6
 6584 08c8 27       		.byte	0x27
 6585 08c9 31       		.byte	0x31
 6586 08ca 24       		.byte	0x24
 6587 08cb 9F       		.byte	0x9f
 6588 08cc B8030000 		.4byte	.LVL81
 6589 08d0 C6030000 		.4byte	.LVL82
 6590 08d4 0100     		.2byte	0x1
 6591 08d6 53       		.byte	0x53
 6592 08d7 C6030000 		.4byte	.LVL82
 6593 08db E4030000 		.4byte	.LVL83
 6594 08df 0100     		.2byte	0x1
 6595 08e1 57       		.byte	0x57
 6596 08e2 E4030000 		.4byte	.LVL83
 6597 08e6 EA030000 		.4byte	.LVL84
 6598 08ea 0800     		.2byte	0x8
 6599 08ec 7A       		.byte	0x7a
 6600 08ed 00       		.sleb128 0
 6601 08ee 70       		.byte	0x70
 6602 08ef 00       		.sleb128 0
 6603 08f0 27       		.byte	0x27
 6604 08f1 31       		.byte	0x31
 6605 08f2 24       		.byte	0x24
ARM GAS  C:\Users\Vergil\AppData\Local\Temp\ccl0Rg49.s 			page 117


 6606 08f3 9F       		.byte	0x9f
 6607 08f4 EA030000 		.4byte	.LVL84
 6608 08f8 0C040000 		.4byte	.LVL86
 6609 08fc 0A00     		.2byte	0xa
 6610 08fe 7A       		.byte	0x7a
 6611 08ff 00       		.sleb128 0
 6612 0900 91       		.byte	0x91
 6613 0901 AC7F     		.sleb128 -84
 6614 0903 06       		.byte	0x6
 6615 0904 27       		.byte	0x27
 6616 0905 31       		.byte	0x31
 6617 0906 24       		.byte	0x24
 6618 0907 9F       		.byte	0x9f
 6619 0908 0C040000 		.4byte	.LVL86
 6620 090c 3A060000 		.4byte	.LFE2
 6621 0910 0C00     		.2byte	0xc
 6622 0912 91       		.byte	0x91
 6623 0913 B47F     		.sleb128 -76
 6624 0915 06       		.byte	0x6
 6625 0916 91       		.byte	0x91
 6626 0917 AC7F     		.sleb128 -84
 6627 0919 06       		.byte	0x6
 6628 091a 27       		.byte	0x27
 6629 091b 31       		.byte	0x31
 6630 091c 24       		.byte	0x24
 6631 091d 9F       		.byte	0x9f
 6632 091e 00000000 		.4byte	0
 6633 0922 00000000 		.4byte	0
 6634              	.LLST24:
 6635 0926 00000000 		.4byte	.LFB3
 6636 092a 04000000 		.4byte	.LCFI4
 6637 092e 0200     		.2byte	0x2
 6638 0930 7D       		.byte	0x7d
 6639 0931 00       		.sleb128 0
 6640 0932 04000000 		.4byte	.LCFI4
 6641 0936 46000000 		.4byte	.LCFI5
 6642 093a 0200     		.2byte	0x2
 6643 093c 7D       		.byte	0x7d
 6644 093d 20       		.sleb128 32
 6645 093e 46000000 		.4byte	.LCFI5
 6646 0942 6C070000 		.4byte	.LFE3
 6647 0946 0300     		.2byte	0x3
 6648 0948 7D       		.byte	0x7d
 6649 0949 E000     		.sleb128 96
 6650 094b 00000000 		.4byte	0
 6651 094f 00000000 		.4byte	0
 6652              	.LLST25:
 6653 0953 00000000 		.4byte	.LVL99
 6654 0957 1C000000 		.4byte	.LVL100
 6655 095b 0100     		.2byte	0x1
 6656 095d 50       		.byte	0x50
 6657 095e 1C000000 		.4byte	.LVL100
 6658 0962 6C070000 		.4byte	.LFE3
 6659 0966 0100     		.2byte	0x1
 6660 0968 59       		.byte	0x59
 6661 0969 00000000 		.4byte	0
 6662 096d 00000000 		.4byte	0
ARM GAS  C:\Users\Vergil\AppData\Local\Temp\ccl0Rg49.s 			page 118


 6663              	.LLST26:
 6664 0971 00000000 		.4byte	.LVL99
 6665 0975 54020000 		.4byte	.LVL107
 6666 0979 0100     		.2byte	0x1
 6667 097b 51       		.byte	0x51
 6668 097c 54020000 		.4byte	.LVL107
 6669 0980 6C070000 		.4byte	.LFE3
 6670 0984 0400     		.2byte	0x4
 6671 0986 F3       		.byte	0xf3
 6672 0987 01       		.uleb128 0x1
 6673 0988 51       		.byte	0x51
 6674 0989 9F       		.byte	0x9f
 6675 098a 00000000 		.4byte	0
 6676 098e 00000000 		.4byte	0
 6677              	.LLST27:
 6678 0992 92010000 		.4byte	.LVL101
 6679 0996 10020000 		.4byte	.LVL102
 6680 099a 0100     		.2byte	0x1
 6681 099c 58       		.byte	0x58
 6682 099d 10020000 		.4byte	.LVL102
 6683 09a1 38020000 		.4byte	.LVL104
 6684 09a5 0300     		.2byte	0x3
 6685 09a7 91       		.byte	0x91
 6686 09a8 B47F     		.sleb128 -76
 6687 09aa 38020000 		.4byte	.LVL104
 6688 09ae 4E020000 		.4byte	.LVL106
 6689 09b2 0100     		.2byte	0x1
 6690 09b4 57       		.byte	0x57
 6691 09b5 4E020000 		.4byte	.LVL106
 6692 09b9 54020000 		.4byte	.LVL107
 6693 09bd 0200     		.2byte	0x2
 6694 09bf 7D       		.byte	0x7d
 6695 09c0 00       		.sleb128 0
 6696 09c1 54020000 		.4byte	.LVL107
 6697 09c5 86020000 		.4byte	.LVL113
 6698 09c9 0100     		.2byte	0x1
 6699 09cb 57       		.byte	0x57
 6700 09cc A4020000 		.4byte	.LVL116
 6701 09d0 06030000 		.4byte	.LVL124
 6702 09d4 0100     		.2byte	0x1
 6703 09d6 54       		.byte	0x54
 6704 09d7 06030000 		.4byte	.LVL124
 6705 09db 2A030000 		.4byte	.LVL126
 6706 09df B000     		.2byte	0xb0
 6707 09e1 91       		.byte	0x91
 6708 09e2 B07F     		.sleb128 -80
 6709 09e4 06       		.byte	0x6
 6710 09e5 91       		.byte	0x91
 6711 09e6 BC7F     		.sleb128 -68
 6712 09e8 06       		.byte	0x6
 6713 09e9 27       		.byte	0x27
 6714 09ea 31       		.byte	0x31
 6715 09eb 24       		.byte	0x24
 6716 09ec 4B       		.byte	0x4b
 6717 09ed 27       		.byte	0x27
 6718 09ee 91       		.byte	0x91
 6719 09ef B07F     		.sleb128 -80
ARM GAS  C:\Users\Vergil\AppData\Local\Temp\ccl0Rg49.s 			page 119


 6720 09f1 06       		.byte	0x6
 6721 09f2 91       		.byte	0x91
 6722 09f3 BC7F     		.sleb128 -68
 6723 09f5 06       		.byte	0x6
 6724 09f6 27       		.byte	0x27
 6725 09f7 31       		.byte	0x31
 6726 09f8 24       		.byte	0x24
 6727 09f9 91       		.byte	0x91
 6728 09fa B07F     		.sleb128 -80
 6729 09fc 06       		.byte	0x6
 6730 09fd 91       		.byte	0x91
 6731 09fe BC7F     		.sleb128 -68
 6732 0a00 06       		.byte	0x6
 6733 0a01 27       		.byte	0x27
 6734 0a02 09       		.byte	0x9
 6735 0a03 FC       		.byte	0xfc
 6736 0a04 24       		.byte	0x24
 6737 0a05 33       		.byte	0x33
 6738 0a06 25       		.byte	0x25
 6739 0a07 30       		.byte	0x30
 6740 0a08 2E       		.byte	0x2e
 6741 0a09 28       		.byte	0x28
 6742 0a0a 0100     		.2byte	0x1
 6743 0a0c 16       		.byte	0x16
 6744 0a0d 13       		.byte	0x13
 6745 0a0e 08       		.byte	0x8
 6746 0a0f FF       		.byte	0xff
 6747 0a10 1A       		.byte	0x1a
 6748 0a11 31       		.byte	0x31
 6749 0a12 24       		.byte	0x24
 6750 0a13 4B       		.byte	0x4b
 6751 0a14 27       		.byte	0x27
 6752 0a15 91       		.byte	0x91
 6753 0a16 B07F     		.sleb128 -80
 6754 0a18 06       		.byte	0x6
 6755 0a19 91       		.byte	0x91
 6756 0a1a BC7F     		.sleb128 -68
 6757 0a1c 06       		.byte	0x6
 6758 0a1d 27       		.byte	0x27
 6759 0a1e 31       		.byte	0x31
 6760 0a1f 24       		.byte	0x24
 6761 0a20 4B       		.byte	0x4b
 6762 0a21 27       		.byte	0x27
 6763 0a22 91       		.byte	0x91
 6764 0a23 B07F     		.sleb128 -80
 6765 0a25 06       		.byte	0x6
 6766 0a26 91       		.byte	0x91
 6767 0a27 BC7F     		.sleb128 -68
 6768 0a29 06       		.byte	0x6
 6769 0a2a 27       		.byte	0x27
 6770 0a2b 31       		.byte	0x31
 6771 0a2c 24       		.byte	0x24
 6772 0a2d 91       		.byte	0x91
 6773 0a2e B07F     		.sleb128 -80
 6774 0a30 06       		.byte	0x6
 6775 0a31 91       		.byte	0x91
 6776 0a32 BC7F     		.sleb128 -68
ARM GAS  C:\Users\Vergil\AppData\Local\Temp\ccl0Rg49.s 			page 120


 6777 0a34 06       		.byte	0x6
 6778 0a35 27       		.byte	0x27
 6779 0a36 09       		.byte	0x9
 6780 0a37 FC       		.byte	0xfc
 6781 0a38 24       		.byte	0x24
 6782 0a39 33       		.byte	0x33
 6783 0a3a 25       		.byte	0x25
 6784 0a3b 30       		.byte	0x30
 6785 0a3c 2E       		.byte	0x2e
 6786 0a3d 28       		.byte	0x28
 6787 0a3e 0100     		.2byte	0x1
 6788 0a40 16       		.byte	0x16
 6789 0a41 13       		.byte	0x13
 6790 0a42 08       		.byte	0x8
 6791 0a43 FF       		.byte	0xff
 6792 0a44 1A       		.byte	0x1a
 6793 0a45 31       		.byte	0x31
 6794 0a46 24       		.byte	0x24
 6795 0a47 91       		.byte	0x91
 6796 0a48 B07F     		.sleb128 -80
 6797 0a4a 06       		.byte	0x6
 6798 0a4b 91       		.byte	0x91
 6799 0a4c BC7F     		.sleb128 -68
 6800 0a4e 06       		.byte	0x6
 6801 0a4f 27       		.byte	0x27
 6802 0a50 31       		.byte	0x31
 6803 0a51 24       		.byte	0x24
 6804 0a52 4B       		.byte	0x4b
 6805 0a53 27       		.byte	0x27
 6806 0a54 91       		.byte	0x91
 6807 0a55 B07F     		.sleb128 -80
 6808 0a57 06       		.byte	0x6
 6809 0a58 91       		.byte	0x91
 6810 0a59 BC7F     		.sleb128 -68
 6811 0a5b 06       		.byte	0x6
 6812 0a5c 27       		.byte	0x27
 6813 0a5d 31       		.byte	0x31
 6814 0a5e 24       		.byte	0x24
 6815 0a5f 91       		.byte	0x91
 6816 0a60 B07F     		.sleb128 -80
 6817 0a62 06       		.byte	0x6
 6818 0a63 91       		.byte	0x91
 6819 0a64 BC7F     		.sleb128 -68
 6820 0a66 06       		.byte	0x6
 6821 0a67 27       		.byte	0x27
 6822 0a68 09       		.byte	0x9
 6823 0a69 FC       		.byte	0xfc
 6824 0a6a 24       		.byte	0x24
 6825 0a6b 33       		.byte	0x33
 6826 0a6c 25       		.byte	0x25
 6827 0a6d 30       		.byte	0x30
 6828 0a6e 2E       		.byte	0x2e
 6829 0a6f 28       		.byte	0x28
 6830 0a70 0100     		.2byte	0x1
 6831 0a72 16       		.byte	0x16
 6832 0a73 13       		.byte	0x13
 6833 0a74 08       		.byte	0x8
ARM GAS  C:\Users\Vergil\AppData\Local\Temp\ccl0Rg49.s 			page 121


 6834 0a75 FF       		.byte	0xff
 6835 0a76 1A       		.byte	0x1a
 6836 0a77 09       		.byte	0x9
 6837 0a78 FC       		.byte	0xfc
 6838 0a79 24       		.byte	0x24
 6839 0a7a 33       		.byte	0x33
 6840 0a7b 25       		.byte	0x25
 6841 0a7c 30       		.byte	0x30
 6842 0a7d 2E       		.byte	0x2e
 6843 0a7e 28       		.byte	0x28
 6844 0a7f 0100     		.2byte	0x1
 6845 0a81 16       		.byte	0x16
 6846 0a82 13       		.byte	0x13
 6847 0a83 08       		.byte	0x8
 6848 0a84 FF       		.byte	0xff
 6849 0a85 1A       		.byte	0x1a
 6850 0a86 91       		.byte	0x91
 6851 0a87 B47F     		.sleb128 -76
 6852 0a89 06       		.byte	0x6
 6853 0a8a 27       		.byte	0x27
 6854 0a8b 91       		.byte	0x91
 6855 0a8c A87F     		.sleb128 -88
 6856 0a8e 06       		.byte	0x6
 6857 0a8f 27       		.byte	0x27
 6858 0a90 9F       		.byte	0x9f
 6859 0a91 2A030000 		.4byte	.LVL126
 6860 0a95 9E030000 		.4byte	.LVL144
 6861 0a99 0100     		.2byte	0x1
 6862 0a9b 5A       		.byte	0x5a
 6863 0a9c 9E030000 		.4byte	.LVL144
 6864 0aa0 3E040000 		.4byte	.LVL145
 6865 0aa4 1300     		.2byte	0x13
 6866 0aa6 7D       		.byte	0x7d
 6867 0aa7 00       		.sleb128 0
 6868 0aa8 06       		.byte	0x6
 6869 0aa9 91       		.byte	0x91
 6870 0aaa A47F     		.sleb128 -92
 6871 0aac 06       		.byte	0x6
 6872 0aad 27       		.byte	0x27
 6873 0aae 91       		.byte	0x91
 6874 0aaf B87F     		.sleb128 -72
 6875 0ab1 06       		.byte	0x6
 6876 0ab2 27       		.byte	0x27
 6877 0ab3 91       		.byte	0x91
 6878 0ab4 AC7F     		.sleb128 -84
 6879 0ab6 06       		.byte	0x6
 6880 0ab7 27       		.byte	0x27
 6881 0ab8 9F       		.byte	0x9f
 6882 0ab9 3E040000 		.4byte	.LVL145
 6883 0abd 78040000 		.4byte	.LVL146
 6884 0ac1 0100     		.2byte	0x1
 6885 0ac3 58       		.byte	0x58
 6886 0ac4 78040000 		.4byte	.LVL146
 6887 0ac8 BE040000 		.4byte	.LVL148
 6888 0acc 0300     		.2byte	0x3
 6889 0ace 91       		.byte	0x91
 6890 0acf B47F     		.sleb128 -76
ARM GAS  C:\Users\Vergil\AppData\Local\Temp\ccl0Rg49.s 			page 122


 6891 0ad1 BE040000 		.4byte	.LVL148
 6892 0ad5 E0040000 		.4byte	.LVL149
 6893 0ad9 0200     		.2byte	0x2
 6894 0adb 7D       		.byte	0x7d
 6895 0adc 00       		.sleb128 0
 6896 0add 72060000 		.4byte	.LVL208
 6897 0ae1 E8060000 		.4byte	.LVL218
 6898 0ae5 0100     		.2byte	0x1
 6899 0ae7 55       		.byte	0x55
 6900 0ae8 F6060000 		.4byte	.LVL219
 6901 0aec 50070000 		.4byte	.LVL231
 6902 0af0 0100     		.2byte	0x1
 6903 0af2 57       		.byte	0x57
 6904 0af3 50070000 		.4byte	.LVL231
 6905 0af7 5A070000 		.4byte	.LVL233
 6906 0afb 0100     		.2byte	0x1
 6907 0afd 5A       		.byte	0x5a
 6908 0afe 5A070000 		.4byte	.LVL233
 6909 0b02 64070000 		.4byte	.LVL235
 6910 0b06 0100     		.2byte	0x1
 6911 0b08 54       		.byte	0x54
 6912 0b09 64070000 		.4byte	.LVL235
 6913 0b0d 6C070000 		.4byte	.LFE3
 6914 0b11 0200     		.2byte	0x2
 6915 0b13 7D       		.byte	0x7d
 6916 0b14 00       		.sleb128 0
 6917 0b15 00000000 		.4byte	0
 6918 0b19 00000000 		.4byte	0
 6919              	.LLST28:
 6920 0b1d 16020000 		.4byte	.LVL103
 6921 0b21 54020000 		.4byte	.LVL107
 6922 0b25 0300     		.2byte	0x3
 6923 0b27 91       		.byte	0x91
 6924 0b28 A47F     		.sleb128 -92
 6925 0b2a 54020000 		.4byte	.LVL107
 6926 0b2e A4020000 		.4byte	.LVL116
 6927 0b32 0200     		.2byte	0x2
 6928 0b34 91       		.byte	0x91
 6929 0b35 44       		.sleb128 -60
 6930 0b36 A4020000 		.4byte	.LVL116
 6931 0b3a 2A030000 		.4byte	.LVL126
 6932 0b3e 0300     		.2byte	0x3
 6933 0b40 91       		.byte	0x91
 6934 0b41 A87F     		.sleb128 -88
 6935 0b43 2A030000 		.4byte	.LVL126
 6936 0b47 84040000 		.4byte	.LVL147
 6937 0b4b 0300     		.2byte	0x3
 6938 0b4d 91       		.byte	0x91
 6939 0b4e AC7F     		.sleb128 -84
 6940 0b50 84040000 		.4byte	.LVL147
 6941 0b54 20050000 		.4byte	.LVL161
 6942 0b58 0300     		.2byte	0x3
 6943 0b5a 91       		.byte	0x91
 6944 0b5b A47F     		.sleb128 -92
 6945 0b5d 72060000 		.4byte	.LVL208
 6946 0b61 C2060000 		.4byte	.LVL215
 6947 0b65 0100     		.2byte	0x1
ARM GAS  C:\Users\Vergil\AppData\Local\Temp\ccl0Rg49.s 			page 123


 6948 0b67 5B       		.byte	0x5b
 6949 0b68 F6060000 		.4byte	.LVL219
 6950 0b6c 50070000 		.4byte	.LVL231
 6951 0b70 0200     		.2byte	0x2
 6952 0b72 91       		.byte	0x91
 6953 0b73 44       		.sleb128 -60
 6954 0b74 50070000 		.4byte	.LVL231
 6955 0b78 5A070000 		.4byte	.LVL233
 6956 0b7c 0300     		.2byte	0x3
 6957 0b7e 91       		.byte	0x91
 6958 0b7f AC7F     		.sleb128 -84
 6959 0b81 5A070000 		.4byte	.LVL233
 6960 0b85 64070000 		.4byte	.LVL235
 6961 0b89 0300     		.2byte	0x3
 6962 0b8b 91       		.byte	0x91
 6963 0b8c A87F     		.sleb128 -88
 6964 0b8e 64070000 		.4byte	.LVL235
 6965 0b92 6C070000 		.4byte	.LFE3
 6966 0b96 0300     		.2byte	0x3
 6967 0b98 91       		.byte	0x91
 6968 0b99 A47F     		.sleb128 -92
 6969 0b9b 00000000 		.4byte	0
 6970 0b9f 00000000 		.4byte	0
 6971              	.LLST29:
 6972 0ba3 54020000 		.4byte	.LVL107
 6973 0ba7 56020000 		.4byte	.LVL108
 6974 0bab 0100     		.2byte	0x1
 6975 0bad 54       		.byte	0x54
 6976 0bae 56020000 		.4byte	.LVL108
 6977 0bb2 58020000 		.4byte	.LVL109
 6978 0bb6 0700     		.2byte	0x7
 6979 0bb8 91       		.byte	0x91
 6980 0bb9 48       		.sleb128 -56
 6981 0bba 06       		.byte	0x6
 6982 0bbb 7A       		.byte	0x7a
 6983 0bbc 00       		.sleb128 0
 6984 0bbd 27       		.byte	0x27
 6985 0bbe 9F       		.byte	0x9f
 6986 0bbf 62020000 		.4byte	.LVL110
 6987 0bc3 76020000 		.4byte	.LVL112
 6988 0bc7 0100     		.2byte	0x1
 6989 0bc9 54       		.byte	0x54
 6990 0bca AA020000 		.4byte	.LVL117
 6991 0bce BE020000 		.4byte	.LVL118
 6992 0bd2 0100     		.2byte	0x1
 6993 0bd4 53       		.byte	0x53
 6994 0bd5 D4020000 		.4byte	.LVL119
 6995 0bd9 DA020000 		.4byte	.LVL120
 6996 0bdd 0100     		.2byte	0x1
 6997 0bdf 51       		.byte	0x51
 6998 0be0 DA020000 		.4byte	.LVL120
 6999 0be4 DC020000 		.4byte	.LVL121
 7000 0be8 0A00     		.2byte	0xa
 7001 0bea 91       		.byte	0x91
 7002 0beb B47F     		.sleb128 -76
 7003 0bed 06       		.byte	0x6
 7004 0bee 91       		.byte	0x91
ARM GAS  C:\Users\Vergil\AppData\Local\Temp\ccl0Rg49.s 			page 124


 7005 0bef BC7F     		.sleb128 -68
 7006 0bf1 06       		.byte	0x6
 7007 0bf2 27       		.byte	0x27
 7008 0bf3 9F       		.byte	0x9f
 7009 0bf4 F0020000 		.4byte	.LVL122
 7010 0bf8 FA020000 		.4byte	.LVL123
 7011 0bfc 0100     		.2byte	0x1
 7012 0bfe 58       		.byte	0x58
 7013 0bff 3C030000 		.4byte	.LVL130
 7014 0c03 4A030000 		.4byte	.LVL131
 7015 0c07 0100     		.2byte	0x1
 7016 0c09 56       		.byte	0x56
 7017 0c0a 4A030000 		.4byte	.LVL131
 7018 0c0e 50030000 		.4byte	.LVL132
 7019 0c12 0800     		.2byte	0x8
 7020 0c14 91       		.byte	0x91
 7021 0c15 B87F     		.sleb128 -72
 7022 0c17 06       		.byte	0x6
 7023 0c18 77       		.byte	0x77
 7024 0c19 00       		.sleb128 0
 7025 0c1a 27       		.byte	0x27
 7026 0c1b 9F       		.byte	0x9f
 7027 0c1c 62030000 		.4byte	.LVL135
 7028 0c20 68030000 		.4byte	.LVL136
 7029 0c24 0100     		.2byte	0x1
 7030 0c26 53       		.byte	0x53
 7031 0c27 68030000 		.4byte	.LVL136
 7032 0c2b 6A030000 		.4byte	.LVL137
 7033 0c2f 0900     		.2byte	0x9
 7034 0c31 7D       		.byte	0x7d
 7035 0c32 00       		.sleb128 0
 7036 0c33 06       		.byte	0x6
 7037 0c34 91       		.byte	0x91
 7038 0c35 A47F     		.sleb128 -92
 7039 0c37 06       		.byte	0x6
 7040 0c38 27       		.byte	0x27
 7041 0c39 9F       		.byte	0x9f
 7042 0c3a 7C030000 		.4byte	.LVL138
 7043 0c3e 86030000 		.4byte	.LVL139
 7044 0c42 0100     		.2byte	0x1
 7045 0c44 57       		.byte	0x57
 7046 0c45 86030000 		.4byte	.LVL139
 7047 0c49 88030000 		.4byte	.LVL140
 7048 0c4d 0800     		.2byte	0x8
 7049 0c4f 76       		.byte	0x76
 7050 0c50 00       		.sleb128 0
 7051 0c51 91       		.byte	0x91
 7052 0c52 AC7F     		.sleb128 -84
 7053 0c54 06       		.byte	0x6
 7054 0c55 27       		.byte	0x27
 7055 0c56 9F       		.byte	0x9f
 7056 0c57 86060000 		.4byte	.LVL211
 7057 0c5b 92060000 		.4byte	.LVL212
 7058 0c5f 0100     		.2byte	0x1
 7059 0c61 53       		.byte	0x53
 7060 0c62 CA060000 		.4byte	.LVL216
 7061 0c66 DC060000 		.4byte	.LVL217
ARM GAS  C:\Users\Vergil\AppData\Local\Temp\ccl0Rg49.s 			page 125


 7062 0c6a 0100     		.2byte	0x1
 7063 0c6c 5B       		.byte	0x5b
 7064 0c6d F6060000 		.4byte	.LVL219
 7065 0c71 04070000 		.4byte	.LVL220
 7066 0c75 0100     		.2byte	0x1
 7067 0c77 52       		.byte	0x52
 7068 0c78 1A070000 		.4byte	.LVL223
 7069 0c7c 20070000 		.4byte	.LVL225
 7070 0c80 0100     		.2byte	0x1
 7071 0c82 51       		.byte	0x51
 7072 0c83 42070000 		.4byte	.LVL228
 7073 0c87 50070000 		.4byte	.LVL231
 7074 0c8b 0100     		.2byte	0x1
 7075 0c8d 54       		.byte	0x54
 7076 0c8e 50070000 		.4byte	.LVL231
 7077 0c92 56070000 		.4byte	.LVL232
 7078 0c96 0100     		.2byte	0x1
 7079 0c98 53       		.byte	0x53
 7080 0c99 56070000 		.4byte	.LVL232
 7081 0c9d 5A070000 		.4byte	.LVL233
 7082 0ca1 0900     		.2byte	0x9
 7083 0ca3 7D       		.byte	0x7d
 7084 0ca4 00       		.sleb128 0
 7085 0ca5 06       		.byte	0x6
 7086 0ca6 91       		.byte	0x91
 7087 0ca7 A47F     		.sleb128 -92
 7088 0ca9 06       		.byte	0x6
 7089 0caa 27       		.byte	0x27
 7090 0cab 9F       		.byte	0x9f
 7091 0cac 5A070000 		.4byte	.LVL233
 7092 0cb0 64070000 		.4byte	.LVL235
 7093 0cb4 0100     		.2byte	0x1
 7094 0cb6 51       		.byte	0x51
 7095 0cb7 00000000 		.4byte	0
 7096 0cbb 00000000 		.4byte	0
 7097              	.LLST30:
 7098 0cbf 00000000 		.4byte	.LVL99
 7099 0cc3 3C020000 		.4byte	.LVL105
 7100 0cc7 0200     		.2byte	0x2
 7101 0cc9 39       		.byte	0x39
 7102 0cca 9F       		.byte	0x9f
 7103 0ccb 3C020000 		.4byte	.LVL105
 7104 0ccf 54020000 		.4byte	.LVL107
 7105 0cd3 0200     		.2byte	0x2
 7106 0cd5 38       		.byte	0x38
 7107 0cd6 9F       		.byte	0x9f
 7108 0cd7 00000000 		.4byte	0
 7109 0cdb 00000000 		.4byte	0
 7110              	.LLST31:
 7111 0cdf 54020000 		.4byte	.LVL107
 7112 0ce3 56020000 		.4byte	.LVL108
 7113 0ce7 0100     		.2byte	0x1
 7114 0ce9 54       		.byte	0x54
 7115 0cea 56020000 		.4byte	.LVL108
 7116 0cee 58020000 		.4byte	.LVL109
 7117 0cf2 0700     		.2byte	0x7
 7118 0cf4 91       		.byte	0x91
ARM GAS  C:\Users\Vergil\AppData\Local\Temp\ccl0Rg49.s 			page 126


 7119 0cf5 48       		.sleb128 -56
 7120 0cf6 06       		.byte	0x6
 7121 0cf7 7A       		.byte	0x7a
 7122 0cf8 00       		.sleb128 0
 7123 0cf9 27       		.byte	0x27
 7124 0cfa 9F       		.byte	0x9f
 7125 0cfb 42070000 		.4byte	.LVL228
 7126 0cff 46070000 		.4byte	.LVL229
 7127 0d03 0100     		.2byte	0x1
 7128 0d05 54       		.byte	0x54
 7129 0d06 46070000 		.4byte	.LVL229
 7130 0d0a 50070000 		.4byte	.LVL231
 7131 0d0e 0500     		.2byte	0x5
 7132 0d10 74       		.byte	0x74
 7133 0d11 00       		.sleb128 0
 7134 0d12 31       		.byte	0x31
 7135 0d13 24       		.byte	0x24
 7136 0d14 9F       		.byte	0x9f
 7137 0d15 00000000 		.4byte	0
 7138 0d19 00000000 		.4byte	0
 7139              	.LLST32:
 7140 0d1d 62020000 		.4byte	.LVL110
 7141 0d21 76020000 		.4byte	.LVL112
 7142 0d25 0100     		.2byte	0x1
 7143 0d27 54       		.byte	0x54
 7144 0d28 76020000 		.4byte	.LVL112
 7145 0d2c 8A020000 		.4byte	.LVL114
 7146 0d30 0100     		.2byte	0x1
 7147 0d32 51       		.byte	0x51
 7148 0d33 8A020000 		.4byte	.LVL114
 7149 0d37 8E020000 		.4byte	.LVL115
 7150 0d3b 0900     		.2byte	0x9
 7151 0d3d 72       		.byte	0x72
 7152 0d3e 00       		.sleb128 0
 7153 0d3f 91       		.byte	0x91
 7154 0d40 44       		.sleb128 -60
 7155 0d41 06       		.byte	0x6
 7156 0d42 27       		.byte	0x27
 7157 0d43 31       		.byte	0x31
 7158 0d44 24       		.byte	0x24
 7159 0d45 9F       		.byte	0x9f
 7160 0d46 8E020000 		.4byte	.LVL115
 7161 0d4a E0040000 		.4byte	.LVL149
 7162 0d4e 0A00     		.2byte	0xa
 7163 0d50 91       		.byte	0x91
 7164 0d51 48       		.sleb128 -56
 7165 0d52 06       		.byte	0x6
 7166 0d53 91       		.byte	0x91
 7167 0d54 44       		.sleb128 -60
 7168 0d55 06       		.byte	0x6
 7169 0d56 27       		.byte	0x27
 7170 0d57 31       		.byte	0x31
 7171 0d58 24       		.byte	0x24
 7172 0d59 9F       		.byte	0x9f
 7173 0d5a 50070000 		.4byte	.LVL231
 7174 0d5e 6C070000 		.4byte	.LFE3
 7175 0d62 0A00     		.2byte	0xa
ARM GAS  C:\Users\Vergil\AppData\Local\Temp\ccl0Rg49.s 			page 127


 7176 0d64 91       		.byte	0x91
 7177 0d65 48       		.sleb128 -56
 7178 0d66 06       		.byte	0x6
 7179 0d67 91       		.byte	0x91
 7180 0d68 44       		.sleb128 -60
 7181 0d69 06       		.byte	0x6
 7182 0d6a 27       		.byte	0x27
 7183 0d6b 31       		.byte	0x31
 7184 0d6c 24       		.byte	0x24
 7185 0d6d 9F       		.byte	0x9f
 7186 0d6e 00000000 		.4byte	0
 7187 0d72 00000000 		.4byte	0
 7188              	.LLST33:
 7189 0d76 AA020000 		.4byte	.LVL117
 7190 0d7a BE020000 		.4byte	.LVL118
 7191 0d7e 0100     		.2byte	0x1
 7192 0d80 53       		.byte	0x53
 7193 0d81 BE020000 		.4byte	.LVL118
 7194 0d85 DC020000 		.4byte	.LVL121
 7195 0d89 0100     		.2byte	0x1
 7196 0d8b 52       		.byte	0x52
 7197 0d8c DC020000 		.4byte	.LVL121
 7198 0d90 E0040000 		.4byte	.LVL149
 7199 0d94 A500     		.2byte	0xa5
 7200 0d96 91       		.byte	0x91
 7201 0d97 B07F     		.sleb128 -80
 7202 0d99 06       		.byte	0x6
 7203 0d9a 91       		.byte	0x91
 7204 0d9b BC7F     		.sleb128 -68
 7205 0d9d 06       		.byte	0x6
 7206 0d9e 27       		.byte	0x27
 7207 0d9f 31       		.byte	0x31
 7208 0da0 24       		.byte	0x24
 7209 0da1 4B       		.byte	0x4b
 7210 0da2 27       		.byte	0x27
 7211 0da3 91       		.byte	0x91
 7212 0da4 B07F     		.sleb128 -80
 7213 0da6 06       		.byte	0x6
 7214 0da7 91       		.byte	0x91
 7215 0da8 BC7F     		.sleb128 -68
 7216 0daa 06       		.byte	0x6
 7217 0dab 27       		.byte	0x27
 7218 0dac 31       		.byte	0x31
 7219 0dad 24       		.byte	0x24
 7220 0dae 91       		.byte	0x91
 7221 0daf B07F     		.sleb128 -80
 7222 0db1 06       		.byte	0x6
 7223 0db2 91       		.byte	0x91
 7224 0db3 BC7F     		.sleb128 -68
 7225 0db5 06       		.byte	0x6
 7226 0db6 27       		.byte	0x27
 7227 0db7 09       		.byte	0x9
 7228 0db8 FC       		.byte	0xfc
 7229 0db9 24       		.byte	0x24
 7230 0dba 33       		.byte	0x33
 7231 0dbb 25       		.byte	0x25
 7232 0dbc 30       		.byte	0x30
ARM GAS  C:\Users\Vergil\AppData\Local\Temp\ccl0Rg49.s 			page 128


 7233 0dbd 2E       		.byte	0x2e
 7234 0dbe 28       		.byte	0x28
 7235 0dbf 0100     		.2byte	0x1
 7236 0dc1 16       		.byte	0x16
 7237 0dc2 13       		.byte	0x13
 7238 0dc3 08       		.byte	0x8
 7239 0dc4 FF       		.byte	0xff
 7240 0dc5 1A       		.byte	0x1a
 7241 0dc6 31       		.byte	0x31
 7242 0dc7 24       		.byte	0x24
 7243 0dc8 4B       		.byte	0x4b
 7244 0dc9 27       		.byte	0x27
 7245 0dca 91       		.byte	0x91
 7246 0dcb B07F     		.sleb128 -80
 7247 0dcd 06       		.byte	0x6
 7248 0dce 91       		.byte	0x91
 7249 0dcf BC7F     		.sleb128 -68
 7250 0dd1 06       		.byte	0x6
 7251 0dd2 27       		.byte	0x27
 7252 0dd3 31       		.byte	0x31
 7253 0dd4 24       		.byte	0x24
 7254 0dd5 4B       		.byte	0x4b
 7255 0dd6 27       		.byte	0x27
 7256 0dd7 91       		.byte	0x91
 7257 0dd8 B07F     		.sleb128 -80
 7258 0dda 06       		.byte	0x6
 7259 0ddb 91       		.byte	0x91
 7260 0ddc BC7F     		.sleb128 -68
 7261 0dde 06       		.byte	0x6
 7262 0ddf 27       		.byte	0x27
 7263 0de0 31       		.byte	0x31
 7264 0de1 24       		.byte	0x24
 7265 0de2 91       		.byte	0x91
 7266 0de3 B07F     		.sleb128 -80
 7267 0de5 06       		.byte	0x6
 7268 0de6 91       		.byte	0x91
 7269 0de7 BC7F     		.sleb128 -68
 7270 0de9 06       		.byte	0x6
 7271 0dea 27       		.byte	0x27
 7272 0deb 09       		.byte	0x9
 7273 0dec FC       		.byte	0xfc
 7274 0ded 24       		.byte	0x24
 7275 0dee 33       		.byte	0x33
 7276 0def 25       		.byte	0x25
 7277 0df0 30       		.byte	0x30
 7278 0df1 2E       		.byte	0x2e
 7279 0df2 28       		.byte	0x28
 7280 0df3 0100     		.2byte	0x1
 7281 0df5 16       		.byte	0x16
 7282 0df6 13       		.byte	0x13
 7283 0df7 08       		.byte	0x8
 7284 0df8 FF       		.byte	0xff
 7285 0df9 1A       		.byte	0x1a
 7286 0dfa 31       		.byte	0x31
 7287 0dfb 24       		.byte	0x24
 7288 0dfc 91       		.byte	0x91
 7289 0dfd B07F     		.sleb128 -80
ARM GAS  C:\Users\Vergil\AppData\Local\Temp\ccl0Rg49.s 			page 129


 7290 0dff 06       		.byte	0x6
 7291 0e00 91       		.byte	0x91
 7292 0e01 BC7F     		.sleb128 -68
 7293 0e03 06       		.byte	0x6
 7294 0e04 27       		.byte	0x27
 7295 0e05 31       		.byte	0x31
 7296 0e06 24       		.byte	0x24
 7297 0e07 4B       		.byte	0x4b
 7298 0e08 27       		.byte	0x27
 7299 0e09 91       		.byte	0x91
 7300 0e0a B07F     		.sleb128 -80
 7301 0e0c 06       		.byte	0x6
 7302 0e0d 91       		.byte	0x91
 7303 0e0e BC7F     		.sleb128 -68
 7304 0e10 06       		.byte	0x6
 7305 0e11 27       		.byte	0x27
 7306 0e12 31       		.byte	0x31
 7307 0e13 24       		.byte	0x24
 7308 0e14 91       		.byte	0x91
 7309 0e15 B07F     		.sleb128 -80
 7310 0e17 06       		.byte	0x6
 7311 0e18 91       		.byte	0x91
 7312 0e19 BC7F     		.sleb128 -68
 7313 0e1b 06       		.byte	0x6
 7314 0e1c 27       		.byte	0x27
 7315 0e1d 09       		.byte	0x9
 7316 0e1e FC       		.byte	0xfc
 7317 0e1f 24       		.byte	0x24
 7318 0e20 33       		.byte	0x33
 7319 0e21 25       		.byte	0x25
 7320 0e22 30       		.byte	0x30
 7321 0e23 2E       		.byte	0x2e
 7322 0e24 28       		.byte	0x28
 7323 0e25 0100     		.2byte	0x1
 7324 0e27 16       		.byte	0x16
 7325 0e28 13       		.byte	0x13
 7326 0e29 08       		.byte	0x8
 7327 0e2a FF       		.byte	0xff
 7328 0e2b 1A       		.byte	0x1a
 7329 0e2c 09       		.byte	0x9
 7330 0e2d FC       		.byte	0xfc
 7331 0e2e 24       		.byte	0x24
 7332 0e2f 33       		.byte	0x33
 7333 0e30 25       		.byte	0x25
 7334 0e31 30       		.byte	0x30
 7335 0e32 2E       		.byte	0x2e
 7336 0e33 28       		.byte	0x28
 7337 0e34 0100     		.2byte	0x1
 7338 0e36 16       		.byte	0x16
 7339 0e37 13       		.byte	0x13
 7340 0e38 31       		.byte	0x31
 7341 0e39 24       		.byte	0x24
 7342 0e3a 9F       		.byte	0x9f
 7343 0e3b 50070000 		.4byte	.LVL231
 7344 0e3f 5A070000 		.4byte	.LVL233
 7345 0e43 A500     		.2byte	0xa5
 7346 0e45 91       		.byte	0x91
ARM GAS  C:\Users\Vergil\AppData\Local\Temp\ccl0Rg49.s 			page 130


 7347 0e46 B07F     		.sleb128 -80
 7348 0e48 06       		.byte	0x6
 7349 0e49 91       		.byte	0x91
 7350 0e4a BC7F     		.sleb128 -68
 7351 0e4c 06       		.byte	0x6
 7352 0e4d 27       		.byte	0x27
 7353 0e4e 31       		.byte	0x31
 7354 0e4f 24       		.byte	0x24
 7355 0e50 4B       		.byte	0x4b
 7356 0e51 27       		.byte	0x27
 7357 0e52 91       		.byte	0x91
 7358 0e53 B07F     		.sleb128 -80
 7359 0e55 06       		.byte	0x6
 7360 0e56 91       		.byte	0x91
 7361 0e57 BC7F     		.sleb128 -68
 7362 0e59 06       		.byte	0x6
 7363 0e5a 27       		.byte	0x27
 7364 0e5b 31       		.byte	0x31
 7365 0e5c 24       		.byte	0x24
 7366 0e5d 91       		.byte	0x91
 7367 0e5e B07F     		.sleb128 -80
 7368 0e60 06       		.byte	0x6
 7369 0e61 91       		.byte	0x91
 7370 0e62 BC7F     		.sleb128 -68
 7371 0e64 06       		.byte	0x6
 7372 0e65 27       		.byte	0x27
 7373 0e66 09       		.byte	0x9
 7374 0e67 FC       		.byte	0xfc
 7375 0e68 24       		.byte	0x24
 7376 0e69 33       		.byte	0x33
 7377 0e6a 25       		.byte	0x25
 7378 0e6b 30       		.byte	0x30
 7379 0e6c 2E       		.byte	0x2e
 7380 0e6d 28       		.byte	0x28
 7381 0e6e 0100     		.2byte	0x1
 7382 0e70 16       		.byte	0x16
 7383 0e71 13       		.byte	0x13
 7384 0e72 08       		.byte	0x8
 7385 0e73 FF       		.byte	0xff
 7386 0e74 1A       		.byte	0x1a
 7387 0e75 31       		.byte	0x31
 7388 0e76 24       		.byte	0x24
 7389 0e77 4B       		.byte	0x4b
 7390 0e78 27       		.byte	0x27
 7391 0e79 91       		.byte	0x91
 7392 0e7a B07F     		.sleb128 -80
 7393 0e7c 06       		.byte	0x6
 7394 0e7d 91       		.byte	0x91
 7395 0e7e BC7F     		.sleb128 -68
 7396 0e80 06       		.byte	0x6
 7397 0e81 27       		.byte	0x27
 7398 0e82 31       		.byte	0x31
 7399 0e83 24       		.byte	0x24
 7400 0e84 4B       		.byte	0x4b
 7401 0e85 27       		.byte	0x27
 7402 0e86 91       		.byte	0x91
 7403 0e87 B07F     		.sleb128 -80
ARM GAS  C:\Users\Vergil\AppData\Local\Temp\ccl0Rg49.s 			page 131


 7404 0e89 06       		.byte	0x6
 7405 0e8a 91       		.byte	0x91
 7406 0e8b BC7F     		.sleb128 -68
 7407 0e8d 06       		.byte	0x6
 7408 0e8e 27       		.byte	0x27
 7409 0e8f 31       		.byte	0x31
 7410 0e90 24       		.byte	0x24
 7411 0e91 91       		.byte	0x91
 7412 0e92 B07F     		.sleb128 -80
 7413 0e94 06       		.byte	0x6
 7414 0e95 91       		.byte	0x91
 7415 0e96 BC7F     		.sleb128 -68
 7416 0e98 06       		.byte	0x6
 7417 0e99 27       		.byte	0x27
 7418 0e9a 09       		.byte	0x9
 7419 0e9b FC       		.byte	0xfc
 7420 0e9c 24       		.byte	0x24
 7421 0e9d 33       		.byte	0x33
 7422 0e9e 25       		.byte	0x25
 7423 0e9f 30       		.byte	0x30
 7424 0ea0 2E       		.byte	0x2e
 7425 0ea1 28       		.byte	0x28
 7426 0ea2 0100     		.2byte	0x1
 7427 0ea4 16       		.byte	0x16
 7428 0ea5 13       		.byte	0x13
 7429 0ea6 08       		.byte	0x8
 7430 0ea7 FF       		.byte	0xff
 7431 0ea8 1A       		.byte	0x1a
 7432 0ea9 31       		.byte	0x31
 7433 0eaa 24       		.byte	0x24
 7434 0eab 91       		.byte	0x91
 7435 0eac B07F     		.sleb128 -80
 7436 0eae 06       		.byte	0x6
 7437 0eaf 91       		.byte	0x91
 7438 0eb0 BC7F     		.sleb128 -68
 7439 0eb2 06       		.byte	0x6
 7440 0eb3 27       		.byte	0x27
 7441 0eb4 31       		.byte	0x31
 7442 0eb5 24       		.byte	0x24
 7443 0eb6 4B       		.byte	0x4b
 7444 0eb7 27       		.byte	0x27
 7445 0eb8 91       		.byte	0x91
 7446 0eb9 B07F     		.sleb128 -80
 7447 0ebb 06       		.byte	0x6
 7448 0ebc 91       		.byte	0x91
 7449 0ebd BC7F     		.sleb128 -68
 7450 0ebf 06       		.byte	0x6
 7451 0ec0 27       		.byte	0x27
 7452 0ec1 31       		.byte	0x31
 7453 0ec2 24       		.byte	0x24
 7454 0ec3 91       		.byte	0x91
 7455 0ec4 B07F     		.sleb128 -80
 7456 0ec6 06       		.byte	0x6
 7457 0ec7 91       		.byte	0x91
 7458 0ec8 BC7F     		.sleb128 -68
 7459 0eca 06       		.byte	0x6
 7460 0ecb 27       		.byte	0x27
ARM GAS  C:\Users\Vergil\AppData\Local\Temp\ccl0Rg49.s 			page 132


 7461 0ecc 09       		.byte	0x9
 7462 0ecd FC       		.byte	0xfc
 7463 0ece 24       		.byte	0x24
 7464 0ecf 33       		.byte	0x33
 7465 0ed0 25       		.byte	0x25
 7466 0ed1 30       		.byte	0x30
 7467 0ed2 2E       		.byte	0x2e
 7468 0ed3 28       		.byte	0x28
 7469 0ed4 0100     		.2byte	0x1
 7470 0ed6 16       		.byte	0x16
 7471 0ed7 13       		.byte	0x13
 7472 0ed8 08       		.byte	0x8
 7473 0ed9 FF       		.byte	0xff
 7474 0eda 1A       		.byte	0x1a
 7475 0edb 09       		.byte	0x9
 7476 0edc FC       		.byte	0xfc
 7477 0edd 24       		.byte	0x24
 7478 0ede 33       		.byte	0x33
 7479 0edf 25       		.byte	0x25
 7480 0ee0 30       		.byte	0x30
 7481 0ee1 2E       		.byte	0x2e
 7482 0ee2 28       		.byte	0x28
 7483 0ee3 0100     		.2byte	0x1
 7484 0ee5 16       		.byte	0x16
 7485 0ee6 13       		.byte	0x13
 7486 0ee7 31       		.byte	0x31
 7487 0ee8 24       		.byte	0x24
 7488 0ee9 9F       		.byte	0x9f
 7489 0eea 5A070000 		.4byte	.LVL233
 7490 0eee 60070000 		.4byte	.LVL234
 7491 0ef2 0100     		.2byte	0x1
 7492 0ef4 52       		.byte	0x52
 7493 0ef5 60070000 		.4byte	.LVL234
 7494 0ef9 6C070000 		.4byte	.LFE3
 7495 0efd A500     		.2byte	0xa5
 7496 0eff 91       		.byte	0x91
 7497 0f00 B07F     		.sleb128 -80
 7498 0f02 06       		.byte	0x6
 7499 0f03 91       		.byte	0x91
 7500 0f04 BC7F     		.sleb128 -68
 7501 0f06 06       		.byte	0x6
 7502 0f07 27       		.byte	0x27
 7503 0f08 31       		.byte	0x31
 7504 0f09 24       		.byte	0x24
 7505 0f0a 4B       		.byte	0x4b
 7506 0f0b 27       		.byte	0x27
 7507 0f0c 91       		.byte	0x91
 7508 0f0d B07F     		.sleb128 -80
 7509 0f0f 06       		.byte	0x6
 7510 0f10 91       		.byte	0x91
 7511 0f11 BC7F     		.sleb128 -68
 7512 0f13 06       		.byte	0x6
 7513 0f14 27       		.byte	0x27
 7514 0f15 31       		.byte	0x31
 7515 0f16 24       		.byte	0x24
 7516 0f17 91       		.byte	0x91
 7517 0f18 B07F     		.sleb128 -80
ARM GAS  C:\Users\Vergil\AppData\Local\Temp\ccl0Rg49.s 			page 133


 7518 0f1a 06       		.byte	0x6
 7519 0f1b 91       		.byte	0x91
 7520 0f1c BC7F     		.sleb128 -68
 7521 0f1e 06       		.byte	0x6
 7522 0f1f 27       		.byte	0x27
 7523 0f20 09       		.byte	0x9
 7524 0f21 FC       		.byte	0xfc
 7525 0f22 24       		.byte	0x24
 7526 0f23 33       		.byte	0x33
 7527 0f24 25       		.byte	0x25
 7528 0f25 30       		.byte	0x30
 7529 0f26 2E       		.byte	0x2e
 7530 0f27 28       		.byte	0x28
 7531 0f28 0100     		.2byte	0x1
 7532 0f2a 16       		.byte	0x16
 7533 0f2b 13       		.byte	0x13
 7534 0f2c 08       		.byte	0x8
 7535 0f2d FF       		.byte	0xff
 7536 0f2e 1A       		.byte	0x1a
 7537 0f2f 31       		.byte	0x31
 7538 0f30 24       		.byte	0x24
 7539 0f31 4B       		.byte	0x4b
 7540 0f32 27       		.byte	0x27
 7541 0f33 91       		.byte	0x91
 7542 0f34 B07F     		.sleb128 -80
 7543 0f36 06       		.byte	0x6
 7544 0f37 91       		.byte	0x91
 7545 0f38 BC7F     		.sleb128 -68
 7546 0f3a 06       		.byte	0x6
 7547 0f3b 27       		.byte	0x27
 7548 0f3c 31       		.byte	0x31
 7549 0f3d 24       		.byte	0x24
 7550 0f3e 4B       		.byte	0x4b
 7551 0f3f 27       		.byte	0x27
 7552 0f40 91       		.byte	0x91
 7553 0f41 B07F     		.sleb128 -80
 7554 0f43 06       		.byte	0x6
 7555 0f44 91       		.byte	0x91
 7556 0f45 BC7F     		.sleb128 -68
 7557 0f47 06       		.byte	0x6
 7558 0f48 27       		.byte	0x27
 7559 0f49 31       		.byte	0x31
 7560 0f4a 24       		.byte	0x24
 7561 0f4b 91       		.byte	0x91
 7562 0f4c B07F     		.sleb128 -80
 7563 0f4e 06       		.byte	0x6
 7564 0f4f 91       		.byte	0x91
 7565 0f50 BC7F     		.sleb128 -68
 7566 0f52 06       		.byte	0x6
 7567 0f53 27       		.byte	0x27
 7568 0f54 09       		.byte	0x9
 7569 0f55 FC       		.byte	0xfc
 7570 0f56 24       		.byte	0x24
 7571 0f57 33       		.byte	0x33
 7572 0f58 25       		.byte	0x25
 7573 0f59 30       		.byte	0x30
 7574 0f5a 2E       		.byte	0x2e
ARM GAS  C:\Users\Vergil\AppData\Local\Temp\ccl0Rg49.s 			page 134


 7575 0f5b 28       		.byte	0x28
 7576 0f5c 0100     		.2byte	0x1
 7577 0f5e 16       		.byte	0x16
 7578 0f5f 13       		.byte	0x13
 7579 0f60 08       		.byte	0x8
 7580 0f61 FF       		.byte	0xff
 7581 0f62 1A       		.byte	0x1a
 7582 0f63 31       		.byte	0x31
 7583 0f64 24       		.byte	0x24
 7584 0f65 91       		.byte	0x91
 7585 0f66 B07F     		.sleb128 -80
 7586 0f68 06       		.byte	0x6
 7587 0f69 91       		.byte	0x91
 7588 0f6a BC7F     		.sleb128 -68
 7589 0f6c 06       		.byte	0x6
 7590 0f6d 27       		.byte	0x27
 7591 0f6e 31       		.byte	0x31
 7592 0f6f 24       		.byte	0x24
 7593 0f70 4B       		.byte	0x4b
 7594 0f71 27       		.byte	0x27
 7595 0f72 91       		.byte	0x91
 7596 0f73 B07F     		.sleb128 -80
 7597 0f75 06       		.byte	0x6
 7598 0f76 91       		.byte	0x91
 7599 0f77 BC7F     		.sleb128 -68
 7600 0f79 06       		.byte	0x6
 7601 0f7a 27       		.byte	0x27
 7602 0f7b 31       		.byte	0x31
 7603 0f7c 24       		.byte	0x24
 7604 0f7d 91       		.byte	0x91
 7605 0f7e B07F     		.sleb128 -80
 7606 0f80 06       		.byte	0x6
 7607 0f81 91       		.byte	0x91
 7608 0f82 BC7F     		.sleb128 -68
 7609 0f84 06       		.byte	0x6
 7610 0f85 27       		.byte	0x27
 7611 0f86 09       		.byte	0x9
 7612 0f87 FC       		.byte	0xfc
 7613 0f88 24       		.byte	0x24
 7614 0f89 33       		.byte	0x33
 7615 0f8a 25       		.byte	0x25
 7616 0f8b 30       		.byte	0x30
 7617 0f8c 2E       		.byte	0x2e
 7618 0f8d 28       		.byte	0x28
 7619 0f8e 0100     		.2byte	0x1
 7620 0f90 16       		.byte	0x16
 7621 0f91 13       		.byte	0x13
 7622 0f92 08       		.byte	0x8
 7623 0f93 FF       		.byte	0xff
 7624 0f94 1A       		.byte	0x1a
 7625 0f95 09       		.byte	0x9
 7626 0f96 FC       		.byte	0xfc
 7627 0f97 24       		.byte	0x24
 7628 0f98 33       		.byte	0x33
 7629 0f99 25       		.byte	0x25
 7630 0f9a 30       		.byte	0x30
 7631 0f9b 2E       		.byte	0x2e
ARM GAS  C:\Users\Vergil\AppData\Local\Temp\ccl0Rg49.s 			page 135


 7632 0f9c 28       		.byte	0x28
 7633 0f9d 0100     		.2byte	0x1
 7634 0f9f 16       		.byte	0x16
 7635 0fa0 13       		.byte	0x13
 7636 0fa1 31       		.byte	0x31
 7637 0fa2 24       		.byte	0x24
 7638 0fa3 9F       		.byte	0x9f
 7639 0fa4 00000000 		.4byte	0
 7640 0fa8 00000000 		.4byte	0
 7641              	.LLST34:
 7642 0fac D4020000 		.4byte	.LVL119
 7643 0fb0 DA020000 		.4byte	.LVL120
 7644 0fb4 0100     		.2byte	0x1
 7645 0fb6 51       		.byte	0x51
 7646 0fb7 DA020000 		.4byte	.LVL120
 7647 0fbb DC020000 		.4byte	.LVL121
 7648 0fbf 0A00     		.2byte	0xa
 7649 0fc1 91       		.byte	0x91
 7650 0fc2 B47F     		.sleb128 -76
 7651 0fc4 06       		.byte	0x6
 7652 0fc5 91       		.byte	0x91
 7653 0fc6 BC7F     		.sleb128 -68
 7654 0fc8 06       		.byte	0x6
 7655 0fc9 27       		.byte	0x27
 7656 0fca 9F       		.byte	0x9f
 7657 0fcb 5A070000 		.4byte	.LVL233
 7658 0fcf 64070000 		.4byte	.LVL235
 7659 0fd3 0500     		.2byte	0x5
 7660 0fd5 71       		.byte	0x71
 7661 0fd6 00       		.sleb128 0
 7662 0fd7 31       		.byte	0x31
 7663 0fd8 24       		.byte	0x24
 7664 0fd9 9F       		.byte	0x9f
 7665 0fda 00000000 		.4byte	0
 7666 0fde 00000000 		.4byte	0
 7667              	.LLST35:
 7668 0fe2 F0020000 		.4byte	.LVL122
 7669 0fe6 FA020000 		.4byte	.LVL123
 7670 0fea 0100     		.2byte	0x1
 7671 0fec 58       		.byte	0x58
 7672 0fed FA020000 		.4byte	.LVL123
 7673 0ff1 0E030000 		.4byte	.LVL125
 7674 0ff5 0100     		.2byte	0x1
 7675 0ff7 52       		.byte	0x52
 7676 0ff8 0E030000 		.4byte	.LVL125
 7677 0ffc 92030000 		.4byte	.LVL142
 7678 1000 0500     		.2byte	0x5
 7679 1002 78       		.byte	0x78
 7680 1003 00       		.sleb128 0
 7681 1004 31       		.byte	0x31
 7682 1005 24       		.byte	0x24
 7683 1006 9F       		.byte	0x9f
 7684 1007 92030000 		.4byte	.LVL142
 7685 100b E0040000 		.4byte	.LVL149
 7686 100f 0C00     		.2byte	0xc
 7687 1011 91       		.byte	0x91
 7688 1012 B47F     		.sleb128 -76
ARM GAS  C:\Users\Vergil\AppData\Local\Temp\ccl0Rg49.s 			page 136


 7689 1014 06       		.byte	0x6
 7690 1015 91       		.byte	0x91
 7691 1016 A87F     		.sleb128 -88
 7692 1018 06       		.byte	0x6
 7693 1019 27       		.byte	0x27
 7694 101a 31       		.byte	0x31
 7695 101b 24       		.byte	0x24
 7696 101c 9F       		.byte	0x9f
 7697 101d 50070000 		.4byte	.LVL231
 7698 1021 5A070000 		.4byte	.LVL233
 7699 1025 0500     		.2byte	0x5
 7700 1027 78       		.byte	0x78
 7701 1028 00       		.sleb128 0
 7702 1029 31       		.byte	0x31
 7703 102a 24       		.byte	0x24
 7704 102b 9F       		.byte	0x9f
 7705 102c 64070000 		.4byte	.LVL235
 7706 1030 6C070000 		.4byte	.LFE3
 7707 1034 0C00     		.2byte	0xc
 7708 1036 91       		.byte	0x91
 7709 1037 B47F     		.sleb128 -76
 7710 1039 06       		.byte	0x6
 7711 103a 91       		.byte	0x91
 7712 103b A87F     		.sleb128 -88
 7713 103d 06       		.byte	0x6
 7714 103e 27       		.byte	0x27
 7715 103f 31       		.byte	0x31
 7716 1040 24       		.byte	0x24
 7717 1041 9F       		.byte	0x9f
 7718 1042 00000000 		.4byte	0
 7719 1046 00000000 		.4byte	0
 7720              	.LLST36:
 7721 104a 2A030000 		.4byte	.LVL126
 7722 104e 30030000 		.4byte	.LVL127
 7723 1052 0500     		.2byte	0x5
 7724 1054 76       		.byte	0x76
 7725 1055 00       		.sleb128 0
 7726 1056 31       		.byte	0x31
 7727 1057 24       		.byte	0x24
 7728 1058 9F       		.byte	0x9f
 7729 1059 30030000 		.4byte	.LVL127
 7730 105d 36030000 		.4byte	.LVL128
 7731 1061 0700     		.2byte	0x7
 7732 1063 74       		.byte	0x74
 7733 1064 00       		.sleb128 0
 7734 1065 31       		.byte	0x31
 7735 1066 24       		.byte	0x24
 7736 1067 31       		.byte	0x31
 7737 1068 24       		.byte	0x24
 7738 1069 9F       		.byte	0x9f
 7739 106a 36030000 		.4byte	.LVL128
 7740 106e 38030000 		.4byte	.LVL129
 7741 1072 0C00     		.2byte	0xc
 7742 1074 91       		.byte	0x91
 7743 1075 B87F     		.sleb128 -72
 7744 1077 06       		.byte	0x6
 7745 1078 77       		.byte	0x77
ARM GAS  C:\Users\Vergil\AppData\Local\Temp\ccl0Rg49.s 			page 137


 7746 1079 00       		.sleb128 0
 7747 107a 27       		.byte	0x27
 7748 107b 31       		.byte	0x31
 7749 107c 24       		.byte	0x24
 7750 107d 31       		.byte	0x31
 7751 107e 24       		.byte	0x24
 7752 107f 9F       		.byte	0x9f
 7753 1080 38030000 		.4byte	.LVL129
 7754 1084 E0040000 		.4byte	.LVL149
 7755 1088 0E00     		.2byte	0xe
 7756 108a 91       		.byte	0x91
 7757 108b B87F     		.sleb128 -72
 7758 108d 06       		.byte	0x6
 7759 108e 91       		.byte	0x91
 7760 108f AC7F     		.sleb128 -84
 7761 1091 06       		.byte	0x6
 7762 1092 27       		.byte	0x27
 7763 1093 31       		.byte	0x31
 7764 1094 24       		.byte	0x24
 7765 1095 31       		.byte	0x31
 7766 1096 24       		.byte	0x24
 7767 1097 9F       		.byte	0x9f
 7768 1098 50070000 		.4byte	.LVL231
 7769 109c 5A070000 		.4byte	.LVL233
 7770 10a0 0E00     		.2byte	0xe
 7771 10a2 91       		.byte	0x91
 7772 10a3 B87F     		.sleb128 -72
 7773 10a5 06       		.byte	0x6
 7774 10a6 91       		.byte	0x91
 7775 10a7 AC7F     		.sleb128 -84
 7776 10a9 06       		.byte	0x6
 7777 10aa 27       		.byte	0x27
 7778 10ab 31       		.byte	0x31
 7779 10ac 24       		.byte	0x24
 7780 10ad 31       		.byte	0x31
 7781 10ae 24       		.byte	0x24
 7782 10af 9F       		.byte	0x9f
 7783 10b0 64070000 		.4byte	.LVL235
 7784 10b4 6C070000 		.4byte	.LFE3
 7785 10b8 0E00     		.2byte	0xe
 7786 10ba 91       		.byte	0x91
 7787 10bb B87F     		.sleb128 -72
 7788 10bd 06       		.byte	0x6
 7789 10be 91       		.byte	0x91
 7790 10bf AC7F     		.sleb128 -84
 7791 10c1 06       		.byte	0x6
 7792 10c2 27       		.byte	0x27
 7793 10c3 31       		.byte	0x31
 7794 10c4 24       		.byte	0x24
 7795 10c5 31       		.byte	0x31
 7796 10c6 24       		.byte	0x24
 7797 10c7 9F       		.byte	0x9f
 7798 10c8 00000000 		.4byte	0
 7799 10cc 00000000 		.4byte	0
 7800              	.LLST37:
 7801 10d0 3C030000 		.4byte	.LVL130
 7802 10d4 4A030000 		.4byte	.LVL131
ARM GAS  C:\Users\Vergil\AppData\Local\Temp\ccl0Rg49.s 			page 138


 7803 10d8 0100     		.2byte	0x1
 7804 10da 56       		.byte	0x56
 7805 10db 4A030000 		.4byte	.LVL131
 7806 10df 50030000 		.4byte	.LVL132
 7807 10e3 0800     		.2byte	0x8
 7808 10e5 91       		.byte	0x91
 7809 10e6 B87F     		.sleb128 -72
 7810 10e8 06       		.byte	0x6
 7811 10e9 77       		.byte	0x77
 7812 10ea 00       		.sleb128 0
 7813 10eb 27       		.byte	0x27
 7814 10ec 9F       		.byte	0x9f
 7815 10ed 50030000 		.4byte	.LVL132
 7816 10f1 56030000 		.4byte	.LVL133
 7817 10f5 0100     		.2byte	0x1
 7818 10f7 52       		.byte	0x52
 7819 10f8 56030000 		.4byte	.LVL133
 7820 10fc 5A030000 		.4byte	.LVL134
 7821 1100 0A00     		.2byte	0xa
 7822 1102 91       		.byte	0x91
 7823 1103 B87F     		.sleb128 -72
 7824 1105 06       		.byte	0x6
 7825 1106 77       		.byte	0x77
 7826 1107 00       		.sleb128 0
 7827 1108 27       		.byte	0x27
 7828 1109 31       		.byte	0x31
 7829 110a 24       		.byte	0x24
 7830 110b 9F       		.byte	0x9f
 7831 110c 5A030000 		.4byte	.LVL134
 7832 1110 E0040000 		.4byte	.LVL149
 7833 1114 0C00     		.2byte	0xc
 7834 1116 91       		.byte	0x91
 7835 1117 B87F     		.sleb128 -72
 7836 1119 06       		.byte	0x6
 7837 111a 91       		.byte	0x91
 7838 111b A47F     		.sleb128 -92
 7839 111d 06       		.byte	0x6
 7840 111e 27       		.byte	0x27
 7841 111f 31       		.byte	0x31
 7842 1120 24       		.byte	0x24
 7843 1121 9F       		.byte	0x9f
 7844 1122 50070000 		.4byte	.LVL231
 7845 1126 5A070000 		.4byte	.LVL233
 7846 112a 0C00     		.2byte	0xc
 7847 112c 91       		.byte	0x91
 7848 112d B87F     		.sleb128 -72
 7849 112f 06       		.byte	0x6
 7850 1130 91       		.byte	0x91
 7851 1131 A47F     		.sleb128 -92
 7852 1133 06       		.byte	0x6
 7853 1134 27       		.byte	0x27
 7854 1135 31       		.byte	0x31
 7855 1136 24       		.byte	0x24
 7856 1137 9F       		.byte	0x9f
 7857 1138 64070000 		.4byte	.LVL235
 7858 113c 6C070000 		.4byte	.LFE3
 7859 1140 0C00     		.2byte	0xc
ARM GAS  C:\Users\Vergil\AppData\Local\Temp\ccl0Rg49.s 			page 139


 7860 1142 91       		.byte	0x91
 7861 1143 B87F     		.sleb128 -72
 7862 1145 06       		.byte	0x6
 7863 1146 91       		.byte	0x91
 7864 1147 A47F     		.sleb128 -92
 7865 1149 06       		.byte	0x6
 7866 114a 27       		.byte	0x27
 7867 114b 31       		.byte	0x31
 7868 114c 24       		.byte	0x24
 7869 114d 9F       		.byte	0x9f
 7870 114e 00000000 		.4byte	0
 7871 1152 00000000 		.4byte	0
 7872              	.LLST38:
 7873 1156 62030000 		.4byte	.LVL135
 7874 115a 68030000 		.4byte	.LVL136
 7875 115e 0100     		.2byte	0x1
 7876 1160 53       		.byte	0x53
 7877 1161 68030000 		.4byte	.LVL136
 7878 1165 6A030000 		.4byte	.LVL137
 7879 1169 0900     		.2byte	0x9
 7880 116b 7D       		.byte	0x7d
 7881 116c 00       		.sleb128 0
 7882 116d 06       		.byte	0x6
 7883 116e 91       		.byte	0x91
 7884 116f A47F     		.sleb128 -92
 7885 1171 06       		.byte	0x6
 7886 1172 27       		.byte	0x27
 7887 1173 9F       		.byte	0x9f
 7888 1174 50070000 		.4byte	.LVL231
 7889 1178 56070000 		.4byte	.LVL232
 7890 117c 0500     		.2byte	0x5
 7891 117e 73       		.byte	0x73
 7892 117f 00       		.sleb128 0
 7893 1180 31       		.byte	0x31
 7894 1181 24       		.byte	0x24
 7895 1182 9F       		.byte	0x9f
 7896 1183 56070000 		.4byte	.LVL232
 7897 1187 5A070000 		.4byte	.LVL233
 7898 118b 0B00     		.2byte	0xb
 7899 118d 7D       		.byte	0x7d
 7900 118e 00       		.sleb128 0
 7901 118f 06       		.byte	0x6
 7902 1190 91       		.byte	0x91
 7903 1191 A47F     		.sleb128 -92
 7904 1193 06       		.byte	0x6
 7905 1194 27       		.byte	0x27
 7906 1195 31       		.byte	0x31
 7907 1196 24       		.byte	0x24
 7908 1197 9F       		.byte	0x9f
 7909 1198 00000000 		.4byte	0
 7910 119c 00000000 		.4byte	0
 7911              	.LLST39:
 7912 11a0 7C030000 		.4byte	.LVL138
 7913 11a4 86030000 		.4byte	.LVL139
 7914 11a8 0100     		.2byte	0x1
 7915 11aa 57       		.byte	0x57
 7916 11ab 86030000 		.4byte	.LVL139
ARM GAS  C:\Users\Vergil\AppData\Local\Temp\ccl0Rg49.s 			page 140


 7917 11af 88030000 		.4byte	.LVL140
 7918 11b3 0800     		.2byte	0x8
 7919 11b5 76       		.byte	0x76
 7920 11b6 00       		.sleb128 0
 7921 11b7 91       		.byte	0x91
 7922 11b8 AC7F     		.sleb128 -84
 7923 11ba 06       		.byte	0x6
 7924 11bb 27       		.byte	0x27
 7925 11bc 9F       		.byte	0x9f
 7926 11bd 88030000 		.4byte	.LVL140
 7927 11c1 8E030000 		.4byte	.LVL141
 7928 11c5 0100     		.2byte	0x1
 7929 11c7 57       		.byte	0x57
 7930 11c8 8E030000 		.4byte	.LVL141
 7931 11cc 96030000 		.4byte	.LVL143
 7932 11d0 0A00     		.2byte	0xa
 7933 11d2 76       		.byte	0x76
 7934 11d3 00       		.sleb128 0
 7935 11d4 91       		.byte	0x91
 7936 11d5 AC7F     		.sleb128 -84
 7937 11d7 06       		.byte	0x6
 7938 11d8 27       		.byte	0x27
 7939 11d9 31       		.byte	0x31
 7940 11da 24       		.byte	0x24
 7941 11db 9F       		.byte	0x9f
 7942 11dc 96030000 		.4byte	.LVL143
 7943 11e0 E0040000 		.4byte	.LVL149
 7944 11e4 0B00     		.2byte	0xb
 7945 11e6 7D       		.byte	0x7d
 7946 11e7 00       		.sleb128 0
 7947 11e8 06       		.byte	0x6
 7948 11e9 91       		.byte	0x91
 7949 11ea AC7F     		.sleb128 -84
 7950 11ec 06       		.byte	0x6
 7951 11ed 27       		.byte	0x27
 7952 11ee 31       		.byte	0x31
 7953 11ef 24       		.byte	0x24
 7954 11f0 9F       		.byte	0x9f
 7955 11f1 64070000 		.4byte	.LVL235
 7956 11f5 6C070000 		.4byte	.LFE3
 7957 11f9 0B00     		.2byte	0xb
 7958 11fb 7D       		.byte	0x7d
 7959 11fc 00       		.sleb128 0
 7960 11fd 06       		.byte	0x6
 7961 11fe 91       		.byte	0x91
 7962 11ff AC7F     		.sleb128 -84
 7963 1201 06       		.byte	0x6
 7964 1202 27       		.byte	0x27
 7965 1203 31       		.byte	0x31
 7966 1204 24       		.byte	0x24
 7967 1205 9F       		.byte	0x9f
 7968 1206 00000000 		.4byte	0
 7969 120a 00000000 		.4byte	0
 7970              	.LLST40:
 7971 120e E4040000 		.4byte	.LVL150
 7972 1212 E8040000 		.4byte	.LVL151
 7973 1216 0100     		.2byte	0x1
ARM GAS  C:\Users\Vergil\AppData\Local\Temp\ccl0Rg49.s 			page 141


 7974 1218 56       		.byte	0x56
 7975 1219 E8040000 		.4byte	.LVL151
 7976 121d F2040000 		.4byte	.LVL152
 7977 1221 0500     		.2byte	0x5
 7978 1223 73       		.byte	0x73
 7979 1224 00       		.sleb128 0
 7980 1225 31       		.byte	0x31
 7981 1226 24       		.byte	0x24
 7982 1227 9F       		.byte	0x9f
 7983 1228 F2040000 		.4byte	.LVL152
 7984 122c FC040000 		.4byte	.LVL154
 7985 1230 0700     		.2byte	0x7
 7986 1232 76       		.byte	0x76
 7987 1233 00       		.sleb128 0
 7988 1234 31       		.byte	0x31
 7989 1235 24       		.byte	0x24
 7990 1236 31       		.byte	0x31
 7991 1237 24       		.byte	0x24
 7992 1238 9F       		.byte	0x9f
 7993 1239 FC040000 		.4byte	.LVL154
 7994 123d 28050000 		.4byte	.LVL163
 7995 1241 0A00     		.2byte	0xa
 7996 1243 72       		.byte	0x72
 7997 1244 00       		.sleb128 0
 7998 1245 7B       		.byte	0x7b
 7999 1246 00       		.sleb128 0
 8000 1247 27       		.byte	0x27
 8001 1248 31       		.byte	0x31
 8002 1249 24       		.byte	0x24
 8003 124a 31       		.byte	0x31
 8004 124b 24       		.byte	0x24
 8005 124c 9F       		.byte	0x9f
 8006 124d 00000000 		.4byte	0
 8007 1251 00000000 		.4byte	0
 8008              	.LLST41:
 8009 1255 F4040000 		.4byte	.LVL153
 8010 1259 FC040000 		.4byte	.LVL154
 8011 125d 0100     		.2byte	0x1
 8012 125f 53       		.byte	0x53
 8013 1260 FC040000 		.4byte	.LVL154
 8014 1264 06050000 		.4byte	.LVL156
 8015 1268 0500     		.2byte	0x5
 8016 126a 76       		.byte	0x76
 8017 126b 00       		.sleb128 0
 8018 126c 31       		.byte	0x31
 8019 126d 24       		.byte	0x24
 8020 126e 9F       		.byte	0x9f
 8021 126f 06050000 		.4byte	.LVL156
 8022 1273 08050000 		.4byte	.LVL157
 8023 1277 0700     		.2byte	0x7
 8024 1279 71       		.byte	0x71
 8025 127a 00       		.sleb128 0
 8026 127b 31       		.byte	0x31
 8027 127c 24       		.byte	0x24
 8028 127d 31       		.byte	0x31
 8029 127e 24       		.byte	0x24
 8030 127f 9F       		.byte	0x9f
ARM GAS  C:\Users\Vergil\AppData\Local\Temp\ccl0Rg49.s 			page 142


 8031 1280 08050000 		.4byte	.LVL157
 8032 1284 28050000 		.4byte	.LVL163
 8033 1288 2600     		.2byte	0x26
 8034 128a 72       		.byte	0x72
 8035 128b 00       		.sleb128 0
 8036 128c 7B       		.byte	0x7b
 8037 128d 00       		.sleb128 0
 8038 128e 27       		.byte	0x27
 8039 128f 31       		.byte	0x31
 8040 1290 24       		.byte	0x24
 8041 1291 4B       		.byte	0x4b
 8042 1292 27       		.byte	0x27
 8043 1293 72       		.byte	0x72
 8044 1294 00       		.sleb128 0
 8045 1295 7B       		.byte	0x7b
 8046 1296 00       		.sleb128 0
 8047 1297 27       		.byte	0x27
 8048 1298 31       		.byte	0x31
 8049 1299 24       		.byte	0x24
 8050 129a 72       		.byte	0x72
 8051 129b 00       		.sleb128 0
 8052 129c 7B       		.byte	0x7b
 8053 129d 00       		.sleb128 0
 8054 129e 27       		.byte	0x27
 8055 129f 09       		.byte	0x9
 8056 12a0 FC       		.byte	0xfc
 8057 12a1 24       		.byte	0x24
 8058 12a2 33       		.byte	0x33
 8059 12a3 25       		.byte	0x25
 8060 12a4 30       		.byte	0x30
 8061 12a5 2E       		.byte	0x2e
 8062 12a6 28       		.byte	0x28
 8063 12a7 0100     		.2byte	0x1
 8064 12a9 16       		.byte	0x16
 8065 12aa 13       		.byte	0x13
 8066 12ab 31       		.byte	0x31
 8067 12ac 24       		.byte	0x24
 8068 12ad 31       		.byte	0x31
 8069 12ae 24       		.byte	0x24
 8070 12af 9F       		.byte	0x9f
 8071 12b0 00000000 		.4byte	0
 8072 12b4 00000000 		.4byte	0
 8073              	.LLST42:
 8074 12b8 00050000 		.4byte	.LVL155
 8075 12bc 10050000 		.4byte	.LVL158
 8076 12c0 0100     		.2byte	0x1
 8077 12c2 53       		.byte	0x53
 8078 12c3 10050000 		.4byte	.LVL158
 8079 12c7 16050000 		.4byte	.LVL159
 8080 12cb 0500     		.2byte	0x5
 8081 12cd 76       		.byte	0x76
 8082 12ce 00       		.sleb128 0
 8083 12cf 31       		.byte	0x31
 8084 12d0 24       		.byte	0x24
 8085 12d1 9F       		.byte	0x9f
 8086 12d2 16050000 		.4byte	.LVL159
 8087 12d6 18050000 		.4byte	.LVL160
ARM GAS  C:\Users\Vergil\AppData\Local\Temp\ccl0Rg49.s 			page 143


 8088 12da 0700     		.2byte	0x7
 8089 12dc 73       		.byte	0x73
 8090 12dd 00       		.sleb128 0
 8091 12de 31       		.byte	0x31
 8092 12df 24       		.byte	0x24
 8093 12e0 31       		.byte	0x31
 8094 12e1 24       		.byte	0x24
 8095 12e2 9F       		.byte	0x9f
 8096 12e3 18050000 		.4byte	.LVL160
 8097 12e7 46050000 		.4byte	.LVL167
 8098 12eb 0A00     		.2byte	0xa
 8099 12ed 75       		.byte	0x75
 8100 12ee 00       		.sleb128 0
 8101 12ef 78       		.byte	0x78
 8102 12f0 00       		.sleb128 0
 8103 12f1 27       		.byte	0x27
 8104 12f2 31       		.byte	0x31
 8105 12f3 24       		.byte	0x24
 8106 12f4 31       		.byte	0x31
 8107 12f5 24       		.byte	0x24
 8108 12f6 9F       		.byte	0x9f
 8109 12f7 00000000 		.4byte	0
 8110 12fb 00000000 		.4byte	0
 8111              	.LLST43:
 8112 12ff 18050000 		.4byte	.LVL160
 8113 1303 20050000 		.4byte	.LVL161
 8114 1307 0100     		.2byte	0x1
 8115 1309 56       		.byte	0x56
 8116 130a 20050000 		.4byte	.LVL161
 8117 130e 32050000 		.4byte	.LVL164
 8118 1312 0500     		.2byte	0x5
 8119 1314 76       		.byte	0x76
 8120 1315 00       		.sleb128 0
 8121 1316 31       		.byte	0x31
 8122 1317 24       		.byte	0x24
 8123 1318 9F       		.byte	0x9f
 8124 1319 32050000 		.4byte	.LVL164
 8125 131d 46050000 		.4byte	.LVL167
 8126 1321 2600     		.2byte	0x26
 8127 1323 75       		.byte	0x75
 8128 1324 00       		.sleb128 0
 8129 1325 78       		.byte	0x78
 8130 1326 00       		.sleb128 0
 8131 1327 27       		.byte	0x27
 8132 1328 31       		.byte	0x31
 8133 1329 24       		.byte	0x24
 8134 132a 4B       		.byte	0x4b
 8135 132b 27       		.byte	0x27
 8136 132c 75       		.byte	0x75
 8137 132d 00       		.sleb128 0
 8138 132e 78       		.byte	0x78
 8139 132f 00       		.sleb128 0
 8140 1330 27       		.byte	0x27
 8141 1331 31       		.byte	0x31
 8142 1332 24       		.byte	0x24
 8143 1333 75       		.byte	0x75
 8144 1334 00       		.sleb128 0
ARM GAS  C:\Users\Vergil\AppData\Local\Temp\ccl0Rg49.s 			page 144


 8145 1335 78       		.byte	0x78
 8146 1336 00       		.sleb128 0
 8147 1337 27       		.byte	0x27
 8148 1338 09       		.byte	0x9
 8149 1339 FC       		.byte	0xfc
 8150 133a 24       		.byte	0x24
 8151 133b 33       		.byte	0x33
 8152 133c 25       		.byte	0x25
 8153 133d 30       		.byte	0x30
 8154 133e 2E       		.byte	0x2e
 8155 133f 28       		.byte	0x28
 8156 1340 0100     		.2byte	0x1
 8157 1342 16       		.byte	0x16
 8158 1343 13       		.byte	0x13
 8159 1344 31       		.byte	0x31
 8160 1345 24       		.byte	0x24
 8161 1346 31       		.byte	0x31
 8162 1347 24       		.byte	0x24
 8163 1348 9F       		.byte	0x9f
 8164 1349 00000000 		.4byte	0
 8165 134d 00000000 		.4byte	0
 8166              	.LLST44:
 8167 1351 24050000 		.4byte	.LVL162
 8168 1355 36050000 		.4byte	.LVL165
 8169 1359 0100     		.2byte	0x1
 8170 135b 53       		.byte	0x53
 8171 135c 36050000 		.4byte	.LVL165
 8172 1360 42050000 		.4byte	.LVL166
 8173 1364 0500     		.2byte	0x5
 8174 1366 71       		.byte	0x71
 8175 1367 00       		.sleb128 0
 8176 1368 31       		.byte	0x31
 8177 1369 24       		.byte	0x24
 8178 136a 9F       		.byte	0x9f
 8179 136b 42050000 		.4byte	.LVL166
 8180 136f 58050000 		.4byte	.LVL169
 8181 1373 0700     		.2byte	0x7
 8182 1375 73       		.byte	0x73
 8183 1376 00       		.sleb128 0
 8184 1377 31       		.byte	0x31
 8185 1378 24       		.byte	0x24
 8186 1379 31       		.byte	0x31
 8187 137a 24       		.byte	0x24
 8188 137b 9F       		.byte	0x9f
 8189 137c 58050000 		.4byte	.LVL169
 8190 1380 8A050000 		.4byte	.LVL177
 8191 1384 0A00     		.2byte	0xa
 8192 1386 74       		.byte	0x74
 8193 1387 00       		.sleb128 0
 8194 1388 7A       		.byte	0x7a
 8195 1389 00       		.sleb128 0
 8196 138a 27       		.byte	0x27
 8197 138b 31       		.byte	0x31
 8198 138c 24       		.byte	0x24
 8199 138d 31       		.byte	0x31
 8200 138e 24       		.byte	0x24
 8201 138f 9F       		.byte	0x9f
ARM GAS  C:\Users\Vergil\AppData\Local\Temp\ccl0Rg49.s 			page 145


 8202 1390 00000000 		.4byte	0
 8203 1394 00000000 		.4byte	0
 8204              	.LLST45:
 8205 1398 4A050000 		.4byte	.LVL168
 8206 139c 58050000 		.4byte	.LVL169
 8207 13a0 0100     		.2byte	0x1
 8208 13a2 51       		.byte	0x51
 8209 13a3 58050000 		.4byte	.LVL169
 8210 13a7 62050000 		.4byte	.LVL171
 8211 13ab 0500     		.2byte	0x5
 8212 13ad 73       		.byte	0x73
 8213 13ae 00       		.sleb128 0
 8214 13af 31       		.byte	0x31
 8215 13b0 24       		.byte	0x24
 8216 13b1 9F       		.byte	0x9f
 8217 13b2 62050000 		.4byte	.LVL171
 8218 13b6 6E050000 		.4byte	.LVL173
 8219 13ba 0700     		.2byte	0x7
 8220 13bc 76       		.byte	0x76
 8221 13bd 00       		.sleb128 0
 8222 13be 31       		.byte	0x31
 8223 13bf 24       		.byte	0x24
 8224 13c0 31       		.byte	0x31
 8225 13c1 24       		.byte	0x24
 8226 13c2 9F       		.byte	0x9f
 8227 13c3 6E050000 		.4byte	.LVL173
 8228 13c7 8A050000 		.4byte	.LVL177
 8229 13cb 2600     		.2byte	0x26
 8230 13cd 74       		.byte	0x74
 8231 13ce 00       		.sleb128 0
 8232 13cf 7A       		.byte	0x7a
 8233 13d0 00       		.sleb128 0
 8234 13d1 27       		.byte	0x27
 8235 13d2 31       		.byte	0x31
 8236 13d3 24       		.byte	0x24
 8237 13d4 4B       		.byte	0x4b
 8238 13d5 27       		.byte	0x27
 8239 13d6 74       		.byte	0x74
 8240 13d7 00       		.sleb128 0
 8241 13d8 7A       		.byte	0x7a
 8242 13d9 00       		.sleb128 0
 8243 13da 27       		.byte	0x27
 8244 13db 31       		.byte	0x31
 8245 13dc 24       		.byte	0x24
 8246 13dd 74       		.byte	0x74
 8247 13de 00       		.sleb128 0
 8248 13df 7A       		.byte	0x7a
 8249 13e0 00       		.sleb128 0
 8250 13e1 27       		.byte	0x27
 8251 13e2 09       		.byte	0x9
 8252 13e3 FC       		.byte	0xfc
 8253 13e4 24       		.byte	0x24
 8254 13e5 33       		.byte	0x33
 8255 13e6 25       		.byte	0x25
 8256 13e7 30       		.byte	0x30
 8257 13e8 2E       		.byte	0x2e
 8258 13e9 28       		.byte	0x28
ARM GAS  C:\Users\Vergil\AppData\Local\Temp\ccl0Rg49.s 			page 146


 8259 13ea 0100     		.2byte	0x1
 8260 13ec 16       		.byte	0x16
 8261 13ed 13       		.byte	0x13
 8262 13ee 31       		.byte	0x31
 8263 13ef 24       		.byte	0x24
 8264 13f0 31       		.byte	0x31
 8265 13f1 24       		.byte	0x24
 8266 13f2 9F       		.byte	0x9f
 8267 13f3 00000000 		.4byte	0
 8268 13f7 00000000 		.4byte	0
 8269              	.LLST46:
 8270 13fb 58050000 		.4byte	.LVL169
 8271 13ff 5C050000 		.4byte	.LVL170
 8272 1403 0100     		.2byte	0x1
 8273 1405 55       		.byte	0x55
 8274 1406 5C050000 		.4byte	.LVL170
 8275 140a 6C050000 		.4byte	.LVL172
 8276 140e 0500     		.2byte	0x5
 8277 1410 71       		.byte	0x71
 8278 1411 00       		.sleb128 0
 8279 1412 31       		.byte	0x31
 8280 1413 24       		.byte	0x24
 8281 1414 9F       		.byte	0x9f
 8282 1415 6C050000 		.4byte	.LVL172
 8283 1419 76050000 		.4byte	.LVL174
 8284 141d 0700     		.2byte	0x7
 8285 141f 75       		.byte	0x75
 8286 1420 00       		.sleb128 0
 8287 1421 31       		.byte	0x31
 8288 1422 24       		.byte	0x24
 8289 1423 31       		.byte	0x31
 8290 1424 24       		.byte	0x24
 8291 1425 9F       		.byte	0x9f
 8292 1426 76050000 		.4byte	.LVL174
 8293 142a 9E050000 		.4byte	.LVL178
 8294 142e 0A00     		.2byte	0xa
 8295 1430 77       		.byte	0x77
 8296 1431 00       		.sleb128 0
 8297 1432 70       		.byte	0x70
 8298 1433 00       		.sleb128 0
 8299 1434 27       		.byte	0x27
 8300 1435 31       		.byte	0x31
 8301 1436 24       		.byte	0x24
 8302 1437 31       		.byte	0x31
 8303 1438 24       		.byte	0x24
 8304 1439 9F       		.byte	0x9f
 8305 143a 00000000 		.4byte	0
 8306 143e 00000000 		.4byte	0
 8307              	.LLST47:
 8308 1442 6E050000 		.4byte	.LVL173
 8309 1446 76050000 		.4byte	.LVL174
 8310 144a 0100     		.2byte	0x1
 8311 144c 51       		.byte	0x51
 8312 144d 76050000 		.4byte	.LVL174
 8313 1451 82050000 		.4byte	.LVL175
 8314 1455 0500     		.2byte	0x5
 8315 1457 75       		.byte	0x75
ARM GAS  C:\Users\Vergil\AppData\Local\Temp\ccl0Rg49.s 			page 147


 8316 1458 00       		.sleb128 0
 8317 1459 31       		.byte	0x31
 8318 145a 24       		.byte	0x24
 8319 145b 9F       		.byte	0x9f
 8320 145c 82050000 		.4byte	.LVL175
 8321 1460 9E050000 		.4byte	.LVL178
 8322 1464 2600     		.2byte	0x26
 8323 1466 77       		.byte	0x77
 8324 1467 00       		.sleb128 0
 8325 1468 70       		.byte	0x70
 8326 1469 00       		.sleb128 0
 8327 146a 27       		.byte	0x27
 8328 146b 31       		.byte	0x31
 8329 146c 24       		.byte	0x24
 8330 146d 4B       		.byte	0x4b
 8331 146e 27       		.byte	0x27
 8332 146f 77       		.byte	0x77
 8333 1470 00       		.sleb128 0
 8334 1471 70       		.byte	0x70
 8335 1472 00       		.sleb128 0
 8336 1473 27       		.byte	0x27
 8337 1474 31       		.byte	0x31
 8338 1475 24       		.byte	0x24
 8339 1476 77       		.byte	0x77
 8340 1477 00       		.sleb128 0
 8341 1478 70       		.byte	0x70
 8342 1479 00       		.sleb128 0
 8343 147a 27       		.byte	0x27
 8344 147b 09       		.byte	0x9
 8345 147c FC       		.byte	0xfc
 8346 147d 24       		.byte	0x24
 8347 147e 33       		.byte	0x33
 8348 147f 25       		.byte	0x25
 8349 1480 30       		.byte	0x30
 8350 1481 2E       		.byte	0x2e
 8351 1482 28       		.byte	0x28
 8352 1483 0100     		.2byte	0x1
 8353 1485 16       		.byte	0x16
 8354 1486 13       		.byte	0x13
 8355 1487 31       		.byte	0x31
 8356 1488 24       		.byte	0x24
 8357 1489 31       		.byte	0x31
 8358 148a 24       		.byte	0x24
 8359 148b 9F       		.byte	0x9f
 8360 148c 00000000 		.4byte	0
 8361 1490 00000000 		.4byte	0
 8362              	.LLST48:
 8363 1494 54020000 		.4byte	.LVL107
 8364 1498 E0040000 		.4byte	.LVL149
 8365 149c 0E00     		.2byte	0xe
 8366 149e 91       		.byte	0x91
 8367 149f B47F     		.sleb128 -76
 8368 14a1 06       		.byte	0x6
 8369 14a2 91       		.byte	0x91
 8370 14a3 A87F     		.sleb128 -88
 8371 14a5 06       		.byte	0x6
 8372 14a6 27       		.byte	0x27
ARM GAS  C:\Users\Vergil\AppData\Local\Temp\ccl0Rg49.s 			page 148


 8373 14a7 31       		.byte	0x31
 8374 14a8 24       		.byte	0x24
 8375 14a9 31       		.byte	0x31
 8376 14aa 24       		.byte	0x24
 8377 14ab 9F       		.byte	0x9f
 8378 14ac 84050000 		.4byte	.LVL176
 8379 14b0 9E050000 		.4byte	.LVL178
 8380 14b4 0100     		.2byte	0x1
 8381 14b6 51       		.byte	0x51
 8382 14b7 9E050000 		.4byte	.LVL178
 8383 14bb A4050000 		.4byte	.LVL179
 8384 14bf 0500     		.2byte	0x5
 8385 14c1 77       		.byte	0x77
 8386 14c2 00       		.sleb128 0
 8387 14c3 31       		.byte	0x31
 8388 14c4 24       		.byte	0x24
 8389 14c5 9F       		.byte	0x9f
 8390 14c6 A4050000 		.4byte	.LVL179
 8391 14ca D0050000 		.4byte	.LVL186
 8392 14ce 0700     		.2byte	0x7
 8393 14d0 71       		.byte	0x71
 8394 14d1 00       		.sleb128 0
 8395 14d2 31       		.byte	0x31
 8396 14d3 24       		.byte	0x24
 8397 14d4 31       		.byte	0x31
 8398 14d5 24       		.byte	0x24
 8399 14d6 9F       		.byte	0x9f
 8400 14d7 D0050000 		.4byte	.LVL186
 8401 14db 6C070000 		.4byte	.LFE3
 8402 14df 0E00     		.2byte	0xe
 8403 14e1 91       		.byte	0x91
 8404 14e2 B47F     		.sleb128 -76
 8405 14e4 06       		.byte	0x6
 8406 14e5 91       		.byte	0x91
 8407 14e6 A87F     		.sleb128 -88
 8408 14e8 06       		.byte	0x6
 8409 14e9 27       		.byte	0x27
 8410 14ea 31       		.byte	0x31
 8411 14eb 24       		.byte	0x24
 8412 14ec 31       		.byte	0x31
 8413 14ed 24       		.byte	0x24
 8414 14ee 9F       		.byte	0x9f
 8415 14ef 00000000 		.4byte	0
 8416 14f3 00000000 		.4byte	0
 8417              	.LLST49:
 8418 14f7 54020000 		.4byte	.LVL107
 8419 14fb E0040000 		.4byte	.LVL149
 8420 14ff 3200     		.2byte	0x32
 8421 1501 91       		.byte	0x91
 8422 1502 B47F     		.sleb128 -76
 8423 1504 06       		.byte	0x6
 8424 1505 91       		.byte	0x91
 8425 1506 A87F     		.sleb128 -88
 8426 1508 06       		.byte	0x6
 8427 1509 27       		.byte	0x27
 8428 150a 31       		.byte	0x31
 8429 150b 24       		.byte	0x24
ARM GAS  C:\Users\Vergil\AppData\Local\Temp\ccl0Rg49.s 			page 149


 8430 150c 4B       		.byte	0x4b
 8431 150d 27       		.byte	0x27
 8432 150e 91       		.byte	0x91
 8433 150f B47F     		.sleb128 -76
 8434 1511 06       		.byte	0x6
 8435 1512 91       		.byte	0x91
 8436 1513 A87F     		.sleb128 -88
 8437 1515 06       		.byte	0x6
 8438 1516 27       		.byte	0x27
 8439 1517 31       		.byte	0x31
 8440 1518 24       		.byte	0x24
 8441 1519 91       		.byte	0x91
 8442 151a B47F     		.sleb128 -76
 8443 151c 06       		.byte	0x6
 8444 151d 91       		.byte	0x91
 8445 151e A87F     		.sleb128 -88
 8446 1520 06       		.byte	0x6
 8447 1521 27       		.byte	0x27
 8448 1522 09       		.byte	0x9
 8449 1523 FC       		.byte	0xfc
 8450 1524 24       		.byte	0x24
 8451 1525 33       		.byte	0x33
 8452 1526 25       		.byte	0x25
 8453 1527 30       		.byte	0x30
 8454 1528 2E       		.byte	0x2e
 8455 1529 28       		.byte	0x28
 8456 152a 0100     		.2byte	0x1
 8457 152c 16       		.byte	0x16
 8458 152d 13       		.byte	0x13
 8459 152e 31       		.byte	0x31
 8460 152f 24       		.byte	0x24
 8461 1530 31       		.byte	0x31
 8462 1531 24       		.byte	0x24
 8463 1532 9F       		.byte	0x9f
 8464 1533 AC050000 		.4byte	.LVL180
 8465 1537 B4050000 		.4byte	.LVL181
 8466 153b 0100     		.2byte	0x1
 8467 153d 57       		.byte	0x57
 8468 153e B4050000 		.4byte	.LVL181
 8469 1542 C2050000 		.4byte	.LVL183
 8470 1546 0500     		.2byte	0x5
 8471 1548 75       		.byte	0x75
 8472 1549 00       		.sleb128 0
 8473 154a 31       		.byte	0x31
 8474 154b 24       		.byte	0x24
 8475 154c 9F       		.byte	0x9f
 8476 154d C2050000 		.4byte	.LVL183
 8477 1551 CE050000 		.4byte	.LVL185
 8478 1555 0700     		.2byte	0x7
 8479 1557 73       		.byte	0x73
 8480 1558 00       		.sleb128 0
 8481 1559 31       		.byte	0x31
 8482 155a 24       		.byte	0x24
 8483 155b 31       		.byte	0x31
 8484 155c 24       		.byte	0x24
 8485 155d 9F       		.byte	0x9f
 8486 155e CE050000 		.4byte	.LVL185
ARM GAS  C:\Users\Vergil\AppData\Local\Temp\ccl0Rg49.s 			page 150


 8487 1562 D0050000 		.4byte	.LVL186
 8488 1566 1D00     		.2byte	0x1d
 8489 1568 71       		.byte	0x71
 8490 1569 00       		.sleb128 0
 8491 156a 31       		.byte	0x31
 8492 156b 24       		.byte	0x24
 8493 156c 4B       		.byte	0x4b
 8494 156d 27       		.byte	0x27
 8495 156e 71       		.byte	0x71
 8496 156f 00       		.sleb128 0
 8497 1570 31       		.byte	0x31
 8498 1571 24       		.byte	0x24
 8499 1572 71       		.byte	0x71
 8500 1573 00       		.sleb128 0
 8501 1574 09       		.byte	0x9
 8502 1575 FC       		.byte	0xfc
 8503 1576 24       		.byte	0x24
 8504 1577 33       		.byte	0x33
 8505 1578 25       		.byte	0x25
 8506 1579 30       		.byte	0x30
 8507 157a 2E       		.byte	0x2e
 8508 157b 28       		.byte	0x28
 8509 157c 0100     		.2byte	0x1
 8510 157e 16       		.byte	0x16
 8511 157f 13       		.byte	0x13
 8512 1580 31       		.byte	0x31
 8513 1581 24       		.byte	0x24
 8514 1582 31       		.byte	0x31
 8515 1583 24       		.byte	0x24
 8516 1584 9F       		.byte	0x9f
 8517 1585 D0050000 		.4byte	.LVL186
 8518 1589 6C070000 		.4byte	.LFE3
 8519 158d 3200     		.2byte	0x32
 8520 158f 91       		.byte	0x91
 8521 1590 B47F     		.sleb128 -76
 8522 1592 06       		.byte	0x6
 8523 1593 91       		.byte	0x91
 8524 1594 A87F     		.sleb128 -88
 8525 1596 06       		.byte	0x6
 8526 1597 27       		.byte	0x27
 8527 1598 31       		.byte	0x31
 8528 1599 24       		.byte	0x24
 8529 159a 4B       		.byte	0x4b
 8530 159b 27       		.byte	0x27
 8531 159c 91       		.byte	0x91
 8532 159d B47F     		.sleb128 -76
 8533 159f 06       		.byte	0x6
 8534 15a0 91       		.byte	0x91
 8535 15a1 A87F     		.sleb128 -88
 8536 15a3 06       		.byte	0x6
 8537 15a4 27       		.byte	0x27
 8538 15a5 31       		.byte	0x31
 8539 15a6 24       		.byte	0x24
 8540 15a7 91       		.byte	0x91
 8541 15a8 B47F     		.sleb128 -76
 8542 15aa 06       		.byte	0x6
 8543 15ab 91       		.byte	0x91
ARM GAS  C:\Users\Vergil\AppData\Local\Temp\ccl0Rg49.s 			page 151


 8544 15ac A87F     		.sleb128 -88
 8545 15ae 06       		.byte	0x6
 8546 15af 27       		.byte	0x27
 8547 15b0 09       		.byte	0x9
 8548 15b1 FC       		.byte	0xfc
 8549 15b2 24       		.byte	0x24
 8550 15b3 33       		.byte	0x33
 8551 15b4 25       		.byte	0x25
 8552 15b5 30       		.byte	0x30
 8553 15b6 2E       		.byte	0x2e
 8554 15b7 28       		.byte	0x28
 8555 15b8 0100     		.2byte	0x1
 8556 15ba 16       		.byte	0x16
 8557 15bb 13       		.byte	0x13
 8558 15bc 31       		.byte	0x31
 8559 15bd 24       		.byte	0x24
 8560 15be 31       		.byte	0x31
 8561 15bf 24       		.byte	0x24
 8562 15c0 9F       		.byte	0x9f
 8563 15c1 00000000 		.4byte	0
 8564 15c5 00000000 		.4byte	0
 8565              	.LLST50:
 8566 15c9 54020000 		.4byte	.LVL107
 8567 15cd E0040000 		.4byte	.LVL149
 8568 15d1 0E00     		.2byte	0xe
 8569 15d3 91       		.byte	0x91
 8570 15d4 B07F     		.sleb128 -80
 8571 15d6 06       		.byte	0x6
 8572 15d7 91       		.byte	0x91
 8573 15d8 BC7F     		.sleb128 -68
 8574 15da 06       		.byte	0x6
 8575 15db 27       		.byte	0x27
 8576 15dc 31       		.byte	0x31
 8577 15dd 24       		.byte	0x24
 8578 15de 31       		.byte	0x31
 8579 15df 24       		.byte	0x24
 8580 15e0 9F       		.byte	0x9f
 8581 15e1 B4050000 		.4byte	.LVL181
 8582 15e5 BC050000 		.4byte	.LVL182
 8583 15e9 0100     		.2byte	0x1
 8584 15eb 56       		.byte	0x56
 8585 15ec BC050000 		.4byte	.LVL182
 8586 15f0 CC050000 		.4byte	.LVL184
 8587 15f4 0500     		.2byte	0x5
 8588 15f6 77       		.byte	0x77
 8589 15f7 00       		.sleb128 0
 8590 15f8 31       		.byte	0x31
 8591 15f9 24       		.byte	0x24
 8592 15fa 9F       		.byte	0x9f
 8593 15fb CC050000 		.4byte	.LVL184
 8594 15ff D4050000 		.4byte	.LVL188
 8595 1603 0700     		.2byte	0x7
 8596 1605 76       		.byte	0x76
 8597 1606 00       		.sleb128 0
 8598 1607 31       		.byte	0x31
 8599 1608 24       		.byte	0x24
 8600 1609 31       		.byte	0x31
ARM GAS  C:\Users\Vergil\AppData\Local\Temp\ccl0Rg49.s 			page 152


 8601 160a 24       		.byte	0x24
 8602 160b 9F       		.byte	0x9f
 8603 160c D4050000 		.4byte	.LVL188
 8604 1610 E4050000 		.4byte	.LVL191
 8605 1614 0C00     		.2byte	0xc
 8606 1616 91       		.byte	0x91
 8607 1617 B07F     		.sleb128 -80
 8608 1619 06       		.byte	0x6
 8609 161a 74       		.byte	0x74
 8610 161b 00       		.sleb128 0
 8611 161c 27       		.byte	0x27
 8612 161d 31       		.byte	0x31
 8613 161e 24       		.byte	0x24
 8614 161f 31       		.byte	0x31
 8615 1620 24       		.byte	0x24
 8616 1621 9F       		.byte	0x9f
 8617 1622 E4050000 		.4byte	.LVL191
 8618 1626 6C070000 		.4byte	.LFE3
 8619 162a 0E00     		.2byte	0xe
 8620 162c 91       		.byte	0x91
 8621 162d B07F     		.sleb128 -80
 8622 162f 06       		.byte	0x6
 8623 1630 91       		.byte	0x91
 8624 1631 BC7F     		.sleb128 -68
 8625 1633 06       		.byte	0x6
 8626 1634 27       		.byte	0x27
 8627 1635 31       		.byte	0x31
 8628 1636 24       		.byte	0x24
 8629 1637 31       		.byte	0x31
 8630 1638 24       		.byte	0x24
 8631 1639 9F       		.byte	0x9f
 8632 163a 00000000 		.4byte	0
 8633 163e 00000000 		.4byte	0
 8634              	.LLST51:
 8635 1642 54020000 		.4byte	.LVL107
 8636 1646 E0040000 		.4byte	.LVL149
 8637 164a 3200     		.2byte	0x32
 8638 164c 91       		.byte	0x91
 8639 164d B07F     		.sleb128 -80
 8640 164f 06       		.byte	0x6
 8641 1650 91       		.byte	0x91
 8642 1651 BC7F     		.sleb128 -68
 8643 1653 06       		.byte	0x6
 8644 1654 27       		.byte	0x27
 8645 1655 31       		.byte	0x31
 8646 1656 24       		.byte	0x24
 8647 1657 4B       		.byte	0x4b
 8648 1658 27       		.byte	0x27
 8649 1659 91       		.byte	0x91
 8650 165a B07F     		.sleb128 -80
 8651 165c 06       		.byte	0x6
 8652 165d 91       		.byte	0x91
 8653 165e BC7F     		.sleb128 -68
 8654 1660 06       		.byte	0x6
 8655 1661 27       		.byte	0x27
 8656 1662 31       		.byte	0x31
 8657 1663 24       		.byte	0x24
ARM GAS  C:\Users\Vergil\AppData\Local\Temp\ccl0Rg49.s 			page 153


 8658 1664 91       		.byte	0x91
 8659 1665 B07F     		.sleb128 -80
 8660 1667 06       		.byte	0x6
 8661 1668 91       		.byte	0x91
 8662 1669 BC7F     		.sleb128 -68
 8663 166b 06       		.byte	0x6
 8664 166c 27       		.byte	0x27
 8665 166d 09       		.byte	0x9
 8666 166e FC       		.byte	0xfc
 8667 166f 24       		.byte	0x24
 8668 1670 33       		.byte	0x33
 8669 1671 25       		.byte	0x25
 8670 1672 30       		.byte	0x30
 8671 1673 2E       		.byte	0x2e
 8672 1674 28       		.byte	0x28
 8673 1675 0100     		.2byte	0x1
 8674 1677 16       		.byte	0x16
 8675 1678 13       		.byte	0x13
 8676 1679 31       		.byte	0x31
 8677 167a 24       		.byte	0x24
 8678 167b 31       		.byte	0x31
 8679 167c 24       		.byte	0x24
 8680 167d 9F       		.byte	0x9f
 8681 167e CE050000 		.4byte	.LVL185
 8682 1682 D2050000 		.4byte	.LVL187
 8683 1686 0100     		.2byte	0x1
 8684 1688 57       		.byte	0x57
 8685 1689 D2050000 		.4byte	.LVL187
 8686 168d D8050000 		.4byte	.LVL189
 8687 1691 0100     		.2byte	0x1
 8688 1693 53       		.byte	0x53
 8689 1694 D8050000 		.4byte	.LVL189
 8690 1698 E2050000 		.4byte	.LVL190
 8691 169c 0500     		.2byte	0x5
 8692 169e 75       		.byte	0x75
 8693 169f 00       		.sleb128 0
 8694 16a0 31       		.byte	0x31
 8695 16a1 24       		.byte	0x24
 8696 16a2 9F       		.byte	0x9f
 8697 16a3 E2050000 		.4byte	.LVL190
 8698 16a7 EC050000 		.4byte	.LVL192
 8699 16ab 0700     		.2byte	0x7
 8700 16ad 73       		.byte	0x73
 8701 16ae 00       		.sleb128 0
 8702 16af 31       		.byte	0x31
 8703 16b0 24       		.byte	0x24
 8704 16b1 31       		.byte	0x31
 8705 16b2 24       		.byte	0x24
 8706 16b3 9F       		.byte	0x9f
 8707 16b4 EC050000 		.4byte	.LVL192
 8708 16b8 6C070000 		.4byte	.LFE3
 8709 16bc 3200     		.2byte	0x32
 8710 16be 91       		.byte	0x91
 8711 16bf B07F     		.sleb128 -80
 8712 16c1 06       		.byte	0x6
 8713 16c2 91       		.byte	0x91
 8714 16c3 BC7F     		.sleb128 -68
ARM GAS  C:\Users\Vergil\AppData\Local\Temp\ccl0Rg49.s 			page 154


 8715 16c5 06       		.byte	0x6
 8716 16c6 27       		.byte	0x27
 8717 16c7 31       		.byte	0x31
 8718 16c8 24       		.byte	0x24
 8719 16c9 4B       		.byte	0x4b
 8720 16ca 27       		.byte	0x27
 8721 16cb 91       		.byte	0x91
 8722 16cc B07F     		.sleb128 -80
 8723 16ce 06       		.byte	0x6
 8724 16cf 91       		.byte	0x91
 8725 16d0 BC7F     		.sleb128 -68
 8726 16d2 06       		.byte	0x6
 8727 16d3 27       		.byte	0x27
 8728 16d4 31       		.byte	0x31
 8729 16d5 24       		.byte	0x24
 8730 16d6 91       		.byte	0x91
 8731 16d7 B07F     		.sleb128 -80
 8732 16d9 06       		.byte	0x6
 8733 16da 91       		.byte	0x91
 8734 16db BC7F     		.sleb128 -68
 8735 16dd 06       		.byte	0x6
 8736 16de 27       		.byte	0x27
 8737 16df 09       		.byte	0x9
 8738 16e0 FC       		.byte	0xfc
 8739 16e1 24       		.byte	0x24
 8740 16e2 33       		.byte	0x33
 8741 16e3 25       		.byte	0x25
 8742 16e4 30       		.byte	0x30
 8743 16e5 2E       		.byte	0x2e
 8744 16e6 28       		.byte	0x28
 8745 16e7 0100     		.2byte	0x1
 8746 16e9 16       		.byte	0x16
 8747 16ea 13       		.byte	0x13
 8748 16eb 31       		.byte	0x31
 8749 16ec 24       		.byte	0x24
 8750 16ed 31       		.byte	0x31
 8751 16ee 24       		.byte	0x24
 8752 16ef 9F       		.byte	0x9f
 8753 16f0 00000000 		.4byte	0
 8754 16f4 00000000 		.4byte	0
 8755              	.LLST52:
 8756 16f8 54020000 		.4byte	.LVL107
 8757 16fc E0040000 		.4byte	.LVL149
 8758 1700 0E00     		.2byte	0xe
 8759 1702 91       		.byte	0x91
 8760 1703 A47F     		.sleb128 -92
 8761 1705 06       		.byte	0x6
 8762 1706 91       		.byte	0x91
 8763 1707 AC7F     		.sleb128 -84
 8764 1709 06       		.byte	0x6
 8765 170a 27       		.byte	0x27
 8766 170b 31       		.byte	0x31
 8767 170c 24       		.byte	0x24
 8768 170d 31       		.byte	0x31
 8769 170e 24       		.byte	0x24
 8770 170f 9F       		.byte	0x9f
 8771 1710 F2050000 		.4byte	.LVL193
ARM GAS  C:\Users\Vergil\AppData\Local\Temp\ccl0Rg49.s 			page 155


 8772 1714 08060000 		.4byte	.LVL194
 8773 1718 0100     		.2byte	0x1
 8774 171a 53       		.byte	0x53
 8775 171b 08060000 		.4byte	.LVL194
 8776 171f 10060000 		.4byte	.LVL195
 8777 1723 0500     		.2byte	0x5
 8778 1725 74       		.byte	0x74
 8779 1726 00       		.sleb128 0
 8780 1727 31       		.byte	0x31
 8781 1728 24       		.byte	0x24
 8782 1729 9F       		.byte	0x9f
 8783 172a 10060000 		.4byte	.LVL195
 8784 172e 12060000 		.4byte	.LVL196
 8785 1732 0700     		.2byte	0x7
 8786 1734 73       		.byte	0x73
 8787 1735 00       		.sleb128 0
 8788 1736 31       		.byte	0x31
 8789 1737 24       		.byte	0x24
 8790 1738 31       		.byte	0x31
 8791 1739 24       		.byte	0x24
 8792 173a 9F       		.byte	0x9f
 8793 173b 12060000 		.4byte	.LVL196
 8794 173f 6C070000 		.4byte	.LFE3
 8795 1743 0E00     		.2byte	0xe
 8796 1745 91       		.byte	0x91
 8797 1746 A47F     		.sleb128 -92
 8798 1748 06       		.byte	0x6
 8799 1749 91       		.byte	0x91
 8800 174a AC7F     		.sleb128 -84
 8801 174c 06       		.byte	0x6
 8802 174d 27       		.byte	0x27
 8803 174e 31       		.byte	0x31
 8804 174f 24       		.byte	0x24
 8805 1750 31       		.byte	0x31
 8806 1751 24       		.byte	0x24
 8807 1752 9F       		.byte	0x9f
 8808 1753 00000000 		.4byte	0
 8809 1757 00000000 		.4byte	0
 8810              	.LLST53:
 8811 175b 54020000 		.4byte	.LVL107
 8812 175f E0040000 		.4byte	.LVL149
 8813 1763 3200     		.2byte	0x32
 8814 1765 91       		.byte	0x91
 8815 1766 A47F     		.sleb128 -92
 8816 1768 06       		.byte	0x6
 8817 1769 91       		.byte	0x91
 8818 176a AC7F     		.sleb128 -84
 8819 176c 06       		.byte	0x6
 8820 176d 27       		.byte	0x27
 8821 176e 31       		.byte	0x31
 8822 176f 24       		.byte	0x24
 8823 1770 4B       		.byte	0x4b
 8824 1771 27       		.byte	0x27
 8825 1772 91       		.byte	0x91
 8826 1773 A47F     		.sleb128 -92
 8827 1775 06       		.byte	0x6
 8828 1776 91       		.byte	0x91
ARM GAS  C:\Users\Vergil\AppData\Local\Temp\ccl0Rg49.s 			page 156


 8829 1777 AC7F     		.sleb128 -84
 8830 1779 06       		.byte	0x6
 8831 177a 27       		.byte	0x27
 8832 177b 31       		.byte	0x31
 8833 177c 24       		.byte	0x24
 8834 177d 91       		.byte	0x91
 8835 177e A47F     		.sleb128 -92
 8836 1780 06       		.byte	0x6
 8837 1781 91       		.byte	0x91
 8838 1782 AC7F     		.sleb128 -84
 8839 1784 06       		.byte	0x6
 8840 1785 27       		.byte	0x27
 8841 1786 09       		.byte	0x9
 8842 1787 FC       		.byte	0xfc
 8843 1788 24       		.byte	0x24
 8844 1789 33       		.byte	0x33
 8845 178a 25       		.byte	0x25
 8846 178b 30       		.byte	0x30
 8847 178c 2E       		.byte	0x2e
 8848 178d 28       		.byte	0x28
 8849 178e 0100     		.2byte	0x1
 8850 1790 16       		.byte	0x16
 8851 1791 13       		.byte	0x13
 8852 1792 31       		.byte	0x31
 8853 1793 24       		.byte	0x24
 8854 1794 31       		.byte	0x31
 8855 1795 24       		.byte	0x24
 8856 1796 9F       		.byte	0x9f
 8857 1797 12060000 		.4byte	.LVL196
 8858 179b 1C060000 		.4byte	.LVL197
 8859 179f 0100     		.2byte	0x1
 8860 17a1 54       		.byte	0x54
 8861 17a2 1C060000 		.4byte	.LVL197
 8862 17a6 26060000 		.4byte	.LVL199
 8863 17aa 0500     		.2byte	0x5
 8864 17ac 75       		.byte	0x75
 8865 17ad 00       		.sleb128 0
 8866 17ae 31       		.byte	0x31
 8867 17af 24       		.byte	0x24
 8868 17b0 9F       		.byte	0x9f
 8869 17b1 26060000 		.4byte	.LVL199
 8870 17b5 32060000 		.4byte	.LVL201
 8871 17b9 0700     		.2byte	0x7
 8872 17bb 73       		.byte	0x73
 8873 17bc 00       		.sleb128 0
 8874 17bd 31       		.byte	0x31
 8875 17be 24       		.byte	0x24
 8876 17bf 31       		.byte	0x31
 8877 17c0 24       		.byte	0x24
 8878 17c1 9F       		.byte	0x9f
 8879 17c2 32060000 		.4byte	.LVL201
 8880 17c6 6C070000 		.4byte	.LFE3
 8881 17ca 3200     		.2byte	0x32
 8882 17cc 91       		.byte	0x91
 8883 17cd A47F     		.sleb128 -92
 8884 17cf 06       		.byte	0x6
 8885 17d0 91       		.byte	0x91
ARM GAS  C:\Users\Vergil\AppData\Local\Temp\ccl0Rg49.s 			page 157


 8886 17d1 AC7F     		.sleb128 -84
 8887 17d3 06       		.byte	0x6
 8888 17d4 27       		.byte	0x27
 8889 17d5 31       		.byte	0x31
 8890 17d6 24       		.byte	0x24
 8891 17d7 4B       		.byte	0x4b
 8892 17d8 27       		.byte	0x27
 8893 17d9 91       		.byte	0x91
 8894 17da A47F     		.sleb128 -92
 8895 17dc 06       		.byte	0x6
 8896 17dd 91       		.byte	0x91
 8897 17de AC7F     		.sleb128 -84
 8898 17e0 06       		.byte	0x6
 8899 17e1 27       		.byte	0x27
 8900 17e2 31       		.byte	0x31
 8901 17e3 24       		.byte	0x24
 8902 17e4 91       		.byte	0x91
 8903 17e5 A47F     		.sleb128 -92
 8904 17e7 06       		.byte	0x6
 8905 17e8 91       		.byte	0x91
 8906 17e9 AC7F     		.sleb128 -84
 8907 17eb 06       		.byte	0x6
 8908 17ec 27       		.byte	0x27
 8909 17ed 09       		.byte	0x9
 8910 17ee FC       		.byte	0xfc
 8911 17ef 24       		.byte	0x24
 8912 17f0 33       		.byte	0x33
 8913 17f1 25       		.byte	0x25
 8914 17f2 30       		.byte	0x30
 8915 17f3 2E       		.byte	0x2e
 8916 17f4 28       		.byte	0x28
 8917 17f5 0100     		.2byte	0x1
 8918 17f7 16       		.byte	0x16
 8919 17f8 13       		.byte	0x13
 8920 17f9 31       		.byte	0x31
 8921 17fa 24       		.byte	0x24
 8922 17fb 31       		.byte	0x31
 8923 17fc 24       		.byte	0x24
 8924 17fd 9F       		.byte	0x9f
 8925 17fe 00000000 		.4byte	0
 8926 1802 00000000 		.4byte	0
 8927              	.LLST54:
 8928 1806 54020000 		.4byte	.LVL107
 8929 180a E0040000 		.4byte	.LVL149
 8930 180e 0D00     		.2byte	0xd
 8931 1810 7D       		.byte	0x7d
 8932 1811 00       		.sleb128 0
 8933 1812 06       		.byte	0x6
 8934 1813 91       		.byte	0x91
 8935 1814 B87F     		.sleb128 -72
 8936 1816 06       		.byte	0x6
 8937 1817 27       		.byte	0x27
 8938 1818 31       		.byte	0x31
 8939 1819 24       		.byte	0x24
 8940 181a 31       		.byte	0x31
 8941 181b 24       		.byte	0x24
 8942 181c 9F       		.byte	0x9f
ARM GAS  C:\Users\Vergil\AppData\Local\Temp\ccl0Rg49.s 			page 158


 8943 181d 1C060000 		.4byte	.LVL197
 8944 1821 20060000 		.4byte	.LVL198
 8945 1825 0100     		.2byte	0x1
 8946 1827 57       		.byte	0x57
 8947 1828 20060000 		.4byte	.LVL198
 8948 182c 30060000 		.4byte	.LVL200
 8949 1830 0500     		.2byte	0x5
 8950 1832 74       		.byte	0x74
 8951 1833 00       		.sleb128 0
 8952 1834 31       		.byte	0x31
 8953 1835 24       		.byte	0x24
 8954 1836 9F       		.byte	0x9f
 8955 1837 30060000 		.4byte	.LVL200
 8956 183b 38060000 		.4byte	.LVL203
 8957 183f 0700     		.2byte	0x7
 8958 1841 77       		.byte	0x77
 8959 1842 00       		.sleb128 0
 8960 1843 31       		.byte	0x31
 8961 1844 24       		.byte	0x24
 8962 1845 31       		.byte	0x31
 8963 1846 24       		.byte	0x24
 8964 1847 9F       		.byte	0x9f
 8965 1848 38060000 		.4byte	.LVL203
 8966 184c 4E060000 		.4byte	.LVL205
 8967 1850 0B00     		.2byte	0xb
 8968 1852 7D       		.byte	0x7d
 8969 1853 00       		.sleb128 0
 8970 1854 06       		.byte	0x6
 8971 1855 71       		.byte	0x71
 8972 1856 00       		.sleb128 0
 8973 1857 27       		.byte	0x27
 8974 1858 31       		.byte	0x31
 8975 1859 24       		.byte	0x24
 8976 185a 31       		.byte	0x31
 8977 185b 24       		.byte	0x24
 8978 185c 9F       		.byte	0x9f
 8979 185d 4E060000 		.4byte	.LVL205
 8980 1861 50060000 		.4byte	.LVL206
 8981 1865 0B00     		.2byte	0xb
 8982 1867 7D       		.byte	0x7d
 8983 1868 00       		.sleb128 0
 8984 1869 06       		.byte	0x6
 8985 186a 75       		.byte	0x75
 8986 186b 00       		.sleb128 0
 8987 186c 27       		.byte	0x27
 8988 186d 31       		.byte	0x31
 8989 186e 24       		.byte	0x24
 8990 186f 31       		.byte	0x31
 8991 1870 24       		.byte	0x24
 8992 1871 9F       		.byte	0x9f
 8993 1872 50060000 		.4byte	.LVL206
 8994 1876 6C070000 		.4byte	.LFE3
 8995 187a 0D00     		.2byte	0xd
 8996 187c 7D       		.byte	0x7d
 8997 187d 00       		.sleb128 0
 8998 187e 06       		.byte	0x6
 8999 187f 91       		.byte	0x91
ARM GAS  C:\Users\Vergil\AppData\Local\Temp\ccl0Rg49.s 			page 159


 9000 1880 B87F     		.sleb128 -72
 9001 1882 06       		.byte	0x6
 9002 1883 27       		.byte	0x27
 9003 1884 31       		.byte	0x31
 9004 1885 24       		.byte	0x24
 9005 1886 31       		.byte	0x31
 9006 1887 24       		.byte	0x24
 9007 1888 9F       		.byte	0x9f
 9008 1889 00000000 		.4byte	0
 9009 188d 00000000 		.4byte	0
 9010              	.LLST55:
 9011 1891 54020000 		.4byte	.LVL107
 9012 1895 E0040000 		.4byte	.LVL149
 9013 1899 2F00     		.2byte	0x2f
 9014 189b 7D       		.byte	0x7d
 9015 189c 00       		.sleb128 0
 9016 189d 06       		.byte	0x6
 9017 189e 91       		.byte	0x91
 9018 189f B87F     		.sleb128 -72
 9019 18a1 06       		.byte	0x6
 9020 18a2 27       		.byte	0x27
 9021 18a3 31       		.byte	0x31
 9022 18a4 24       		.byte	0x24
 9023 18a5 4B       		.byte	0x4b
 9024 18a6 27       		.byte	0x27
 9025 18a7 7D       		.byte	0x7d
 9026 18a8 00       		.sleb128 0
 9027 18a9 06       		.byte	0x6
 9028 18aa 91       		.byte	0x91
 9029 18ab B87F     		.sleb128 -72
 9030 18ad 06       		.byte	0x6
 9031 18ae 27       		.byte	0x27
 9032 18af 31       		.byte	0x31
 9033 18b0 24       		.byte	0x24
 9034 18b1 7D       		.byte	0x7d
 9035 18b2 00       		.sleb128 0
 9036 18b3 06       		.byte	0x6
 9037 18b4 91       		.byte	0x91
 9038 18b5 B87F     		.sleb128 -72
 9039 18b7 06       		.byte	0x6
 9040 18b8 27       		.byte	0x27
 9041 18b9 09       		.byte	0x9
 9042 18ba FC       		.byte	0xfc
 9043 18bb 24       		.byte	0x24
 9044 18bc 33       		.byte	0x33
 9045 18bd 25       		.byte	0x25
 9046 18be 30       		.byte	0x30
 9047 18bf 2E       		.byte	0x2e
 9048 18c0 28       		.byte	0x28
 9049 18c1 0100     		.2byte	0x1
 9050 18c3 16       		.byte	0x16
 9051 18c4 13       		.byte	0x13
 9052 18c5 31       		.byte	0x31
 9053 18c6 24       		.byte	0x24
 9054 18c7 31       		.byte	0x31
 9055 18c8 24       		.byte	0x24
 9056 18c9 9F       		.byte	0x9f
ARM GAS  C:\Users\Vergil\AppData\Local\Temp\ccl0Rg49.s 			page 160


 9057 18ca 34060000 		.4byte	.LVL202
 9058 18ce 38060000 		.4byte	.LVL203
 9059 18d2 0100     		.2byte	0x1
 9060 18d4 54       		.byte	0x54
 9061 18d5 38060000 		.4byte	.LVL203
 9062 18d9 48060000 		.4byte	.LVL204
 9063 18dd 0500     		.2byte	0x5
 9064 18df 77       		.byte	0x77
 9065 18e0 00       		.sleb128 0
 9066 18e1 31       		.byte	0x31
 9067 18e2 24       		.byte	0x24
 9068 18e3 9F       		.byte	0x9f
 9069 18e4 48060000 		.4byte	.LVL204
 9070 18e8 60060000 		.4byte	.LVL207
 9071 18ec 0700     		.2byte	0x7
 9072 18ee 74       		.byte	0x74
 9073 18ef 00       		.sleb128 0
 9074 18f0 31       		.byte	0x31
 9075 18f1 24       		.byte	0x24
 9076 18f2 31       		.byte	0x31
 9077 18f3 24       		.byte	0x24
 9078 18f4 9F       		.byte	0x9f
 9079 18f5 60060000 		.4byte	.LVL207
 9080 18f9 6C070000 		.4byte	.LFE3
 9081 18fd 2F00     		.2byte	0x2f
 9082 18ff 7D       		.byte	0x7d
 9083 1900 00       		.sleb128 0
 9084 1901 06       		.byte	0x6
 9085 1902 91       		.byte	0x91
 9086 1903 B87F     		.sleb128 -72
 9087 1905 06       		.byte	0x6
 9088 1906 27       		.byte	0x27
 9089 1907 31       		.byte	0x31
 9090 1908 24       		.byte	0x24
 9091 1909 4B       		.byte	0x4b
 9092 190a 27       		.byte	0x27
 9093 190b 7D       		.byte	0x7d
 9094 190c 00       		.sleb128 0
 9095 190d 06       		.byte	0x6
 9096 190e 91       		.byte	0x91
 9097 190f B87F     		.sleb128 -72
 9098 1911 06       		.byte	0x6
 9099 1912 27       		.byte	0x27
 9100 1913 31       		.byte	0x31
 9101 1914 24       		.byte	0x24
 9102 1915 7D       		.byte	0x7d
 9103 1916 00       		.sleb128 0
 9104 1917 06       		.byte	0x6
 9105 1918 91       		.byte	0x91
 9106 1919 B87F     		.sleb128 -72
 9107 191b 06       		.byte	0x6
 9108 191c 27       		.byte	0x27
 9109 191d 09       		.byte	0x9
 9110 191e FC       		.byte	0xfc
 9111 191f 24       		.byte	0x24
 9112 1920 33       		.byte	0x33
 9113 1921 25       		.byte	0x25
ARM GAS  C:\Users\Vergil\AppData\Local\Temp\ccl0Rg49.s 			page 161


 9114 1922 30       		.byte	0x30
 9115 1923 2E       		.byte	0x2e
 9116 1924 28       		.byte	0x28
 9117 1925 0100     		.2byte	0x1
 9118 1927 16       		.byte	0x16
 9119 1928 13       		.byte	0x13
 9120 1929 31       		.byte	0x31
 9121 192a 24       		.byte	0x24
 9122 192b 31       		.byte	0x31
 9123 192c 24       		.byte	0x24
 9124 192d 9F       		.byte	0x9f
 9125 192e 00000000 		.4byte	0
 9126 1932 00000000 		.4byte	0
 9127              	.LLST56:
 9128 1936 72060000 		.4byte	.LVL208
 9129 193a 78060000 		.4byte	.LVL209
 9130 193e 0500     		.2byte	0x5
 9131 1940 71       		.byte	0x71
 9132 1941 00       		.sleb128 0
 9133 1942 31       		.byte	0x31
 9134 1943 24       		.byte	0x24
 9135 1944 9F       		.byte	0x9f
 9136 1945 78060000 		.4byte	.LVL209
 9137 1949 7E060000 		.4byte	.LVL210
 9138 194d 0700     		.2byte	0x7
 9139 194f 74       		.byte	0x74
 9140 1950 00       		.sleb128 0
 9141 1951 31       		.byte	0x31
 9142 1952 24       		.byte	0x24
 9143 1953 31       		.byte	0x31
 9144 1954 24       		.byte	0x24
 9145 1955 9F       		.byte	0x9f
 9146 1956 7E060000 		.4byte	.LVL210
 9147 195a 9E060000 		.4byte	.LVL213
 9148 195e 0A00     		.2byte	0xa
 9149 1960 78       		.byte	0x78
 9150 1961 00       		.sleb128 0
 9151 1962 7B       		.byte	0x7b
 9152 1963 00       		.sleb128 0
 9153 1964 27       		.byte	0x27
 9154 1965 31       		.byte	0x31
 9155 1966 24       		.byte	0x24
 9156 1967 31       		.byte	0x31
 9157 1968 24       		.byte	0x24
 9158 1969 9F       		.byte	0x9f
 9159 196a 00000000 		.4byte	0
 9160 196e 00000000 		.4byte	0
 9161              	.LLST57:
 9162 1972 86060000 		.4byte	.LVL211
 9163 1976 92060000 		.4byte	.LVL212
 9164 197a 0100     		.2byte	0x1
 9165 197c 53       		.byte	0x53
 9166 197d 92060000 		.4byte	.LVL212
 9167 1981 BE060000 		.4byte	.LVL214
 9168 1985 0100     		.2byte	0x1
 9169 1987 51       		.byte	0x51
 9170 1988 00000000 		.4byte	0
ARM GAS  C:\Users\Vergil\AppData\Local\Temp\ccl0Rg49.s 			page 162


 9171 198c 00000000 		.4byte	0
 9172              	.LLST58:
 9173 1990 54020000 		.4byte	.LVL107
 9174 1994 6A020000 		.4byte	.LVL111
 9175 1998 0500     		.2byte	0x5
 9176 199a 7B       		.byte	0x7b
 9177 199b 00       		.sleb128 0
 9178 199c 31       		.byte	0x31
 9179 199d 24       		.byte	0x24
 9180 199e 9F       		.byte	0x9f
 9181 199f CA060000 		.4byte	.LVL216
 9182 19a3 DC060000 		.4byte	.LVL217
 9183 19a7 0100     		.2byte	0x1
 9184 19a9 5B       		.byte	0x5b
 9185 19aa DC060000 		.4byte	.LVL217
 9186 19ae F6060000 		.4byte	.LVL219
 9187 19b2 0100     		.2byte	0x1
 9188 19b4 57       		.byte	0x57
 9189 19b5 F6060000 		.4byte	.LVL219
 9190 19b9 50070000 		.4byte	.LVL231
 9191 19bd 0500     		.2byte	0x5
 9192 19bf 7B       		.byte	0x7b
 9193 19c0 00       		.sleb128 0
 9194 19c1 31       		.byte	0x31
 9195 19c2 24       		.byte	0x24
 9196 19c3 9F       		.byte	0x9f
 9197 19c4 00000000 		.4byte	0
 9198 19c8 00000000 		.4byte	0
 9199              	.LLST59:
 9200 19cc F6060000 		.4byte	.LVL219
 9201 19d0 04070000 		.4byte	.LVL220
 9202 19d4 0100     		.2byte	0x1
 9203 19d6 52       		.byte	0x52
 9204 19d7 04070000 		.4byte	.LVL220
 9205 19db 0C070000 		.4byte	.LVL221
 9206 19df 0500     		.2byte	0x5
 9207 19e1 75       		.byte	0x75
 9208 19e2 00       		.sleb128 0
 9209 19e3 31       		.byte	0x31
 9210 19e4 24       		.byte	0x24
 9211 19e5 9F       		.byte	0x9f
 9212 19e6 0C070000 		.4byte	.LVL221
 9213 19ea 12070000 		.4byte	.LVL222
 9214 19ee 0A00     		.2byte	0xa
 9215 19f0 70       		.byte	0x70
 9216 19f1 00       		.sleb128 0
 9217 19f2 71       		.byte	0x71
 9218 19f3 00       		.sleb128 0
 9219 19f4 27       		.byte	0x27
 9220 19f5 31       		.byte	0x31
 9221 19f6 24       		.byte	0x24
 9222 19f7 31       		.byte	0x31
 9223 19f8 24       		.byte	0x24
 9224 19f9 9F       		.byte	0x9f
 9225 19fa 12070000 		.4byte	.LVL222
 9226 19fe 1E070000 		.4byte	.LVL224
 9227 1a02 0A00     		.2byte	0xa
ARM GAS  C:\Users\Vergil\AppData\Local\Temp\ccl0Rg49.s 			page 163


 9228 1a04 70       		.byte	0x70
 9229 1a05 00       		.sleb128 0
 9230 1a06 72       		.byte	0x72
 9231 1a07 00       		.sleb128 0
 9232 1a08 27       		.byte	0x27
 9233 1a09 31       		.byte	0x31
 9234 1a0a 24       		.byte	0x24
 9235 1a0b 31       		.byte	0x31
 9236 1a0c 24       		.byte	0x24
 9237 1a0d 9F       		.byte	0x9f
 9238 1a0e 1E070000 		.4byte	.LVL224
 9239 1a12 32070000 		.4byte	.LVL226
 9240 1a16 0B00     		.2byte	0xb
 9241 1a18 70       		.byte	0x70
 9242 1a19 00       		.sleb128 0
 9243 1a1a 91       		.byte	0x91
 9244 1a1b 44       		.sleb128 -60
 9245 1a1c 06       		.byte	0x6
 9246 1a1d 27       		.byte	0x27
 9247 1a1e 31       		.byte	0x31
 9248 1a1f 24       		.byte	0x24
 9249 1a20 31       		.byte	0x31
 9250 1a21 24       		.byte	0x24
 9251 1a22 9F       		.byte	0x9f
 9252 1a23 00000000 		.4byte	0
 9253 1a27 00000000 		.4byte	0
 9254              	.LLST60:
 9255 1a2b 54020000 		.4byte	.LVL107
 9256 1a2f 58020000 		.4byte	.LVL109
 9257 1a33 0500     		.2byte	0x5
 9258 1a35 71       		.byte	0x71
 9259 1a36 00       		.sleb128 0
 9260 1a37 31       		.byte	0x31
 9261 1a38 24       		.byte	0x24
 9262 1a39 9F       		.byte	0x9f
 9263 1a3a 1A070000 		.4byte	.LVL223
 9264 1a3e 20070000 		.4byte	.LVL225
 9265 1a42 0100     		.2byte	0x1
 9266 1a44 51       		.byte	0x51
 9267 1a45 20070000 		.4byte	.LVL225
 9268 1a49 38070000 		.4byte	.LVL227
 9269 1a4d 0100     		.2byte	0x1
 9270 1a4f 52       		.byte	0x52
 9271 1a50 38070000 		.4byte	.LVL227
 9272 1a54 4E070000 		.4byte	.LVL230
 9273 1a58 0500     		.2byte	0x5
 9274 1a5a 71       		.byte	0x71
 9275 1a5b 00       		.sleb128 0
 9276 1a5c 31       		.byte	0x31
 9277 1a5d 24       		.byte	0x24
 9278 1a5e 9F       		.byte	0x9f
 9279 1a5f 00000000 		.4byte	0
 9280 1a63 00000000 		.4byte	0
 9281              	.LLST61:
 9282 1a67 00000000 		.4byte	.LFB4
 9283 1a6b 02000000 		.4byte	.LCFI6
 9284 1a6f 0200     		.2byte	0x2
ARM GAS  C:\Users\Vergil\AppData\Local\Temp\ccl0Rg49.s 			page 164


 9285 1a71 7D       		.byte	0x7d
 9286 1a72 00       		.sleb128 0
 9287 1a73 02000000 		.4byte	.LCFI6
 9288 1a77 1E000000 		.4byte	.LFE4
 9289 1a7b 0200     		.2byte	0x2
 9290 1a7d 7D       		.byte	0x7d
 9291 1a7e 10       		.sleb128 16
 9292 1a7f 00000000 		.4byte	0
 9293 1a83 00000000 		.4byte	0
 9294              	.LLST62:
 9295 1a87 00000000 		.4byte	.LVL236
 9296 1a8b 0E000000 		.4byte	.LVL237
 9297 1a8f 0100     		.2byte	0x1
 9298 1a91 50       		.byte	0x50
 9299 1a92 0E000000 		.4byte	.LVL237
 9300 1a96 1E000000 		.4byte	.LFE4
 9301 1a9a 0100     		.2byte	0x1
 9302 1a9c 55       		.byte	0x55
 9303 1a9d 00000000 		.4byte	0
 9304 1aa1 00000000 		.4byte	0
 9305              	.LLST63:
 9306 1aa5 00000000 		.4byte	.LVL236
 9307 1aa9 11000000 		.4byte	.LVL238-1
 9308 1aad 0100     		.2byte	0x1
 9309 1aaf 51       		.byte	0x51
 9310 1ab0 11000000 		.4byte	.LVL238-1
 9311 1ab4 1E000000 		.4byte	.LFE4
 9312 1ab8 0400     		.2byte	0x4
 9313 1aba F3       		.byte	0xf3
 9314 1abb 01       		.uleb128 0x1
 9315 1abc 51       		.byte	0x51
 9316 1abd 9F       		.byte	0x9f
 9317 1abe 00000000 		.4byte	0
 9318 1ac2 00000000 		.4byte	0
 9319              	.LLST64:
 9320 1ac6 00000000 		.4byte	.LFB5
 9321 1aca 02000000 		.4byte	.LCFI7
 9322 1ace 0200     		.2byte	0x2
 9323 1ad0 7D       		.byte	0x7d
 9324 1ad1 00       		.sleb128 0
 9325 1ad2 02000000 		.4byte	.LCFI7
 9326 1ad6 1E000000 		.4byte	.LFE5
 9327 1ada 0200     		.2byte	0x2
 9328 1adc 7D       		.byte	0x7d
 9329 1add 10       		.sleb128 16
 9330 1ade 00000000 		.4byte	0
 9331 1ae2 00000000 		.4byte	0
 9332              	.LLST65:
 9333 1ae6 00000000 		.4byte	.LVL240
 9334 1aea 0E000000 		.4byte	.LVL241
 9335 1aee 0100     		.2byte	0x1
 9336 1af0 50       		.byte	0x50
 9337 1af1 0E000000 		.4byte	.LVL241
 9338 1af5 1E000000 		.4byte	.LFE5
 9339 1af9 0100     		.2byte	0x1
 9340 1afb 55       		.byte	0x55
 9341 1afc 00000000 		.4byte	0
ARM GAS  C:\Users\Vergil\AppData\Local\Temp\ccl0Rg49.s 			page 165


 9342 1b00 00000000 		.4byte	0
 9343              	.LLST66:
 9344 1b04 00000000 		.4byte	.LVL240
 9345 1b08 11000000 		.4byte	.LVL242-1
 9346 1b0c 0100     		.2byte	0x1
 9347 1b0e 51       		.byte	0x51
 9348 1b0f 11000000 		.4byte	.LVL242-1
 9349 1b13 1E000000 		.4byte	.LFE5
 9350 1b17 0400     		.2byte	0x4
 9351 1b19 F3       		.byte	0xf3
 9352 1b1a 01       		.uleb128 0x1
 9353 1b1b 51       		.byte	0x51
 9354 1b1c 9F       		.byte	0x9f
 9355 1b1d 00000000 		.4byte	0
 9356 1b21 00000000 		.4byte	0
 9357              	.LLST67:
 9358 1b25 00000000 		.4byte	.LVL244
 9359 1b29 06000000 		.4byte	.LVL245
 9360 1b2d 0100     		.2byte	0x1
 9361 1b2f 50       		.byte	0x50
 9362 1b30 06000000 		.4byte	.LVL245
 9363 1b34 0B000000 		.4byte	.LVL246-1
 9364 1b38 0100     		.2byte	0x1
 9365 1b3a 53       		.byte	0x53
 9366 1b3b 0B000000 		.4byte	.LVL246-1
 9367 1b3f 0C000000 		.4byte	.LFE6
 9368 1b43 0400     		.2byte	0x4
 9369 1b45 F3       		.byte	0xf3
 9370 1b46 01       		.uleb128 0x1
 9371 1b47 50       		.byte	0x50
 9372 1b48 9F       		.byte	0x9f
 9373 1b49 00000000 		.4byte	0
 9374 1b4d 00000000 		.4byte	0
 9375              	.LLST68:
 9376 1b51 00000000 		.4byte	.LVL247
 9377 1b55 06000000 		.4byte	.LVL248
 9378 1b59 0100     		.2byte	0x1
 9379 1b5b 50       		.byte	0x50
 9380 1b5c 06000000 		.4byte	.LVL248
 9381 1b60 0B000000 		.4byte	.LVL249-1
 9382 1b64 0100     		.2byte	0x1
 9383 1b66 53       		.byte	0x53
 9384 1b67 0B000000 		.4byte	.LVL249-1
 9385 1b6b 0C000000 		.4byte	.LFE7
 9386 1b6f 0400     		.2byte	0x4
 9387 1b71 F3       		.byte	0xf3
 9388 1b72 01       		.uleb128 0x1
 9389 1b73 50       		.byte	0x50
 9390 1b74 9F       		.byte	0x9f
 9391 1b75 00000000 		.4byte	0
 9392 1b79 00000000 		.4byte	0
 9393              		.section	.debug_aranges,"",%progbits
 9394 0000 54000000 		.4byte	0x54
 9395 0004 0200     		.2byte	0x2
 9396 0006 00000000 		.4byte	.Ldebug_info0
 9397 000a 04       		.byte	0x4
 9398 000b 00       		.byte	0
ARM GAS  C:\Users\Vergil\AppData\Local\Temp\ccl0Rg49.s 			page 166


 9399 000c 0000     		.2byte	0
 9400 000e 0000     		.2byte	0
 9401 0010 00000000 		.4byte	.LFB0
 9402 0014 70010000 		.4byte	.LFE0-.LFB0
 9403 0018 00000000 		.4byte	.LFB1
 9404 001c 12000000 		.4byte	.LFE1-.LFB1
 9405 0020 00000000 		.4byte	.LFB2
 9406 0024 3A060000 		.4byte	.LFE2-.LFB2
 9407 0028 00000000 		.4byte	.LFB3
 9408 002c 6C070000 		.4byte	.LFE3-.LFB3
 9409 0030 00000000 		.4byte	.LFB4
 9410 0034 1E000000 		.4byte	.LFE4-.LFB4
 9411 0038 00000000 		.4byte	.LFB5
 9412 003c 1E000000 		.4byte	.LFE5-.LFB5
 9413 0040 00000000 		.4byte	.LFB6
 9414 0044 0C000000 		.4byte	.LFE6-.LFB6
 9415 0048 00000000 		.4byte	.LFB7
 9416 004c 0C000000 		.4byte	.LFE7-.LFB7
 9417 0050 00000000 		.4byte	0
 9418 0054 00000000 		.4byte	0
 9419              		.section	.debug_ranges,"",%progbits
 9420              	.Ldebug_ranges0:
 9421 0000 6A000000 		.4byte	.LBB98
 9422 0004 74000000 		.4byte	.LBE98
 9423 0008 F8030000 		.4byte	.LBB184
 9424 000c FA030000 		.4byte	.LBE184
 9425 0010 00040000 		.4byte	.LBB185
 9426 0014 14040000 		.4byte	.LBE185
 9427 0018 00000000 		.4byte	0
 9428 001c 00000000 		.4byte	0
 9429 0020 28010000 		.4byte	.LBB102
 9430 0024 2C010000 		.4byte	.LBE102
 9431 0028 D8010000 		.4byte	.LBB106
 9432 002c E2010000 		.4byte	.LBE106
 9433 0030 E4010000 		.4byte	.LBB107
 9434 0034 E8010000 		.4byte	.LBE107
 9435 0038 00000000 		.4byte	0
 9436 003c 00000000 		.4byte	0
 9437 0040 F8010000 		.4byte	.LBB108
 9438 0044 04020000 		.4byte	.LBE108
 9439 0048 08020000 		.4byte	.LBB111
 9440 004c 0E020000 		.4byte	.LBE111
 9441 0050 00000000 		.4byte	0
 9442 0054 00000000 		.4byte	0
 9443 0058 10020000 		.4byte	.LBB112
 9444 005c 14020000 		.4byte	.LBE112
 9445 0060 16020000 		.4byte	.LBB117
 9446 0064 1A020000 		.4byte	.LBE117
 9447 0068 24020000 		.4byte	.LBB118
 9448 006c 2A020000 		.4byte	.LBE118
 9449 0070 2E020000 		.4byte	.LBB119
 9450 0074 32020000 		.4byte	.LBE119
 9451 0078 00000000 		.4byte	0
 9452 007c 00000000 		.4byte	0
 9453 0080 38020000 		.4byte	.LBB120
 9454 0084 40020000 		.4byte	.LBE120
 9455 0088 44020000 		.4byte	.LBB123
ARM GAS  C:\Users\Vergil\AppData\Local\Temp\ccl0Rg49.s 			page 167


 9456 008c 4C020000 		.4byte	.LBE123
 9457 0090 00000000 		.4byte	0
 9458 0094 00000000 		.4byte	0
 9459 0098 70020000 		.4byte	.LBB124
 9460 009c 78020000 		.4byte	.LBE124
 9461 00a0 7C020000 		.4byte	.LBB128
 9462 00a4 82020000 		.4byte	.LBE128
 9463 00a8 86020000 		.4byte	.LBB129
 9464 00ac 88020000 		.4byte	.LBE129
 9465 00b0 00000000 		.4byte	0
 9466 00b4 00000000 		.4byte	0
 9467 00b8 90020000 		.4byte	.LBB130
 9468 00bc 94020000 		.4byte	.LBE130
 9469 00c0 9E020000 		.4byte	.LBB133
 9470 00c4 AA020000 		.4byte	.LBE133
 9471 00c8 00000000 		.4byte	0
 9472 00cc 00000000 		.4byte	0
 9473 00d0 AC020000 		.4byte	.LBB134
 9474 00d4 B4020000 		.4byte	.LBE134
 9475 00d8 B8020000 		.4byte	.LBB137
 9476 00dc C0020000 		.4byte	.LBE137
 9477 00e0 00000000 		.4byte	0
 9478 00e4 00000000 		.4byte	0
 9479 00e8 DE020000 		.4byte	.LBB138
 9480 00ec E2020000 		.4byte	.LBE138
 9481 00f0 E6020000 		.4byte	.LBB142
 9482 00f4 EC020000 		.4byte	.LBE142
 9483 00f8 F0020000 		.4byte	.LBB148
 9484 00fc F6020000 		.4byte	.LBE148
 9485 0100 00000000 		.4byte	0
 9486 0104 00000000 		.4byte	0
 9487 0108 EC020000 		.4byte	.LBB143
 9488 010c F0020000 		.4byte	.LBE143
 9489 0110 F6020000 		.4byte	.LBB149
 9490 0114 FA020000 		.4byte	.LBE149
 9491 0118 FE020000 		.4byte	.LBB150
 9492 011c 04030000 		.4byte	.LBE150
 9493 0120 0C030000 		.4byte	.LBB151
 9494 0124 0E030000 		.4byte	.LBE151
 9495 0128 00000000 		.4byte	0
 9496 012c 00000000 		.4byte	0
 9497 0130 28030000 		.4byte	.LBB152
 9498 0134 2C030000 		.4byte	.LBE152
 9499 0138 30030000 		.4byte	.LBB156
 9500 013c 36030000 		.4byte	.LBE156
 9501 0140 3C030000 		.4byte	.LBB162
 9502 0144 42030000 		.4byte	.LBE162
 9503 0148 00000000 		.4byte	0
 9504 014c 00000000 		.4byte	0
 9505 0150 38030000 		.4byte	.LBB157
 9506 0154 3C030000 		.4byte	.LBE157
 9507 0158 42030000 		.4byte	.LBB163
 9508 015c 46030000 		.4byte	.LBE163
 9509 0160 4C030000 		.4byte	.LBB164
 9510 0164 52030000 		.4byte	.LBE164
 9511 0168 58030000 		.4byte	.LBB165
 9512 016c 5C030000 		.4byte	.LBE165
ARM GAS  C:\Users\Vergil\AppData\Local\Temp\ccl0Rg49.s 			page 168


 9513 0170 00000000 		.4byte	0
 9514 0174 00000000 		.4byte	0
 9515 0178 70030000 		.4byte	.LBB166
 9516 017c 74030000 		.4byte	.LBE166
 9517 0180 76030000 		.4byte	.LBB170
 9518 0184 7C030000 		.4byte	.LBE170
 9519 0188 82030000 		.4byte	.LBB171
 9520 018c 88030000 		.4byte	.LBE171
 9521 0190 00000000 		.4byte	0
 9522 0194 00000000 		.4byte	0
 9523 0198 A2030000 		.4byte	.LBB172
 9524 019c AA030000 		.4byte	.LBE172
 9525 01a0 B0030000 		.4byte	.LBB176
 9526 01a4 B6030000 		.4byte	.LBE176
 9527 01a8 B8030000 		.4byte	.LBB177
 9528 01ac BA030000 		.4byte	.LBE177
 9529 01b0 00000000 		.4byte	0
 9530 01b4 00000000 		.4byte	0
 9531 01b8 D2030000 		.4byte	.LBB180
 9532 01bc E0030000 		.4byte	.LBE180
 9533 01c0 E4030000 		.4byte	.LBB183
 9534 01c4 E6030000 		.4byte	.LBE183
 9535 01c8 00000000 		.4byte	0
 9536 01cc 00000000 		.4byte	0
 9537 01d0 54020000 		.4byte	.LBB186
 9538 01d4 58020000 		.4byte	.LBE186
 9539 01d8 36070000 		.4byte	.LBB346
 9540 01dc 38070000 		.4byte	.LBE346
 9541 01e0 42070000 		.4byte	.LBB347
 9542 01e4 50070000 		.4byte	.LBE347
 9543 01e8 00000000 		.4byte	0
 9544 01ec 00000000 		.4byte	0
 9545 01f0 70020000 		.4byte	.LBB190
 9546 01f4 7A020000 		.4byte	.LBE190
 9547 01f8 7E020000 		.4byte	.LBB193
 9548 01fc 84020000 		.4byte	.LBE193
 9549 0200 00000000 		.4byte	0
 9550 0204 00000000 		.4byte	0
 9551 0208 90020000 		.4byte	.LBB194
 9552 020c 9E020000 		.4byte	.LBE194
 9553 0210 A4020000 		.4byte	.LBB197
 9554 0214 A6020000 		.4byte	.LBE197
 9555 0218 00000000 		.4byte	0
 9556 021c 00000000 		.4byte	0
 9557 0220 CA020000 		.4byte	.LBB200
 9558 0224 CC020000 		.4byte	.LBE200
 9559 0228 D4020000 		.4byte	.LBB204
 9560 022c DC020000 		.4byte	.LBE204
 9561 0230 5A070000 		.4byte	.LBB349
 9562 0234 64070000 		.4byte	.LBE349
 9563 0238 00000000 		.4byte	0
 9564 023c 00000000 		.4byte	0
 9565 0240 F0020000 		.4byte	.LBB205
 9566 0244 F4020000 		.4byte	.LBE205
 9567 0248 F8020000 		.4byte	.LBB208
 9568 024c 04030000 		.4byte	.LBE208
 9569 0250 00000000 		.4byte	0
ARM GAS  C:\Users\Vergil\AppData\Local\Temp\ccl0Rg49.s 			page 169


 9570 0254 00000000 		.4byte	0
 9571 0258 14030000 		.4byte	.LBB209
 9572 025c 18030000 		.4byte	.LBE209
 9573 0260 1C030000 		.4byte	.LBB214
 9574 0264 20030000 		.4byte	.LBE214
 9575 0268 2A030000 		.4byte	.LBB215
 9576 026c 30030000 		.4byte	.LBE215
 9577 0270 34030000 		.4byte	.LBB216
 9578 0274 36030000 		.4byte	.LBE216
 9579 0278 00000000 		.4byte	0
 9580 027c 00000000 		.4byte	0
 9581 0280 3C030000 		.4byte	.LBB217
 9582 0284 40030000 		.4byte	.LBE217
 9583 0288 44030000 		.4byte	.LBB221
 9584 028c 48030000 		.4byte	.LBE221
 9585 0290 4E030000 		.4byte	.LBB222
 9586 0294 56030000 		.4byte	.LBE222
 9587 0298 00000000 		.4byte	0
 9588 029c 00000000 		.4byte	0
 9589 02a0 5C030000 		.4byte	.LBB223
 9590 02a4 5E030000 		.4byte	.LBE223
 9591 02a8 62030000 		.4byte	.LBB227
 9592 02ac 6A030000 		.4byte	.LBE227
 9593 02b0 50070000 		.4byte	.LBB348
 9594 02b4 5A070000 		.4byte	.LBE348
 9595 02b8 00000000 		.4byte	0
 9596 02bc 00000000 		.4byte	0
 9597 02c0 7C030000 		.4byte	.LBB228
 9598 02c4 80030000 		.4byte	.LBE228
 9599 02c8 82030000 		.4byte	.LBB231
 9600 02cc 8E030000 		.4byte	.LBE231
 9601 02d0 00000000 		.4byte	0
 9602 02d4 00000000 		.4byte	0
 9603 02d8 F4040000 		.4byte	.LBB234
 9604 02dc FC040000 		.4byte	.LBE234
 9605 02e0 00050000 		.4byte	.LBB237
 9606 02e4 08050000 		.4byte	.LBE237
 9607 02e8 00000000 		.4byte	0
 9608 02ec 00000000 		.4byte	0
 9609 02f0 18050000 		.4byte	.LBB240
 9610 02f4 20050000 		.4byte	.LBE240
 9611 02f8 2C050000 		.4byte	.LBB244
 9612 02fc 32050000 		.4byte	.LBE244
 9613 0300 3A050000 		.4byte	.LBB249
 9614 0304 3C050000 		.4byte	.LBE249
 9615 0308 00000000 		.4byte	0
 9616 030c 00000000 		.4byte	0
 9617 0310 32050000 		.4byte	.LBB245
 9618 0314 3A050000 		.4byte	.LBE245
 9619 0318 3C050000 		.4byte	.LBB250
 9620 031c 42050000 		.4byte	.LBE250
 9621 0320 48050000 		.4byte	.LBB251
 9622 0324 4A050000 		.4byte	.LBE251
 9623 0328 00000000 		.4byte	0
 9624 032c 00000000 		.4byte	0
 9625 0330 4C050000 		.4byte	.LBB252
 9626 0334 50050000 		.4byte	.LBE252
ARM GAS  C:\Users\Vergil\AppData\Local\Temp\ccl0Rg49.s 			page 170


 9627 0338 54050000 		.4byte	.LBB257
 9628 033c 58050000 		.4byte	.LBE257
 9629 0340 5C050000 		.4byte	.LBB261
 9630 0344 62050000 		.4byte	.LBE261
 9631 0348 7A050000 		.4byte	.LBB267
 9632 034c 7C050000 		.4byte	.LBE267
 9633 0350 00000000 		.4byte	0
 9634 0354 00000000 		.4byte	0
 9635 0358 58050000 		.4byte	.LBB258
 9636 035c 5C050000 		.4byte	.LBE258
 9637 0360 62050000 		.4byte	.LBB262
 9638 0364 6E050000 		.4byte	.LBE262
 9639 0368 00000000 		.4byte	0
 9640 036c 00000000 		.4byte	0
 9641 0370 6E050000 		.4byte	.LBB263
 9642 0374 76050000 		.4byte	.LBE263
 9643 0378 7C050000 		.4byte	.LBB268
 9644 037c 82050000 		.4byte	.LBE268
 9645 0380 84050000 		.4byte	.LBB269
 9646 0384 86050000 		.4byte	.LBE269
 9647 0388 00000000 		.4byte	0
 9648 038c 00000000 		.4byte	0
 9649 0390 8A050000 		.4byte	.LBB270
 9650 0394 8E050000 		.4byte	.LBE270
 9651 0398 9A050000 		.4byte	.LBB274
 9652 039c A4050000 		.4byte	.LBE274
 9653 03a0 AA050000 		.4byte	.LBB275
 9654 03a4 AC050000 		.4byte	.LBE275
 9655 03a8 00000000 		.4byte	0
 9656 03ac 00000000 		.4byte	0
 9657 03b0 B0050000 		.4byte	.LBB276
 9658 03b4 B8050000 		.4byte	.LBE276
 9659 03b8 BC050000 		.4byte	.LBB283
 9660 03bc C2050000 		.4byte	.LBE283
 9661 03c0 CE050000 		.4byte	.LBB285
 9662 03c4 D0050000 		.4byte	.LBE285
 9663 03c8 00000000 		.4byte	0
 9664 03cc 00000000 		.4byte	0
 9665 03d0 B8050000 		.4byte	.LBB280
 9666 03d4 BC050000 		.4byte	.LBE280
 9667 03d8 C2050000 		.4byte	.LBB284
 9668 03dc CE050000 		.4byte	.LBE284
 9669 03e0 00000000 		.4byte	0
 9670 03e4 00000000 		.4byte	0
 9671 03e8 FE050000 		.4byte	.LBB288
 9672 03ec 02060000 		.4byte	.LBE288
 9673 03f0 04060000 		.4byte	.LBB292
 9674 03f4 08060000 		.4byte	.LBE292
 9675 03f8 0A060000 		.4byte	.LBB293
 9676 03fc 12060000 		.4byte	.LBE293
 9677 0400 00000000 		.4byte	0
 9678 0404 00000000 		.4byte	0
 9679 0408 14060000 		.4byte	.LBB294
 9680 040c 1C060000 		.4byte	.LBE294
 9681 0410 20060000 		.4byte	.LBB302
 9682 0414 26060000 		.4byte	.LBE302
 9683 0418 30060000 		.4byte	.LBB304
ARM GAS  C:\Users\Vergil\AppData\Local\Temp\ccl0Rg49.s 			page 171


 9684 041c 32060000 		.4byte	.LBE304
 9685 0420 00000000 		.4byte	0
 9686 0424 00000000 		.4byte	0
 9687 0428 1C060000 		.4byte	.LBB298
 9688 042c 20060000 		.4byte	.LBE298
 9689 0430 26060000 		.4byte	.LBB303
 9690 0434 30060000 		.4byte	.LBE303
 9691 0438 32060000 		.4byte	.LBB305
 9692 043c 34060000 		.4byte	.LBE305
 9693 0440 00000000 		.4byte	0
 9694 0444 00000000 		.4byte	0
 9695 0448 34060000 		.4byte	.LBB306
 9696 044c 3C060000 		.4byte	.LBE306
 9697 0450 42060000 		.4byte	.LBB310
 9698 0454 48060000 		.4byte	.LBE310
 9699 0458 4C060000 		.4byte	.LBB311
 9700 045c 4E060000 		.4byte	.LBE311
 9701 0460 00000000 		.4byte	0
 9702 0464 00000000 		.4byte	0
 9703 0468 64060000 		.4byte	.LBB312
 9704 046c 68060000 		.4byte	.LBE312
 9705 0470 6A060000 		.4byte	.LBB317
 9706 0474 6E060000 		.4byte	.LBE317
 9707 0478 72060000 		.4byte	.LBB318
 9708 047c 78060000 		.4byte	.LBE318
 9709 0480 7C060000 		.4byte	.LBB319
 9710 0484 7E060000 		.4byte	.LBE319
 9711 0488 00000000 		.4byte	0
 9712 048c 00000000 		.4byte	0
 9713 0490 88060000 		.4byte	.LBB320
 9714 0494 92060000 		.4byte	.LBE320
 9715 0498 94060000 		.4byte	.LBB323
 9716 049c 9A060000 		.4byte	.LBE323
 9717 04a0 00000000 		.4byte	0
 9718 04a4 00000000 		.4byte	0
 9719 04a8 9E060000 		.4byte	.LBB324
 9720 04ac A6060000 		.4byte	.LBE324
 9721 04b0 AA060000 		.4byte	.LBB328
 9722 04b4 B0060000 		.4byte	.LBE328
 9723 04b8 B8060000 		.4byte	.LBB329
 9724 04bc BA060000 		.4byte	.LBE329
 9725 04c0 00000000 		.4byte	0
 9726 04c4 00000000 		.4byte	0
 9727 04c8 CC060000 		.4byte	.LBB330
 9728 04cc D0060000 		.4byte	.LBE330
 9729 04d0 DA060000 		.4byte	.LBB333
 9730 04d4 E6060000 		.4byte	.LBE333
 9731 04d8 00000000 		.4byte	0
 9732 04dc 00000000 		.4byte	0
 9733 04e0 F6060000 		.4byte	.LBB334
 9734 04e4 FA060000 		.4byte	.LBE334
 9735 04e8 00070000 		.4byte	.LBB339
 9736 04ec 04070000 		.4byte	.LBE339
 9737 04f0 06070000 		.4byte	.LBB340
 9738 04f4 0C070000 		.4byte	.LBE340
 9739 04f8 10070000 		.4byte	.LBB341
 9740 04fc 12070000 		.4byte	.LBE341
ARM GAS  C:\Users\Vergil\AppData\Local\Temp\ccl0Rg49.s 			page 172


 9741 0500 00000000 		.4byte	0
 9742 0504 00000000 		.4byte	0
 9743 0508 1A070000 		.4byte	.LBB342
 9744 050c 20070000 		.4byte	.LBE342
 9745 0510 22070000 		.4byte	.LBB345
 9746 0514 2C070000 		.4byte	.LBE345
 9747 0518 00000000 		.4byte	0
 9748 051c 00000000 		.4byte	0
 9749 0520 00000000 		.4byte	.LFB0
 9750 0524 70010000 		.4byte	.LFE0
 9751 0528 00000000 		.4byte	.LFB1
 9752 052c 12000000 		.4byte	.LFE1
 9753 0530 00000000 		.4byte	.LFB2
 9754 0534 3A060000 		.4byte	.LFE2
 9755 0538 00000000 		.4byte	.LFB3
 9756 053c 6C070000 		.4byte	.LFE3
 9757 0540 00000000 		.4byte	.LFB4
 9758 0544 1E000000 		.4byte	.LFE4
 9759 0548 00000000 		.4byte	.LFB5
 9760 054c 1E000000 		.4byte	.LFE5
 9761 0550 00000000 		.4byte	.LFB6
 9762 0554 0C000000 		.4byte	.LFE6
 9763 0558 00000000 		.4byte	.LFB7
 9764 055c 0C000000 		.4byte	.LFE7
 9765 0560 00000000 		.4byte	0
 9766 0564 00000000 		.4byte	0
 9767              		.section	.debug_line,"",%progbits
 9768              	.Ldebug_line0:
 9769 0000 760E0000 		.section	.debug_str,"MS",%progbits,1
 9769      02007000 
 9769      00000201 
 9769      FB0E0D00 
 9769      01010101 
 9770              	.LASF17:
 9771 0000 62756631 		.ascii	"buf1\000"
 9771      00
 9772              	.LASF21:
 9773 0005 62756632 		.ascii	"buf2\000"
 9773      00
 9774              	.LASF22:
 9775 000a 62756633 		.ascii	"buf3\000"
 9775      00
 9776              	.LASF20:
 9777 000f 73746174 		.ascii	"state\000"
 9777      6500
 9778              	.LASF18:
 9779 0015 65787061 		.ascii	"expandKey\000"
 9779      6E644B65 
 9779      7900
 9780              	.LASF37:
 9781 001f 76616C75 		.ascii	"value\000"
 9781      6500
 9782              	.LASF28:
 9783 0025 6165735F 		.ascii	"aes_write_key\000"
 9783      77726974 
 9783      655F6B65 
 9783      7900
ARM GAS  C:\Users\Vergil\AppData\Local\Temp\ccl0Rg49.s 			page 173


 9784              	.LASF30:
 9785 0033 73626F78 		.ascii	"sbox\000"
 9785      00
 9786              	.LASF1:
 9787 0038 55494E54 		.ascii	"UINT8\000"
 9787      3800
 9788              	.LASF3:
 9789 003e 756E7369 		.ascii	"unsigned char\000"
 9789      676E6564 
 9789      20636861 
 9789      7200
 9790              	.LASF29:
 9791 004c 72657475 		.ascii	"returnValue\000"
 9791      726E5661 
 9791      6C756500 
 9792              	.LASF10:
 9793 0058 6C6F6E67 		.ascii	"long unsigned int\000"
 9793      20756E73 
 9793      69676E65 
 9793      6420696E 
 9793      7400
 9794              	.LASF38:
 9795 006a 6E766D65 		.ascii	"nvmem_write\000"
 9795      6D5F7772 
 9795      69746500 
 9796              	.LASF6:
 9797 0076 73686F72 		.ascii	"short unsigned int\000"
 9797      7420756E 
 9797      7369676E 
 9797      65642069 
 9797      6E7400
 9798              	.LASF19:
 9799 0089 6165735F 		.ascii	"aes_encr\000"
 9799      656E6372 
 9799      00
 9800              	.LASF35:
 9801 0092 474E5520 		.ascii	"GNU C 4.7.4 20140401 (release) [ARM/embedded-4_7-br"
 9801      4320342E 
 9801      372E3420 
 9801      32303134 
 9801      30343031 
 9802 00c5 616E6368 		.ascii	"anch revision 209195]\000"
 9802      20726576 
 9802      6973696F 
 9802      6E203230 
 9802      39313935 
 9803              	.LASF31:
 9804 00db 7273626F 		.ascii	"rsbox\000"
 9804      7800
 9805              	.LASF23:
 9806 00e1 726F756E 		.ascii	"round\000"
 9806      6400
 9807              	.LASF12:
 9808 00e7 756E7369 		.ascii	"unsigned int\000"
 9808      676E6564 
 9808      20696E74 
 9808      00
ARM GAS  C:\Users\Vergil\AppData\Local\Temp\ccl0Rg49.s 			page 174


 9809              	.LASF34:
 9810 00f4 6E766D65 		.ascii	"nvmem_read\000"
 9810      6D5F7265 
 9810      616400
 9811              	.LASF14:
 9812 00ff 6C6F6E67 		.ascii	"long long unsigned int\000"
 9812      206C6F6E 
 9812      6720756E 
 9812      7369676E 
 9812      65642069 
 9813              	.LASF32:
 9814 0116 52636F6E 		.ascii	"Rcon\000"
 9814      00
 9815              	.LASF7:
 9816 011b 494E5433 		.ascii	"INT32\000"
 9816      3200
 9817              	.LASF36:
 9818 0121 433A5C55 		.ascii	"C:\\Users\\Vergil\\ChibiOS_CC3000_SPI/CC3000HostDri"
 9818      73657273 
 9818      5C566572 
 9818      67696C5C 
 9818      43686962 
 9819 0151 7665722F 		.ascii	"ver/security.c\000"
 9819      73656375 
 9819      72697479 
 9819      2E6300
 9820              	.LASF15:
 9821 0160 73697A65 		.ascii	"sizetype\000"
 9821      74797065 
 9821      00
 9822              	.LASF33:
 9823 0169 67616C6F 		.ascii	"galois_mul2\000"
 9823      69735F6D 
 9823      756C3200 
 9824              	.LASF13:
 9825 0175 6C6F6E67 		.ascii	"long long int\000"
 9825      206C6F6E 
 9825      6720696E 
 9825      7400
 9826              	.LASF5:
 9827 0183 55494E54 		.ascii	"UINT16\000"
 9827      313600
 9828              	.LASF11:
 9829 018a 63686172 		.ascii	"char\000"
 9829      00
 9830              	.LASF0:
 9831 018f 494E5438 		.ascii	"INT8\000"
 9831      00
 9832              	.LASF9:
 9833 0194 55494E54 		.ascii	"UINT32\000"
 9833      333200
 9834              	.LASF24:
 9835 019b 6165735F 		.ascii	"aes_decr\000"
 9835      64656372 
 9835      00
 9836              	.LASF4:
 9837 01a4 73686F72 		.ascii	"short int\000"
ARM GAS  C:\Users\Vergil\AppData\Local\Temp\ccl0Rg49.s 			page 175


 9837      7420696E 
 9837      7400
 9838              	.LASF25:
 9839 01ae 6165735F 		.ascii	"aes_encrypt\000"
 9839      656E6372 
 9839      79707400 
 9840              	.LASF27:
 9841 01ba 6165735F 		.ascii	"aes_read_key\000"
 9841      72656164 
 9841      5F6B6579 
 9841      00
 9842              	.LASF8:
 9843 01c7 6C6F6E67 		.ascii	"long int\000"
 9843      20696E74 
 9843      00
 9844              	.LASF2:
 9845 01d0 7369676E 		.ascii	"signed char\000"
 9845      65642063 
 9845      68617200 
 9846              	.LASF16:
 9847 01dc 65787061 		.ascii	"expandedKey\000"
 9847      6E646564 
 9847      4B657900 
 9848              	.LASF26:
 9849 01e8 6165735F 		.ascii	"aes_decrypt\000"
 9849      64656372 
 9849      79707400 
 9850              		.ident	"GCC: (GNU Tools for ARM Embedded Processors) 4.7.4 20140401 (release) [ARM/embedded-4_7-br
ARM GAS  C:\Users\Vergil\AppData\Local\Temp\ccl0Rg49.s 			page 176


DEFINED SYMBOLS
                            *ABS*:00000000 security.c
C:\Users\Vergil\AppData\Local\Temp\ccl0Rg49.s:21     .text.expandKey:00000000 $t
C:\Users\Vergil\AppData\Local\Temp\ccl0Rg49.s:27     .text.expandKey:00000000 expandKey
C:\Users\Vergil\AppData\Local\Temp\ccl0Rg49.s:3204   .rodata.sbox:00000000 .LANCHOR1
C:\Users\Vergil\AppData\Local\Temp\ccl0Rg49.s:316    .text.expandKey:0000016c $d
C:\Users\Vergil\AppData\Local\Temp\ccl0Rg49.s:321    .text.galois_mul2:00000000 $t
C:\Users\Vergil\AppData\Local\Temp\ccl0Rg49.s:327    .text.galois_mul2:00000000 galois_mul2
C:\Users\Vergil\AppData\Local\Temp\ccl0Rg49.s:352    .text.aes_encr:00000000 $t
C:\Users\Vergil\AppData\Local\Temp\ccl0Rg49.s:358    .text.aes_encr:00000000 aes_encr
C:\Users\Vergil\AppData\Local\Temp\ccl0Rg49.s:1461   .text.aes_decr:00000000 $t
C:\Users\Vergil\AppData\Local\Temp\ccl0Rg49.s:1467   .text.aes_decr:00000000 aes_decr
C:\Users\Vergil\AppData\Local\Temp\ccl0Rg49.s:3466   .rodata.rsbox:00000000 .LANCHOR2
C:\Users\Vergil\AppData\Local\Temp\ccl0Rg49.s:3050   .text.aes_encrypt:00000000 $t
C:\Users\Vergil\AppData\Local\Temp\ccl0Rg49.s:3056   .text.aes_encrypt:00000000 aes_encrypt
C:\Users\Vergil\AppData\Local\Temp\ccl0Rg49.s:3197   .bss.expandedKey:00000000 .LANCHOR3
C:\Users\Vergil\AppData\Local\Temp\ccl0Rg49.s:3092   .text.aes_decrypt:00000000 $t
C:\Users\Vergil\AppData\Local\Temp\ccl0Rg49.s:3098   .text.aes_decrypt:00000000 aes_decrypt
C:\Users\Vergil\AppData\Local\Temp\ccl0Rg49.s:3134   .text.aes_read_key:00000000 $t
C:\Users\Vergil\AppData\Local\Temp\ccl0Rg49.s:3140   .text.aes_read_key:00000000 aes_read_key
C:\Users\Vergil\AppData\Local\Temp\ccl0Rg49.s:3163   .text.aes_write_key:00000000 $t
C:\Users\Vergil\AppData\Local\Temp\ccl0Rg49.s:3169   .text.aes_write_key:00000000 aes_write_key
C:\Users\Vergil\AppData\Local\Temp\ccl0Rg49.s:3200   .bss.expandedKey:00000000 expandedKey
C:\Users\Vergil\AppData\Local\Temp\ccl0Rg49.s:3731   .rodata.Rcon:00000000 Rcon
C:\Users\Vergil\AppData\Local\Temp\ccl0Rg49.s:3469   .rodata.rsbox:00000000 rsbox
C:\Users\Vergil\AppData\Local\Temp\ccl0Rg49.s:3207   .rodata.sbox:00000000 sbox
C:\Users\Vergil\AppData\Local\Temp\ccl0Rg49.s:3196   .bss.expandedKey:00000000 $d
C:\Users\Vergil\AppData\Local\Temp\ccl0Rg49.s:3203   .rodata.sbox:00000000 $d
C:\Users\Vergil\AppData\Local\Temp\ccl0Rg49.s:3465   .rodata.rsbox:00000000 $d
C:\Users\Vergil\AppData\Local\Temp\ccl0Rg49.s:3727   .rodata.Rcon:00000000 $d
                     .debug_frame:00000010 $d

UNDEFINED SYMBOLS
nvmem_read
nvmem_write
