ARM GAS  C:\Users\Vergil\AppData\Local\Temp\ccOGe2EV.s 			page 1


   1              		.syntax unified
   2              		.cpu cortex-m4
   3              		.eabi_attribute 27, 3
   4              		.eabi_attribute 28, 1
   5              		.fpu fpv4-sp-d16
   6              		.eabi_attribute 20, 1
   7              		.eabi_attribute 21, 1
   8              		.eabi_attribute 23, 3
   9              		.eabi_attribute 24, 1
  10              		.eabi_attribute 25, 1
  11              		.eabi_attribute 26, 1
  12              		.eabi_attribute 30, 2
  13              		.eabi_attribute 34, 1
  14              		.eabi_attribute 18, 4
  15              		.thumb
  16              		.file	"serial_lld.c"
  17              		.text
  18              	.Ltext0:
  19              		.cfi_sections	.debug_frame
  20              		.section	.text.notify2,"ax",%progbits
  21              		.align	2
  22              		.p2align 4,,15
  23              		.thumb
  24              		.thumb_func
  25              		.type	notify2, %function
  26              	notify2:
  27              	.LFB122:
  28              		.file 1 "../../os/hal/platforms/STM32/USARTv1/serial_lld.c"
  29              		.loc 1 212 0
  30              		.cfi_startproc
  31              		@ args = 0, pretend = 0, frame = 0
  32              		@ frame_needed = 0, uses_anonymous_args = 0
  33              		@ link register save eliminated.
  34              	.LVL0:
  35              		.loc 1 215 0
  36 0000 4FF48843 		mov	r3, #17408
  37 0004 C4F20003 		movt	r3, 16384
  38 0008 9A89     		ldrh	r2, [r3, #12]
  39 000a 90B2     		uxth	r0, r2
  40              	.LVL1:
  41 000c 40F08001 		orr	r1, r0, #128
  42 0010 9981     		strh	r1, [r3, #12]	@ movhi
  43 0012 7047     		bx	lr
  44              		.cfi_endproc
  45              	.LFE122:
  46              		.size	notify2, .-notify2
  47 0014 AFF30080 		.section	.text.VectorD8,"ax",%progbits
  47      AFF30080 
  47      AFF30080 
  48              		.align	2
  49              		.p2align 4,,15
  50              		.global	VectorD8
  51              		.thumb
  52              		.thumb_func
  53              		.type	VectorD8, %function
  54              	VectorD8:
  55              	.LFB123:
ARM GAS  C:\Users\Vergil\AppData\Local\Temp\ccOGe2EV.s 			page 2


  56              		.loc 1 283 0
  57              		.cfi_startproc
  58              		@ args = 0, pretend = 0, frame = 0
  59              		@ frame_needed = 0, uses_anonymous_args = 0
  60              	.LVL2:
  61 0000 F8B5     		push	{r3, r4, r5, r6, r7, lr}
  62              	.LCFI0:
  63              		.cfi_def_cfa_offset 24
  64              		.cfi_offset 3, -24
  65              		.cfi_offset 4, -20
  66              		.cfi_offset 5, -16
  67              		.cfi_offset 6, -12
  68              		.cfi_offset 7, -8
  69              		.cfi_offset 14, -4
  70              	.LBB26:
  71              	.LBB27:
  72              		.loc 1 155 0
  73 0002 484E     		ldr	r6, .L52
  74 0004 756F     		ldr	r5, [r6, #116]
  75              	.LVL3:
  76              		.loc 1 156 0
  77 0006 AF89     		ldrh	r7, [r5, #12]
  78              		.loc 1 157 0
  79 0008 2C88     		ldrh	r4, [r5, #0]
  80 000a A4B2     		uxth	r4, r4
  81              		.loc 1 160 0
  82 000c 04F48073 		and	r3, r4, #256
  83 0010 98B2     		uxth	r0, r3
  84              		.loc 1 156 0
  85 0012 BFB2     		uxth	r7, r7
  86              	.LVL4:
  87              		.loc 1 160 0
  88 0014 0028     		cmp	r0, #0
  89 0016 55D1     		bne	.L48
  90              	.LVL5:
  91              	.L3:
  92              	.LBB28:
  93              		.loc 1 168 0
  94 0018 2023     		movs	r3, #32
  95              	.LVL6:
  96              	@ 168 "../../os/hal/platforms/STM32/USARTv1/serial_lld.c" 1
  97 001a 83F31188 		msr     BASEPRI, r3
  98              	@ 0 "" 2
  99              	.LVL7:
 100              		.thumb
 101              	.LBE28:
 102              		.loc 1 169 0
 103 001e 2340     		ands	r3, r3, r4
 104              	.LVL8:
 105 0020 9AB2     		uxth	r2, r3
 106 0022 5AB9     		cbnz	r2, .L36
 107 0024 28E0     		b	.L4
 108              	.LVL9:
 109              	.L5:
 110              		.loc 1 173 0
 111 0026 A988     		ldrh	r1, [r5, #4]
 112 0028 3E48     		ldr	r0, .L52
ARM GAS  C:\Users\Vergil\AppData\Local\Temp\ccOGe2EV.s 			page 3


 113 002a C9B2     		uxtb	r1, r1
 114 002c FFF7FEFF 		bl	sdIncomingDataI
 115              	.LVL10:
 116              		.loc 1 174 0
 117 0030 2888     		ldrh	r0, [r5, #0]
 118 0032 84B2     		uxth	r4, r0
 119              	.LVL11:
 120              		.loc 1 169 0
 121 0034 04F02003 		and	r3, r4, #32
 122 0038 9AB2     		uxth	r2, r3
 123 003a EAB1     		cbz	r2, .L4
 124              	.LVL12:
 125              	.L36:
 126              		.loc 1 171 0
 127 003c 2307     		lsls	r3, r4, #28
 128 003e F2D0     		beq	.L5
 129              	.LVL13:
 130              	.LBB29:
 131              	.LBB30:
 132              		.loc 1 138 0
 133 0040 04F00803 		and	r3, r4, #8
 134 0044 98B2     		uxth	r0, r3
 135              		.loc 1 142 0
 136 0046 04F00202 		and	r2, r4, #2
 137              		.loc 1 139 0
 138 004a 0028     		cmp	r0, #0
 139 004c 14BF     		ite	ne
 140 004e 8021     		movne	r1, #128
 141 0050 0021     		moveq	r1, #0
 142              	.LVL14:
 143              		.loc 1 142 0
 144 0052 93B2     		uxth	r3, r2
 145              		.loc 1 140 0
 146 0054 14F0010F 		tst	r4, #1
 147              		.loc 1 144 0
 148 0058 04F00404 		and	r4, r4, #4
 149              	.LVL15:
 150              		.loc 1 146 0
 151 005c 3248     		ldr	r0, .L52+4
 152              		.loc 1 141 0
 153 005e 18BF     		it	ne
 154 0060 41F02001 		orrne	r1, r1, #32
 155              	.LVL16:
 156              		.loc 1 144 0
 157 0064 A2B2     		uxth	r2, r4
 158              		.loc 1 142 0
 159 0066 0BB1     		cbz	r3, .L8
 160              		.loc 1 143 0
 161 0068 41F04001 		orr	r1, r1, #64
 162              	.LVL17:
 163              	.L8:
 164              		.loc 1 144 0
 165 006c 0AB1     		cbz	r2, .L9
 166              		.loc 1 145 0
 167 006e 41F48071 		orr	r1, r1, #256
 168              	.LVL18:
 169              	.L9:
ARM GAS  C:\Users\Vergil\AppData\Local\Temp\ccOGe2EV.s 			page 4


 170              		.loc 1 146 0
 171 0072 FFF7FEFF 		bl	chEvtBroadcastFlagsI
 172              	.LVL19:
 173 0076 D6E7     		b	.L5
 174              	.LVL20:
 175              	.L4:
 176              	.LBE30:
 177              	.LBE29:
 178              	.LBB31:
 179              		.loc 1 176 0
 180 0078 0023     		movs	r3, #0
 181              	.LVL21:
 182              	@ 176 "../../os/hal/platforms/STM32/USARTv1/serial_lld.c" 1
 183 007a 83F31188 		msr     BASEPRI, r3
 184              	@ 0 "" 2
 185              	.LVL22:
 186              		.thumb
 187              	.LBE31:
 188              		.loc 1 179 0
 189 007e 07F08001 		and	r1, r7, #128
 190 0082 88B2     		uxth	r0, r1
 191 0084 20B1     		cbz	r0, .L11
 192 0086 04F08003 		and	r3, r4, #128
 193              	.LVL23:
 194 008a 9AB2     		uxth	r2, r3
 195 008c 002A     		cmp	r2, #0
 196 008e 28D1     		bne	.L49
 197              	.LVL24:
 198              	.L11:
 199              		.loc 1 193 0
 200 0090 04F04004 		and	r4, r4, #64
 201 0094 A4B2     		uxth	r4, r4
 202 0096 8CB1     		cbz	r4, .L14
 203              	.LBB32:
 204              		.loc 1 194 0
 205 0098 2023     		movs	r3, #32
 206              	.LVL25:
 207              	@ 194 "../../os/hal/platforms/STM32/USARTv1/serial_lld.c" 1
 208 009a 83F31188 		msr     BASEPRI, r3
 209              	@ 0 "" 2
 210              	.LVL26:
 211              		.thumb
 212              	.LBE32:
 213              		.loc 1 195 0
 214 009e 726C     		ldr	r2, [r6, #68]
 215 00a0 B16C     		ldr	r1, [r6, #72]
 216 00a2 2048     		ldr	r0, .L52
 217 00a4 8A42     		cmp	r2, r1
 218 00a6 2AD0     		beq	.L50
 219              	.L15:
 220              		.loc 1 197 0
 221 00a8 4FF6BF72 		movw	r2, #65471
 222 00ac 3A40     		ands	r2, r2, r7
 223              		.loc 1 198 0
 224 00ae 4FF6BF71 		movw	r1, #65471
 225              		.loc 1 197 0
 226 00b2 AA81     		strh	r2, [r5, #12]	@ movhi
ARM GAS  C:\Users\Vergil\AppData\Local\Temp\ccOGe2EV.s 			page 5


 227              	.LBB33:
 228              		.loc 1 199 0
 229 00b4 0023     		movs	r3, #0
 230              	.LVL27:
 231              	.LBE33:
 232              		.loc 1 198 0
 233 00b6 2980     		strh	r1, [r5, #0]	@ movhi
 234              	.LBB34:
 235              		.loc 1 199 0
 236              	@ 199 "../../os/hal/platforms/STM32/USARTv1/serial_lld.c" 1
 237 00b8 83F31188 		msr     BASEPRI, r3
 238              	@ 0 "" 2
 239              	.LVL28:
 240              		.thumb
 241              	.L14:
 242              	.LBE34:
 243              	.LBE27:
 244              	.LBE26:
 245              		.loc 1 290 0
 246 00bc BDE8F840 		pop	{r3, r4, r5, r6, r7, lr}
 247              		.loc 1 289 0
 248 00c0 FFF7FEBF 		b	_port_irq_epilogue
 249              	.LVL29:
 250              	.L48:
 251              	.LBB42:
 252              	.LBB41:
 253              	.LBB35:
 254              		.loc 1 161 0
 255 00c4 2023     		movs	r3, #32
 256              	.LVL30:
 257              	@ 161 "../../os/hal/platforms/STM32/USARTv1/serial_lld.c" 1
 258 00c6 83F31188 		msr     BASEPRI, r3
 259              	@ 0 "" 2
 260              	.LVL31:
 261              		.thumb
 262              	.LBE35:
 263              		.loc 1 162 0
 264 00ca 4FF40071 		mov	r1, #512
 265 00ce 301D     		adds	r0, r6, #4
 266 00d0 FFF7FEFF 		bl	chEvtBroadcastFlagsI
 267              	.LVL32:
 268              	.LBB36:
 269              		.loc 1 163 0
 270 00d4 0023     		movs	r3, #0
 271              	@ 163 "../../os/hal/platforms/STM32/USARTv1/serial_lld.c" 1
 272 00d6 83F31188 		msr     BASEPRI, r3
 273              	@ 0 "" 2
 274              	.LVL33:
 275              		.thumb
 276              	.LBE36:
 277              		.loc 1 164 0
 278 00da 4FF6FF61 		movw	r1, #65279
 279 00de 2980     		strh	r1, [r5, #0]	@ movhi
 280 00e0 9AE7     		b	.L3
 281              	.LVL34:
 282              	.L49:
 283              	.LBB37:
ARM GAS  C:\Users\Vergil\AppData\Local\Temp\ccOGe2EV.s 			page 6


 284              	.LBB38:
 285              		.loc 1 181 0
 286 00e2 2023     		movs	r3, #32
 287              	.LVL35:
 288              	@ 181 "../../os/hal/platforms/STM32/USARTv1/serial_lld.c" 1
 289 00e4 83F31188 		msr     BASEPRI, r3
 290              	@ 0 "" 2
 291              	.LVL36:
 292              		.thumb
 293              	.LBE38:
 294              		.loc 1 182 0
 295 00e8 1048     		ldr	r0, .L52+8
 296 00ea FFF7FEFF 		bl	chOQGetI
 297              	.LVL37:
 298              		.loc 1 183 0
 299 00ee 0028     		cmp	r0, #0
 300 00f0 0DDB     		blt	.L51
 301              		.loc 1 188 0
 302 00f2 81B2     		uxth	r1, r0
 303 00f4 A980     		strh	r1, [r5, #4]	@ movhi
 304              	.LVL38:
 305              	.L13:
 306              	.LBB39:
 307              		.loc 1 189 0
 308 00f6 0023     		movs	r3, #0
 309              	@ 189 "../../os/hal/platforms/STM32/USARTv1/serial_lld.c" 1
 310 00f8 83F31188 		msr     BASEPRI, r3
 311              	@ 0 "" 2
 312              	.LVL39:
 313              		.thumb
 314 00fc C8E7     		b	.L11
 315              	.LVL40:
 316              	.L50:
 317              	.LBE39:
 318              	.LBE37:
 319              		.loc 1 195 0
 320 00fe 836B     		ldr	r3, [r0, #56]
 321              	.LVL41:
 322 0100 002B     		cmp	r3, #0
 323 0102 D1D0     		beq	.L15
 324              		.loc 1 196 0
 325 0104 0430     		adds	r0, r0, #4
 326 0106 1021     		movs	r1, #16
 327 0108 FFF7FEFF 		bl	chEvtBroadcastFlagsI
 328              	.LVL42:
 329 010c CCE7     		b	.L15
 330              	.LVL43:
 331              	.L51:
 332              	.LBB40:
 333              		.loc 1 184 0
 334 010e 0648     		ldr	r0, .L52+4
 335              	.LVL44:
 336 0110 0821     		movs	r1, #8
 337 0112 FFF7FEFF 		bl	chEvtBroadcastFlagsI
 338              	.LVL45:
 339              		.loc 1 185 0
 340 0116 27F0C000 		bic	r0, r7, #192
ARM GAS  C:\Users\Vergil\AppData\Local\Temp\ccOGe2EV.s 			page 7


 341 011a 40F04003 		orr	r3, r0, #64
 342 011e AB81     		strh	r3, [r5, #12]	@ movhi
 343 0120 E9E7     		b	.L13
 344              	.L53:
 345 0122 00BF     		.align	2
 346              	.L52:
 347 0124 00000000 		.word	.LANCHOR0
 348 0128 04000000 		.word	.LANCHOR0+4
 349 012c 30000000 		.word	.LANCHOR0+48
 350              	.LBE40:
 351              	.LBE41:
 352              	.LBE42:
 353              		.cfi_endproc
 354              	.LFE123:
 355              		.size	VectorD8, .-VectorD8
 356              		.section	.text.sd_lld_init,"ax",%progbits
 357              		.align	2
 358              		.p2align 4,,15
 359              		.global	sd_lld_init
 360              		.thumb
 361              		.thumb_func
 362              		.type	sd_lld_init, %function
 363              	sd_lld_init:
 364              	.LFB124:
 365              		.loc 1 378 0
 366              		.cfi_startproc
 367              		@ args = 0, pretend = 0, frame = 0
 368              		@ frame_needed = 0, uses_anonymous_args = 0
 369 0000 10B5     		push	{r4, lr}
 370              	.LCFI1:
 371              		.cfi_def_cfa_offset 8
 372              		.cfi_offset 4, -8
 373              		.cfi_offset 14, -4
 374              		.loc 1 386 0
 375 0002 40F20004 		movw	r4, #:lower16:.LANCHOR0
 376 0006 C0F20004 		movt	r4, #:upper16:.LANCHOR0
 377 000a 40F20002 		movw	r2, #:lower16:notify2
 378 000e 2046     		mov	r0, r4
 379 0010 0021     		movs	r1, #0
 380 0012 C0F20002 		movt	r2, #:upper16:notify2
 381 0016 FFF7FEFF 		bl	sdObjectInit
 382              	.LVL46:
 383              		.loc 1 387 0
 384 001a 4FF48843 		mov	r3, #17408
 385 001e C4F20003 		movt	r3, 16384
 386 0022 6367     		str	r3, [r4, #116]
 387 0024 10BD     		pop	{r4, pc}
 388              		.cfi_endproc
 389              	.LFE124:
 390              		.size	sd_lld_init, .-sd_lld_init
 391 0026 00BFAFF3 		.section	.text.sd_lld_start,"ax",%progbits
 391      0080AFF3 
 391      0080
 392              		.align	2
 393              		.p2align 4,,15
 394              		.global	sd_lld_start
 395              		.thumb
ARM GAS  C:\Users\Vergil\AppData\Local\Temp\ccOGe2EV.s 			page 8


 396              		.thumb_func
 397              		.type	sd_lld_start, %function
 398              	sd_lld_start:
 399              	.LFB125:
 400              		.loc 1 421 0
 401              		.cfi_startproc
 402              		@ args = 0, pretend = 0, frame = 0
 403              		@ frame_needed = 0, uses_anonymous_args = 0
 404              	.LVL47:
 405 0000 38B5     		push	{r3, r4, r5, lr}
 406              	.LCFI2:
 407              		.cfi_def_cfa_offset 16
 408              		.cfi_offset 3, -16
 409              		.cfi_offset 4, -12
 410              		.cfi_offset 5, -8
 411              		.cfi_offset 14, -4
 412              		.loc 1 426 0
 413 0002 037A     		ldrb	r3, [r0, #8]	@ zero_extendqisi2
 414              		.loc 1 424 0
 415 0004 254C     		ldr	r4, .L63
 416 0006 0029     		cmp	r1, #0
 417 0008 18BF     		it	ne
 418 000a 0C46     		movne	r4, r1
 419              		.loc 1 426 0
 420 000c 012B     		cmp	r3, #1
 421              		.loc 1 421 0
 422 000e 0546     		mov	r5, r0
 423              		.loc 1 426 0
 424 0010 2BD0     		beq	.L62
 425              	.LVL48:
 426              	.L57:
 427              	.LBB45:
 428              	.LBB46:
 429              		.loc 1 97 0
 430 0012 4FF48050 		mov	r0, #4096
 431              		.loc 1 93 0
 432 0016 6B6F     		ldr	r3, [r5, #116]
 433              	.LVL49:
 434              		.loc 1 101 0
 435 0018 2168     		ldr	r1, [r4, #0]
 436              		.loc 1 97 0
 437 001a C4F20100 		movt	r0, 16385
 438 001e 8342     		cmp	r3, r0
 439 0020 33D0     		beq	.L58
 440 0022 4FF4A052 		mov	r2, #5120
 441 0026 C4F20102 		movt	r2, 16385
 442 002a 9342     		cmp	r3, r2
 443 002c 2DD0     		beq	.L58
 444              		.loc 1 103 0
 445 002e 4DF68060 		movw	r0, #56960
 446 0032 C0F28020 		movt	r0, 640
 447 0036 B0FBF1F1 		udiv	r1, r0, r1
 448 003a 8AB2     		uxth	r2, r1
 449 003c 1A81     		strh	r2, [r3, #8]	@ movhi
 450              	.L60:
 451              		.loc 1 108 0
 452 003e A288     		ldrh	r2, [r4, #4]
ARM GAS  C:\Users\Vergil\AppData\Local\Temp\ccOGe2EV.s 			page 9


 453              		.loc 1 106 0
 454 0040 E088     		ldrh	r0, [r4, #6]
 455              		.loc 1 107 0
 456 0042 2189     		ldrh	r1, [r4, #8]
 457              		.loc 1 108 0
 458 0044 42F40452 		orr	r2, r2, #8448
 459              		.loc 1 106 0
 460 0048 40F04000 		orr	r0, r0, #64
 461 004c 80B2     		uxth	r0, r0
 462              		.loc 1 107 0
 463 004e 41F00101 		orr	r1, r1, #1
 464              		.loc 1 108 0
 465 0052 42F02C02 		orr	r2, r2, #44
 466              		.loc 1 106 0
 467 0056 1882     		strh	r0, [r3, #16]	@ movhi
 468              		.loc 1 108 0
 469 0058 92B2     		uxth	r2, r2
 470              		.loc 1 107 0
 471 005a 89B2     		uxth	r1, r1
 472              		.loc 1 111 0
 473 005c 0020     		movs	r0, #0
 474              		.loc 1 107 0
 475 005e 9982     		strh	r1, [r3, #20]	@ movhi
 476              		.loc 1 108 0
 477 0060 9A81     		strh	r2, [r3, #12]	@ movhi
 478              		.loc 1 111 0
 479 0062 1880     		strh	r0, [r3, #0]	@ movhi
 480              		.loc 1 112 0
 481 0064 1A88     		ldrh	r2, [r3, #0]
 482              		.loc 1 113 0
 483 0066 9B88     		ldrh	r3, [r3, #4]
 484              	.LVL50:
 485 0068 38BD     		pop	{r3, r4, r5, pc}
 486              	.LVL51:
 487              	.L62:
 488              	.LBE46:
 489              	.LBE45:
 490              		.loc 1 435 0
 491 006a 0D48     		ldr	r0, .L63+4
 492              	.LVL52:
 493 006c 8542     		cmp	r5, r0
 494 006e D0D1     		bne	.L57
 495              		.loc 1 436 0
 496 0070 4FF46051 		mov	r1, #14336
 497              	.LVL53:
 498 0074 C4F20201 		movt	r1, 16386
 499              		.loc 1 437 0
 500 0078 2620     		movs	r0, #38
 501              		.loc 1 436 0
 502 007a 0A6C     		ldr	r2, [r1, #64]
 503 007c 42F40033 		orr	r3, r2, #131072
 504 0080 0B64     		str	r3, [r1, #64]
 505              		.loc 1 437 0
 506 0082 C021     		movs	r1, #192
 507 0084 FFF7FEFF 		bl	nvicEnableVector
 508              	.LVL54:
 509 0088 C3E7     		b	.L57
ARM GAS  C:\Users\Vergil\AppData\Local\Temp\ccOGe2EV.s 			page 10


 510              	.LVL55:
 511              	.L58:
 512              	.LBB48:
 513              	.LBB47:
 514              		.loc 1 101 0
 515 008a 4FF43D40 		mov	r0, #48384
 516 008e C0F20150 		movt	r0, 1281
 517 0092 B0FBF1F1 		udiv	r1, r0, r1
 518 0096 8AB2     		uxth	r2, r1
 519 0098 1A81     		strh	r2, [r3, #8]	@ movhi
 520 009a D0E7     		b	.L60
 521              	.L64:
 522              		.align	2
 523              	.L63:
 524 009c 00000000 		.word	.LANCHOR1
 525 00a0 00000000 		.word	.LANCHOR0
 526              	.LBE47:
 527              	.LBE48:
 528              		.cfi_endproc
 529              	.LFE125:
 530              		.size	sd_lld_start, .-sd_lld_start
 531 00a4 AFF30080 		.section	.text.sd_lld_stop,"ax",%progbits
 531      AFF30080 
 531      AFF30080 
 532              		.align	2
 533              		.p2align 4,,15
 534              		.global	sd_lld_stop
 535              		.thumb
 536              		.thumb_func
 537              		.type	sd_lld_stop, %function
 538              	sd_lld_stop:
 539              	.LFB126:
 540              		.loc 1 482 0
 541              		.cfi_startproc
 542              		@ args = 0, pretend = 0, frame = 0
 543              		@ frame_needed = 0, uses_anonymous_args = 0
 544              		@ link register save eliminated.
 545              	.LVL56:
 546              		.loc 1 484 0
 547 0000 037A     		ldrb	r3, [r0, #8]	@ zero_extendqisi2
 548 0002 022B     		cmp	r3, #2
 549 0004 00D0     		beq	.L69
 550              	.L65:
 551 0006 7047     		bx	lr
 552              	.L69:
 553              		.loc 1 494 0
 554 0008 094B     		ldr	r3, .L70
 555              		.loc 1 485 0
 556 000a 416F     		ldr	r1, [r0, #116]
 557              	.LVL57:
 558              	.LBB49:
 559              	.LBB50:
 560              		.loc 1 124 0
 561 000c 0022     		movs	r2, #0
 562              	.LBE50:
 563              	.LBE49:
 564              		.loc 1 494 0
ARM GAS  C:\Users\Vergil\AppData\Local\Temp\ccOGe2EV.s 			page 11


 565 000e 9842     		cmp	r0, r3
 566              	.LBB52:
 567              	.LBB51:
 568              		.loc 1 124 0
 569 0010 8A81     		strh	r2, [r1, #12]	@ movhi
 570              		.loc 1 125 0
 571 0012 0A82     		strh	r2, [r1, #16]	@ movhi
 572              		.loc 1 126 0
 573 0014 8A82     		strh	r2, [r1, #20]	@ movhi
 574              	.LBE51:
 575              	.LBE52:
 576              		.loc 1 494 0
 577 0016 F6D1     		bne	.L65
 578              		.loc 1 495 0
 579 0018 4FF46051 		mov	r1, #14336
 580              	.LVL58:
 581 001c C4F20201 		movt	r1, 16386
 582              		.loc 1 496 0
 583 0020 2620     		movs	r0, #38
 584              	.LVL59:
 585              		.loc 1 495 0
 586 0022 0A6C     		ldr	r2, [r1, #64]
 587 0024 22F40033 		bic	r3, r2, #131072
 588 0028 0B64     		str	r3, [r1, #64]
 589              		.loc 1 529 0
 590              		.loc 1 496 0
 591 002a FFF7FEBF 		b	nvicDisableVector
 592              	.LVL60:
 593              	.L71:
 594 002e 00BF     		.align	2
 595              	.L70:
 596 0030 00000000 		.word	.LANCHOR0
 597              		.cfi_endproc
 598              	.LFE126:
 599              		.size	sd_lld_stop, .-sd_lld_stop
 600              		.global	SD2
 601 0034 AFF30080 		.section	.rodata.default_config,"a",%progbits
 601      AFF30080 
 601      AFF30080 
 602              		.align	2
 603              		.set	.LANCHOR1,. + 0
 604              		.type	default_config, %object
 605              		.size	default_config, 12
 606              	default_config:
 607 0000 00960000 		.word	38400
 608 0004 0000     		.short	0
 609 0006 0040     		.short	16384
 610 0008 0000     		.short	0
 611 000a 0000     		.space	2
 612              		.section	.bss.SD2,"aw",%nobits
 613              		.align	2
 614              		.set	.LANCHOR0,. + 0
 615              		.type	SD2, %object
 616              		.size	SD2, 120
 617              	SD2:
 618 0000 00000000 		.space	120
 618      00000000 
ARM GAS  C:\Users\Vergil\AppData\Local\Temp\ccOGe2EV.s 			page 12


 618      00000000 
 618      00000000 
 618      00000000 
 619              		.text
 620              	.Letext0:
 621              		.file 2 "c:\\chibistudio\\tools\\gnu tools arm embedded\\4.7 2014q2\\bin\\../lib/gcc/arm-none-eabi
 622              		.file 3 "c:\\chibistudio\\tools\\gnu tools arm embedded\\4.7 2014q2\\bin\\../lib/gcc/arm-none-eabi
 623              		.file 4 "../../os/ports/GCC/ARMCMx/chtypes.h"
 624              		.file 5 "../../os/kernel/include/chlists.h"
 625              		.file 6 "../../os/kernel/include/chthreads.h"
 626              		.file 7 "../../os/ports/GCC/ARMCMx/chcore_v7m.h"
 627              		.file 8 "../../os/kernel/include/chmtx.h"
 628              		.file 9 "../../os/kernel/include/chevents.h"
 629              		.file 10 "../../os/kernel/include/chqueues.h"
 630              		.file 11 "../../os/hal/platforms/STM32F4xx/stm32f4xx.h"
 631              		.file 12 "../../os/hal/include/serial.h"
 632              		.file 13 "../../os/hal/platforms/STM32/USARTv1/serial_lld.h"
 633              		.file 14 "../../os/ports/common/ARMCMx/nvic.h"
 634              		.file 15 "../../os/ports/common/ARMCMx/CMSIS/include/core_cm4.h"