ARM GAS  C:\Users\Vergil\AppData\Local\Temp\ccJXYptb.s 			page 1


   1              		.syntax unified
   2              		.cpu cortex-m4
   3              		.eabi_attribute 27, 3
   4              		.eabi_attribute 28, 1
   5              		.fpu fpv4-sp-d16
   6              		.eabi_attribute 20, 1
   7              		.eabi_attribute 21, 1
   8              		.eabi_attribute 23, 3
   9              		.eabi_attribute 24, 1
  10              		.eabi_attribute 25, 1
  11              		.eabi_attribute 26, 1
  12              		.eabi_attribute 30, 2
  13              		.eabi_attribute 34, 1
  14              		.eabi_attribute 18, 4
  15              		.thumb
  16              		.file	"shell.c"
  17              		.text
  18              	.Ltext0:
  19              		.cfi_sections	.debug_frame
  20              		.section	.text.chprintf,"ax",%progbits
  21              		.align	2
  22              		.p2align 4,,15
  23              		.thumb
  24              		.thumb_func
  25              		.type	chprintf, %function
  26              	chprintf:
  27              	.LFB118:
  28              		.file 1 "../../os/various/chprintf.h"
  29              		.loc 1 69 0
  30              		.cfi_startproc
  31              		@ args = 4, pretend = 12, frame = 8
  32              		@ frame_needed = 0, uses_anonymous_args = 1
  33              	.LVL0:
  34 0000 0EB4     		push	{r1, r2, r3}
  35              	.LCFI0:
  36              		.cfi_def_cfa_offset 12
  37              		.cfi_offset 1, -12
  38              		.cfi_offset 2, -8
  39              		.cfi_offset 3, -4
  40 0002 00B5     		push	{lr}
  41              	.LCFI1:
  42              		.cfi_def_cfa_offset 16
  43              		.cfi_offset 14, -16
  44 0004 82B0     		sub	sp, sp, #8
  45              	.LCFI2:
  46              		.cfi_def_cfa_offset 24
  47              		.loc 1 69 0
  48 0006 03AB     		add	r3, sp, #12
  49 0008 53F8041B 		ldr	r1, [r3], #4
  50              		.loc 1 73 0
  51 000c 1A46     		mov	r2, r3
  52              		.loc 1 72 0
  53 000e 0193     		str	r3, [sp, #4]
  54              		.loc 1 73 0
  55 0010 FFF7FEFF 		bl	chvprintf
  56              	.LVL1:
  57              		.loc 1 75 0
ARM GAS  C:\Users\Vergil\AppData\Local\Temp\ccJXYptb.s 			page 2


  58 0014 02B0     		add	sp, sp, #8
  59 0016 5DF804EB 		pop	{lr}
  60 001a 03B0     		add	sp, sp, #12
  61 001c 7047     		bx	lr
  62              		.cfi_endproc
  63              	.LFE118:
  64              		.size	chprintf, .-chprintf
  65 001e 00BF     		.section	.text._strtok.constprop.2,"ax",%progbits
  66              		.align	2
  67              		.p2align 4,,15
  68              		.thumb
  69              		.thumb_func
  70              		.type	_strtok.constprop.2, %function
  71              	_strtok.constprop.2:
  72              	.LFB133:
  73              		.file 2 "../../os/various/shell.c"
  74              		.loc 2 37 0
  75              		.cfi_startproc
  76              		@ args = 0, pretend = 0, frame = 0
  77              		@ frame_needed = 0, uses_anonymous_args = 0
  78              	.LVL2:
  79 0000 38B5     		push	{r3, r4, r5, lr}
  80              	.LCFI3:
  81              		.cfi_def_cfa_offset 16
  82              		.cfi_offset 3, -16
  83              		.cfi_offset 4, -12
  84              		.cfi_offset 5, -8
  85              		.cfi_offset 14, -4
  86              		.loc 2 39 0
  87 0002 0446     		mov	r4, r0
  88              		.loc 2 37 0
  89 0004 0D46     		mov	r5, r1
  90              		.loc 2 39 0
  91 0006 98B1     		cbz	r0, .L3
  92              		.loc 2 40 0
  93 0008 2860     		str	r0, [r5, #0]
  94              	.LVL3:
  95              	.L4:
  96              		.loc 2 46 0
  97 000a 0C49     		ldr	r1, .L15
  98              	.LVL4:
  99 000c 2046     		mov	r0, r4
 100              	.LVL5:
 101 000e FFF7FEFF 		bl	strspn
 102              	.LVL6:
 103 0012 2418     		adds	r4, r4, r0
 104              	.LVL7:
 105              		.loc 2 47 0
 106 0014 2046     		mov	r0, r4
 107 0016 0949     		ldr	r1, .L15
 108 0018 FFF7FEFF 		bl	strpbrk
 109              	.LVL8:
 110 001c 2860     		str	r0, [r5, #0]
 111              		.loc 2 48 0
 112 001e 18B1     		cbz	r0, .L6
 113              		.loc 2 49 0
 114 0020 0023     		movs	r3, #0
ARM GAS  C:\Users\Vergil\AppData\Local\Temp\ccJXYptb.s 			page 3


 115 0022 00F8013B 		strb	r3, [r0], #1
 116 0026 2860     		str	r0, [r5, #0]
 117              	.L6:
 118              		.loc 2 51 0
 119 0028 2078     		ldrb	r0, [r4, #0]	@ zero_extendqisi2
 120 002a 20B1     		cbz	r0, .L7
 121              		.loc 2 52 0
 122 002c 2046     		mov	r0, r4
 123 002e 38BD     		pop	{r3, r4, r5, pc}
 124              	.LVL9:
 125              	.L3:
 126              		.loc 2 41 0
 127 0030 0C68     		ldr	r4, [r1, #0]
 128              	.LVL10:
 129              		.loc 2 43 0
 130 0032 002C     		cmp	r4, #0
 131 0034 E9D1     		bne	.L4
 132              	.LVL11:
 133              	.L7:
 134              		.loc 2 44 0
 135 0036 0024     		movs	r4, #0
 136              	.LVL12:
 137              		.loc 2 52 0
 138 0038 2046     		mov	r0, r4
 139 003a 38BD     		pop	{r3, r4, r5, pc}
 140              	.L16:
 141              		.align	2
 142              	.L15:
 143 003c 00000000 		.word	.LC0
 144              		.cfi_endproc
 145              	.LFE133:
 146              		.size	_strtok.constprop.2, .-_strtok.constprop.2
 147              		.section	.text.cmd_systime,"ax",%progbits
 148              		.align	2
 149              		.p2align 4,,15
 150              		.thumb
 151              		.thumb_func
 152              		.type	cmd_systime, %function
 153              	cmd_systime:
 154              	.LFB123:
 155              		.loc 2 99 0
 156              		.cfi_startproc
 157              		@ args = 0, pretend = 0, frame = 0
 158              		@ frame_needed = 0, uses_anonymous_args = 0
 159              		@ link register save eliminated.
 160              	.LVL13:
 161              		.loc 2 102 0
 162 0000 0029     		cmp	r1, #0
 163 0002 03DD     		ble	.L18
 164              	.LVL14:
 165              	.LBB6:
 166              	.LBB7:
 167              		.loc 2 56 0
 168 0004 0449     		ldr	r1, .L19
 169              	.LVL15:
 170 0006 054A     		ldr	r2, .L19+4
 171              	.LVL16:
ARM GAS  C:\Users\Vergil\AppData\Local\Temp\ccJXYptb.s 			page 4


 172              	.LBE7:
 173              	.LBE6:
 174              		.loc 2 107 0
 175              	.LBB9:
 176              	.LBB8:
 177              		.loc 2 56 0
 178 0008 FFF7FEBF 		b	chprintf
 179              	.LVL17:
 180              	.L18:
 181              	.LBE8:
 182              	.LBE9:
 183              	.LBB10:
 184              	.LBB11:
 185              		.loc 2 106 0
 186 000c 044B     		ldr	r3, .L19+8
 187 000e 0549     		ldr	r1, .L19+12
 188              	.LVL18:
 189 0010 DA68     		ldr	r2, [r3, #12]
 190              	.LVL19:
 191              	.LBE11:
 192              	.LBE10:
 193              		.loc 2 107 0
 194              	.LBB13:
 195              	.LBB12:
 196              		.loc 2 106 0
 197 0012 FFF7FEBF 		b	chprintf
 198              	.LVL20:
 199              	.L20:
 200 0016 00BF     		.align	2
 201              	.L19:
 202 0018 04000000 		.word	.LC1
 203 001c 10000000 		.word	.LC2
 204 0020 00000000 		.word	vtlist
 205 0024 18000000 		.word	.LC3
 206              	.LBE12:
 207              	.LBE13:
 208              		.cfi_endproc
 209              	.LFE123:
 210              		.size	cmd_systime, .-cmd_systime
 211 0028 AFF30080 		.section	.text.cmd_info,"ax",%progbits
 211      AFF30080 
 212              		.align	2
 213              		.p2align 4,,15
 214              		.thumb
 215              		.thumb_func
 216              		.type	cmd_info, %function
 217              	cmd_info:
 218              	.LFB122:
 219              		.loc 2 67 0
 220              		.cfi_startproc
 221              		@ args = 0, pretend = 0, frame = 0
 222              		@ frame_needed = 0, uses_anonymous_args = 0
 223              	.LVL21:
 224 0000 10B5     		push	{r4, lr}
 225              	.LCFI4:
 226              		.cfi_def_cfa_offset 8
 227              		.cfi_offset 4, -8
ARM GAS  C:\Users\Vergil\AppData\Local\Temp\ccJXYptb.s 			page 5


 228              		.cfi_offset 14, -4
 229              		.loc 2 70 0
 230 0002 0029     		cmp	r1, #0
 231              		.loc 2 67 0
 232 0004 82B0     		sub	sp, sp, #8
 233              	.LCFI5:
 234              		.cfi_def_cfa_offset 16
 235              		.loc 2 67 0
 236 0006 0446     		mov	r4, r0
 237              		.loc 2 70 0
 238 0008 06DD     		ble	.L22
 239              	.LVL22:
 240              	.LBB18:
 241              	.LBB19:
 242              		.loc 2 56 0
 243 000a 1949     		ldr	r1, .L23
 244              	.LVL23:
 245 000c 194A     		ldr	r2, .L23+4
 246              	.LVL24:
 247              	.LBE19:
 248              	.LBE18:
 249              		.loc 2 97 0
 250 000e 02B0     		add	sp, sp, #8
 251 0010 BDE81040 		pop	{r4, lr}
 252              	.LBB21:
 253              	.LBB20:
 254              		.loc 2 56 0
 255 0014 FFF7FEBF 		b	chprintf
 256              	.LVL25:
 257              	.L22:
 258              	.LBE20:
 259              	.LBE21:
 260              	.LBB22:
 261              	.LBB23:
 262              		.loc 2 75 0
 263 0018 1749     		ldr	r1, .L23+8
 264              	.LVL26:
 265 001a 184A     		ldr	r2, .L23+12
 266              	.LVL27:
 267 001c FFF7FEFF 		bl	chprintf
 268              	.LVL28:
 269              		.loc 2 77 0
 270 0020 2046     		mov	r0, r4
 271 0022 1749     		ldr	r1, .L23+16
 272 0024 174A     		ldr	r2, .L23+20
 273 0026 FFF7FEFF 		bl	chprintf
 274              	.LVL29:
 275              		.loc 2 79 0
 276 002a 2046     		mov	r0, r4
 277 002c 1649     		ldr	r1, .L23+24
 278 002e 174A     		ldr	r2, .L23+28
 279 0030 FFF7FEFF 		bl	chprintf
 280              	.LVL30:
 281              		.loc 2 81 0
 282 0034 2046     		mov	r0, r4
 283 0036 1649     		ldr	r1, .L23+32
 284 0038 164A     		ldr	r2, .L23+36
ARM GAS  C:\Users\Vergil\AppData\Local\Temp\ccJXYptb.s 			page 6


 285 003a FFF7FEFF 		bl	chprintf
 286              	.LVL31:
 287              		.loc 2 84 0
 288 003e 2046     		mov	r0, r4
 289 0040 1549     		ldr	r1, .L23+40
 290 0042 164A     		ldr	r2, .L23+44
 291 0044 FFF7FEFF 		bl	chprintf
 292              	.LVL32:
 293              		.loc 2 87 0
 294 0048 2046     		mov	r0, r4
 295 004a 1549     		ldr	r1, .L23+48
 296 004c 154A     		ldr	r2, .L23+52
 297 004e FFF7FEFF 		bl	chprintf
 298              	.LVL33:
 299              		.loc 2 90 0
 300 0052 2046     		mov	r0, r4
 301 0054 1449     		ldr	r1, .L23+56
 302 0056 154A     		ldr	r2, .L23+60
 303 0058 FFF7FEFF 		bl	chprintf
 304              	.LVL34:
 305              		.loc 2 94 0
 306 005c 144B     		ldr	r3, .L23+64
 307 005e 1549     		ldr	r1, .L23+68
 308 0060 0093     		str	r3, [sp, #0]
 309 0062 2046     		mov	r0, r4
 310 0064 144A     		ldr	r2, .L23+72
 311 0066 154B     		ldr	r3, .L23+76
 312 0068 FFF7FEFF 		bl	chprintf
 313              	.LVL35:
 314              	.LBE23:
 315              	.LBE22:
 316              		.loc 2 97 0
 317 006c 02B0     		add	sp, sp, #8
 318 006e 10BD     		pop	{r4, pc}
 319              	.L24:
 320              		.align	2
 321              	.L23:
 322 0070 04000000 		.word	.LC1
 323 0074 20000000 		.word	.LC4
 324 0078 28000000 		.word	.LC5
 325 007c 3C000000 		.word	.LC6
 326 0080 44000000 		.word	.LC7
 327 0084 58000000 		.word	.LC8
 328 0088 A0000000 		.word	.LC9
 329 008c B4000000 		.word	.LC10
 330 0090 C0000000 		.word	.LC11
 331 0094 D4000000 		.word	.LC12
 332 0098 E0000000 		.word	.LC13
 333 009c F4000000 		.word	.LC14
 334 00a0 0C010000 		.word	.LC15
 335 00a4 20010000 		.word	.LC16
 336 00a8 4C010000 		.word	.LC17
 337 00ac 60010000 		.word	.LC18
 338 00b0 AC010000 		.word	.LC22
 339 00b4 84010000 		.word	.LC19
 340 00b8 9C010000 		.word	.LC20
 341 00bc A8010000 		.word	.LC21
ARM GAS  C:\Users\Vergil\AppData\Local\Temp\ccJXYptb.s 			page 7


 342              		.cfi_endproc
 343              	.LFE122:
 344              		.size	cmd_info, .-cmd_info
 345              		.section	.text.shellInit,"ax",%progbits
 346              		.align	2
 347              		.p2align 4,,15
 348              		.global	shellInit
 349              		.thumb
 350              		.thumb_func
 351              		.type	shellInit, %function
 352              	shellInit:
 353              	.LFB126:
 354              		.loc 2 204 0
 355              		.cfi_startproc
 356              		@ args = 0, pretend = 0, frame = 0
 357              		@ frame_needed = 0, uses_anonymous_args = 0
 358              		@ link register save eliminated.
 359              		.loc 2 206 0
 360 0000 40F20003 		movw	r3, #:lower16:.LANCHOR0
 361 0004 C0F20003 		movt	r3, #:upper16:.LANCHOR0
 362 0008 1B60     		str	r3, [r3, #0]
 363 000a 7047     		bx	lr
 364              		.cfi_endproc
 365              	.LFE126:
 366              		.size	shellInit, .-shellInit
 367 000c AFF30080 		.section	.text.shellExit,"ax",%progbits
 368              		.align	2
 369              		.p2align 4,,15
 370              		.global	shellExit
 371              		.thumb
 372              		.thumb_func
 373              		.type	shellExit, %function
 374              	shellExit:
 375              	.LFB127:
 376              		.loc 2 218 0
 377              		.cfi_startproc
 378              		@ args = 0, pretend = 0, frame = 0
 379              		@ frame_needed = 0, uses_anonymous_args = 0
 380              	.LVL36:
 381 0000 10B5     		push	{r4, lr}
 382              	.LCFI6:
 383              		.cfi_def_cfa_offset 8
 384              		.cfi_offset 4, -8
 385              		.cfi_offset 14, -4
 386              	.LBB24:
 387              		.loc 2 222 0
 388 0002 2023     		movs	r3, #32
 389              	.LVL37:
 390              	.LBE24:
 391              		.loc 2 218 0
 392 0004 0446     		mov	r4, r0
 393              	.LBB25:
 394              		.loc 2 222 0
 395              	@ 222 "../../os/various/shell.c" 1
 396 0006 83F31188 		msr     BASEPRI, r3
 397              	@ 0 "" 2
 398              	.LVL38:
ARM GAS  C:\Users\Vergil\AppData\Local\Temp\ccJXYptb.s 			page 8


 399              		.thumb
 400              	.LBE25:
 401              		.loc 2 223 0
 402 000a 40F20000 		movw	r0, #:lower16:.LANCHOR0
 403              	.LVL39:
 404 000e C0F20000 		movt	r0, #:upper16:.LANCHOR0
 405 0012 0021     		movs	r1, #0
 406 0014 FFF7FEFF 		bl	chEvtBroadcastFlagsI
 407              	.LVL40:
 408              		.loc 2 224 0
 409 0018 2046     		mov	r0, r4
 410              		.loc 2 225 0
 411 001a BDE81040 		pop	{r4, lr}
 412              		.loc 2 224 0
 413 001e FFF7FEBF 		b	chThdExitS
 414              	.LVL41:
 415              		.cfi_endproc
 416              	.LFE127:
 417              		.size	shellExit, .-shellExit
 418 0022 00BFAFF3 		.section	.text.shellCreate,"ax",%progbits
 418      0080AFF3 
 418      0080AFF3 
 418      0080
 419              		.align	2
 420              		.p2align 4,,15
 421              		.global	shellCreate
 422              		.thumb
 423              		.thumb_func
 424              		.type	shellCreate, %function
 425              	shellCreate:
 426              	.LFB128:
 427              		.loc 2 240 0
 428              		.cfi_startproc
 429              		@ args = 0, pretend = 0, frame = 0
 430              		@ frame_needed = 0, uses_anonymous_args = 0
 431              	.LVL42:
 432 0000 00B5     		push	{lr}
 433              	.LCFI7:
 434              		.cfi_def_cfa_offset 4
 435              		.cfi_offset 14, -4
 436 0002 83B0     		sub	sp, sp, #12
 437              	.LCFI8:
 438              		.cfi_def_cfa_offset 16
 439              		.loc 2 242 0
 440 0004 40F20003 		movw	r3, #:lower16:shell_thread
 441 0008 0090     		str	r0, [sp, #0]
 442 000a C0F20003 		movt	r3, #:upper16:shell_thread
 443 000e 0020     		movs	r0, #0
 444              	.LVL43:
 445 0010 FFF7FEFF 		bl	chThdCreateFromHeap
 446              	.LVL44:
 447              		.loc 2 243 0
 448 0014 03B0     		add	sp, sp, #12
 449 0016 00BD     		pop	{pc}
 450              		.cfi_endproc
 451              	.LFE128:
 452              		.size	shellCreate, .-shellCreate
ARM GAS  C:\Users\Vergil\AppData\Local\Temp\ccJXYptb.s 			page 9


 453 0018 AFF30080 		.section	.text.shellCreateStatic,"ax",%progbits
 453      AFF30080 
 454              		.align	2
 455              		.p2align 4,,15
 456              		.global	shellCreateStatic
 457              		.thumb
 458              		.thumb_func
 459              		.type	shellCreateStatic, %function
 460              	shellCreateStatic:
 461              	.LFB129:
 462              		.loc 2 258 0
 463              		.cfi_startproc
 464              		@ args = 0, pretend = 0, frame = 0
 465              		@ frame_needed = 0, uses_anonymous_args = 0
 466              	.LVL45:
 467 0000 00B5     		push	{lr}
 468              	.LCFI9:
 469              		.cfi_def_cfa_offset 4
 470              		.cfi_offset 14, -4
 471 0002 83B0     		sub	sp, sp, #12
 472              	.LCFI10:
 473              		.cfi_def_cfa_offset 16
 474              		.loc 2 260 0
 475 0004 0090     		str	r0, [sp, #0]
 476 0006 0846     		mov	r0, r1
 477              	.LVL46:
 478 0008 1146     		mov	r1, r2
 479              	.LVL47:
 480 000a 1A46     		mov	r2, r3
 481              	.LVL48:
 482 000c 40F20003 		movw	r3, #:lower16:shell_thread
 483              	.LVL49:
 484 0010 C0F20003 		movt	r3, #:upper16:shell_thread
 485 0014 FFF7FEFF 		bl	chThdCreateStatic
 486              	.LVL50:
 487              		.loc 2 261 0
 488 0018 03B0     		add	sp, sp, #12
 489 001a 00BD     		pop	{pc}
 490              		.cfi_endproc
 491              	.LFE129:
 492              		.size	shellCreateStatic, .-shellCreateStatic
 493 001c AFF30080 		.section	.text.shellGetLine,"ax",%progbits
 494              		.align	2
 495              		.p2align 4,,15
 496              		.global	shellGetLine
 497              		.thumb
 498              		.thumb_func
 499              		.type	shellGetLine, %function
 500              	shellGetLine:
 501              	.LFB130:
 502              		.loc 2 275 0
 503              		.cfi_startproc
 504              		@ args = 0, pretend = 0, frame = 8
 505              		@ frame_needed = 0, uses_anonymous_args = 0
 506              	.LVL51:
 507 0000 F0B5     		push	{r4, r5, r6, r7, lr}
 508              	.LCFI11:
ARM GAS  C:\Users\Vergil\AppData\Local\Temp\ccJXYptb.s 			page 10


 509              		.cfi_def_cfa_offset 20
 510              		.cfi_offset 4, -20
 511              		.cfi_offset 5, -16
 512              		.cfi_offset 6, -12
 513              		.cfi_offset 7, -8
 514              		.cfi_offset 14, -4
 515              	.LBB26:
 516              		.loc 2 303 0
 517 0002 013A     		subs	r2, r2, #1
 518              	.LVL52:
 519              	.LBE26:
 520              		.loc 2 275 0
 521 0004 83B0     		sub	sp, sp, #12
 522              	.LCFI12:
 523              		.cfi_def_cfa_offset 32
 524              		.loc 2 275 0
 525 0006 0E46     		mov	r6, r1
 526              	.LVL53:
 527 0008 0446     		mov	r4, r0
 528              		.loc 2 276 0
 529 000a 0D46     		mov	r5, r1
 530              	.LBB27:
 531              		.loc 2 303 0
 532 000c 8F18     		adds	r7, r1, r2
 533              	.LVL54:
 534              	.L41:
 535              		.loc 2 281 0
 536 000e 2368     		ldr	r3, [r4, #0]
 537 0010 0122     		movs	r2, #1
 538 0012 0DF10701 		add	r1, sp, #7
 539 0016 5B68     		ldr	r3, [r3, #4]
 540 0018 2046     		mov	r0, r4
 541 001a 9847     		blx	r3
 542              	.LVL55:
 543 001c 38B3     		cbz	r0, .L38
 544              		.loc 2 283 0
 545 001e 9DF80710 		ldrb	r1, [sp, #7]	@ zero_extendqisi2
 546 0022 0429     		cmp	r1, #4
 547 0024 26D0     		beq	.L42
 548              		.loc 2 287 0
 549 0026 0829     		cmp	r1, #8
 550 0028 0ED0     		beq	.L43
 551              		.loc 2 296 0
 552 002a 0D29     		cmp	r1, #13
 553 002c 28D0     		beq	.L44
 554              		.loc 2 301 0
 555 002e 1F29     		cmp	r1, #31
 556 0030 EDD9     		bls	.L41
 557              		.loc 2 303 0
 558 0032 BD42     		cmp	r5, r7
 559 0034 EBD2     		bcs	.L41
 560              		.loc 2 304 0
 561 0036 2268     		ldr	r2, [r4, #0]
 562 0038 2046     		mov	r0, r4
 563 003a 9368     		ldr	r3, [r2, #8]
 564 003c 9847     		blx	r3
 565              	.LVL56:
ARM GAS  C:\Users\Vergil\AppData\Local\Temp\ccJXYptb.s 			page 11


 566              		.loc 2 305 0
 567 003e 9DF80700 		ldrb	r0, [sp, #7]	@ zero_extendqisi2
 568              	.LVL57:
 569 0042 05F8010B 		strb	r0, [r5], #1
 570              	.LVL58:
 571 0046 E2E7     		b	.L41
 572              	.LVL59:
 573              	.L43:
 574              		.loc 2 288 0
 575 0048 B542     		cmp	r5, r6
 576              		.loc 2 289 0
 577 004a 2046     		mov	r0, r4
 578              		.loc 2 288 0
 579 004c DFD0     		beq	.L41
 580              	.LVL60:
 581              		.loc 2 289 0
 582 004e 2268     		ldr	r2, [r4, #0]
 583 0050 9368     		ldr	r3, [r2, #8]
 584 0052 9847     		blx	r3
 585              	.LVL61:
 586              		.loc 2 290 0
 587 0054 2068     		ldr	r0, [r4, #0]
 588 0056 2021     		movs	r1, #32
 589 0058 8268     		ldr	r2, [r0, #8]
 590 005a 2046     		mov	r0, r4
 591 005c 9047     		blx	r2
 592              	.LVL62:
 593              		.loc 2 291 0
 594 005e 2368     		ldr	r3, [r4, #0]
 595 0060 9DF80710 		ldrb	r1, [sp, #7]	@ zero_extendqisi2
 596 0064 9A68     		ldr	r2, [r3, #8]
 597 0066 2046     		mov	r0, r4
 598 0068 9047     		blx	r2
 599              	.LVL63:
 600              		.loc 2 292 0
 601 006a 013D     		subs	r5, r5, #1
 602              	.LVL64:
 603 006c CFE7     		b	.L41
 604              	.L38:
 605              		.loc 2 282 0
 606 006e 0120     		movs	r0, #1
 607              	.L31:
 608              	.LBE27:
 609              		.loc 2 308 0
 610 0070 03B0     		add	sp, sp, #12
 611 0072 F0BD     		pop	{r4, r5, r6, r7, pc}
 612              	.L42:
 613              	.LBB28:
 614              		.loc 2 284 0
 615 0074 2046     		mov	r0, r4
 616 0076 0649     		ldr	r1, .L45
 617 0078 FFF7FEFF 		bl	chprintf
 618              	.LVL65:
 619              		.loc 2 285 0
 620 007c 0120     		movs	r0, #1
 621 007e F7E7     		b	.L31
 622              	.L44:
ARM GAS  C:\Users\Vergil\AppData\Local\Temp\ccJXYptb.s 			page 12


 623              		.loc 2 297 0
 624 0080 2046     		mov	r0, r4
 625 0082 0449     		ldr	r1, .L45+4
 626 0084 FFF7FEFF 		bl	chprintf
 627              	.LVL66:
 628              		.loc 2 298 0
 629 0088 0020     		movs	r0, #0
 630 008a 2870     		strb	r0, [r5, #0]
 631 008c F0E7     		b	.L31
 632              	.L46:
 633 008e 00BF     		.align	2
 634              	.L45:
 635 0090 B8010000 		.word	.LC23
 636 0094 BC010000 		.word	.LC24
 637              	.LBE28:
 638              		.cfi_endproc
 639              	.LFE130:
 640              		.size	shellGetLine, .-shellGetLine
 641 0098 AFF30080 		.section	.text.shell_thread,"ax",%progbits
 641      AFF30080 
 642              		.align	2
 643              		.p2align 4,,15
 644              		.thumb
 645              		.thumb_func
 646              		.type	shell_thread, %function
 647              	shell_thread:
 648              	.LFB125:
 649              		.loc 2 141 0
 650              		.cfi_startproc
 651              		@ args = 0, pretend = 0, frame = 88
 652              		@ frame_needed = 0, uses_anonymous_args = 0
 653              	.LVL67:
 654 0000 2DE9F043 		push	{r4, r5, r6, r7, r8, r9, lr}
 655              	.LCFI13:
 656              		.cfi_def_cfa_offset 28
 657              		.cfi_offset 4, -28
 658              		.cfi_offset 5, -24
 659              		.cfi_offset 6, -20
 660              		.cfi_offset 7, -16
 661              		.cfi_offset 8, -12
 662              		.cfi_offset 9, -8
 663              		.cfi_offset 14, -4
 664              		.loc 2 148 0
 665 0004 664B     		ldr	r3, .L101
 666              		.loc 2 143 0
 667 0006 0568     		ldr	r5, [r0, #0]
 668              	.LVL68:
 669              		.loc 2 148 0
 670 0008 9C69     		ldr	r4, [r3, #24]
 671 000a 664A     		ldr	r2, .L101+4
 672              		.loc 2 144 0
 673 000c 4768     		ldr	r7, [r0, #4]
 674              	.LVL69:
 675              		.loc 2 149 0
 676 000e 6649     		ldr	r1, .L101+8
 677              		.loc 2 148 0
 678 0010 A261     		str	r2, [r4, #24]
ARM GAS  C:\Users\Vergil\AppData\Local\Temp\ccJXYptb.s 			page 13


 679              		.loc 2 141 0
 680 0012 97B0     		sub	sp, sp, #92
 681              	.LCFI14:
 682              		.cfi_def_cfa_offset 120
 683              		.loc 2 149 0
 684 0014 2846     		mov	r0, r5
 685              	.LVL70:
 686 0016 FFF7FEFF 		bl	chprintf
 687              	.LVL71:
 688              	.LBB41:
 689              	.LBB42:
 690              		.loc 2 61 0
 691 001a DFF8AC81 		ldr	r8, .L101+40
 692              	.L96:
 693              	.LBE42:
 694              	.LBE41:
 695              		.loc 2 151 0
 696 001e 2846     		mov	r0, r5
 697 0020 6249     		ldr	r1, .L101+12
 698 0022 FFF7FEFF 		bl	chprintf
 699              	.LVL72:
 700              		.loc 2 152 0
 701 0026 2846     		mov	r0, r5
 702 0028 06A9     		add	r1, sp, #24
 703 002a 4022     		movs	r2, #64
 704 002c FFF7FEFF 		bl	shellGetLine
 705              	.LVL73:
 706 0030 0446     		mov	r4, r0
 707 0032 0028     		cmp	r0, #0
 708 0034 30D1     		bne	.L99
 709              		.loc 2 156 0
 710 0036 6946     		mov	r1, sp
 711 0038 06A8     		add	r0, sp, #24
 712 003a FFF7FEFF 		bl	_strtok.constprop.2
 713              	.LVL74:
 714              		.loc 2 159 0
 715 003e 6946     		mov	r1, sp
 716              		.loc 2 156 0
 717 0040 0646     		mov	r6, r0
 718              	.LVL75:
 719              		.loc 2 159 0
 720 0042 2046     		mov	r0, r4
 721              	.LVL76:
 722 0044 FFF7FEFF 		bl	_strtok.constprop.2
 723              	.LVL77:
 724 0048 0346     		mov	r3, r0
 725 004a 0028     		cmp	r0, #0
 726 004c 2FD0     		beq	.L70
 727 004e 2046     		mov	r0, r4
 728              	.LVL78:
 729 0050 6946     		mov	r1, sp
 730              		.loc 2 165 0
 731 0052 0193     		str	r3, [sp, #4]
 732              	.LVL79:
 733              		.loc 2 159 0
 734 0054 FFF7FEFF 		bl	_strtok.constprop.2
 735              	.LVL80:
ARM GAS  C:\Users\Vergil\AppData\Local\Temp\ccJXYptb.s 			page 14


 736 0058 0246     		mov	r2, r0
 737 005a 0028     		cmp	r0, #0
 738 005c 49D0     		beq	.L71
 739 005e 2046     		mov	r0, r4
 740              	.LVL81:
 741 0060 6946     		mov	r1, sp
 742              		.loc 2 165 0
 743 0062 0292     		str	r2, [sp, #8]
 744              	.LVL82:
 745              		.loc 2 159 0
 746 0064 FFF7FEFF 		bl	_strtok.constprop.2
 747              	.LVL83:
 748 0068 0346     		mov	r3, r0
 749 006a 0028     		cmp	r0, #0
 750 006c 43D0     		beq	.L72
 751 006e 2046     		mov	r0, r4
 752              	.LVL84:
 753 0070 6946     		mov	r1, sp
 754              		.loc 2 165 0
 755 0072 0393     		str	r3, [sp, #12]
 756              	.LVL85:
 757              		.loc 2 159 0
 758 0074 FFF7FEFF 		bl	_strtok.constprop.2
 759              	.LVL86:
 760 0078 0246     		mov	r2, r0
 761 007a 0028     		cmp	r0, #0
 762 007c 3DD0     		beq	.L73
 763 007e 2046     		mov	r0, r4
 764              	.LVL87:
 765 0080 6946     		mov	r1, sp
 766              		.loc 2 165 0
 767 0082 0492     		str	r2, [sp, #16]
 768              	.LVL88:
 769              		.loc 2 159 0
 770 0084 FFF7FEFF 		bl	_strtok.constprop.2
 771              	.LVL89:
 772 0088 0028     		cmp	r0, #0
 773 008a 38D0     		beq	.L74
 774              		.loc 2 161 0
 775 008c 2846     		mov	r0, r5
 776              	.LVL90:
 777 008e 4849     		ldr	r1, .L101+16
 778 0090 FFF7FEFF 		bl	chprintf
 779              	.LVL91:
 780              		.loc 2 167 0
 781 0094 0594     		str	r4, [sp, #20]
 782 0096 C2E7     		b	.L96
 783              	.LVL92:
 784              	.L99:
 785              		.loc 2 153 0
 786 0098 2846     		mov	r0, r5
 787 009a 4649     		ldr	r1, .L101+20
 788 009c FFF7FEFF 		bl	chprintf
 789              	.LVL93:
 790              	.L50:
 791              		.loc 2 194 0
 792 00a0 0020     		movs	r0, #0
ARM GAS  C:\Users\Vergil\AppData\Local\Temp\ccJXYptb.s 			page 15


 793 00a2 FFF7FEFF 		bl	shellExit
 794              	.LVL94:
 795              		.loc 2 197 0
 796 00a6 0020     		movs	r0, #0
 797 00a8 17B0     		add	sp, sp, #92
 798 00aa BDE8F083 		pop	{r4, r5, r6, r7, r8, r9, pc}
 799              	.LVL95:
 800              	.L70:
 801              		.loc 2 158 0
 802 00ae 0446     		mov	r4, r0
 803              	.LVL96:
 804              	.L51:
 805              		.loc 2 167 0
 806 00b0 16A8     		add	r0, sp, #88
 807              	.LVL97:
 808 00b2 00EB8401 		add	r1, r0, r4, lsl #2
 809 00b6 0023     		movs	r3, #0
 810 00b8 41F8543C 		str	r3, [r1, #-84]
 811              		.loc 2 168 0
 812 00bc 002E     		cmp	r6, #0
 813 00be AED0     		beq	.L96
 814              		.loc 2 169 0
 815 00c0 3046     		mov	r0, r6
 816 00c2 3D49     		ldr	r1, .L101+24
 817 00c4 FFF7FEFF 		bl	strcasecmp
 818              	.LVL98:
 819 00c8 38B9     		cbnz	r0, .L53
 820              		.loc 2 170 0
 821 00ca 002C     		cmp	r4, #0
 822 00cc E8D0     		beq	.L50
 823              	.LVL99:
 824              	.LBB44:
 825              	.LBB45:
 826              		.loc 2 56 0
 827 00ce 2846     		mov	r0, r5
 828 00d0 3A49     		ldr	r1, .L101+28
 829 00d2 394A     		ldr	r2, .L101+24
 830 00d4 FFF7FEFF 		bl	chprintf
 831              	.LVL100:
 832              	.LBE45:
 833              	.LBE44:
 834              		.loc 2 172 0
 835 00d8 A1E7     		b	.L96
 836              	.LVL101:
 837              	.L53:
 838              		.loc 2 176 0
 839 00da 3046     		mov	r0, r6
 840 00dc 3849     		ldr	r1, .L101+32
 841 00de FFF7FEFF 		bl	strcasecmp
 842              	.LVL102:
 843 00e2 70B9     		cbnz	r0, .L100
 844              	.LBB46:
 845              	.LBB47:
 846              		.loc 2 56 0
 847 00e4 2846     		mov	r0, r5
 848              	.LBE47:
 849              	.LBE46:
ARM GAS  C:\Users\Vergil\AppData\Local\Temp\ccJXYptb.s 			page 16


 850              		.loc 2 177 0
 851 00e6 1CB3     		cbz	r4, .L58
 852              	.LVL103:
 853              	.LBB49:
 854              	.LBB48:
 855              		.loc 2 56 0
 856 00e8 3449     		ldr	r1, .L101+28
 857 00ea 354A     		ldr	r2, .L101+32
 858 00ec FFF7FEFF 		bl	chprintf
 859              	.LVL104:
 860              	.LBE48:
 861              	.LBE49:
 862              		.loc 2 179 0
 863 00f0 95E7     		b	.L96
 864              	.LVL105:
 865              	.L71:
 866              		.loc 2 165 0
 867 00f2 0124     		movs	r4, #1
 868 00f4 DCE7     		b	.L51
 869              	.LVL106:
 870              	.L72:
 871 00f6 0224     		movs	r4, #2
 872 00f8 DAE7     		b	.L51
 873              	.LVL107:
 874              	.L73:
 875 00fa 0324     		movs	r4, #3
 876 00fc D8E7     		b	.L51
 877              	.LVL108:
 878              	.L74:
 879              		.loc 2 159 0
 880 00fe 0424     		movs	r4, #4
 881 0100 D6E7     		b	.L51
 882              	.LVL109:
 883              	.L100:
 884              	.LBB50:
 885              	.LBB51:
 886              		.loc 2 121 0
 887 0102 D8F80000 		ldr	r0, [r8, #0]
 888 0106 0028     		cmp	r0, #0
 889 0108 32D0     		beq	.L57
 890 010a DFF8BC90 		ldr	r9, .L101+40
 891 010e 03E0     		b	.L66
 892              	.LVL110:
 893              	.L65:
 894 0110 59F8080F 		ldr	r0, [r9, #8]!
 895              	.LVL111:
 896 0114 0028     		cmp	r0, #0
 897 0116 2BD0     		beq	.L57
 898              	.LVL112:
 899              	.L66:
 900              		.loc 2 122 0
 901 0118 3146     		mov	r1, r6
 902 011a FFF7FEFF 		bl	strcasecmp
 903              	.LVL113:
 904 011e 0028     		cmp	r0, #0
 905 0120 F6D1     		bne	.L65
 906              	.LVL114:
ARM GAS  C:\Users\Vergil\AppData\Local\Temp\ccJXYptb.s 			page 17


 907              	.L98:
 908              	.LBE51:
 909              	.LBE50:
 910              	.LBB52:
 911              	.LBB53:
 912              		.loc 2 123 0
 913 0122 D9F80430 		ldr	r3, [r9, #4]
 914 0126 2846     		mov	r0, r5
 915 0128 2146     		mov	r1, r4
 916 012a 01AA     		add	r2, sp, #4
 917 012c 9847     		blx	r3
 918              	.LVL115:
 919 012e 76E7     		b	.L96
 920              	.LVL116:
 921              	.L58:
 922              	.LBE53:
 923              	.LBE52:
 924              		.loc 2 181 0
 925 0130 2449     		ldr	r1, .L101+36
 926 0132 FFF7FEFF 		bl	chprintf
 927              	.LVL117:
 928              	.LBB55:
 929              	.LBB43:
 930              		.loc 2 61 0
 931 0136 D8F80020 		ldr	r2, [r8, #0]
 932 013a 42B1     		cbz	r2, .L63
 933 013c 224C     		ldr	r4, .L101+40
 934              	.LVL118:
 935              	.L62:
 936              		.loc 2 62 0
 937 013e 2846     		mov	r0, r5
 938 0140 2249     		ldr	r1, .L101+44
 939 0142 FFF7FEFF 		bl	chprintf
 940              	.LVL119:
 941              		.loc 2 61 0
 942 0146 54F8082F 		ldr	r2, [r4, #8]!
 943 014a 002A     		cmp	r2, #0
 944 014c F7D1     		bne	.L62
 945              	.L63:
 946              	.LBE43:
 947              	.LBE55:
 948              		.loc 2 183 0
 949 014e 57B1     		cbz	r7, .L61
 950              	.LVL120:
 951              	.LBB56:
 952              	.LBB57:
 953              		.loc 2 61 0
 954 0150 3A68     		ldr	r2, [r7, #0]
 955 0152 42B1     		cbz	r2, .L61
 956 0154 3C46     		mov	r4, r7
 957              	.LVL121:
 958              	.L64:
 959              		.loc 2 62 0
 960 0156 2846     		mov	r0, r5
 961 0158 1C49     		ldr	r1, .L101+44
 962 015a FFF7FEFF 		bl	chprintf
 963              	.LVL122:
ARM GAS  C:\Users\Vergil\AppData\Local\Temp\ccJXYptb.s 			page 18


 964              		.loc 2 61 0
 965 015e 54F8082F 		ldr	r2, [r4, #8]!
 966 0162 002A     		cmp	r2, #0
 967 0164 F7D1     		bne	.L64
 968              	.L61:
 969              	.LBE57:
 970              	.LBE56:
 971              		.loc 2 185 0
 972 0166 2846     		mov	r0, r5
 973 0168 1949     		ldr	r1, .L101+48
 974 016a FFF7FEFF 		bl	chprintf
 975              	.LVL123:
 976 016e 56E7     		b	.L96
 977              	.LVL124:
 978              	.L57:
 979              		.loc 2 187 0
 980 0170 67B1     		cbz	r7, .L69
 981              	.LVL125:
 982              	.LBB58:
 983              	.LBB54:
 984              		.loc 2 121 0
 985 0172 3868     		ldr	r0, [r7, #0]
 986 0174 50B1     		cbz	r0, .L69
 987 0176 B946     		mov	r9, r7
 988 0178 02E0     		b	.L68
 989              	.LVL126:
 990              	.L67:
 991 017a 59F8080F 		ldr	r0, [r9, #8]!
 992              	.LVL127:
 993 017e 28B1     		cbz	r0, .L69
 994              	.LVL128:
 995              	.L68:
 996              		.loc 2 122 0
 997 0180 3146     		mov	r1, r6
 998 0182 FFF7FEFF 		bl	strcasecmp
 999              	.LVL129:
 1000 0186 0028     		cmp	r0, #0
 1001 0188 F7D1     		bne	.L67
 1002 018a CAE7     		b	.L98
 1003              	.LVL130:
 1004              	.L69:
 1005              	.LBE54:
 1006              	.LBE58:
 1007              		.loc 2 189 0
 1008 018c 2846     		mov	r0, r5
 1009 018e 1149     		ldr	r1, .L101+52
 1010 0190 3246     		mov	r2, r6
 1011 0192 FFF7FEFF 		bl	chprintf
 1012              	.LVL131:
 1013              		.loc 2 190 0
 1014 0196 2846     		mov	r0, r5
 1015 0198 0F49     		ldr	r1, .L101+56
 1016 019a FFF7FEFF 		bl	chprintf
 1017              	.LVL132:
 1018 019e 3EE7     		b	.L96
 1019              	.L102:
 1020              		.align	2
ARM GAS  C:\Users\Vergil\AppData\Local\Temp\ccJXYptb.s 			page 19


 1021              	.L101:
 1022 01a0 00000000 		.word	rlist
 1023 01a4 C0010000 		.word	.LC25
 1024 01a8 C8010000 		.word	.LC26
 1025 01ac E0010000 		.word	.LC27
 1026 01b0 F4010000 		.word	.LC29
 1027 01b4 E8010000 		.word	.LC28
 1028 01b8 0C020000 		.word	.LC30
 1029 01bc 04000000 		.word	.LC1
 1030 01c0 14020000 		.word	.LC31
 1031 01c4 1C020000 		.word	.LC32
 1032 01c8 00000000 		.word	.LANCHOR1
 1033 01cc 34020000 		.word	.LC33
 1034 01d0 BC010000 		.word	.LC24
 1035 01d4 38020000 		.word	.LC34
 1036 01d8 3C020000 		.word	.LC35
 1037              		.cfi_endproc
 1038              	.LFE125:
 1039              		.size	shell_thread, .-shell_thread
 1040              		.global	shell_terminated
 1041 01dc AFF30080 		.section	.data.local_commands,"aw",%progbits
 1042              		.align	2
 1043              		.set	.LANCHOR1,. + 0
 1044              		.type	local_commands, %object
 1045              		.size	local_commands, 24
 1046              	local_commands:
 1047 0000 20000000 		.word	.LC4
 1048 0004 00000000 		.word	cmd_info
 1049 0008 10000000 		.word	.LC2
 1050 000c 00000000 		.word	cmd_systime
 1051 0010 00000000 		.word	0
 1052 0014 00000000 		.word	0
 1053              		.section	.rodata.str1.4,"aMS",%progbits,1
 1054              		.align	2
 1055              	.LC0:
 1056 0000 200900   		.ascii	" \011\000"
 1057 0003 00       		.space	1
 1058              	.LC1:
 1059 0004 55736167 		.ascii	"Usage: %s\015\012\000"
 1059      653A2025 
 1059      730D0A00 
 1060              	.LC2:
 1061 0010 73797374 		.ascii	"systime\000"
 1061      696D6500 
 1062              	.LC3:
 1063 0018 256C750D 		.ascii	"%lu\015\012\000"
 1063      0A00
 1064 001e 0000     		.space	2
 1065              	.LC4:
 1066 0020 696E666F 		.ascii	"info\000"
 1066      00
 1067 0025 000000   		.space	3
 1068              	.LC5:
 1069 0028 4B65726E 		.ascii	"Kernel:       %s\015\012\000"
 1069      656C3A20 
 1069      20202020 
 1069      20202573 
ARM GAS  C:\Users\Vergil\AppData\Local\Temp\ccJXYptb.s 			page 20


 1069      0D0A00
 1070 003b 00       		.space	1
 1071              	.LC6:
 1072 003c 322E362E 		.ascii	"2.6.5\000"
 1072      3500
 1073 0042 0000     		.space	2
 1074              	.LC7:
 1075 0044 436F6D70 		.ascii	"Compiler:     %s\015\012\000"
 1075      696C6572 
 1075      3A202020 
 1075      20202573 
 1075      0D0A00
 1076 0057 00       		.space	1
 1077              	.LC8:
 1078 0058 47434320 		.ascii	"GCC 4.7.4 20140401 (release) [ARM/embedded-4_7-bran"
 1078      342E372E 
 1078      34203230 
 1078      31343034 
 1078      30312028 
 1079 008b 63682072 		.ascii	"ch revision 209195]\000"
 1079      65766973 
 1079      696F6E20 
 1079      32303931 
 1079      39355D00 
 1080 009f 00       		.space	1
 1081              	.LC9:
 1082 00a0 41726368 		.ascii	"Architecture: %s\015\012\000"
 1082      69746563 
 1082      74757265 
 1082      3A202573 
 1082      0D0A00
 1083 00b3 00       		.space	1
 1084              	.LC10:
 1085 00b4 41524D76 		.ascii	"ARMv7-ME\000"
 1085      372D4D45 
 1085      00
 1086 00bd 000000   		.space	3
 1087              	.LC11:
 1088 00c0 436F7265 		.ascii	"Core Variant: %s\015\012\000"
 1088      20566172 
 1088      69616E74 
 1088      3A202573 
 1088      0D0A00
 1089 00d3 00       		.space	1
 1090              	.LC12:
 1091 00d4 436F7274 		.ascii	"Cortex-M4F\000"
 1091      65782D4D 
 1091      344600
 1092 00df 00       		.space	1
 1093              	.LC13:
 1094 00e0 506F7274 		.ascii	"Port Info:    %s\015\012\000"
 1094      20496E66 
 1094      6F3A2020 
 1094      20202573 
 1094      0D0A00
 1095 00f3 00       		.space	1
 1096              	.LC14:
ARM GAS  C:\Users\Vergil\AppData\Local\Temp\ccJXYptb.s 			page 21


 1097 00f4 41647661 		.ascii	"Advanced kernel mode\000"
 1097      6E636564 
 1097      206B6572 
 1097      6E656C20 
 1097      6D6F6465 
 1098 0109 000000   		.space	3
 1099              	.LC15:
 1100 010c 506C6174 		.ascii	"Platform:     %s\015\012\000"
 1100      666F726D 
 1100      3A202020 
 1100      20202573 
 1100      0D0A00
 1101 011f 00       		.space	1
 1102              	.LC16:
 1103 0120 53544D33 		.ascii	"STM32F401 High Performance with DSP and FPU\000"
 1103      32463430 
 1103      31204869 
 1103      67682050 
 1103      6572666F 
 1104              	.LC17:
 1105 014c 426F6172 		.ascii	"Board:        %s\015\012\000"
 1105      643A2020 
 1105      20202020 
 1105      20202573 
 1105      0D0A00
 1106 015f 00       		.space	1
 1107              	.LC18:
 1108 0160 53544D69 		.ascii	"STMicroelectronics NUCLEO-F401RE\000"
 1108      63726F65 
 1108      6C656374 
 1108      726F6E69 
 1108      6373204E 
 1109 0181 000000   		.space	3
 1110              	.LC19:
 1111 0184 4275696C 		.ascii	"Build time:   %s%s%s\015\012\000"
 1111      64207469 
 1111      6D653A20 
 1111      20202573 
 1111      25732573 
 1112 019b 00       		.space	1
 1113              	.LC20:
 1114 019c 4F637420 		.ascii	"Oct  8 2014\000"
 1114      20382032 
 1114      30313400 
 1115              	.LC21:
 1116 01a8 202D2000 		.ascii	" - \000"
 1117              	.LC22:
 1118 01ac 32323A30 		.ascii	"22:00:22\000"
 1118      303A3232 
 1118      00
 1119 01b5 000000   		.space	3
 1120              	.LC23:
 1121 01b8 5E4400   		.ascii	"^D\000"
 1122 01bb 00       		.space	1
 1123              	.LC24:
 1124 01bc 0D0A00   		.ascii	"\015\012\000"
 1125 01bf 00       		.space	1
ARM GAS  C:\Users\Vergil\AppData\Local\Temp\ccJXYptb.s 			page 22


 1126              	.LC25:
 1127 01c0 7368656C 		.ascii	"shell\000"
 1127      6C00
 1128 01c6 0000     		.space	2
 1129              	.LC26:
 1130 01c8 0D0A4368 		.ascii	"\015\012ChibiOS/RT Shell\015\012\000"
 1130      6962694F 
 1130      532F5254 
 1130      20536865 
 1130      6C6C0D0A 
 1131 01dd 000000   		.space	3
 1132              	.LC27:
 1133 01e0 63683E20 		.ascii	"ch> \000"
 1133      00
 1134 01e5 000000   		.space	3
 1135              	.LC28:
 1136 01e8 0D0A6C6F 		.ascii	"\015\012logout\000"
 1136      676F7574 
 1136      00
 1137 01f1 000000   		.space	3
 1138              	.LC29:
 1139 01f4 746F6F20 		.ascii	"too many arguments\015\012\000"
 1139      6D616E79 
 1139      20617267 
 1139      756D656E 
 1139      74730D0A 
 1140 0209 000000   		.space	3
 1141              	.LC30:
 1142 020c 65786974 		.ascii	"exit\000"
 1142      00
 1143 0211 000000   		.space	3
 1144              	.LC31:
 1145 0214 68656C70 		.ascii	"help\000"
 1145      00
 1146 0219 000000   		.space	3
 1147              	.LC32:
 1148 021c 436F6D6D 		.ascii	"Commands: help exit \000"
 1148      616E6473 
 1148      3A206865 
 1148      6C702065 
 1148      78697420 
 1149 0231 000000   		.space	3
 1150              	.LC33:
 1151 0234 25732000 		.ascii	"%s \000"
 1152              	.LC34:
 1153 0238 257300   		.ascii	"%s\000"
 1154 023b 00       		.space	1
 1155              	.LC35:
 1156 023c 203F0D0A 		.ascii	" ?\015\012\000"
 1156      00
 1157 0241 000000   		.section	.bss.shell_terminated,"aw",%nobits
 1158              		.align	2
 1159              		.set	.LANCHOR0,. + 0
 1160              		.type	shell_terminated, %object
 1161              		.size	shell_terminated, 4
 1162              	shell_terminated:
 1163 0000 00000000 		.space	4
ARM GAS  C:\Users\Vergil\AppData\Local\Temp\ccJXYptb.s 			page 23


 1164              		.text
 1165              	.Letext0:
 1166              		.file 3 "c:\\chibistudio\\tools\\gnu tools arm embedded\\4.7 2014q2\\bin\\../lib/gcc/arm-none-eabi
 1167              		.file 4 "c:\\chibistudio\\tools\\gnu tools arm embedded\\4.7 2014q2\\bin\\../lib/gcc/arm-none-eabi
 1168              		.file 5 "../../os/ports/GCC/ARMCMx/chtypes.h"
 1169              		.file 6 "../../os/kernel/include/chlists.h"
 1170              		.file 7 "../../os/kernel/include/chthreads.h"
 1171              		.file 8 "../../os/ports/GCC/ARMCMx/chcore_v7m.h"
 1172              		.file 9 "../../os/kernel/include/chvt.h"
 1173              		.file 10 "../../os/kernel/include/chschd.h"
 1174              		.file 11 "../../os/kernel/include/chmtx.h"
 1175              		.file 12 "../../os/kernel/include/chevents.h"
 1176              		.file 13 "../../os/kernel/include/chmemcore.h"
 1177              		.file 14 "../../os/kernel/include/chheap.h"
 1178              		.file 15 "../../os/kernel/include/chstreams.h"
 1179              		.file 16 "../../os/various/shell.h"
 1180              		.file 17 "c:\\chibistudio\\tools\\gnu tools arm embedded\\4.7 2014q2\\bin\\../lib/gcc/arm-none-eab
 1181              		.file 18 "<built-in>"
 1182              		.file 19 "../../os/ports/common/ARMCMx/CMSIS/include/core_cm4.h"
 1183              		.file 20 "c:\\chibistudio\\tools\\gnu tools arm embedded\\4.7 2014q2\\bin\\../lib/gcc/arm-none-eab
 1184              		.file 21 "../../os/kernel/include/chdynamic.h"