ARM GAS  C:\Users\Vergil\AppData\Local\Temp\ccDEKNDk.s 			page 1


   1              		.syntax unified
   2              		.cpu cortex-m4
   3              		.eabi_attribute 27, 3
   4              		.eabi_attribute 28, 1
   5              		.fpu fpv4-sp-d16
   6              		.eabi_attribute 20, 1
   7              		.eabi_attribute 21, 1
   8              		.eabi_attribute 23, 3
   9              		.eabi_attribute 24, 1
  10              		.eabi_attribute 25, 1
  11              		.eabi_attribute 26, 1
  12              		.eabi_attribute 30, 2
  13              		.eabi_attribute 34, 1
  14              		.eabi_attribute 18, 4
  15              		.thumb
  16              		.file	"socket.c"
  17              		.text
  18              	.Ltext0:
  19              		.cfi_sections	.debug_frame
  20              		.section	.text.HostFlowControlConsumeBuff,"ax",%progbits
  21              		.align	2
  22              		.p2align 4,,15
  23              		.global	HostFlowControlConsumeBuff
  24              		.thumb
  25              		.thumb_func
  26              		.type	HostFlowControlConsumeBuff, %function
  27              	HostFlowControlConsumeBuff:
  28              	.LFB0:
  29              		.file 1 "C:\\Users\\Vergil\\ChibiOS_CC3000_SPI/CC3000HostDriver/socket.c"
  30              		.loc 1 113 0
  31              		.cfi_startproc
  32              		@ args = 0, pretend = 0, frame = 0
  33              		@ frame_needed = 0, uses_anonymous_args = 0
  34              	.LVL0:
  35 0000 F8B5     		push	{r3, r4, r5, r6, r7, lr}
  36              	.LCFI0:
  37              		.cfi_def_cfa_offset 24
  38              		.cfi_offset 3, -24
  39              		.cfi_offset 4, -20
  40              		.cfi_offset 5, -16
  41              		.cfi_offset 6, -12
  42              		.cfi_offset 7, -8
  43              		.cfi_offset 14, -4
  44 0002 114C     		ldr	r4, .L12
  45              		.loc 1 113 0
  46 0004 0646     		mov	r6, r0
  47              		.loc 1 121 0
  48 0006 2746     		mov	r7, r4
  49              	.LVL1:
  50              	.L4:
  51 0008 E36A     		ldr	r3, [r4, #44]
  52 000a 0F4D     		ldr	r5, .L12
  53              		.loc 1 128 0
  54 000c 3046     		mov	r0, r6
  55              		.loc 1 121 0
  56 000e 63B9     		cbnz	r3, .L11
  57              		.loc 1 128 0
ARM GAS  C:\Users\Vergil\AppData\Local\Temp\ccDEKNDk.s 			page 2


  58 0010 FFF7FEFF 		bl	get_socket_active_status
  59              	.LVL2:
  60 0014 A0B9     		cbnz	r0, .L5
  61              		.loc 1 130 0
  62 0016 398E     		ldrh	r1, [r7, #48]
  63 0018 8AB2     		uxth	r2, r1
  64 001a 002A     		cmp	r2, #0
  65 001c F4D0     		beq	.L4
  66              		.loc 1 132 0
  67 001e 2B8E     		ldrh	r3, [r5, #48]
  68 0020 591E     		subs	r1, r3, #1
  69 0022 8AB2     		uxth	r2, r1
  70 0024 2A86     		strh	r2, [r5, #48]	@ movhi
  71              		.loc 1 162 0
  72 0026 00B2     		sxth	r0, r0
  73 0028 F8BD     		pop	{r3, r4, r5, r6, r7, pc}
  74              	.L11:
  75              		.loc 1 123 0
  76 002a FFF7FEFF 		bl	__errno
  77              	.LVL3:
  78 002e EB6A     		ldr	r3, [r5, #44]
  79 0030 0360     		str	r3, [r0, #0]
  80              		.loc 1 124 0
  81 0032 0020     		movs	r0, #0
  82 0034 E862     		str	r0, [r5, #44]
  83              		.loc 1 125 0
  84 0036 FFF7FEFF 		bl	__errno
  85              	.LVL4:
  86 003a 0088     		ldrh	r0, [r0, #0]
  87              		.loc 1 162 0
  88 003c 00B2     		sxth	r0, r0
  89 003e F8BD     		pop	{r3, r4, r5, r6, r7, pc}
  90              	.L5:
  91              		.loc 1 129 0
  92 0040 4FF6FF70 		movw	r0, #65535
  93              		.loc 1 162 0
  94 0044 00B2     		sxth	r0, r0
  95 0046 F8BD     		pop	{r3, r4, r5, r6, r7, pc}
  96              	.L13:
  97              		.align	2
  98              	.L12:
  99 0048 00000000 		.word	tSLInformation
 100              		.cfi_endproc
 101              	.LFE0:
 102              		.size	HostFlowControlConsumeBuff, .-HostFlowControlConsumeBuff
 103 004c AFF30080 		.section	.text.socket,"ax",%progbits
 104              		.align	2
 105              		.p2align 4,,15
 106              		.global	socket
 107              		.thumb
 108              		.thumb_func
 109              		.type	socket, %function
 110              	socket:
 111              	.LFB1:
 112              		.loc 1 187 0
 113              		.cfi_startproc
 114              		@ args = 0, pretend = 0, frame = 8
ARM GAS  C:\Users\Vergil\AppData\Local\Temp\ccDEKNDk.s 			page 3


 115              		@ frame_needed = 0, uses_anonymous_args = 0
 116              	.LVL5:
 117 0000 F0B5     		push	{r4, r5, r6, r7, lr}
 118              	.LCFI1:
 119              		.cfi_def_cfa_offset 20
 120              		.cfi_offset 4, -20
 121              		.cfi_offset 5, -16
 122              		.cfi_offset 6, -12
 123              		.cfi_offset 7, -8
 124              		.cfi_offset 14, -4
 125              		.loc 1 192 0
 126 0002 40F20003 		movw	r3, #:lower16:tSLInformation
 127 0006 C0F20003 		movt	r3, #:upper16:tSLInformation
 128              		.loc 1 187 0
 129 000a 83B0     		sub	sp, sp, #12
 130              	.LCFI2:
 131              		.cfi_def_cfa_offset 32
 132              		.loc 1 192 0
 133 000c 9D68     		ldr	r5, [r3, #8]
 134              	.LVL6:
 135              		.loc 1 187 0
 136 000e 0746     		mov	r7, r0
 137              		.loc 1 191 0
 138 0010 02AC     		add	r4, sp, #8
 139              		.loc 1 187 0
 140 0012 0E46     		mov	r6, r1
 141              		.loc 1 196 0
 142 0014 05F10900 		add	r0, r5, #9
 143              	.LVL7:
 144 0018 3946     		mov	r1, r7
 145              	.LVL8:
 146              		.loc 1 187 0
 147 001a 1746     		mov	r7, r2
 148              	.LVL9:
 149              		.loc 1 191 0
 150 001c 4FF0FF32 		mov	r2, #-1
 151              	.LVL10:
 152 0020 44F8042D 		str	r2, [r4, #-4]!
 153              	.LVL11:
 154              		.loc 1 196 0
 155 0024 FFF7FEFF 		bl	UINT32_TO_STREAM_f
 156              	.LVL12:
 157              		.loc 1 197 0
 158 0028 3146     		mov	r1, r6
 159 002a FFF7FEFF 		bl	UINT32_TO_STREAM_f
 160              	.LVL13:
 161              		.loc 1 198 0
 162 002e 3946     		mov	r1, r7
 163 0030 FFF7FEFF 		bl	UINT32_TO_STREAM_f
 164              	.LVL14:
 165              		.loc 1 201 0
 166 0034 0C22     		movs	r2, #12
 167 0036 2946     		mov	r1, r5
 168 0038 41F20100 		movw	r0, #4097
 169 003c FFF7FEFF 		bl	hci_command_send
 170              	.LVL15:
 171              		.loc 1 204 0
ARM GAS  C:\Users\Vergil\AppData\Local\Temp\ccDEKNDk.s 			page 4


 172 0040 2146     		mov	r1, r4
 173 0042 41F20100 		movw	r0, #4097
 174 0046 FFF7FEFF 		bl	SimpleLinkWaitEvent
 175              	.LVL16:
 176              		.loc 1 207 0
 177 004a FFF7FEFF 		bl	__errno
 178              	.LVL17:
 179 004e 019B     		ldr	r3, [sp, #4]
 180              		.loc 1 209 0
 181 0050 0021     		movs	r1, #0
 182              		.loc 1 207 0
 183 0052 0360     		str	r3, [r0, #0]
 184              		.loc 1 209 0
 185 0054 1846     		mov	r0, r3
 186 0056 FFF7FEFF 		bl	set_socket_active_status
 187              	.LVL18:
 188              		.loc 1 212 0
 189 005a BDF90400 		ldrsh	r0, [sp, #4]
 190 005e 03B0     		add	sp, sp, #12
 191 0060 F0BD     		pop	{r4, r5, r6, r7, pc}
 192              		.cfi_endproc
 193              	.LFE1:
 194              		.size	socket, .-socket
 195 0062 00BFAFF3 		.section	.text.closesocket,"ax",%progbits
 195      0080AFF3 
 195      0080AFF3 
 195      0080
 196              		.align	2
 197              		.p2align 4,,15
 198              		.global	closesocket
 199              		.thumb
 200              		.thumb_func
 201              		.type	closesocket, %function
 202              	closesocket:
 203              	.LFB2:
 204              		.loc 1 227 0
 205              		.cfi_startproc
 206              		@ args = 0, pretend = 0, frame = 8
 207              		@ frame_needed = 0, uses_anonymous_args = 0
 208              	.LVL19:
 209 0000 70B5     		push	{r4, r5, r6, lr}
 210              	.LCFI3:
 211              		.cfi_def_cfa_offset 16
 212              		.cfi_offset 4, -16
 213              		.cfi_offset 5, -12
 214              		.cfi_offset 6, -8
 215              		.cfi_offset 14, -4
 216              		.loc 1 232 0
 217 0002 40F20003 		movw	r3, #:lower16:tSLInformation
 218 0006 C0F20003 		movt	r3, #:upper16:tSLInformation
 219              		.loc 1 227 0
 220 000a 82B0     		sub	sp, sp, #8
 221              	.LCFI4:
 222              		.cfi_def_cfa_offset 24
 223              		.loc 1 232 0
 224 000c 9E68     		ldr	r6, [r3, #8]
 225              	.LVL20:
ARM GAS  C:\Users\Vergil\AppData\Local\Temp\ccDEKNDk.s 			page 5


 226              		.loc 1 231 0
 227 000e 02AC     		add	r4, sp, #8
 228              		.loc 1 227 0
 229 0010 0546     		mov	r5, r0
 230              		.loc 1 231 0
 231 0012 4FF0FF30 		mov	r0, #-1
 232              	.LVL21:
 233 0016 44F8040D 		str	r0, [r4, #-4]!
 234              	.LVL22:
 235              		.loc 1 236 0
 236 001a 2946     		mov	r1, r5
 237 001c 06F10900 		add	r0, r6, #9
 238              	.LVL23:
 239 0020 FFF7FEFF 		bl	UINT32_TO_STREAM_f
 240              	.LVL24:
 241              		.loc 1 239 0
 242 0024 0422     		movs	r2, #4
 243 0026 3146     		mov	r1, r6
 244 0028 41F20B00 		movw	r0, #4107
 245 002c FFF7FEFF 		bl	hci_command_send
 246              	.LVL25:
 247              		.loc 1 243 0
 248 0030 2146     		mov	r1, r4
 249 0032 41F20B00 		movw	r0, #4107
 250 0036 FFF7FEFF 		bl	SimpleLinkWaitEvent
 251              	.LVL26:
 252              		.loc 1 244 0
 253 003a FFF7FEFF 		bl	__errno
 254              	.LVL27:
 255 003e 019A     		ldr	r2, [sp, #4]
 256              		.loc 1 248 0
 257 0040 0121     		movs	r1, #1
 258              		.loc 1 244 0
 259 0042 0260     		str	r2, [r0, #0]
 260              		.loc 1 248 0
 261 0044 2846     		mov	r0, r5
 262 0046 FFF7FEFF 		bl	set_socket_active_status
 263              	.LVL28:
 264              		.loc 1 251 0
 265 004a 0198     		ldr	r0, [sp, #4]
 266 004c 02B0     		add	sp, sp, #8
 267 004e 70BD     		pop	{r4, r5, r6, pc}
 268              		.cfi_endproc
 269              	.LFE2:
 270              		.size	closesocket, .-closesocket
 271              		.section	.text.accept,"ax",%progbits
 272              		.align	2
 273              		.p2align 4,,15
 274              		.global	accept
 275              		.thumb
 276              		.thumb_func
 277              		.type	accept, %function
 278              	accept:
 279              	.LFB3:
 280              		.loc 1 299 0
 281              		.cfi_startproc
 282              		@ args = 0, pretend = 0, frame = 24
ARM GAS  C:\Users\Vergil\AppData\Local\Temp\ccDEKNDk.s 			page 6


 283              		@ frame_needed = 0, uses_anonymous_args = 0
 284              	.LVL29:
 285 0000 F0B5     		push	{r4, r5, r6, r7, lr}
 286              	.LCFI5:
 287              		.cfi_def_cfa_offset 20
 288              		.cfi_offset 4, -20
 289              		.cfi_offset 5, -16
 290              		.cfi_offset 6, -12
 291              		.cfi_offset 7, -8
 292              		.cfi_offset 14, -4
 293              		.loc 1 305 0
 294 0002 184B     		ldr	r3, .L20
 295 0004 9D68     		ldr	r5, [r3, #8]
 296              	.LVL30:
 297              		.loc 1 299 0
 298 0006 0646     		mov	r6, r0
 299 0008 87B0     		sub	sp, sp, #28
 300              	.LCFI6:
 301              		.cfi_def_cfa_offset 48
 302              		.loc 1 299 0
 303 000a 0C46     		mov	r4, r1
 304              		.loc 1 309 0
 305 000c 05F10900 		add	r0, r5, #9
 306              	.LVL31:
 307 0010 3146     		mov	r1, r6
 308              	.LVL32:
 309              		.loc 1 299 0
 310 0012 1746     		mov	r7, r2
 311              		.loc 1 309 0
 312 0014 FFF7FEFF 		bl	UINT32_TO_STREAM_f
 313              	.LVL33:
 314              		.loc 1 312 0
 315 0018 0422     		movs	r2, #4
 316 001a 2946     		mov	r1, r5
 317 001c 41F20500 		movw	r0, #4101
 318 0020 FFF7FEFF 		bl	hci_command_send
 319              	.LVL34:
 320              		.loc 1 316 0
 321 0024 41F20500 		movw	r0, #4101
 322 0028 6946     		mov	r1, sp
 323 002a FFF7FEFF 		bl	SimpleLinkWaitEvent
 324              	.LVL35:
 325              		.loc 1 320 0
 326 002e 02AA     		add	r2, sp, #8
 327 0030 03CA     		ldmia	r2!, {r0, r1}
 328 0032 2060     		str	r0, [r4, #0]	@ unaligned
 329              		.loc 1 321 0
 330 0034 0820     		movs	r0, #8
 331              		.loc 1 320 0
 332 0036 6160     		str	r1, [r4, #4]	@ unaligned
 333              		.loc 1 321 0
 334 0038 3860     		str	r0, [r7, #0]
 335              		.loc 1 322 0
 336 003a FFF7FEFF 		bl	__errno
 337              	.LVL36:
 338 003e 0199     		ldr	r1, [sp, #4]
 339 0040 0160     		str	r1, [r0, #0]
ARM GAS  C:\Users\Vergil\AppData\Local\Temp\ccDEKNDk.s 			page 7


 340              		.loc 1 323 0
 341 0042 FFF7FEFF 		bl	__errno
 342              	.LVL37:
 343 0046 0468     		ldr	r4, [r0, #0]
 344              	.LVL38:
 345              		.loc 1 326 0
 346 0048 072C     		cmp	r4, #7
 347 004a 06D9     		bls	.L19
 348              		.loc 1 332 0
 349 004c 3046     		mov	r0, r6
 350 004e 0121     		movs	r1, #1
 351 0050 FFF7FEFF 		bl	set_socket_active_status
 352              	.LVL39:
 353              	.L18:
 354              		.loc 1 336 0
 355 0054 2046     		mov	r0, r4
 356 0056 07B0     		add	sp, sp, #28
 357 0058 F0BD     		pop	{r4, r5, r6, r7, pc}
 358              	.L19:
 359              		.loc 1 328 0
 360 005a 2046     		mov	r0, r4
 361 005c 0021     		movs	r1, #0
 362 005e FFF7FEFF 		bl	set_socket_active_status
 363              	.LVL40:
 364 0062 F7E7     		b	.L18
 365              	.L21:
 366              		.align	2
 367              	.L20:
 368 0064 00000000 		.word	tSLInformation
 369              		.cfi_endproc
 370              	.LFE3:
 371              		.size	accept, .-accept
 372 0068 AFF30080 		.section	.text.bind,"ax",%progbits
 372      AFF30080 
 373              		.align	2
 374              		.p2align 4,,15
 375              		.global	bind
 376              		.thumb
 377              		.thumb_func
 378              		.type	bind, %function
 379              	bind:
 380              	.LFB4:
 381              		.loc 1 362 0
 382              		.cfi_startproc
 383              		@ args = 0, pretend = 0, frame = 8
 384              		@ frame_needed = 0, uses_anonymous_args = 0
 385              	.LVL41:
 386 0000 70B5     		push	{r4, r5, r6, lr}
 387              	.LCFI7:
 388              		.cfi_def_cfa_offset 16
 389              		.cfi_offset 4, -16
 390              		.cfi_offset 5, -12
 391              		.cfi_offset 6, -8
 392              		.cfi_offset 14, -4
 393              		.loc 1 367 0
 394 0002 40F20003 		movw	r3, #:lower16:tSLInformation
 395 0006 C0F20003 		movt	r3, #:upper16:tSLInformation
ARM GAS  C:\Users\Vergil\AppData\Local\Temp\ccDEKNDk.s 			page 8


 396              		.loc 1 362 0
 397 000a 82B0     		sub	sp, sp, #8
 398              	.LCFI8:
 399              		.cfi_def_cfa_offset 24
 400              		.loc 1 367 0
 401 000c 9E68     		ldr	r6, [r3, #8]
 402              	.LVL42:
 403              		.loc 1 366 0
 404 000e 02AD     		add	r5, sp, #8
 405              		.loc 1 362 0
 406 0010 0C46     		mov	r4, r1
 407              		.loc 1 366 0
 408 0012 4FF0FF32 		mov	r2, #-1
 409              		.loc 1 373 0
 410 0016 0146     		mov	r1, r0
 411              	.LVL43:
 412 0018 06F10900 		add	r0, r6, #9
 413              	.LVL44:
 414              		.loc 1 366 0
 415 001c 45F8042D 		str	r2, [r5, #-4]!
 416              	.LVL45:
 417              		.loc 1 373 0
 418 0020 FFF7FEFF 		bl	UINT32_TO_STREAM_f
 419              	.LVL46:
 420              		.loc 1 374 0
 421 0024 0821     		movs	r1, #8
 422 0026 FFF7FEFF 		bl	UINT32_TO_STREAM_f
 423              	.LVL47:
 424              		.loc 1 375 0
 425 002a 0821     		movs	r1, #8
 426 002c FFF7FEFF 		bl	UINT32_TO_STREAM_f
 427              	.LVL48:
 428              	.LBB4:
 429              		.loc 1 376 0
 430 0030 2178     		ldrb	r1, [r4, #0]	@ zero_extendqisi2
 431 0032 0170     		strb	r1, [r0, #0]
 432              	.LVL49:
 433 0034 6378     		ldrb	r3, [r4, #1]	@ zero_extendqisi2
 434 0036 4370     		strb	r3, [r0, #1]
 435              	.LVL50:
 436 0038 A278     		ldrb	r2, [r4, #2]	@ zero_extendqisi2
 437 003a 8270     		strb	r2, [r0, #2]
 438              	.LVL51:
 439 003c E178     		ldrb	r1, [r4, #3]	@ zero_extendqisi2
 440 003e C170     		strb	r1, [r0, #3]
 441              	.LVL52:
 442 0040 2379     		ldrb	r3, [r4, #4]	@ zero_extendqisi2
 443 0042 0371     		strb	r3, [r0, #4]
 444              	.LVL53:
 445 0044 6279     		ldrb	r2, [r4, #5]	@ zero_extendqisi2
 446 0046 4271     		strb	r2, [r0, #5]
 447              	.LVL54:
 448 0048 A179     		ldrb	r1, [r4, #6]	@ zero_extendqisi2
 449 004a 8171     		strb	r1, [r0, #6]
 450              	.LVL55:
 451 004c E379     		ldrb	r3, [r4, #7]	@ zero_extendqisi2
 452              	.LBE4:
ARM GAS  C:\Users\Vergil\AppData\Local\Temp\ccDEKNDk.s 			page 9


 453              		.loc 1 379 0
 454 004e 1422     		movs	r2, #20
 455              	.LBB5:
 456              		.loc 1 376 0
 457 0050 C371     		strb	r3, [r0, #7]
 458              	.LVL56:
 459              	.LBE5:
 460              		.loc 1 379 0
 461 0052 3146     		mov	r1, r6
 462 0054 41F20200 		movw	r0, #4098
 463              	.LVL57:
 464 0058 FFF7FEFF 		bl	hci_command_send
 465              	.LVL58:
 466              		.loc 1 383 0
 467 005c 2946     		mov	r1, r5
 468 005e 41F20200 		movw	r0, #4098
 469 0062 FFF7FEFF 		bl	SimpleLinkWaitEvent
 470              	.LVL59:
 471              		.loc 1 385 0
 472 0066 FFF7FEFF 		bl	__errno
 473              	.LVL60:
 474 006a 019A     		ldr	r2, [sp, #4]
 475 006c 0260     		str	r2, [r0, #0]
 476              		.loc 1 388 0
 477 006e 1046     		mov	r0, r2
 478 0070 02B0     		add	sp, sp, #8
 479 0072 70BD     		pop	{r4, r5, r6, pc}
 480              		.cfi_endproc
 481              	.LFE4:
 482              		.size	bind, .-bind
 483 0074 AFF30080 		.section	.text.listen,"ax",%progbits
 483      AFF30080 
 483      AFF30080 
 484              		.align	2
 485              		.p2align 4,,15
 486              		.global	listen
 487              		.thumb
 488              		.thumb_func
 489              		.type	listen, %function
 490              	listen:
 491              	.LFB5:
 492              		.loc 1 414 0
 493              		.cfi_startproc
 494              		@ args = 0, pretend = 0, frame = 8
 495              		@ frame_needed = 0, uses_anonymous_args = 0
 496              	.LVL61:
 497 0000 70B5     		push	{r4, r5, r6, lr}
 498              	.LCFI9:
 499              		.cfi_def_cfa_offset 16
 500              		.cfi_offset 4, -16
 501              		.cfi_offset 5, -12
 502              		.cfi_offset 6, -8
 503              		.cfi_offset 14, -4
 504              		.loc 1 419 0
 505 0002 40F20003 		movw	r3, #:lower16:tSLInformation
 506 0006 C0F20003 		movt	r3, #:upper16:tSLInformation
 507              		.loc 1 414 0
ARM GAS  C:\Users\Vergil\AppData\Local\Temp\ccDEKNDk.s 			page 10


 508 000a 82B0     		sub	sp, sp, #8
 509              	.LCFI10:
 510              		.cfi_def_cfa_offset 24
 511              		.loc 1 419 0
 512 000c 9D68     		ldr	r5, [r3, #8]
 513              	.LVL62:
 514              		.loc 1 414 0
 515 000e 0246     		mov	r2, r0
 516              		.loc 1 418 0
 517 0010 02AC     		add	r4, sp, #8
 518 0012 4FF0FF33 		mov	r3, #-1
 519              		.loc 1 414 0
 520 0016 0E46     		mov	r6, r1
 521              		.loc 1 423 0
 522 0018 05F10900 		add	r0, r5, #9
 523              	.LVL63:
 524 001c 1146     		mov	r1, r2
 525              	.LVL64:
 526              		.loc 1 418 0
 527 001e 44F8043D 		str	r3, [r4, #-4]!
 528              	.LVL65:
 529              		.loc 1 423 0
 530 0022 FFF7FEFF 		bl	UINT32_TO_STREAM_f
 531              	.LVL66:
 532              		.loc 1 424 0
 533 0026 3146     		mov	r1, r6
 534 0028 FFF7FEFF 		bl	UINT32_TO_STREAM_f
 535              	.LVL67:
 536              		.loc 1 427 0
 537 002c 0822     		movs	r2, #8
 538 002e 2946     		mov	r1, r5
 539 0030 41F20600 		movw	r0, #4102
 540 0034 FFF7FEFF 		bl	hci_command_send
 541              	.LVL68:
 542              		.loc 1 431 0
 543 0038 2146     		mov	r1, r4
 544 003a 41F20600 		movw	r0, #4102
 545 003e FFF7FEFF 		bl	SimpleLinkWaitEvent
 546              	.LVL69:
 547              		.loc 1 432 0
 548 0042 FFF7FEFF 		bl	__errno
 549              	.LVL70:
 550 0046 0199     		ldr	r1, [sp, #4]
 551 0048 0160     		str	r1, [r0, #0]
 552              		.loc 1 435 0
 553 004a 0846     		mov	r0, r1
 554 004c 02B0     		add	sp, sp, #8
 555 004e 70BD     		pop	{r4, r5, r6, pc}
 556              		.cfi_endproc
 557              	.LFE5:
 558              		.size	listen, .-listen
 559              		.section	.text.gethostbyname,"ax",%progbits
 560              		.align	2
 561              		.p2align 4,,15
 562              		.global	gethostbyname
 563              		.thumb
 564              		.thumb_func
ARM GAS  C:\Users\Vergil\AppData\Local\Temp\ccDEKNDk.s 			page 11


 565              		.type	gethostbyname, %function
 566              	gethostbyname:
 567              	.LFB6:
 568              		.loc 1 459 0
 569              		.cfi_startproc
 570              		@ args = 0, pretend = 0, frame = 8
 571              		@ frame_needed = 0, uses_anonymous_args = 0
 572              	.LVL71:
 573 0000 2DE9F043 		push	{r4, r5, r6, r7, r8, r9, lr}
 574              	.LCFI11:
 575              		.cfi_def_cfa_offset 28
 576              		.cfi_offset 4, -28
 577              		.cfi_offset 5, -24
 578              		.cfi_offset 6, -20
 579              		.cfi_offset 7, -16
 580              		.cfi_offset 8, -12
 581              		.cfi_offset 9, -8
 582              		.cfi_offset 14, -4
 583 0004 83B0     		sub	sp, sp, #12
 584              	.LCFI12:
 585              		.cfi_def_cfa_offset 40
 586              		.loc 1 459 0
 587 0006 0D46     		mov	r5, r1
 588 0008 0646     		mov	r6, r0
 589 000a 9046     		mov	r8, r2
 590              		.loc 1 463 0
 591 000c FFF7FEFF 		bl	__errno
 592              	.LVL72:
 593 0010 4FF0FF33 		mov	r3, #-1
 594              		.loc 1 465 0
 595 0014 E62D     		cmp	r5, #230
 596              		.loc 1 463 0
 597 0016 0360     		str	r3, [r0, #0]
 598              		.loc 1 465 0
 599 0018 35D8     		bhi	.L37
 600              		.loc 1 470 0
 601 001a 1E48     		ldr	r0, .L38
 602 001c D0F80890 		ldr	r9, [r0, #8]
 603              	.LVL73:
 604              		.loc 1 474 0
 605 0020 0821     		movs	r1, #8
 606 0022 09F10900 		add	r0, r9, #9
 607              	.LVL74:
 608 0026 FFF7FEFF 		bl	UINT32_TO_STREAM_f
 609              	.LVL75:
 610              		.loc 1 475 0
 611 002a 2946     		mov	r1, r5
 612 002c FFF7FEFF 		bl	UINT32_TO_STREAM_f
 613              	.LVL76:
 614              	.LBB6:
 615              		.loc 1 476 0
 616 0030 ADB1     		cbz	r5, .L28
 617 0032 0123     		movs	r3, #1
 618 0034 3178     		ldrb	r1, [r6, #0]	@ zero_extendqisi2
 619 0036 6A1E     		subs	r2, r5, #1
 620 0038 AB42     		cmp	r3, r5
 621 003a 0170     		strb	r1, [r0, #0]
ARM GAS  C:\Users\Vergil\AppData\Local\Temp\ccDEKNDk.s 			page 12


 622              	.LVL77:
 623 003c 02EA0302 		and	r2, r2, r3
 624 0040 0DDA     		bge	.L28
 625 0042 22B1     		cbz	r2, .L27
 626 0044 7178     		ldrb	r1, [r6, #1]	@ zero_extendqisi2
 627 0046 0223     		movs	r3, #2
 628 0048 AB42     		cmp	r3, r5
 629 004a 4170     		strb	r1, [r0, #1]
 630 004c 07DA     		bge	.L28
 631              	.L27:
 632              		.loc 1 476 0 is_stmt 0 discriminator 2
 633 004e F75C     		ldrb	r7, [r6, r3]	@ zero_extendqisi2
 634 0050 5C1C     		adds	r4, r3, #1
 635 0052 C754     		strb	r7, [r0, r3]
 636 0054 0233     		adds	r3, r3, #2
 637 0056 375D     		ldrb	r7, [r6, r4]	@ zero_extendqisi2
 638 0058 AB42     		cmp	r3, r5
 639 005a 0755     		strb	r7, [r0, r4]
 640 005c F7DB     		blt	.L27
 641              	.L28:
 642              	.LBE6:
 643              		.loc 1 479 0 is_stmt 1
 644 005e 05F10800 		add	r0, r5, #8
 645 0062 C2B2     		uxtb	r2, r0
 646 0064 4946     		mov	r1, r9
 647 0066 41F21000 		movw	r0, #4112
 648 006a FFF7FEFF 		bl	hci_command_send
 649              	.LVL78:
 650              		.loc 1 483 0
 651 006e 6946     		mov	r1, sp
 652 0070 41F21000 		movw	r0, #4112
 653 0074 FFF7FEFF 		bl	SimpleLinkWaitEvent
 654              	.LVL79:
 655              		.loc 1 485 0
 656 0078 FFF7FEFF 		bl	__errno
 657              	.LVL80:
 658 007c 009A     		ldr	r2, [sp, #0]
 659              		.loc 1 487 0
 660 007e 0199     		ldr	r1, [sp, #4]
 661              		.loc 1 485 0
 662 0080 0260     		str	r2, [r0, #0]
 663              		.loc 1 487 0
 664 0082 C8F80010 		str	r1, [r8, #0]
 665              	.LVL81:
 666              	.L37:
 667              		.loc 1 489 0
 668 0086 FFF7FEFF 		bl	__errno
 669              	.LVL82:
 670 008a 0388     		ldrh	r3, [r0, #0]
 671              		.loc 1 491 0
 672 008c 18B2     		sxth	r0, r3
 673 008e 03B0     		add	sp, sp, #12
 674 0090 BDE8F083 		pop	{r4, r5, r6, r7, r8, r9, pc}
 675              	.L39:
 676              		.align	2
 677              	.L38:
 678 0094 00000000 		.word	tSLInformation
ARM GAS  C:\Users\Vergil\AppData\Local\Temp\ccDEKNDk.s 			page 13


 679              		.cfi_endproc
 680              	.LFE6:
 681              		.size	gethostbyname, .-gethostbyname
 682 0098 AFF30080 		.section	.text.connect,"ax",%progbits
 682      AFF30080 
 683              		.align	2
 684              		.p2align 4,,15
 685              		.global	connect
 686              		.thumb
 687              		.thumb_func
 688              		.type	connect, %function
 689              	connect:
 690              	.LFB7:
 691              		.loc 1 524 0
 692              		.cfi_startproc
 693              		@ args = 0, pretend = 0, frame = 8
 694              		@ frame_needed = 0, uses_anonymous_args = 0
 695              	.LVL83:
 696 0000 70B5     		push	{r4, r5, r6, lr}
 697              	.LCFI13:
 698              		.cfi_def_cfa_offset 16
 699              		.cfi_offset 4, -16
 700              		.cfi_offset 5, -12
 701              		.cfi_offset 6, -8
 702              		.cfi_offset 14, -4
 703              		.loc 1 529 0
 704 0002 40F20003 		movw	r3, #:lower16:tSLInformation
 705 0006 C0F20003 		movt	r3, #:upper16:tSLInformation
 706              		.loc 1 524 0
 707 000a 82B0     		sub	sp, sp, #8
 708              	.LCFI14:
 709              		.cfi_def_cfa_offset 24
 710              		.loc 1 529 0
 711 000c 9E68     		ldr	r6, [r3, #8]
 712              	.LVL84:
 713              		.loc 1 528 0
 714 000e 02AD     		add	r5, sp, #8
 715              		.loc 1 524 0
 716 0010 0C46     		mov	r4, r1
 717              		.loc 1 528 0
 718 0012 4FF0FF32 		mov	r2, #-1
 719              		.loc 1 534 0
 720 0016 0146     		mov	r1, r0
 721              	.LVL85:
 722 0018 06F10900 		add	r0, r6, #9
 723              	.LVL86:
 724              		.loc 1 528 0
 725 001c 45F8042D 		str	r2, [r5, #-4]!
 726              	.LVL87:
 727              		.loc 1 534 0
 728 0020 FFF7FEFF 		bl	UINT32_TO_STREAM_f
 729              	.LVL88:
 730              		.loc 1 535 0
 731 0024 0821     		movs	r1, #8
 732 0026 FFF7FEFF 		bl	UINT32_TO_STREAM_f
 733              	.LVL89:
 734              		.loc 1 536 0
ARM GAS  C:\Users\Vergil\AppData\Local\Temp\ccDEKNDk.s 			page 14


 735 002a 0821     		movs	r1, #8
 736 002c FFF7FEFF 		bl	UINT32_TO_STREAM_f
 737              	.LVL90:
 738              	.LBB7:
 739              		.loc 1 537 0
 740 0030 2178     		ldrb	r1, [r4, #0]	@ zero_extendqisi2
 741 0032 0170     		strb	r1, [r0, #0]
 742              	.LVL91:
 743 0034 6378     		ldrb	r3, [r4, #1]	@ zero_extendqisi2
 744 0036 4370     		strb	r3, [r0, #1]
 745              	.LVL92:
 746 0038 A278     		ldrb	r2, [r4, #2]	@ zero_extendqisi2
 747 003a 8270     		strb	r2, [r0, #2]
 748              	.LVL93:
 749 003c E178     		ldrb	r1, [r4, #3]	@ zero_extendqisi2
 750 003e C170     		strb	r1, [r0, #3]
 751              	.LVL94:
 752 0040 2379     		ldrb	r3, [r4, #4]	@ zero_extendqisi2
 753 0042 0371     		strb	r3, [r0, #4]
 754              	.LVL95:
 755 0044 6279     		ldrb	r2, [r4, #5]	@ zero_extendqisi2
 756 0046 4271     		strb	r2, [r0, #5]
 757              	.LVL96:
 758 0048 A179     		ldrb	r1, [r4, #6]	@ zero_extendqisi2
 759 004a 8171     		strb	r1, [r0, #6]
 760              	.LVL97:
 761 004c E379     		ldrb	r3, [r4, #7]	@ zero_extendqisi2
 762              	.LBE7:
 763              		.loc 1 540 0
 764 004e 1422     		movs	r2, #20
 765              	.LBB8:
 766              		.loc 1 537 0
 767 0050 C371     		strb	r3, [r0, #7]
 768              	.LVL98:
 769              	.LBE8:
 770              		.loc 1 540 0
 771 0052 3146     		mov	r1, r6
 772 0054 41F20700 		movw	r0, #4103
 773              	.LVL99:
 774 0058 FFF7FEFF 		bl	hci_command_send
 775              	.LVL100:
 776              		.loc 1 544 0
 777 005c 2946     		mov	r1, r5
 778 005e 41F20700 		movw	r0, #4103
 779 0062 FFF7FEFF 		bl	SimpleLinkWaitEvent
 780              	.LVL101:
 781              		.loc 1 546 0
 782 0066 FFF7FEFF 		bl	__errno
 783              	.LVL102:
 784 006a 019A     		ldr	r2, [sp, #4]
 785 006c 0260     		str	r2, [r0, #0]
 786              		.loc 1 549 0
 787 006e 1046     		mov	r0, r2
 788 0070 02B0     		add	sp, sp, #8
 789 0072 70BD     		pop	{r4, r5, r6, pc}
 790              		.cfi_endproc
 791              	.LFE7:
ARM GAS  C:\Users\Vergil\AppData\Local\Temp\ccDEKNDk.s 			page 15


 792              		.size	connect, .-connect
 793 0074 AFF30080 		.section	.text.select,"ax",%progbits
 793      AFF30080 
 793      AFF30080 
 794              		.align	2
 795              		.p2align 4,,15
 796              		.global	select
 797              		.thumb
 798              		.thumb_func
 799              		.type	select, %function
 800              	select:
 801              	.LFB8:
 802              		.loc 1 592 0
 803              		.cfi_startproc
 804              		@ args = 4, pretend = 0, frame = 16
 805              		@ frame_needed = 0, uses_anonymous_args = 0
 806              	.LVL103:
 807 0000 2DE9F041 		push	{r4, r5, r6, r7, r8, lr}
 808              	.LCFI15:
 809              		.cfi_def_cfa_offset 24
 810              		.cfi_offset 4, -24
 811              		.cfi_offset 5, -20
 812              		.cfi_offset 6, -16
 813              		.cfi_offset 7, -12
 814              		.cfi_offset 8, -8
 815              		.cfi_offset 14, -4
 816              		.loc 1 607 0
 817 0004 354D     		ldr	r5, .L69
 818 0006 D5F80880 		ldr	r8, [r5, #8]
 819              		.loc 1 592 0
 820 000a 84B0     		sub	sp, sp, #16
 821              	.LCFI16:
 822              		.cfi_def_cfa_offset 40
 823              		.loc 1 592 0
 824 000c 0646     		mov	r6, r0
 825 000e 0F46     		mov	r7, r1
 826              		.loc 1 611 0
 827 0010 08F10900 		add	r0, r8, #9
 828              	.LVL104:
 829 0014 3146     		mov	r1, r6
 830              	.LVL105:
 831              		.loc 1 592 0
 832 0016 1D46     		mov	r5, r3
 833 0018 1646     		mov	r6, r2
 834              	.LVL106:
 835 001a 0A9C     		ldr	r4, [sp, #40]
 836              	.LVL107:
 837              		.loc 1 611 0
 838 001c FFF7FEFF 		bl	UINT32_TO_STREAM_f
 839              	.LVL108:
 840              		.loc 1 612 0
 841 0020 1421     		movs	r1, #20
 842 0022 FFF7FEFF 		bl	UINT32_TO_STREAM_f
 843              	.LVL109:
 844              		.loc 1 613 0
 845 0026 1421     		movs	r1, #20
 846 0028 FFF7FEFF 		bl	UINT32_TO_STREAM_f
ARM GAS  C:\Users\Vergil\AppData\Local\Temp\ccDEKNDk.s 			page 16


 847              	.LVL110:
 848              		.loc 1 614 0
 849 002c 1421     		movs	r1, #20
 850 002e FFF7FEFF 		bl	UINT32_TO_STREAM_f
 851              	.LVL111:
 852              		.loc 1 615 0
 853 0032 1421     		movs	r1, #20
 854 0034 FFF7FEFF 		bl	UINT32_TO_STREAM_f
 855              	.LVL112:
 856              		.loc 1 616 0
 857 0038 D4F10101 		rsbs	r1, r4, #1
 858 003c 38BF     		it	cc
 859 003e 0021     		movcc	r1, #0
 860 0040 FFF7FEFF 		bl	UINT32_TO_STREAM_f
 861              	.LVL113:
 862              		.loc 1 617 0
 863 0044 002F     		cmp	r7, #0
 864 0046 3BD0     		beq	.L52
 865              		.loc 1 617 0 is_stmt 0 discriminator 1
 866 0048 3968     		ldr	r1, [r7, #0]
 867 004a FFF7FEFF 		bl	UINT32_TO_STREAM_f
 868              	.LVL114:
 869              		.loc 1 618 0 is_stmt 1 discriminator 1
 870 004e 002E     		cmp	r6, #0
 871 0050 3BD0     		beq	.L53
 872              	.L68:
 873 0052 3168     		ldr	r1, [r6, #0]
 874              	.L43:
 875              		.loc 1 618 0 is_stmt 0 discriminator 3
 876 0054 FFF7FEFF 		bl	UINT32_TO_STREAM_f
 877              	.LVL115:
 878              		.loc 1 619 0 is_stmt 1 discriminator 3
 879 0058 002D     		cmp	r5, #0
 880 005a 2FD0     		beq	.L54
 881              		.loc 1 619 0 is_stmt 0 discriminator 1
 882 005c 2968     		ldr	r1, [r5, #0]
 883              	.L44:
 884              		.loc 1 619 0 discriminator 3
 885 005e FFF7FEFF 		bl	UINT32_TO_STREAM_f
 886              	.LVL116:
 887              		.loc 1 621 0 is_stmt 1 discriminator 3
 888 0062 34B1     		cbz	r4, .L45
 889              		.loc 1 623 0
 890 0064 2168     		ldr	r1, [r4, #0]
 891 0066 01B3     		cbz	r1, .L67
 892              	.L46:
 893              		.loc 1 628 0
 894 0068 FFF7FEFF 		bl	UINT32_TO_STREAM_f
 895              	.LVL117:
 896              		.loc 1 629 0
 897 006c 6168     		ldr	r1, [r4, #4]
 898 006e FFF7FEFF 		bl	UINT32_TO_STREAM_f
 899              	.LVL118:
 900              	.L45:
 901              		.loc 1 633 0
 902 0072 2C22     		movs	r2, #44
 903 0074 4146     		mov	r1, r8
ARM GAS  C:\Users\Vergil\AppData\Local\Temp\ccDEKNDk.s 			page 17


 904 0076 41F20800 		movw	r0, #4104
 905 007a FFF7FEFF 		bl	hci_command_send
 906              	.LVL119:
 907              		.loc 1 636 0
 908 007e 6946     		mov	r1, sp
 909 0080 41F20800 		movw	r0, #4104
 910 0084 FFF7FEFF 		bl	SimpleLinkWaitEvent
 911              	.LVL120:
 912              		.loc 1 639 0
 913 0088 0099     		ldr	r1, [sp, #0]
 914 008a 0029     		cmp	r1, #0
 915 008c 1FDB     		blt	.L47
 916              		.loc 1 641 0
 917 008e 0FB1     		cbz	r7, .L48
 918              		.loc 1 643 0
 919 0090 0198     		ldr	r0, [sp, #4]	@ unaligned
 920 0092 3860     		str	r0, [r7, #0]	@ unaligned
 921              	.L48:
 922              		.loc 1 646 0
 923 0094 0EB1     		cbz	r6, .L49
 924              		.loc 1 648 0
 925 0096 029B     		ldr	r3, [sp, #8]	@ unaligned
 926 0098 3360     		str	r3, [r6, #0]	@ unaligned
 927              	.L49:
 928              		.loc 1 651 0
 929 009a 0DB1     		cbz	r5, .L50
 930              		.loc 1 653 0
 931 009c 039A     		ldr	r2, [sp, #12]	@ unaligned
 932 009e 2A60     		str	r2, [r5, #0]	@ unaligned
 933              	.L50:
 934              		.loc 1 656 0
 935 00a0 8BB2     		uxth	r3, r1
 936              	.L51:
 937              		.loc 1 664 0
 938 00a2 18B2     		sxth	r0, r3
 939 00a4 04B0     		add	sp, sp, #16
 940 00a6 BDE8F081 		pop	{r4, r5, r6, r7, r8, pc}
 941              	.LVL121:
 942              	.L67:
 943              		.loc 1 623 0 discriminator 1
 944 00aa 6368     		ldr	r3, [r4, #4]
 945 00ac 41F28732 		movw	r2, #4999
 946 00b0 9342     		cmp	r3, r2
 947              		.loc 1 626 0 discriminator 1
 948 00b2 DCBF     		itt	le
 949 00b4 41F28833 		movwle	r3, #5000
 950 00b8 6360     		strle	r3, [r4, #4]
 951 00ba D5E7     		b	.L46
 952              	.L54:
 953              		.loc 1 619 0
 954 00bc 2946     		mov	r1, r5
 955 00be CEE7     		b	.L44
 956              	.L52:
 957              		.loc 1 617 0
 958 00c0 3946     		mov	r1, r7
 959 00c2 FFF7FEFF 		bl	UINT32_TO_STREAM_f
 960              	.LVL122:
ARM GAS  C:\Users\Vergil\AppData\Local\Temp\ccDEKNDk.s 			page 18


 961              		.loc 1 618 0
 962 00c6 002E     		cmp	r6, #0
 963 00c8 C3D1     		bne	.L68
 964              	.L53:
 965 00ca 3146     		mov	r1, r6
 966 00cc C2E7     		b	.L43
 967              	.LVL123:
 968              	.L47:
 969              		.loc 1 661 0
 970 00ce FFF7FEFF 		bl	__errno
 971              	.LVL124:
 972 00d2 009A     		ldr	r2, [sp, #0]
 973              		.loc 1 662 0
 974 00d4 4FF6FF73 		movw	r3, #65535
 975              		.loc 1 661 0
 976 00d8 0260     		str	r2, [r0, #0]
 977 00da E2E7     		b	.L51
 978              	.L70:
 979              		.align	2
 980              	.L69:
 981 00dc 00000000 		.word	tSLInformation
 982              		.cfi_endproc
 983              	.LFE8:
 984              		.size	select, .-select
 985              		.section	.text.setsockopt,"ax",%progbits
 986              		.align	2
 987              		.p2align 4,,15
 988              		.global	setsockopt
 989              		.thumb
 990              		.thumb_func
 991              		.type	setsockopt, %function
 992              	setsockopt:
 993              	.LFB9:
 994              		.loc 1 716 0
 995              		.cfi_startproc
 996              		@ args = 4, pretend = 0, frame = 8
 997              		@ frame_needed = 0, uses_anonymous_args = 0
 998              	.LVL125:
 999 0000 2DE9F041 		push	{r4, r5, r6, r7, r8, lr}
 1000              	.LCFI17:
 1001              		.cfi_def_cfa_offset 24
 1002              		.cfi_offset 4, -24
 1003              		.cfi_offset 5, -20
 1004              		.cfi_offset 6, -16
 1005              		.cfi_offset 7, -12
 1006              		.cfi_offset 8, -8
 1007              		.cfi_offset 14, -4
 1008              		.loc 1 720 0
 1009 0004 2A4C     		ldr	r4, .L87
 1010 0006 A768     		ldr	r7, [r4, #8]
 1011              	.LVL126:
 1012              		.loc 1 716 0
 1013 0008 82B0     		sub	sp, sp, #8
 1014              	.LCFI18:
 1015              		.cfi_def_cfa_offset 32
 1016              		.loc 1 716 0
 1017 000a 0546     		mov	r5, r0
ARM GAS  C:\Users\Vergil\AppData\Local\Temp\ccDEKNDk.s 			page 19


 1018 000c 0C46     		mov	r4, r1
 1019              		.loc 1 724 0
 1020 000e 07F10900 		add	r0, r7, #9
 1021              	.LVL127:
 1022 0012 2946     		mov	r1, r5
 1023              	.LVL128:
 1024              		.loc 1 716 0
 1025 0014 9046     		mov	r8, r2
 1026 0016 1D46     		mov	r5, r3
 1027              	.LVL129:
 1028 0018 089E     		ldr	r6, [sp, #32]
 1029              		.loc 1 724 0
 1030 001a FFF7FEFF 		bl	UINT32_TO_STREAM_f
 1031              	.LVL130:
 1032              		.loc 1 725 0
 1033 001e 2146     		mov	r1, r4
 1034 0020 FFF7FEFF 		bl	UINT32_TO_STREAM_f
 1035              	.LVL131:
 1036              		.loc 1 726 0
 1037 0024 4146     		mov	r1, r8
 1038 0026 FFF7FEFF 		bl	UINT32_TO_STREAM_f
 1039              	.LVL132:
 1040              		.loc 1 727 0
 1041 002a 0821     		movs	r1, #8
 1042 002c FFF7FEFF 		bl	UINT32_TO_STREAM_f
 1043              	.LVL133:
 1044              		.loc 1 728 0
 1045 0030 3146     		mov	r1, r6
 1046 0032 FFF7FEFF 		bl	UINT32_TO_STREAM_f
 1047              	.LVL134:
 1048              	.LBB9:
 1049              		.loc 1 729 0
 1050 0036 06B3     		cbz	r6, .L76
 1051 0038 0246     		mov	r2, r0
 1052 003a 2B78     		ldrb	r3, [r5, #0]	@ zero_extendqisi2
 1053 003c 02F8013B 		strb	r3, [r2], #1
 1054              	.LVL135:
 1055 0040 C443     		mvns	r4, r0
 1056              	.LVL136:
 1057              	.LBE9:
 1058              		.loc 1 714 0
 1059 0042 8119     		adds	r1, r0, r6
 1060 0044 0B19     		adds	r3, r1, r4
 1061              	.LBB10:
 1062              		.loc 1 729 0
 1063 0046 8A42     		cmp	r2, r1
 1064 0048 03F00104 		and	r4, r3, #1
 1065              		.loc 1 714 0
 1066 004c C0EB0203 		rsb	r3, r0, r2
 1067              		.loc 1 729 0
 1068 0050 13D0     		beq	.L76
 1069 0052 34B1     		cbz	r4, .L75
 1070 0054 EB5C     		ldrb	r3, [r5, r3]	@ zero_extendqisi2
 1071 0056 02F8013B 		strb	r3, [r2], #1
 1072              	.LVL137:
 1073 005a 8A42     		cmp	r2, r1
 1074              		.loc 1 714 0
ARM GAS  C:\Users\Vergil\AppData\Local\Temp\ccDEKNDk.s 			page 20


 1075 005c C0EB0203 		rsb	r3, r0, r2
 1076              		.loc 1 729 0
 1077 0060 0BD0     		beq	.L76
 1078              	.L75:
 1079              		.loc 1 729 0 is_stmt 0 discriminator 2
 1080 0062 EB5C     		ldrb	r3, [r5, r3]	@ zero_extendqisi2
 1081 0064 1446     		mov	r4, r2
 1082 0066 04F8013B 		strb	r3, [r4], #1
 1083              		.loc 1 714 0 is_stmt 1 discriminator 2
 1084 006a 231A     		subs	r3, r4, r0
 1085              		.loc 1 729 0 discriminator 2
 1086 006c EB5C     		ldrb	r3, [r5, r3]	@ zero_extendqisi2
 1087 006e 5370     		strb	r3, [r2, #1]
 1088 0070 621C     		adds	r2, r4, #1
 1089 0072 8A42     		cmp	r2, r1
 1090              		.loc 1 714 0 discriminator 2
 1091 0074 C0EB0203 		rsb	r3, r0, r2
 1092              		.loc 1 729 0 discriminator 2
 1093 0078 F3D1     		bne	.L75
 1094              	.L76:
 1095              	.LBE10:
 1096              		.loc 1 732 0
 1097 007a 06F11400 		add	r0, r6, #20
 1098 007e C2B2     		uxtb	r2, r0
 1099 0080 3946     		mov	r1, r7
 1100 0082 41F20900 		movw	r0, #4105
 1101 0086 FFF7FEFF 		bl	hci_command_send
 1102              	.LVL138:
 1103              		.loc 1 736 0
 1104 008a 41F20900 		movw	r0, #4105
 1105 008e 01A9     		add	r1, sp, #4
 1106 0090 FFF7FEFF 		bl	SimpleLinkWaitEvent
 1107              	.LVL139:
 1108              		.loc 1 738 0
 1109 0094 019A     		ldr	r2, [sp, #4]
 1110 0096 002A     		cmp	r2, #0
 1111 0098 04DB     		blt	.L86
 1112              		.loc 1 740 0
 1113 009a 0023     		movs	r3, #0
 1114              	.L73:
 1115              		.loc 1 747 0
 1116 009c 18B2     		sxth	r0, r3
 1117 009e 02B0     		add	sp, sp, #8
 1118 00a0 BDE8F081 		pop	{r4, r5, r6, r7, r8, pc}
 1119              	.L86:
 1120              		.loc 1 744 0
 1121 00a4 FFF7FEFF 		bl	__errno
 1122              	.LVL140:
 1123 00a8 0199     		ldr	r1, [sp, #4]
 1124 00aa 0160     		str	r1, [r0, #0]
 1125              		.loc 1 745 0
 1126 00ac 8BB2     		uxth	r3, r1
 1127 00ae F5E7     		b	.L73
 1128              	.L88:
 1129              		.align	2
 1130              	.L87:
 1131 00b0 00000000 		.word	tSLInformation
ARM GAS  C:\Users\Vergil\AppData\Local\Temp\ccDEKNDk.s 			page 21


 1132              		.cfi_endproc
 1133              	.LFE9:
 1134              		.size	setsockopt, .-setsockopt
 1135 00b4 AFF30080 		.section	.text.getsockopt,"ax",%progbits
 1135      AFF30080 
 1135      AFF30080 
 1136              		.align	2
 1137              		.p2align 4,,15
 1138              		.global	getsockopt
 1139              		.thumb
 1140              		.thumb_func
 1141              		.type	getsockopt, %function
 1142              	getsockopt:
 1143              	.LFB10:
 1144              		.loc 1 798 0
 1145              		.cfi_startproc
 1146              		@ args = 4, pretend = 0, frame = 8
 1147              		@ frame_needed = 0, uses_anonymous_args = 0
 1148              	.LVL141:
 1149 0000 F0B5     		push	{r4, r5, r6, r7, lr}
 1150              	.LCFI19:
 1151              		.cfi_def_cfa_offset 20
 1152              		.cfi_offset 4, -20
 1153              		.cfi_offset 5, -16
 1154              		.cfi_offset 6, -12
 1155              		.cfi_offset 7, -8
 1156              		.cfi_offset 14, -4
 1157              		.loc 1 802 0
 1158 0002 194C     		ldr	r4, .L92
 1159 0004 A468     		ldr	r4, [r4, #8]
 1160              	.LVL142:
 1161              		.loc 1 798 0
 1162 0006 0646     		mov	r6, r0
 1163 0008 83B0     		sub	sp, sp, #12
 1164              	.LCFI20:
 1165              		.cfi_def_cfa_offset 32
 1166              		.loc 1 798 0
 1167 000a 0D46     		mov	r5, r1
 1168              		.loc 1 806 0
 1169 000c 04F10900 		add	r0, r4, #9
 1170              	.LVL143:
 1171 0010 3146     		mov	r1, r6
 1172              	.LVL144:
 1173              		.loc 1 798 0
 1174 0012 1F46     		mov	r7, r3
 1175 0014 1646     		mov	r6, r2
 1176              	.LVL145:
 1177              		.loc 1 806 0
 1178 0016 FFF7FEFF 		bl	UINT32_TO_STREAM_f
 1179              	.LVL146:
 1180              		.loc 1 807 0
 1181 001a 2946     		mov	r1, r5
 1182 001c FFF7FEFF 		bl	UINT32_TO_STREAM_f
 1183              	.LVL147:
 1184              		.loc 1 808 0
 1185 0020 3146     		mov	r1, r6
 1186 0022 FFF7FEFF 		bl	UINT32_TO_STREAM_f
ARM GAS  C:\Users\Vergil\AppData\Local\Temp\ccDEKNDk.s 			page 22


 1187              	.LVL148:
 1188              		.loc 1 811 0
 1189 0026 0C22     		movs	r2, #12
 1190 0028 2146     		mov	r1, r4
 1191 002a 41F20A00 		movw	r0, #4106
 1192 002e FFF7FEFF 		bl	hci_command_send
 1193              	.LVL149:
 1194              		.loc 1 815 0
 1195 0032 41F20A00 		movw	r0, #4106
 1196 0036 6946     		mov	r1, sp
 1197 0038 FFF7FEFF 		bl	SimpleLinkWaitEvent
 1198              	.LVL150:
 1199              		.loc 1 817 0
 1200 003c 9DF90420 		ldrsb	r2, [sp, #4]
 1201 0040 002A     		cmp	r2, #0
 1202 0042 08DB     		blt	.L90
 1203              		.loc 1 820 0
 1204 0044 0098     		ldr	r0, [sp, #0]	@ unaligned
 1205              		.loc 1 819 0
 1206 0046 089B     		ldr	r3, [sp, #32]
 1207 0048 0422     		movs	r2, #4
 1208 004a 1A60     		str	r2, [r3, #0]
 1209              		.loc 1 821 0
 1210 004c 0021     		movs	r1, #0
 1211              		.loc 1 820 0
 1212 004e 3860     		str	r0, [r7, #0]	@ unaligned
 1213              	.L91:
 1214              		.loc 1 828 0
 1215 0050 08B2     		sxth	r0, r1
 1216 0052 03B0     		add	sp, sp, #12
 1217 0054 F0BD     		pop	{r4, r5, r6, r7, pc}
 1218              	.L90:
 1219              		.loc 1 825 0
 1220 0056 FFF7FEFF 		bl	__errno
 1221              	.LVL151:
 1222 005a 9DF80430 		ldrb	r3, [sp, #4]	@ zero_extendqisi2
 1223 005e 0360     		str	r3, [r0, #0]
 1224              		.loc 1 826 0
 1225 0060 FFF7FEFF 		bl	__errno
 1226              	.LVL152:
 1227 0064 0188     		ldrh	r1, [r0, #0]
 1228 0066 F3E7     		b	.L91
 1229              	.L93:
 1230              		.align	2
 1231              	.L92:
 1232 0068 00000000 		.word	tSLInformation
 1233              		.cfi_endproc
 1234              	.LFE10:
 1235              		.size	getsockopt, .-getsockopt
 1236 006c AFF30080 		.section	.text.simple_link_recv,"ax",%progbits
 1237              		.align	2
 1238              		.p2align 4,,15
 1239              		.global	simple_link_recv
 1240              		.thumb
 1241              		.thumb_func
 1242              		.type	simple_link_recv, %function
 1243              	simple_link_recv:
ARM GAS  C:\Users\Vergil\AppData\Local\Temp\ccDEKNDk.s 			page 23


 1244              	.LFB11:
 1245              		.loc 1 853 0
 1246              		.cfi_startproc
 1247              		@ args = 12, pretend = 0, frame = 16
 1248              		@ frame_needed = 0, uses_anonymous_args = 0
 1249              	.LVL153:
 1250 0000 F0B5     		push	{r4, r5, r6, r7, lr}
 1251              	.LCFI21:
 1252              		.cfi_def_cfa_offset 20
 1253              		.cfi_offset 4, -20
 1254              		.cfi_offset 5, -16
 1255              		.cfi_offset 6, -12
 1256              		.cfi_offset 7, -8
 1257              		.cfi_offset 14, -4
 1258              		.loc 1 857 0
 1259 0002 164C     		ldr	r4, .L96
 1260 0004 A568     		ldr	r5, [r4, #8]
 1261              	.LVL154:
 1262              		.loc 1 853 0
 1263 0006 0646     		mov	r6, r0
 1264 0008 85B0     		sub	sp, sp, #20
 1265              	.LCFI22:
 1266              		.cfi_def_cfa_offset 40
 1267              		.loc 1 853 0
 1268 000a 1446     		mov	r4, r2
 1269 000c 0F46     		mov	r7, r1
 1270              		.loc 1 861 0
 1271 000e 05F10900 		add	r0, r5, #9
 1272              	.LVL155:
 1273 0012 3146     		mov	r1, r6
 1274              	.LVL156:
 1275              		.loc 1 853 0
 1276 0014 1E46     		mov	r6, r3
 1277              	.LVL157:
 1278              		.loc 1 861 0
 1279 0016 FFF7FEFF 		bl	UINT32_TO_STREAM_f
 1280              	.LVL158:
 1281              		.loc 1 862 0
 1282 001a 2146     		mov	r1, r4
 1283 001c FFF7FEFF 		bl	UINT32_TO_STREAM_f
 1284              	.LVL159:
 1285              		.loc 1 866 0
 1286 0020 BDF83040 		ldrh	r4, [sp, #48]
 1287              	.LVL160:
 1288              		.loc 1 863 0
 1289 0024 3146     		mov	r1, r6
 1290 0026 FFF7FEFF 		bl	UINT32_TO_STREAM_f
 1291              	.LVL161:
 1292              		.loc 1 866 0
 1293 002a 0C22     		movs	r2, #12
 1294 002c 2946     		mov	r1, r5
 1295 002e 2046     		mov	r0, r4
 1296 0030 FFF7FEFF 		bl	hci_command_send
 1297              	.LVL162:
 1298              		.loc 1 869 0
 1299 0034 2046     		mov	r0, r4
 1300 0036 01A9     		add	r1, sp, #4
ARM GAS  C:\Users\Vergil\AppData\Local\Temp\ccDEKNDk.s 			page 24


 1301 0038 FFF7FEFF 		bl	SimpleLinkWaitEvent
 1302              	.LVL163:
 1303              		.loc 1 872 0
 1304 003c 029B     		ldr	r3, [sp, #8]
 1305 003e 002B     		cmp	r3, #0
 1306 0040 04DD     		ble	.L95
 1307              		.loc 1 876 0
 1308 0042 3846     		mov	r0, r7
 1309 0044 0A99     		ldr	r1, [sp, #40]
 1310 0046 0B9A     		ldr	r2, [sp, #44]
 1311 0048 FFF7FEFF 		bl	SimpleLinkWaitData
 1312              	.LVL164:
 1313              	.L95:
 1314              		.loc 1 879 0
 1315 004c FFF7FEFF 		bl	__errno
 1316              	.LVL165:
 1317 0050 0299     		ldr	r1, [sp, #8]
 1318 0052 0160     		str	r1, [r0, #0]
 1319              		.loc 1 882 0
 1320 0054 08B2     		sxth	r0, r1
 1321 0056 05B0     		add	sp, sp, #20
 1322 0058 F0BD     		pop	{r4, r5, r6, r7, pc}
 1323              	.L97:
 1324 005a 00BF     		.align	2
 1325              	.L96:
 1326 005c 00000000 		.word	tSLInformation
 1327              		.cfi_endproc
 1328              	.LFE11:
 1329              		.size	simple_link_recv, .-simple_link_recv
 1330              		.section	.text.recv,"ax",%progbits
 1331              		.align	2
 1332              		.p2align 4,,15
 1333              		.global	recv
 1334              		.thumb
 1335              		.thumb_func
 1336              		.type	recv, %function
 1337              	recv:
 1338              	.LFB12:
 1339              		.loc 1 907 0
 1340              		.cfi_startproc
 1341              		@ args = 0, pretend = 0, frame = 0
 1342              		@ frame_needed = 0, uses_anonymous_args = 0
 1343              	.LVL166:
 1344 0000 10B5     		push	{r4, lr}
 1345              	.LCFI23:
 1346              		.cfi_def_cfa_offset 8
 1347              		.cfi_offset 4, -8
 1348              		.cfi_offset 14, -4
 1349 0002 84B0     		sub	sp, sp, #16
 1350              	.LCFI24:
 1351              		.cfi_def_cfa_offset 24
 1352              		.loc 1 908 0
 1353 0004 0024     		movs	r4, #0
 1354 0006 0094     		str	r4, [sp, #0]
 1355 0008 0194     		str	r4, [sp, #4]
 1356 000a 41F20404 		movw	r4, #4100
 1357 000e 0294     		str	r4, [sp, #8]
ARM GAS  C:\Users\Vergil\AppData\Local\Temp\ccDEKNDk.s 			page 25


 1358 0010 FFF7FEFF 		bl	simple_link_recv
 1359              	.LVL167:
 1360              		.loc 1 909 0
 1361 0014 04B0     		add	sp, sp, #16
 1362 0016 10BD     		pop	{r4, pc}
 1363              		.cfi_endproc
 1364              	.LFE12:
 1365              		.size	recv, .-recv
 1366 0018 AFF30080 		.section	.text.recvfrom,"ax",%progbits
 1366      AFF30080 
 1367              		.align	2
 1368              		.p2align 4,,15
 1369              		.global	recvfrom
 1370              		.thumb
 1371              		.thumb_func
 1372              		.type	recvfrom, %function
 1373              	recvfrom:
 1374              	.LFB13:
 1375              		.loc 1 941 0
 1376              		.cfi_startproc
 1377              		@ args = 8, pretend = 0, frame = 0
 1378              		@ frame_needed = 0, uses_anonymous_args = 0
 1379              	.LVL168:
 1380 0000 10B5     		push	{r4, lr}
 1381              	.LCFI25:
 1382              		.cfi_def_cfa_offset 8
 1383              		.cfi_offset 4, -8
 1384              		.cfi_offset 14, -4
 1385 0002 84B0     		sub	sp, sp, #16
 1386              	.LCFI26:
 1387              		.cfi_def_cfa_offset 24
 1388              		.loc 1 941 0
 1389 0004 069C     		ldr	r4, [sp, #24]
 1390              		.loc 1 942 0
 1391 0006 0094     		str	r4, [sp, #0]
 1392 0008 079C     		ldr	r4, [sp, #28]
 1393 000a 0194     		str	r4, [sp, #4]
 1394 000c 41F20D04 		movw	r4, #4109
 1395 0010 0294     		str	r4, [sp, #8]
 1396 0012 FFF7FEFF 		bl	simple_link_recv
 1397              	.LVL169:
 1398              		.loc 1 944 0
 1399 0016 04B0     		add	sp, sp, #16
 1400 0018 10BD     		pop	{r4, pc}
 1401              		.cfi_endproc
 1402              	.LFE13:
 1403              		.size	recvfrom, .-recvfrom
 1404 001a 00BFAFF3 		.section	.text.simple_link_send,"ax",%progbits
 1404      0080
 1405              		.align	2
 1406              		.p2align 4,,15
 1407              		.global	simple_link_send
 1408              		.thumb
 1409              		.thumb_func
 1410              		.type	simple_link_send, %function
 1411              	simple_link_send:
 1412              	.LFB14:
ARM GAS  C:\Users\Vergil\AppData\Local\Temp\ccDEKNDk.s 			page 26


 1413              		.loc 1 968 0
 1414              		.cfi_startproc
 1415              		@ args = 12, pretend = 0, frame = 32
 1416              		@ frame_needed = 0, uses_anonymous_args = 0
 1417              	.LVL170:
 1418 0000 2DE9F04F 		push	{r4, r5, r6, r7, r8, r9, sl, fp, lr}
 1419              	.LCFI27:
 1420              		.cfi_def_cfa_offset 36
 1421              		.cfi_offset 4, -36
 1422              		.cfi_offset 5, -32
 1423              		.cfi_offset 6, -28
 1424              		.cfi_offset 7, -24
 1425              		.cfi_offset 8, -20
 1426              		.cfi_offset 9, -16
 1427              		.cfi_offset 10, -12
 1428              		.cfi_offset 11, -8
 1429              		.cfi_offset 14, -4
 1430 0004 8BB0     		sub	sp, sp, #44
 1431              	.LCFI28:
 1432              		.cfi_def_cfa_offset 80
 1433              		.loc 1 968 0
 1434 0006 8046     		mov	r8, r0
 1435              		.loc 1 976 0
 1436 0008 00B2     		sxth	r0, r0
 1437              	.LVL171:
 1438              		.loc 1 968 0
 1439 000a 0E46     		mov	r6, r1
 1440 000c 1546     		mov	r5, r2
 1441 000e 9A46     		mov	sl, r3
 1442 0010 169F     		ldr	r7, [sp, #88]
 1443              		.loc 1 976 0
 1444 0012 FFF7FEFF 		bl	HostFlowControlConsumeBuff
 1445              	.LVL172:
 1446 0016 0028     		cmp	r0, #0
 1447 0018 55D1     		bne	.L101
 1448              	.LVL173:
 1449              	.LBB15:
 1450              	.LBB16:
 1451              		.loc 1 982 0
 1452 001a 544B     		ldr	r3, .L135
 1453 001c 9A6B     		ldr	r2, [r3, #56]
 1454 001e 511C     		adds	r1, r2, #1
 1455 0020 9963     		str	r1, [r3, #56]
 1456              		.loc 1 985 0
 1457 0022 D3F80890 		ldr	r9, [r3, #8]
 1458              	.LVL174:
 1459              		.loc 1 989 0
 1460 0026 812F     		cmp	r7, #129
 1461              		.loc 1 986 0
 1462 0028 09F10A01 		add	r1, r9, #10
 1463              	.LVL175:
 1464              		.loc 1 989 0
 1465 002c 4FD0     		beq	.L103
 1466 002e 832F     		cmp	r7, #131
 1467 0030 58D0     		beq	.L104
 1468 0032 0246     		mov	r2, r0
 1469 0034 1598     		ldr	r0, [sp, #84]
ARM GAS  C:\Users\Vergil\AppData\Local\Temp\ccDEKNDk.s 			page 27


 1470              	.LVL176:
 1471              		.loc 1 971 0
 1472 0036 0492     		str	r2, [sp, #16]
 1473 0038 1FFA80FB 		uxth	fp, r0
 1474              		.loc 1 989 0
 1475 003c 6FF0030C 		mvn	ip, #3
 1476              		.loc 1 970 0
 1477 0040 1446     		mov	r4, r2
 1478              		.loc 1 969 0
 1479 0042 0592     		str	r2, [sp, #20]
 1480              	.LVL177:
 1481              	.L105:
 1482              		.loc 1 1016 0
 1483 0044 0846     		mov	r0, r1
 1484 0046 4146     		mov	r1, r8
 1485              	.LVL178:
 1486 0048 0292     		str	r2, [sp, #8]
 1487 004a CDF80CC0 		str	ip, [sp, #12]
 1488 004e FFF7FEFF 		bl	UINT32_TO_STREAM_f
 1489              	.LVL179:
 1490              		.loc 1 1017 0
 1491 0052 DDF80CC0 		ldr	ip, [sp, #12]
 1492 0056 6146     		mov	r1, ip
 1493 0058 FFF7FEFF 		bl	UINT32_TO_STREAM_f
 1494              	.LVL180:
 1495              		.loc 1 1018 0
 1496 005c 2946     		mov	r1, r5
 1497 005e FFF7FEFF 		bl	UINT32_TO_STREAM_f
 1498              	.LVL181:
 1499              		.loc 1 1019 0
 1500 0062 5146     		mov	r1, sl
 1501 0064 FFF7FEFF 		bl	UINT32_TO_STREAM_f
 1502              	.LVL182:
 1503              		.loc 1 1021 0
 1504 0068 832F     		cmp	r7, #131
 1505 006a 029A     		ldr	r2, [sp, #8]
 1506 006c 76D0     		beq	.L133
 1507              	.L106:
 1508              	.LVL183:
 1509              	.LBB17:
 1510              		.loc 1 1028 0
 1511 006e 002D     		cmp	r5, #0
 1512 0070 18DD     		ble	.L107
 1513 0072 0121     		movs	r1, #1
 1514 0074 96F800E0 		ldrb	lr, [r6, #0]	@ zero_extendqisi2
 1515 0078 6B1E     		subs	r3, r5, #1
 1516 007a A942     		cmp	r1, r5
 1517 007c 84F800E0 		strb	lr, [r4, #0]
 1518              	.LVL184:
 1519 0080 03EA0103 		and	r3, r3, r1
 1520 0084 0DD0     		beq	.L127
 1521 0086 23B1     		cbz	r3, .L108
 1522 0088 7078     		ldrb	r0, [r6, #1]	@ zero_extendqisi2
 1523 008a 0221     		movs	r1, #2
 1524 008c A942     		cmp	r1, r5
 1525 008e 6070     		strb	r0, [r4, #1]
 1526 0090 07D0     		beq	.L127
ARM GAS  C:\Users\Vergil\AppData\Local\Temp\ccDEKNDk.s 			page 28


 1527              	.L108:
 1528 0092 705C     		ldrb	r0, [r6, r1]	@ zero_extendqisi2
 1529 0094 4B1C     		adds	r3, r1, #1
 1530 0096 6054     		strb	r0, [r4, r1]
 1531 0098 0231     		adds	r1, r1, #2
 1532 009a F05C     		ldrb	r0, [r6, r3]	@ zero_extendqisi2
 1533 009c A942     		cmp	r1, r5
 1534 009e E054     		strb	r0, [r4, r3]
 1535 00a0 F7D1     		bne	.L108
 1536              	.L127:
 1537 00a2 6418     		adds	r4, r4, r1
 1538              	.L107:
 1539              	.LBE17:
 1540              		.loc 1 1031 0
 1541 00a4 832F     		cmp	r7, #131
 1542 00a6 2BD0     		beq	.L134
 1543              		.loc 1 1037 0
 1544 00a8 149B     		ldr	r3, [sp, #80]
 1545 00aa ADB2     		uxth	r5, r5
 1546              	.LVL185:
 1547 00ac 4946     		mov	r1, r9
 1548 00ae 8DE80808 		stmia	sp, {r3, fp}
 1549 00b2 F8B2     		uxtb	r0, r7
 1550 00b4 2B46     		mov	r3, r5
 1551 00b6 FFF7FEFF 		bl	hci_data_send
 1552              	.LVL186:
 1553              		.loc 1 1042 0
 1554 00ba 41F20300 		movw	r0, #4099
 1555 00be 07A9     		add	r1, sp, #28
 1556 00c0 FFF7FEFF 		bl	SimpleLinkWaitEvent
 1557              	.LVL187:
 1558              	.L112:
 1559              		.loc 1 1044 0
 1560 00c4 2846     		mov	r0, r5
 1561              	.LVL188:
 1562              	.L101:
 1563 00c6 00B2     		sxth	r0, r0
 1564              	.LBE16:
 1565              	.LBE15:
 1566              		.loc 1 1045 0
 1567 00c8 0BB0     		add	sp, sp, #44
 1568 00ca BDE8F08F 		pop	{r4, r5, r6, r7, r8, r9, sl, fp, pc}
 1569              	.LVL189:
 1570              	.L103:
 1571              	.LBB20:
 1572              	.LBB19:
 1573              		.loc 1 1005 0
 1574 00ce 8346     		mov	fp, r0
 1575 00d0 09F11A04 		add	r4, r9, #26
 1576              	.LVL190:
 1577 00d4 1022     		movs	r2, #16
 1578 00d6 4FF00C0C 		mov	ip, #12
 1579              		.loc 1 971 0
 1580 00da 0490     		str	r0, [sp, #16]
 1581              		.loc 1 969 0
 1582 00dc 0590     		str	r0, [sp, #20]
 1583              		.loc 1 1002 0
ARM GAS  C:\Users\Vergil\AppData\Local\Temp\ccDEKNDk.s 			page 29


 1584 00de 1590     		str	r0, [sp, #84]
 1585              		.loc 1 1003 0
 1586 00e0 1490     		str	r0, [sp, #80]
 1587 00e2 AFE7     		b	.L105
 1588              	.LVL191:
 1589              	.L104:
 1590 00e4 159B     		ldr	r3, [sp, #84]
 1591              		.loc 1 993 0
 1592 00e6 05F10804 		add	r4, r5, #8
 1593              		.loc 1 994 0
 1594 00ea 0820     		movs	r0, #8
 1595              	.LVL192:
 1596              		.loc 1 993 0
 1597 00ec 0494     		str	r4, [sp, #16]
 1598              	.LVL193:
 1599 00ee 1FFA83FB 		uxth	fp, r3
 1600              		.loc 1 996 0
 1601 00f2 09F12204 		add	r4, r9, #34
 1602              	.LVL194:
 1603 00f6 1822     		movs	r2, #24
 1604 00f8 4FF0140C 		mov	ip, #20
 1605              		.loc 1 994 0
 1606 00fc 0590     		str	r0, [sp, #20]
 1607 00fe A1E7     		b	.L105
 1608              	.LVL195:
 1609              	.L134:
 1610              	.LBB18:
 1611              		.loc 1 1033 0
 1612 0100 1599     		ldr	r1, [sp, #84]
 1613 0102 0029     		cmp	r1, #0
 1614 0104 1BDD     		ble	.L110
 1615 0106 149E     		ldr	r6, [sp, #80]
 1616              	.LVL196:
 1617 0108 159B     		ldr	r3, [sp, #84]
 1618 010a 3678     		ldrb	r6, [r6, #0]	@ zero_extendqisi2
 1619 010c 0121     		movs	r1, #1
 1620 010e 581E     		subs	r0, r3, #1
 1621 0110 9942     		cmp	r1, r3
 1622 0112 2670     		strb	r6, [r4, #0]
 1623              	.LVL197:
 1624 0114 00EA0100 		and	r0, r0, r1
 1625 0118 11D0     		beq	.L110
 1626 011a 30B1     		cbz	r0, .L130
 1627 011c 1499     		ldr	r1, [sp, #80]
 1628 011e 1598     		ldr	r0, [sp, #84]
 1629 0120 4B78     		ldrb	r3, [r1, #1]	@ zero_extendqisi2
 1630 0122 0221     		movs	r1, #2
 1631 0124 8142     		cmp	r1, r0
 1632 0126 6370     		strb	r3, [r4, #1]
 1633 0128 09D0     		beq	.L110
 1634              	.L130:
 1635 012a 1498     		ldr	r0, [sp, #80]
 1636 012c 159F     		ldr	r7, [sp, #84]
 1637              	.LVL198:
 1638              	.L111:
 1639 012e 465C     		ldrb	r6, [r0, r1]	@ zero_extendqisi2
 1640 0130 4B1C     		adds	r3, r1, #1
ARM GAS  C:\Users\Vergil\AppData\Local\Temp\ccDEKNDk.s 			page 30


 1641 0132 6654     		strb	r6, [r4, r1]
 1642 0134 0231     		adds	r1, r1, #2
 1643 0136 C65C     		ldrb	r6, [r0, r3]	@ zero_extendqisi2
 1644 0138 B942     		cmp	r1, r7
 1645 013a E654     		strb	r6, [r4, r3]
 1646 013c F7D1     		bne	.L111
 1647              	.L110:
 1648              	.LBE18:
 1649              		.loc 1 1037 0
 1650 013e 149B     		ldr	r3, [sp, #80]
 1651 0140 ADB2     		uxth	r5, r5
 1652              	.LVL199:
 1653 0142 4946     		mov	r1, r9
 1654 0144 8DE80808 		stmia	sp, {r3, fp}
 1655 0148 8320     		movs	r0, #131
 1656 014a 2B46     		mov	r3, r5
 1657 014c FFF7FEFF 		bl	hci_data_send
 1658              	.LVL200:
 1659              		.loc 1 1040 0
 1660 0150 41F20F00 		movw	r0, #4111
 1661 0154 07A9     		add	r1, sp, #28
 1662 0156 FFF7FEFF 		bl	SimpleLinkWaitEvent
 1663              	.LVL201:
 1664 015a B3E7     		b	.L112
 1665              	.LVL202:
 1666              	.L133:
 1667              		.loc 1 1023 0
 1668 015c 0499     		ldr	r1, [sp, #16]
 1669 015e FFF7FEFF 		bl	UINT32_TO_STREAM_f
 1670              	.LVL203:
 1671              		.loc 1 1024 0
 1672 0162 0599     		ldr	r1, [sp, #20]
 1673 0164 FFF7FEFF 		bl	UINT32_TO_STREAM_f
 1674              	.LVL204:
 1675 0168 029A     		ldr	r2, [sp, #8]
 1676 016a 80E7     		b	.L106
 1677              	.L136:
 1678              		.align	2
 1679              	.L135:
 1680 016c 00000000 		.word	tSLInformation
 1681              	.LBE19:
 1682              	.LBE20:
 1683              		.cfi_endproc
 1684              	.LFE14:
 1685              		.size	simple_link_send, .-simple_link_send
 1686              		.section	.text.send,"ax",%progbits
 1687              		.align	2
 1688              		.p2align 4,,15
 1689              		.global	send
 1690              		.thumb
 1691              		.thumb_func
 1692              		.type	send, %function
 1693              	send:
 1694              	.LFB15:
 1695              		.loc 1 1071 0
 1696              		.cfi_startproc
 1697              		@ args = 0, pretend = 0, frame = 0
ARM GAS  C:\Users\Vergil\AppData\Local\Temp\ccDEKNDk.s 			page 31


 1698              		@ frame_needed = 0, uses_anonymous_args = 0
 1699              	.LVL205:
 1700 0000 10B5     		push	{r4, lr}
 1701              	.LCFI29:
 1702              		.cfi_def_cfa_offset 8
 1703              		.cfi_offset 4, -8
 1704              		.cfi_offset 14, -4
 1705 0002 84B0     		sub	sp, sp, #16
 1706              	.LCFI30:
 1707              		.cfi_def_cfa_offset 24
 1708              		.loc 1 1072 0
 1709 0004 0024     		movs	r4, #0
 1710 0006 0094     		str	r4, [sp, #0]
 1711 0008 0194     		str	r4, [sp, #4]
 1712 000a 8124     		movs	r4, #129
 1713 000c 0294     		str	r4, [sp, #8]
 1714 000e FFF7FEFF 		bl	simple_link_send
 1715              	.LVL206:
 1716              		.loc 1 1073 0
 1717 0012 04B0     		add	sp, sp, #16
 1718 0014 10BD     		pop	{r4, pc}
 1719              		.cfi_endproc
 1720              	.LFE15:
 1721              		.size	send, .-send
 1722 0016 00BFAFF3 		.section	.text.sendto,"ax",%progbits
 1722      0080AFF3 
 1722      0080
 1723              		.align	2
 1724              		.p2align 4,,15
 1725              		.global	sendto
 1726              		.thumb
 1727              		.thumb_func
 1728              		.type	sendto, %function
 1729              	sendto:
 1730              	.LFB16:
 1731              		.loc 1 1103 0
 1732              		.cfi_startproc
 1733              		@ args = 8, pretend = 0, frame = 0
 1734              		@ frame_needed = 0, uses_anonymous_args = 0
 1735              	.LVL207:
 1736 0000 10B5     		push	{r4, lr}
 1737              	.LCFI31:
 1738              		.cfi_def_cfa_offset 8
 1739              		.cfi_offset 4, -8
 1740              		.cfi_offset 14, -4
 1741 0002 84B0     		sub	sp, sp, #16
 1742              	.LCFI32:
 1743              		.cfi_def_cfa_offset 24
 1744              		.loc 1 1103 0
 1745 0004 069C     		ldr	r4, [sp, #24]
 1746              		.loc 1 1104 0
 1747 0006 0094     		str	r4, [sp, #0]
 1748 0008 079C     		ldr	r4, [sp, #28]
 1749 000a 0194     		str	r4, [sp, #4]
 1750 000c 8324     		movs	r4, #131
 1751 000e 0294     		str	r4, [sp, #8]
 1752 0010 FFF7FEFF 		bl	simple_link_send
ARM GAS  C:\Users\Vergil\AppData\Local\Temp\ccDEKNDk.s 			page 32


 1753              	.LVL208:
 1754              		.loc 1 1105 0
 1755 0014 04B0     		add	sp, sp, #16
 1756 0016 10BD     		pop	{r4, pc}
 1757              		.cfi_endproc
 1758              	.LFE16:
 1759              		.size	sendto, .-sendto
 1760 0018 AFF30080 		.section	.text.mdnsAdvertiser,"ax",%progbits
 1760      AFF30080 
 1761              		.align	2
 1762              		.p2align 4,,15
 1763              		.global	mdnsAdvertiser
 1764              		.thumb
 1765              		.thumb_func
 1766              		.type	mdnsAdvertiser, %function
 1767              	mdnsAdvertiser:
 1768              	.LFB17:
 1769              		.loc 1 1125 0
 1770              		.cfi_startproc
 1771              		@ args = 0, pretend = 0, frame = 8
 1772              		@ frame_needed = 0, uses_anonymous_args = 0
 1773              	.LVL209:
 1774 0000 F0B5     		push	{r4, r5, r6, r7, lr}
 1775              	.LCFI33:
 1776              		.cfi_def_cfa_offset 20
 1777              		.cfi_offset 4, -20
 1778              		.cfi_offset 5, -16
 1779              		.cfi_offset 6, -12
 1780              		.cfi_offset 7, -8
 1781              		.cfi_offset 14, -4
 1782              		.loc 1 1129 0
 1783 0002 202A     		cmp	r2, #32
 1784              		.loc 1 1125 0
 1785 0004 83B0     		sub	sp, sp, #12
 1786              	.LCFI34:
 1787              		.cfi_def_cfa_offset 32
 1788              		.loc 1 1125 0
 1789 0006 1546     		mov	r5, r2
 1790 0008 0E46     		mov	r6, r1
 1791              		.loc 1 1129 0
 1792 000a 37D8     		bhi	.L143
 1793              		.loc 1 1134 0
 1794 000c 1D4B     		ldr	r3, .L152
 1795 000e 9F68     		ldr	r7, [r3, #8]
 1796              	.LVL210:
 1797              		.loc 1 1138 0
 1798 0010 0146     		mov	r1, r0
 1799              	.LVL211:
 1800 0012 07F10900 		add	r0, r7, #9
 1801              	.LVL212:
 1802 0016 FFF7FEFF 		bl	UINT32_TO_STREAM_f
 1803              	.LVL213:
 1804              		.loc 1 1139 0
 1805 001a 0821     		movs	r1, #8
 1806 001c FFF7FEFF 		bl	UINT32_TO_STREAM_f
 1807              	.LVL214:
 1808              		.loc 1 1140 0
ARM GAS  C:\Users\Vergil\AppData\Local\Temp\ccDEKNDk.s 			page 33


 1809 0020 2946     		mov	r1, r5
 1810 0022 FFF7FEFF 		bl	UINT32_TO_STREAM_f
 1811              	.LVL215:
 1812              	.LBB21:
 1813              		.loc 1 1141 0
 1814 0026 ADB1     		cbz	r5, .L142
 1815 0028 0123     		movs	r3, #1
 1816 002a 3178     		ldrb	r1, [r6, #0]	@ zero_extendqisi2
 1817 002c 6A1E     		subs	r2, r5, #1
 1818 002e AB42     		cmp	r3, r5
 1819 0030 0170     		strb	r1, [r0, #0]
 1820              	.LVL216:
 1821 0032 02EA0302 		and	r2, r2, r3
 1822 0036 0DDA     		bge	.L142
 1823 0038 22B1     		cbz	r2, .L141
 1824 003a 7178     		ldrb	r1, [r6, #1]	@ zero_extendqisi2
 1825 003c 0223     		movs	r3, #2
 1826 003e AB42     		cmp	r3, r5
 1827 0040 4170     		strb	r1, [r0, #1]
 1828 0042 07DA     		bge	.L142
 1829              	.L141:
 1830              		.loc 1 1141 0 is_stmt 0 discriminator 2
 1831 0044 F25C     		ldrb	r2, [r6, r3]	@ zero_extendqisi2
 1832 0046 5C1C     		adds	r4, r3, #1
 1833 0048 C254     		strb	r2, [r0, r3]
 1834 004a 0233     		adds	r3, r3, #2
 1835 004c 315D     		ldrb	r1, [r6, r4]	@ zero_extendqisi2
 1836 004e AB42     		cmp	r3, r5
 1837 0050 0155     		strb	r1, [r0, r4]
 1838 0052 F7DB     		blt	.L141
 1839              	.L142:
 1840              	.LBE21:
 1841              		.loc 1 1144 0 is_stmt 1
 1842 0054 05F10C00 		add	r0, r5, #12
 1843 0058 C2B2     		uxtb	r2, r0
 1844 005a 3946     		mov	r1, r7
 1845 005c 41F21100 		movw	r0, #4113
 1846 0060 FFF7FEFF 		bl	hci_command_send
 1847              	.LVL217:
 1848              		.loc 1 1147 0
 1849 0064 41F21100 		movw	r0, #4113
 1850 0068 0DF10701 		add	r1, sp, #7
 1851 006c FFF7FEFF 		bl	SimpleLinkWaitEvent
 1852              	.LVL218:
 1853              		.loc 1 1149 0
 1854 0070 9DF90730 		ldrsb	r3, [sp, #7]
 1855              	.LVL219:
 1856 0074 9AB2     		uxth	r2, r3
 1857              	.LVL220:
 1858              	.L140:
 1859              		.loc 1 1151 0
 1860 0076 10B2     		sxth	r0, r2
 1861 0078 03B0     		add	sp, sp, #12
 1862 007a F0BD     		pop	{r4, r5, r6, r7, pc}
 1863              	.LVL221:
 1864              	.L143:
 1865              		.loc 1 1131 0
ARM GAS  C:\Users\Vergil\AppData\Local\Temp\ccDEKNDk.s 			page 34


 1866 007c 4FF6FF72 		movw	r2, #65535
 1867              	.LVL222:
 1868 0080 F9E7     		b	.L140
 1869              	.L153:
 1870 0082 00BF     		.align	2
 1871              	.L152:
 1872 0084 00000000 		.word	tSLInformation
 1873              		.cfi_endproc
 1874              	.LFE17:
 1875              		.size	mdnsAdvertiser, .-mdnsAdvertiser
 1876 0088 AFF30080 		.section	.text.getmssvalue,"ax",%progbits
 1876      AFF30080 
 1877              		.align	2
 1878              		.p2align 4,,15
 1879              		.global	getmssvalue
 1880              		.thumb
 1881              		.thumb_func
 1882              		.type	getmssvalue, %function
 1883              	getmssvalue:
 1884              	.LFB18:
 1885              		.loc 1 1166 0
 1886              		.cfi_startproc
 1887              		@ args = 0, pretend = 0, frame = 8
 1888              		@ frame_needed = 0, uses_anonymous_args = 0
 1889              	.LVL223:
 1890 0000 10B5     		push	{r4, lr}
 1891              	.LCFI35:
 1892              		.cfi_def_cfa_offset 8
 1893              		.cfi_offset 4, -8
 1894              		.cfi_offset 14, -4
 1895              		.loc 1 1170 0
 1896 0002 40F20003 		movw	r3, #:lower16:tSLInformation
 1897 0006 C0F20003 		movt	r3, #:upper16:tSLInformation
 1898              		.loc 1 1166 0
 1899 000a 82B0     		sub	sp, sp, #8
 1900              	.LCFI36:
 1901              		.cfi_def_cfa_offset 16
 1902              		.loc 1 1170 0
 1903 000c 9C68     		ldr	r4, [r3, #8]
 1904              	.LVL224:
 1905              		.loc 1 1166 0
 1906 000e 0146     		mov	r1, r0
 1907              		.loc 1 1174 0
 1908 0010 04F10900 		add	r0, r4, #9
 1909              	.LVL225:
 1910 0014 FFF7FEFF 		bl	UINT32_TO_STREAM_f
 1911              	.LVL226:
 1912              		.loc 1 1177 0
 1913 0018 2146     		mov	r1, r4
 1914 001a 0422     		movs	r2, #4
 1915 001c 41F21200 		movw	r0, #4114
 1916 0020 FFF7FEFF 		bl	hci_command_send
 1917              	.LVL227:
 1918              		.loc 1 1180 0
 1919 0024 41F21200 		movw	r0, #4114
 1920 0028 0DF10601 		add	r1, sp, #6
 1921 002c FFF7FEFF 		bl	SimpleLinkWaitEvent
ARM GAS  C:\Users\Vergil\AppData\Local\Temp\ccDEKNDk.s 			page 35


 1922              	.LVL228:
 1923              		.loc 1 1183 0
 1924 0030 BDF80600 		ldrh	r0, [sp, #6]
 1925 0034 02B0     		add	sp, sp, #8
 1926 0036 10BD     		pop	{r4, pc}
 1927              		.cfi_endproc
 1928              	.LFE18:
 1929              		.size	getmssvalue, .-getmssvalue
 1930 0038 AFF30080 		.text
 1930      AFF30080 
 1931              	.Letext0:
 1932              		.file 2 "C:\\Users\\Vergil\\ChibiOS_CC3000_SPI/CC3000HostDriver/data_types.h"
 1933              		.file 3 "C:\\Users\\Vergil\\ChibiOS_CC3000_SPI/CC3000HostDriver/cc3000_common.h"
 1934              		.file 4 "C:\\Users\\Vergil\\ChibiOS_CC3000_SPI/CC3000HostDriver/socket.h"
 1935              		.file 5 "C:\\Users\\Vergil\\ChibiOS_CC3000_SPI/CC3000HostDriver/evnt_handler.h"
 1936              		.file 6 "C:\\Users\\Vergil\\ChibiOS_CC3000_SPI/CC3000HostDriver/hci.h"
 1937              		.file 7 "c:\\chibistudio\\tools\\gnu tools arm embedded\\4.7 2014q2\\bin\\../lib/gcc/arm-none-eabi