ARM GAS  C:\Users\Vergil\AppData\Local\Temp\ccNro7AK.s 			page 1


   1              		.syntax unified
   2              		.cpu cortex-m4
   3              		.eabi_attribute 27, 3
   4              		.eabi_attribute 28, 1
   5              		.fpu fpv4-sp-d16
   6              		.eabi_attribute 20, 1
   7              		.eabi_attribute 21, 1
   8              		.eabi_attribute 23, 3
   9              		.eabi_attribute 24, 1
  10              		.eabi_attribute 25, 1
  11              		.eabi_attribute 26, 1
  12              		.eabi_attribute 30, 2
  13              		.eabi_attribute 34, 1
  14              		.eabi_attribute 18, 4
  15              		.thumb
  16              		.file	"testmtx.c"
  17              		.text
  18              	.Ltext0:
  19              		.cfi_sections	.debug_frame
  20              		.section	.text.mtx8_execute,"ax",%progbits
  21              		.align	2
  22              		.p2align 4,,15
  23              		.thumb
  24              		.thumb_func
  25              		.type	mtx8_execute, %function
  26              	mtx8_execute:
  27              	.LFB36:
  28              		.file 1 "../../test/testmtx.c"
  29              		.loc 1 596 0
  30              		.cfi_startproc
  31              		@ args = 0, pretend = 0, frame = 0
  32              		@ frame_needed = 0, uses_anonymous_args = 0
  33 0000 F0B5     		push	{r4, r5, r6, r7, lr}
  34              	.LCFI0:
  35              		.cfi_def_cfa_offset 20
  36              		.cfi_offset 4, -20
  37              		.cfi_offset 5, -16
  38              		.cfi_offset 6, -12
  39              		.cfi_offset 7, -8
  40              		.cfi_offset 14, -4
  41              		.loc 1 598 0
  42 0002 40F20003 		movw	r3, #:lower16:rlist
  43 0006 C0F20003 		movt	r3, #:upper16:rlist
  44              		.loc 1 599 0
  45 000a 40F20005 		movw	r5, #:lower16:wa
  46              		.loc 1 598 0
  47 000e 9969     		ldr	r1, [r3, #24]
  48              		.loc 1 596 0
  49 0010 83B0     		sub	sp, sp, #12
  50              	.LCFI1:
  51              		.cfi_def_cfa_offset 32
  52              		.loc 1 598 0
  53 0012 8E68     		ldr	r6, [r1, #8]
  54              	.LVL0:
  55              		.loc 1 599 0
  56 0014 C0F20005 		movt	r5, #:upper16:wa
  57 0018 40F20004 		movw	r4, #:lower16:.LC0
ARM GAS  C:\Users\Vergil\AppData\Local\Temp\ccNro7AK.s 			page 2


  58 001c C0F20004 		movt	r4, #:upper16:.LC0
  59 0020 40F20003 		movw	r3, #:lower16:thread11
  60 0024 721C     		adds	r2, r6, #1
  61 0026 0094     		str	r4, [sp, #0]
  62 0028 2868     		ldr	r0, [r5, #0]
  63 002a 4FF4EC71 		mov	r1, #472
  64 002e C0F20003 		movt	r3, #:upper16:thread11
  65 0032 FFF7FEFF 		bl	chThdCreateStatic
  66              	.LVL1:
  67 0036 40F20004 		movw	r4, #:lower16:threads
  68 003a C0F20004 		movt	r4, #:upper16:threads
  69              		.loc 1 600 0
  70 003e 6F68     		ldr	r7, [r5, #4]
  71              		.loc 1 599 0
  72 0040 2060     		str	r0, [r4, #0]
  73              		.loc 1 600 0
  74 0042 40F20000 		movw	r0, #:lower16:.LC1
  75 0046 C0F20000 		movt	r0, #:upper16:.LC1
  76 004a 40F20003 		movw	r3, #:lower16:thread10
  77 004e B21C     		adds	r2, r6, #2
  78 0050 0090     		str	r0, [sp, #0]
  79 0052 4FF4EC71 		mov	r1, #472
  80 0056 C0F20003 		movt	r3, #:upper16:thread10
  81 005a 3846     		mov	r0, r7
  82 005c FFF7FEFF 		bl	chThdCreateStatic
  83              	.LVL2:
  84              		.loc 1 601 0
  85 0060 AD68     		ldr	r5, [r5, #8]
  86              		.loc 1 600 0
  87 0062 6060     		str	r0, [r4, #4]
  88              		.loc 1 601 0
  89 0064 40F20000 		movw	r0, #:lower16:.LC2
  90 0068 C0F20000 		movt	r0, #:upper16:.LC2
  91 006c 40F20003 		movw	r3, #:lower16:thread12
  92 0070 4FF4EC71 		mov	r1, #472
  93 0074 F21C     		adds	r2, r6, #3
  94 0076 C0F20003 		movt	r3, #:upper16:thread12
  95 007a 0090     		str	r0, [sp, #0]
  96 007c 2846     		mov	r0, r5
  97 007e FFF7FEFF 		bl	chThdCreateStatic
  98              	.LVL3:
  99              		.loc 1 602 0
 100 0082 40F20005 		movw	r5, #:lower16:.LANCHOR0
 101 0086 C0F20005 		movt	r5, #:upper16:.LANCHOR0
 102              		.loc 1 601 0
 103 008a A060     		str	r0, [r4, #8]
 104              		.loc 1 602 0
 105 008c 2846     		mov	r0, r5
 106 008e FFF7FEFF 		bl	chCondSignal
 107              	.LVL4:
 108              		.loc 1 603 0
 109 0092 2846     		mov	r0, r5
 110 0094 FFF7FEFF 		bl	chCondSignal
 111              	.LVL5:
 112              		.loc 1 604 0
 113 0098 FFF7FEFF 		bl	test_wait_threads
 114              	.LVL6:
ARM GAS  C:\Users\Vergil\AppData\Local\Temp\ccNro7AK.s 			page 3


 115              		.loc 1 605 0
 116 009c 40F20001 		movw	r1, #:lower16:.LC3
 117 00a0 0120     		movs	r0, #1
 118 00a2 C0F20001 		movt	r1, #:upper16:.LC3
 119              		.loc 1 606 0
 120 00a6 03B0     		add	sp, sp, #12
 121 00a8 BDE8F040 		pop	{r4, r5, r6, r7, lr}
 122              		.loc 1 605 0
 123 00ac FFF7FEBF 		b	_test_assert_sequence
 124              	.LVL7:
 125              		.cfi_endproc
 126              	.LFE36:
 127              		.size	mtx8_execute, .-mtx8_execute
 128              		.section	.text.thread12,"ax",%progbits
 129              		.align	2
 130              		.p2align 4,,15
 131              		.thumb
 132              		.thumb_func
 133              		.type	thread12, %function
 134              	thread12:
 135              	.LFB35:
 136              		.loc 1 588 0
 137              		.cfi_startproc
 138              		@ args = 0, pretend = 0, frame = 0
 139              		@ frame_needed = 0, uses_anonymous_args = 0
 140              	.LVL8:
 141 0000 10B5     		push	{r4, lr}
 142              	.LCFI2:
 143              		.cfi_def_cfa_offset 8
 144              		.cfi_offset 4, -8
 145              		.cfi_offset 14, -4
 146              		.loc 1 588 0
 147 0002 0446     		mov	r4, r0
 148              		.loc 1 590 0
 149 0004 40F20000 		movw	r0, #:lower16:.LANCHOR1
 150              	.LVL9:
 151 0008 C0F20000 		movt	r0, #:upper16:.LANCHOR1
 152 000c FFF7FEFF 		bl	chMtxLock
 153              	.LVL10:
 154              		.loc 1 591 0
 155 0010 2078     		ldrb	r0, [r4, #0]	@ zero_extendqisi2
 156 0012 FFF7FEFF 		bl	test_emit_token
 157              	.LVL11:
 158              		.loc 1 592 0
 159 0016 FFF7FEFF 		bl	chMtxUnlock
 160              	.LVL12:
 161              		.loc 1 594 0
 162 001a 0020     		movs	r0, #0
 163 001c 10BD     		pop	{r4, pc}
 164              		.cfi_endproc
 165              	.LFE35:
 166              		.size	thread12, .-thread12
 167 001e 00BF     		.section	.text.thread1,"ax",%progbits
 168              		.align	2
 169              		.p2align 4,,15
 170              		.thumb
 171              		.thumb_func
ARM GAS  C:\Users\Vergil\AppData\Local\Temp\ccNro7AK.s 			page 4


 172              		.type	thread1, %function
 173              	thread1:
 174              	.LFB8:
 175              		.loc 1 89 0
 176              		.cfi_startproc
 177              		@ args = 0, pretend = 0, frame = 0
 178              		@ frame_needed = 0, uses_anonymous_args = 0
 179              	.LVL13:
 180 0000 10B5     		push	{r4, lr}
 181              	.LCFI3:
 182              		.cfi_def_cfa_offset 8
 183              		.cfi_offset 4, -8
 184              		.cfi_offset 14, -4
 185              		.loc 1 89 0
 186 0002 0446     		mov	r4, r0
 187              		.loc 1 91 0
 188 0004 40F20000 		movw	r0, #:lower16:.LANCHOR2
 189              	.LVL14:
 190 0008 C0F20000 		movt	r0, #:upper16:.LANCHOR2
 191 000c FFF7FEFF 		bl	chMtxLock
 192              	.LVL15:
 193              		.loc 1 92 0
 194 0010 2078     		ldrb	r0, [r4, #0]	@ zero_extendqisi2
 195 0012 FFF7FEFF 		bl	test_emit_token
 196              	.LVL16:
 197              		.loc 1 93 0
 198 0016 FFF7FEFF 		bl	chMtxUnlock
 199              	.LVL17:
 200              		.loc 1 95 0
 201 001a 0020     		movs	r0, #0
 202 001c 10BD     		pop	{r4, pc}
 203              		.cfi_endproc
 204              	.LFE8:
 205              		.size	thread1, .-thread1
 206 001e 00BF     		.section	.text.thread10,"ax",%progbits
 207              		.align	2
 208              		.p2align 4,,15
 209              		.thumb
 210              		.thumb_func
 211              		.type	thread10, %function
 212              	thread10:
 213              	.LFB29:
 214              		.loc 1 485 0
 215              		.cfi_startproc
 216              		@ args = 0, pretend = 0, frame = 0
 217              		@ frame_needed = 0, uses_anonymous_args = 0
 218              	.LVL18:
 219 0000 10B5     		push	{r4, lr}
 220              	.LCFI4:
 221              		.cfi_def_cfa_offset 8
 222              		.cfi_offset 4, -8
 223              		.cfi_offset 14, -4
 224              		.loc 1 485 0
 225 0002 0446     		mov	r4, r0
 226              		.loc 1 487 0
 227 0004 40F20000 		movw	r0, #:lower16:.LANCHOR2
 228              	.LVL19:
ARM GAS  C:\Users\Vergil\AppData\Local\Temp\ccNro7AK.s 			page 5


 229 0008 C0F20000 		movt	r0, #:upper16:.LANCHOR2
 230 000c FFF7FEFF 		bl	chMtxLock
 231              	.LVL20:
 232              		.loc 1 488 0
 233 0010 40F20000 		movw	r0, #:lower16:.LANCHOR0
 234 0014 C0F20000 		movt	r0, #:upper16:.LANCHOR0
 235 0018 FFF7FEFF 		bl	chCondWait
 236              	.LVL21:
 237              		.loc 1 489 0
 238 001c 2078     		ldrb	r0, [r4, #0]	@ zero_extendqisi2
 239 001e FFF7FEFF 		bl	test_emit_token
 240              	.LVL22:
 241              		.loc 1 490 0
 242 0022 FFF7FEFF 		bl	chMtxUnlock
 243              	.LVL23:
 244              		.loc 1 492 0
 245 0026 0020     		movs	r0, #0
 246 0028 10BD     		pop	{r4, pc}
 247              		.cfi_endproc
 248              	.LFE29:
 249              		.size	thread10, .-thread10
 250 002a 00BFAFF3 		.section	.text.thread11,"ax",%progbits
 250      0080
 251              		.align	2
 252              		.p2align 4,,15
 253              		.thumb
 254              		.thumb_func
 255              		.type	thread11, %function
 256              	thread11:
 257              	.LFB34:
 258              		.loc 1 573 0
 259              		.cfi_startproc
 260              		@ args = 0, pretend = 0, frame = 0
 261              		@ frame_needed = 0, uses_anonymous_args = 0
 262              	.LVL24:
 263 0000 10B5     		push	{r4, lr}
 264              	.LCFI5:
 265              		.cfi_def_cfa_offset 8
 266              		.cfi_offset 4, -8
 267              		.cfi_offset 14, -4
 268              		.loc 1 573 0
 269 0002 0446     		mov	r4, r0
 270              		.loc 1 575 0
 271 0004 40F20000 		movw	r0, #:lower16:.LANCHOR1
 272              	.LVL25:
 273 0008 C0F20000 		movt	r0, #:upper16:.LANCHOR1
 274 000c FFF7FEFF 		bl	chMtxLock
 275              	.LVL26:
 276              		.loc 1 576 0
 277 0010 40F20000 		movw	r0, #:lower16:.LANCHOR2
 278 0014 C0F20000 		movt	r0, #:upper16:.LANCHOR2
 279 0018 FFF7FEFF 		bl	chMtxLock
 280              	.LVL27:
 281              		.loc 1 578 0
 282 001c 40F20000 		movw	r0, #:lower16:.LANCHOR0
 283 0020 4FF0FF31 		mov	r1, #-1
 284 0024 C0F20000 		movt	r0, #:upper16:.LANCHOR0
ARM GAS  C:\Users\Vergil\AppData\Local\Temp\ccNro7AK.s 			page 6


 285 0028 FFF7FEFF 		bl	chCondWaitTimeout
 286              	.LVL28:
 287              		.loc 1 582 0
 288 002c 2078     		ldrb	r0, [r4, #0]	@ zero_extendqisi2
 289 002e FFF7FEFF 		bl	test_emit_token
 290              	.LVL29:
 291              		.loc 1 583 0
 292 0032 FFF7FEFF 		bl	chMtxUnlock
 293              	.LVL30:
 294              		.loc 1 584 0
 295 0036 FFF7FEFF 		bl	chMtxUnlock
 296              	.LVL31:
 297              		.loc 1 586 0
 298 003a 0020     		movs	r0, #0
 299 003c 10BD     		pop	{r4, pc}
 300              		.cfi_endproc
 301              	.LFE34:
 302              		.size	thread11, .-thread11
 303 003e 00BF     		.section	.text.mtx8_setup,"ax",%progbits
 304              		.align	2
 305              		.p2align 4,,15
 306              		.thumb
 307              		.thumb_func
 308              		.type	mtx8_setup, %function
 309              	mtx8_setup:
 310              	.LFB33:
 311              		.loc 1 566 0
 312              		.cfi_startproc
 313              		@ args = 0, pretend = 0, frame = 0
 314              		@ frame_needed = 0, uses_anonymous_args = 0
 315              		.loc 1 568 0
 316 0000 40F20000 		movw	r0, #:lower16:.LANCHOR0
 317              		.loc 1 566 0
 318 0004 08B5     		push	{r3, lr}
 319              	.LCFI6:
 320              		.cfi_def_cfa_offset 8
 321              		.cfi_offset 3, -8
 322              		.cfi_offset 14, -4
 323              		.loc 1 568 0
 324 0006 C0F20000 		movt	r0, #:upper16:.LANCHOR0
 325 000a FFF7FEFF 		bl	chCondInit
 326              	.LVL32:
 327              		.loc 1 569 0
 328 000e 40F20000 		movw	r0, #:lower16:.LANCHOR2
 329 0012 C0F20000 		movt	r0, #:upper16:.LANCHOR2
 330 0016 FFF7FEFF 		bl	chMtxInit
 331              	.LVL33:
 332              		.loc 1 570 0
 333 001a 40F20000 		movw	r0, #:lower16:.LANCHOR1
 334 001e C0F20000 		movt	r0, #:upper16:.LANCHOR1
 335              		.loc 1 571 0
 336 0022 BDE80840 		pop	{r3, lr}
 337              		.loc 1 570 0
 338 0026 FFF7FEBF 		b	chMtxInit
 339              	.LVL34:
 340              		.cfi_endproc
 341              	.LFE33:
ARM GAS  C:\Users\Vergil\AppData\Local\Temp\ccNro7AK.s 			page 7


 342              		.size	mtx8_setup, .-mtx8_setup
 343 002a 00BFAFF3 		.section	.text.mtx7_setup,"ax",%progbits
 343      0080
 344              		.align	2
 345              		.p2align 4,,15
 346              		.thumb
 347              		.thumb_func
 348              		.type	mtx7_setup, %function
 349              	mtx7_setup:
 350              	.LFB31:
 351              		.loc 1 531 0
 352              		.cfi_startproc
 353              		@ args = 0, pretend = 0, frame = 0
 354              		@ frame_needed = 0, uses_anonymous_args = 0
 355 0000 08B5     		push	{r3, lr}
 356              	.LCFI7:
 357              		.cfi_def_cfa_offset 8
 358              		.cfi_offset 3, -8
 359              		.cfi_offset 14, -4
 360              		.loc 1 533 0
 361 0002 40F20000 		movw	r0, #:lower16:.LANCHOR0
 362 0006 C0F20000 		movt	r0, #:upper16:.LANCHOR0
 363 000a FFF7FEFF 		bl	chCondInit
 364              	.LVL35:
 365              		.loc 1 534 0
 366 000e 40F20000 		movw	r0, #:lower16:.LANCHOR2
 367 0012 C0F20000 		movt	r0, #:upper16:.LANCHOR2
 368              		.loc 1 535 0
 369 0016 BDE80840 		pop	{r3, lr}
 370              		.loc 1 534 0
 371 001a FFF7FEBF 		b	chMtxInit
 372              	.LVL36:
 373              		.cfi_endproc
 374              	.LFE31:
 375              		.size	mtx7_setup, .-mtx7_setup
 376 001e 00BF     		.section	.text.mtx6_setup,"ax",%progbits
 377              		.align	2
 378              		.p2align 4,,15
 379              		.thumb
 380              		.thumb_func
 381              		.type	mtx6_setup, %function
 382              	mtx6_setup:
 383              	.LFB28:
 384              		.loc 1 479 0
 385              		.cfi_startproc
 386              		@ args = 0, pretend = 0, frame = 0
 387              		@ frame_needed = 0, uses_anonymous_args = 0
 388 0000 08B5     		push	{r3, lr}
 389              	.LCFI8:
 390              		.cfi_def_cfa_offset 8
 391              		.cfi_offset 3, -8
 392              		.cfi_offset 14, -4
 393              		.loc 1 481 0
 394 0002 40F20000 		movw	r0, #:lower16:.LANCHOR0
 395 0006 C0F20000 		movt	r0, #:upper16:.LANCHOR0
 396 000a FFF7FEFF 		bl	chCondInit
 397              	.LVL37:
ARM GAS  C:\Users\Vergil\AppData\Local\Temp\ccNro7AK.s 			page 8


 398              		.loc 1 482 0
 399 000e 40F20000 		movw	r0, #:lower16:.LANCHOR2
 400 0012 C0F20000 		movt	r0, #:upper16:.LANCHOR2
 401              		.loc 1 483 0
 402 0016 BDE80840 		pop	{r3, lr}
 403              		.loc 1 482 0
 404 001a FFF7FEBF 		b	chMtxInit
 405              	.LVL38:
 406              		.cfi_endproc
 407              	.LFE28:
 408              		.size	mtx6_setup, .-mtx6_setup
 409 001e 00BF     		.section	.text.mtx5_setup,"ax",%progbits
 410              		.align	2
 411              		.p2align 4,,15
 412              		.thumb
 413              		.thumb_func
 414              		.type	mtx5_setup, %function
 415              	mtx5_setup:
 416              	.LFB26:
 417              		.loc 1 429 0
 418              		.cfi_startproc
 419              		@ args = 0, pretend = 0, frame = 0
 420              		@ frame_needed = 0, uses_anonymous_args = 0
 421              		@ link register save eliminated.
 422              		.loc 1 431 0
 423 0000 40F20000 		movw	r0, #:lower16:.LANCHOR2
 424 0004 C0F20000 		movt	r0, #:upper16:.LANCHOR2
 425              		.loc 1 432 0
 426              		.loc 1 431 0
 427 0008 FFF7FEBF 		b	chMtxInit
 428              	.LVL39:
 429              		.cfi_endproc
 430              	.LFE26:
 431              		.size	mtx5_setup, .-mtx5_setup
 432 000c AFF30080 		.section	.text.mtx4_setup,"ax",%progbits
 433              		.align	2
 434              		.p2align 4,,15
 435              		.thumb
 436              		.thumb_func
 437              		.type	mtx4_setup, %function
 438              	mtx4_setup:
 439              	.LFB22:
 440              		.loc 1 341 0
 441              		.cfi_startproc
 442              		@ args = 0, pretend = 0, frame = 0
 443              		@ frame_needed = 0, uses_anonymous_args = 0
 444 0000 08B5     		push	{r3, lr}
 445              	.LCFI9:
 446              		.cfi_def_cfa_offset 8
 447              		.cfi_offset 3, -8
 448              		.cfi_offset 14, -4
 449              		.loc 1 343 0
 450 0002 40F20000 		movw	r0, #:lower16:.LANCHOR2
 451 0006 C0F20000 		movt	r0, #:upper16:.LANCHOR2
 452 000a FFF7FEFF 		bl	chMtxInit
 453              	.LVL40:
 454              		.loc 1 344 0
ARM GAS  C:\Users\Vergil\AppData\Local\Temp\ccNro7AK.s 			page 9


 455 000e 40F20000 		movw	r0, #:lower16:.LANCHOR1
 456 0012 C0F20000 		movt	r0, #:upper16:.LANCHOR1
 457              		.loc 1 345 0
 458 0016 BDE80840 		pop	{r3, lr}
 459              		.loc 1 344 0
 460 001a FFF7FEBF 		b	chMtxInit
 461              	.LVL41:
 462              		.cfi_endproc
 463              	.LFE22:
 464              		.size	mtx4_setup, .-mtx4_setup
 465 001e 00BF     		.section	.text.mtx3_setup,"ax",%progbits
 466              		.align	2
 467              		.p2align 4,,15
 468              		.thumb
 469              		.thumb_func
 470              		.type	mtx3_setup, %function
 471              	mtx3_setup:
 472              	.LFB15:
 473              		.loc 1 241 0
 474              		.cfi_startproc
 475              		@ args = 0, pretend = 0, frame = 0
 476              		@ frame_needed = 0, uses_anonymous_args = 0
 477 0000 08B5     		push	{r3, lr}
 478              	.LCFI10:
 479              		.cfi_def_cfa_offset 8
 480              		.cfi_offset 3, -8
 481              		.cfi_offset 14, -4
 482              		.loc 1 243 0
 483 0002 40F20000 		movw	r0, #:lower16:.LANCHOR2
 484 0006 C0F20000 		movt	r0, #:upper16:.LANCHOR2
 485 000a FFF7FEFF 		bl	chMtxInit
 486              	.LVL42:
 487              		.loc 1 244 0
 488 000e 40F20000 		movw	r0, #:lower16:.LANCHOR1
 489 0012 C0F20000 		movt	r0, #:upper16:.LANCHOR1
 490              		.loc 1 245 0
 491 0016 BDE80840 		pop	{r3, lr}
 492              		.loc 1 244 0
 493 001a FFF7FEBF 		b	chMtxInit
 494              	.LVL43:
 495              		.cfi_endproc
 496              	.LFE15:
 497              		.size	mtx3_setup, .-mtx3_setup
 498 001e 00BF     		.section	.text.mtx2_setup,"ax",%progbits
 499              		.align	2
 500              		.p2align 4,,15
 501              		.thumb
 502              		.thumb_func
 503              		.type	mtx2_setup, %function
 504              	mtx2_setup:
 505              	.LFB10:
 506              		.loc 1 151 0
 507              		.cfi_startproc
 508              		@ args = 0, pretend = 0, frame = 0
 509              		@ frame_needed = 0, uses_anonymous_args = 0
 510              		@ link register save eliminated.
 511              		.loc 1 153 0
ARM GAS  C:\Users\Vergil\AppData\Local\Temp\ccNro7AK.s 			page 10


 512 0000 40F20000 		movw	r0, #:lower16:.LANCHOR2
 513 0004 C0F20000 		movt	r0, #:upper16:.LANCHOR2
 514              		.loc 1 154 0
 515              		.loc 1 153 0
 516 0008 FFF7FEBF 		b	chMtxInit
 517              	.LVL44:
 518              		.cfi_endproc
 519              	.LFE10:
 520              		.size	mtx2_setup, .-mtx2_setup
 521 000c AFF30080 		.section	.text.mtx1_setup,"ax",%progbits
 522              		.align	2
 523              		.p2align 4,,15
 524              		.thumb
 525              		.thumb_func
 526              		.type	mtx1_setup, %function
 527              	mtx1_setup:
 528              	.LFB7:
 529              		.loc 1 84 0
 530              		.cfi_startproc
 531              		@ args = 0, pretend = 0, frame = 0
 532              		@ frame_needed = 0, uses_anonymous_args = 0
 533              		@ link register save eliminated.
 534              		.loc 1 86 0
 535 0000 40F20000 		movw	r0, #:lower16:.LANCHOR2
 536 0004 C0F20000 		movt	r0, #:upper16:.LANCHOR2
 537              		.loc 1 87 0
 538              		.loc 1 86 0
 539 0008 FFF7FEBF 		b	chMtxInit
 540              	.LVL45:
 541              		.cfi_endproc
 542              	.LFE7:
 543              		.size	mtx1_setup, .-mtx1_setup
 544 000c AFF30080 		.section	.text.mtx7_execute,"ax",%progbits
 545              		.align	2
 546              		.p2align 4,,15
 547              		.thumb
 548              		.thumb_func
 549              		.type	mtx7_execute, %function
 550              	mtx7_execute:
 551              	.LFB32:
 552              		.loc 1 537 0
 553              		.cfi_startproc
 554              		@ args = 0, pretend = 0, frame = 0
 555              		@ frame_needed = 0, uses_anonymous_args = 0
 556 0000 F0B5     		push	{r4, r5, r6, r7, lr}
 557              	.LCFI11:
 558              		.cfi_def_cfa_offset 20
 559              		.cfi_offset 4, -20
 560              		.cfi_offset 5, -16
 561              		.cfi_offset 6, -12
 562              		.cfi_offset 7, -8
 563              		.cfi_offset 14, -4
 564              		.loc 1 539 0
 565 0002 40F20003 		movw	r3, #:lower16:rlist
 566 0006 C0F20003 		movt	r3, #:upper16:rlist
 567              		.loc 1 540 0
 568 000a 40F20006 		movw	r6, #:lower16:wa
ARM GAS  C:\Users\Vergil\AppData\Local\Temp\ccNro7AK.s 			page 11


 569              		.loc 1 539 0
 570 000e 9969     		ldr	r1, [r3, #24]
 571              		.loc 1 537 0
 572 0010 83B0     		sub	sp, sp, #12
 573              	.LCFI12:
 574              		.cfi_def_cfa_offset 32
 575              		.loc 1 539 0
 576 0012 8F68     		ldr	r7, [r1, #8]
 577              	.LVL46:
 578              		.loc 1 540 0
 579 0014 C0F20006 		movt	r6, #:upper16:wa
 580 0018 40F20005 		movw	r5, #:lower16:thread10
 581 001c 40F20004 		movw	r4, #:lower16:.LC4
 582 0020 C0F20005 		movt	r5, #:upper16:thread10
 583 0024 C0F20004 		movt	r4, #:upper16:.LC4
 584 0028 7A1C     		adds	r2, r7, #1
 585 002a 2B46     		mov	r3, r5
 586 002c 0094     		str	r4, [sp, #0]
 587 002e 3068     		ldr	r0, [r6, #0]
 588 0030 4FF4EC71 		mov	r1, #472
 589 0034 FFF7FEFF 		bl	chThdCreateStatic
 590              	.LVL47:
 591 0038 40F20004 		movw	r4, #:lower16:threads
 592 003c C0F20004 		movt	r4, #:upper16:threads
 593              		.loc 1 541 0
 594 0040 BA1C     		adds	r2, r7, #2
 595              		.loc 1 540 0
 596 0042 2060     		str	r0, [r4, #0]
 597              		.loc 1 541 0
 598 0044 40F20000 		movw	r0, #:lower16:.LC5
 599 0048 C0F20000 		movt	r0, #:upper16:.LC5
 600 004c 2B46     		mov	r3, r5
 601 004e 0090     		str	r0, [sp, #0]
 602 0050 4FF4EC71 		mov	r1, #472
 603 0054 7068     		ldr	r0, [r6, #4]
 604 0056 FFF7FEFF 		bl	chThdCreateStatic
 605              	.LVL48:
 606 005a 6060     		str	r0, [r4, #4]
 607              		.loc 1 542 0
 608 005c 40F20000 		movw	r0, #:lower16:.LC1
 609 0060 C0F20000 		movt	r0, #:upper16:.LC1
 610 0064 FA1C     		adds	r2, r7, #3
 611 0066 2B46     		mov	r3, r5
 612 0068 0090     		str	r0, [sp, #0]
 613 006a 4FF4EC71 		mov	r1, #472
 614 006e B068     		ldr	r0, [r6, #8]
 615 0070 FFF7FEFF 		bl	chThdCreateStatic
 616              	.LVL49:
 617 0074 A060     		str	r0, [r4, #8]
 618              		.loc 1 543 0
 619 0076 40F20000 		movw	r0, #:lower16:.LC2
 620 007a C0F20000 		movt	r0, #:upper16:.LC2
 621 007e 3A1D     		adds	r2, r7, #4
 622 0080 2B46     		mov	r3, r5
 623 0082 0090     		str	r0, [sp, #0]
 624 0084 4FF4EC71 		mov	r1, #472
 625 0088 F068     		ldr	r0, [r6, #12]
ARM GAS  C:\Users\Vergil\AppData\Local\Temp\ccNro7AK.s 			page 12


 626 008a FFF7FEFF 		bl	chThdCreateStatic
 627              	.LVL50:
 628              		.loc 1 544 0
 629 008e 3669     		ldr	r6, [r6, #16]
 630              		.loc 1 543 0
 631 0090 E060     		str	r0, [r4, #12]
 632              		.loc 1 544 0
 633 0092 40F20000 		movw	r0, #:lower16:.LC0
 634 0096 C0F20000 		movt	r0, #:upper16:.LC0
 635 009a 4FF4EC71 		mov	r1, #472
 636 009e 7A1D     		adds	r2, r7, #5
 637 00a0 2B46     		mov	r3, r5
 638 00a2 0090     		str	r0, [sp, #0]
 639 00a4 3046     		mov	r0, r6
 640 00a6 FFF7FEFF 		bl	chThdCreateStatic
 641              	.LVL51:
 642 00aa 2061     		str	r0, [r4, #16]
 643              		.loc 1 545 0
 644 00ac 40F20000 		movw	r0, #:lower16:.LANCHOR0
 645 00b0 C0F20000 		movt	r0, #:upper16:.LANCHOR0
 646 00b4 FFF7FEFF 		bl	chCondBroadcast
 647              	.LVL52:
 648              		.loc 1 546 0
 649 00b8 FFF7FEFF 		bl	test_wait_threads
 650              	.LVL53:
 651              		.loc 1 547 0
 652 00bc 40F20001 		movw	r1, #:lower16:.LC6
 653 00c0 0120     		movs	r0, #1
 654 00c2 C0F20001 		movt	r1, #:upper16:.LC6
 655              		.loc 1 548 0
 656 00c6 03B0     		add	sp, sp, #12
 657 00c8 BDE8F040 		pop	{r4, r5, r6, r7, lr}
 658              		.loc 1 547 0
 659 00cc FFF7FEBF 		b	_test_assert_sequence
 660              	.LVL54:
 661              		.cfi_endproc
 662              	.LFE32:
 663              		.size	mtx7_execute, .-mtx7_execute
 664              		.section	.text.mtx6_execute,"ax",%progbits
 665              		.align	2
 666              		.p2align 4,,15
 667              		.thumb
 668              		.thumb_func
 669              		.type	mtx6_execute, %function
 670              	mtx6_execute:
 671              	.LFB30:
 672              		.loc 1 494 0
 673              		.cfi_startproc
 674              		@ args = 0, pretend = 0, frame = 0
 675              		@ frame_needed = 0, uses_anonymous_args = 0
 676 0000 F0B5     		push	{r4, r5, r6, r7, lr}
 677              	.LCFI13:
 678              		.cfi_def_cfa_offset 20
 679              		.cfi_offset 4, -20
 680              		.cfi_offset 5, -16
 681              		.cfi_offset 6, -12
 682              		.cfi_offset 7, -8
ARM GAS  C:\Users\Vergil\AppData\Local\Temp\ccNro7AK.s 			page 13


 683              		.cfi_offset 14, -4
 684              		.loc 1 496 0
 685 0002 40F20003 		movw	r3, #:lower16:rlist
 686 0006 C0F20003 		movt	r3, #:upper16:rlist
 687              		.loc 1 497 0
 688 000a 40F20006 		movw	r6, #:lower16:wa
 689              		.loc 1 496 0
 690 000e 9969     		ldr	r1, [r3, #24]
 691              		.loc 1 494 0
 692 0010 83B0     		sub	sp, sp, #12
 693              	.LCFI14:
 694              		.cfi_def_cfa_offset 32
 695              		.loc 1 496 0
 696 0012 8F68     		ldr	r7, [r1, #8]
 697              	.LVL55:
 698              		.loc 1 497 0
 699 0014 C0F20006 		movt	r6, #:upper16:wa
 700 0018 40F20005 		movw	r5, #:lower16:thread10
 701 001c 40F20004 		movw	r4, #:lower16:.LC4
 702 0020 C0F20005 		movt	r5, #:upper16:thread10
 703 0024 C0F20004 		movt	r4, #:upper16:.LC4
 704 0028 7A1C     		adds	r2, r7, #1
 705 002a 2B46     		mov	r3, r5
 706 002c 0094     		str	r4, [sp, #0]
 707 002e 3068     		ldr	r0, [r6, #0]
 708 0030 4FF4EC71 		mov	r1, #472
 709 0034 FFF7FEFF 		bl	chThdCreateStatic
 710              	.LVL56:
 711 0038 40F20004 		movw	r4, #:lower16:threads
 712 003c C0F20004 		movt	r4, #:upper16:threads
 713              		.loc 1 498 0
 714 0040 7168     		ldr	r1, [r6, #4]
 715              		.loc 1 497 0
 716 0042 2060     		str	r0, [r4, #0]
 717              		.loc 1 498 0
 718 0044 40F20000 		movw	r0, #:lower16:.LC5
 719 0048 C0F20000 		movt	r0, #:upper16:.LC5
 720 004c BA1C     		adds	r2, r7, #2
 721 004e 2B46     		mov	r3, r5
 722 0050 0090     		str	r0, [sp, #0]
 723 0052 0846     		mov	r0, r1
 724 0054 4FF4EC71 		mov	r1, #472
 725 0058 FFF7FEFF 		bl	chThdCreateStatic
 726              	.LVL57:
 727              		.loc 1 499 0
 728 005c B168     		ldr	r1, [r6, #8]
 729              		.loc 1 498 0
 730 005e 6060     		str	r0, [r4, #4]
 731              		.loc 1 499 0
 732 0060 40F20000 		movw	r0, #:lower16:.LC1
 733 0064 C0F20000 		movt	r0, #:upper16:.LC1
 734 0068 FA1C     		adds	r2, r7, #3
 735 006a 2B46     		mov	r3, r5
 736 006c 0090     		str	r0, [sp, #0]
 737 006e 0846     		mov	r0, r1
 738 0070 4FF4EC71 		mov	r1, #472
 739 0074 FFF7FEFF 		bl	chThdCreateStatic
ARM GAS  C:\Users\Vergil\AppData\Local\Temp\ccNro7AK.s 			page 14


 740              	.LVL58:
 741              		.loc 1 500 0
 742 0078 F168     		ldr	r1, [r6, #12]
 743              		.loc 1 499 0
 744 007a A060     		str	r0, [r4, #8]
 745              		.loc 1 500 0
 746 007c 40F20000 		movw	r0, #:lower16:.LC2
 747 0080 C0F20000 		movt	r0, #:upper16:.LC2
 748 0084 3A1D     		adds	r2, r7, #4
 749 0086 2B46     		mov	r3, r5
 750 0088 0090     		str	r0, [sp, #0]
 751 008a 0846     		mov	r0, r1
 752 008c 4FF4EC71 		mov	r1, #472
 753 0090 FFF7FEFF 		bl	chThdCreateStatic
 754              	.LVL59:
 755              		.loc 1 501 0
 756 0094 3269     		ldr	r2, [r6, #16]
 757              		.loc 1 500 0
 758 0096 E060     		str	r0, [r4, #12]
 759              		.loc 1 501 0
 760 0098 40F20001 		movw	r1, #:lower16:.LC0
 761 009c C0F20001 		movt	r1, #:upper16:.LC0
 762 00a0 2B46     		mov	r3, r5
 763 00a2 0091     		str	r1, [sp, #0]
 764 00a4 1046     		mov	r0, r2
 765 00a6 4FF4EC71 		mov	r1, #472
 766 00aa 7A1D     		adds	r2, r7, #5
 767 00ac FFF7FEFF 		bl	chThdCreateStatic
 768              	.LVL60:
 769              	.LBB2:
 770              		.loc 1 502 0
 771 00b0 2023     		movs	r3, #32
 772              	.LVL61:
 773              	.LBE2:
 774              		.loc 1 501 0
 775 00b2 2061     		str	r0, [r4, #16]
 776              	.LBB3:
 777              		.loc 1 502 0
 778              	@ 502 "../../test/testmtx.c" 1
 779 00b4 83F31188 		msr     BASEPRI, r3
 780              	@ 0 "" 2
 781              	.LVL62:
 782              		.thumb
 783              	.LBE3:
 784              		.loc 1 503 0
 785 00b8 40F20004 		movw	r4, #:lower16:.LANCHOR0
 786 00bc C0F20004 		movt	r4, #:upper16:.LANCHOR0
 787 00c0 2046     		mov	r0, r4
 788 00c2 FFF7FEFF 		bl	chCondSignalI
 789              	.LVL63:
 790              		.loc 1 504 0
 791 00c6 2046     		mov	r0, r4
 792 00c8 FFF7FEFF 		bl	chCondSignalI
 793              	.LVL64:
 794              		.loc 1 505 0
 795 00cc 2046     		mov	r0, r4
 796 00ce FFF7FEFF 		bl	chCondSignalI
ARM GAS  C:\Users\Vergil\AppData\Local\Temp\ccNro7AK.s 			page 15


 797              	.LVL65:
 798              		.loc 1 506 0
 799 00d2 2046     		mov	r0, r4
 800 00d4 FFF7FEFF 		bl	chCondSignalI
 801              	.LVL66:
 802              		.loc 1 507 0
 803 00d8 2046     		mov	r0, r4
 804 00da FFF7FEFF 		bl	chCondSignalI
 805              	.LVL67:
 806              		.loc 1 508 0
 807 00de FFF7FEFF 		bl	chSchRescheduleS
 808              	.LVL68:
 809              	.LBB4:
 810              		.loc 1 509 0
 811 00e2 0023     		movs	r3, #0
 812              	.LVL69:
 813              	@ 509 "../../test/testmtx.c" 1
 814 00e4 83F31188 		msr     BASEPRI, r3
 815              	@ 0 "" 2
 816              	.LVL70:
 817              		.thumb
 818              	.LBE4:
 819              		.loc 1 510 0
 820 00e8 FFF7FEFF 		bl	test_wait_threads
 821              	.LVL71:
 822              		.loc 1 511 0
 823 00ec 40F20001 		movw	r1, #:lower16:.LC6
 824 00f0 0120     		movs	r0, #1
 825 00f2 C0F20001 		movt	r1, #:upper16:.LC6
 826              		.loc 1 512 0
 827 00f6 03B0     		add	sp, sp, #12
 828 00f8 BDE8F040 		pop	{r4, r5, r6, r7, lr}
 829              		.loc 1 511 0
 830 00fc FFF7FEBF 		b	_test_assert_sequence
 831              	.LVL72:
 832              		.cfi_endproc
 833              	.LFE30:
 834              		.size	mtx6_execute, .-mtx6_execute
 835              		.section	.text.mtx1_execute,"ax",%progbits
 836              		.align	2
 837              		.p2align 4,,15
 838              		.thumb
 839              		.thumb_func
 840              		.type	mtx1_execute, %function
 841              	mtx1_execute:
 842              	.LFB9:
 843              		.loc 1 97 0
 844              		.cfi_startproc
 845              		@ args = 0, pretend = 0, frame = 8
 846              		@ frame_needed = 0, uses_anonymous_args = 0
 847 0000 F0B5     		push	{r4, r5, r6, r7, lr}
 848              	.LCFI15:
 849              		.cfi_def_cfa_offset 20
 850              		.cfi_offset 4, -20
 851              		.cfi_offset 5, -16
 852              		.cfi_offset 6, -12
 853              		.cfi_offset 7, -8
ARM GAS  C:\Users\Vergil\AppData\Local\Temp\ccNro7AK.s 			page 16


 854              		.cfi_offset 14, -4
 855              		.loc 1 99 0
 856 0002 2C4F     		ldr	r7, .L20
 857              		.loc 1 100 0
 858 0004 2C48     		ldr	r0, .L20+4
 859              		.loc 1 99 0
 860 0006 BB69     		ldr	r3, [r7, #24]
 861              		.loc 1 101 0
 862 0008 2C4E     		ldr	r6, .L20+8
 863              		.loc 1 99 0
 864 000a 9C68     		ldr	r4, [r3, #8]
 865              	.LVL73:
 866              		.loc 1 101 0
 867 000c 2C4D     		ldr	r5, .L20+12
 868              		.loc 1 97 0
 869 000e 85B0     		sub	sp, sp, #20
 870              	.LCFI16:
 871              		.cfi_def_cfa_offset 40
 872              		.loc 1 100 0
 873 0010 FFF7FEFF 		bl	chMtxLock
 874              	.LVL74:
 875              		.loc 1 101 0
 876 0014 2B4A     		ldr	r2, .L20+16
 877 0016 3068     		ldr	r0, [r6, #0]
 878 0018 2B4B     		ldr	r3, .L20+20
 879 001a 0092     		str	r2, [sp, #0]
 880 001c 4FF4EC71 		mov	r1, #472
 881 0020 621C     		adds	r2, r4, #1
 882 0022 FFF7FEFF 		bl	chThdCreateStatic
 883              	.LVL75:
 884              		.loc 1 102 0
 885 0026 7168     		ldr	r1, [r6, #4]
 886              		.loc 1 101 0
 887 0028 2860     		str	r0, [r5, #0]
 888              		.loc 1 102 0
 889 002a 2848     		ldr	r0, .L20+24
 890 002c 0391     		str	r1, [sp, #12]
 891 002e A21C     		adds	r2, r4, #2
 892 0030 4FF4EC71 		mov	r1, #472
 893 0034 244B     		ldr	r3, .L20+20
 894 0036 0090     		str	r0, [sp, #0]
 895 0038 0398     		ldr	r0, [sp, #12]
 896 003a FFF7FEFF 		bl	chThdCreateStatic
 897              	.LVL76:
 898              		.loc 1 103 0
 899 003e B368     		ldr	r3, [r6, #8]
 900              		.loc 1 102 0
 901 0040 6860     		str	r0, [r5, #4]
 902              		.loc 1 103 0
 903 0042 2348     		ldr	r0, .L20+28
 904 0044 0393     		str	r3, [sp, #12]
 905 0046 E21C     		adds	r2, r4, #3
 906 0048 4FF4EC71 		mov	r1, #472
 907 004c 1E4B     		ldr	r3, .L20+20
 908 004e 0090     		str	r0, [sp, #0]
 909 0050 0398     		ldr	r0, [sp, #12]
 910 0052 FFF7FEFF 		bl	chThdCreateStatic
ARM GAS  C:\Users\Vergil\AppData\Local\Temp\ccNro7AK.s 			page 17


 911              	.LVL77:
 912              		.loc 1 104 0
 913 0056 F268     		ldr	r2, [r6, #12]
 914              		.loc 1 103 0
 915 0058 A860     		str	r0, [r5, #8]
 916              		.loc 1 104 0
 917 005a 1E48     		ldr	r0, .L20+32
 918 005c 0392     		str	r2, [sp, #12]
 919 005e 4FF4EC71 		mov	r1, #472
 920 0062 221D     		adds	r2, r4, #4
 921 0064 184B     		ldr	r3, .L20+20
 922 0066 0090     		str	r0, [sp, #0]
 923 0068 0398     		ldr	r0, [sp, #12]
 924 006a FFF7FEFF 		bl	chThdCreateStatic
 925              	.LVL78:
 926              		.loc 1 105 0
 927 006e 3669     		ldr	r6, [r6, #16]
 928              		.loc 1 104 0
 929 0070 E860     		str	r0, [r5, #12]
 930              		.loc 1 105 0
 931 0072 1948     		ldr	r0, .L20+36
 932 0074 144B     		ldr	r3, .L20+20
 933 0076 0090     		str	r0, [sp, #0]
 934 0078 4FF4EC71 		mov	r1, #472
 935 007c 621D     		adds	r2, r4, #5
 936 007e 3046     		mov	r0, r6
 937 0080 FFF7FEFF 		bl	chThdCreateStatic
 938              	.LVL79:
 939 0084 2861     		str	r0, [r5, #16]
 940              		.loc 1 106 0
 941 0086 FFF7FEFF 		bl	chMtxUnlock
 942              	.LVL80:
 943              		.loc 1 107 0
 944 008a FFF7FEFF 		bl	test_wait_threads
 945              	.LVL81:
 946              		.loc 1 108 0
 947 008e B969     		ldr	r1, [r7, #24]
 948 0090 8B68     		ldr	r3, [r1, #8]
 949 0092 0120     		movs	r0, #1
 950 0094 1A1B     		subs	r2, r3, r4
 951 0096 5142     		rsbs	r1, r2, #0
 952 0098 5141     		adcs	r1, r1, r2
 953 009a FFF7FEFF 		bl	_test_assert
 954              	.LVL82:
 955 009e 08B1     		cbz	r0, .L19
 956              		.loc 1 110 0
 957 00a0 05B0     		add	sp, sp, #20
 958 00a2 F0BD     		pop	{r4, r5, r6, r7, pc}
 959              	.L19:
 960              		.loc 1 109 0
 961 00a4 0D49     		ldr	r1, .L20+40
 962 00a6 0220     		movs	r0, #2
 963              		.loc 1 110 0
 964 00a8 05B0     		add	sp, sp, #20
 965 00aa BDE8F040 		pop	{r4, r5, r6, r7, lr}
 966              		.loc 1 109 0
 967 00ae FFF7FEBF 		b	_test_assert_sequence
ARM GAS  C:\Users\Vergil\AppData\Local\Temp\ccNro7AK.s 			page 18


 968              	.LVL83:
 969              	.L21:
 970 00b2 00BF     		.align	2
 971              	.L20:
 972 00b4 00000000 		.word	rlist
 973 00b8 00000000 		.word	.LANCHOR2
 974 00bc 00000000 		.word	wa
 975 00c0 00000000 		.word	threads
 976 00c4 10000000 		.word	.LC4
 977 00c8 00000000 		.word	thread1
 978 00cc 14000000 		.word	.LC5
 979 00d0 04000000 		.word	.LC1
 980 00d4 08000000 		.word	.LC2
 981 00d8 00000000 		.word	.LC0
 982 00dc 18000000 		.word	.LC6
 983              		.cfi_endproc
 984              	.LFE9:
 985              		.size	mtx1_execute, .-mtx1_execute
 986              		.section	.text.mtx5_execute,"ax",%progbits
 987              		.align	2
 988              		.p2align 4,,15
 989              		.thumb
 990              		.thumb_func
 991              		.type	mtx5_execute, %function
 992              	mtx5_execute:
 993              	.LFB27:
 994              		.loc 1 434 0
 995              		.cfi_startproc
 996              		@ args = 0, pretend = 0, frame = 0
 997              		@ frame_needed = 0, uses_anonymous_args = 0
 998 0000 F8B5     		push	{r3, r4, r5, r6, r7, lr}
 999              	.LCFI17:
 1000              		.cfi_def_cfa_offset 24
 1001              		.cfi_offset 3, -24
 1002              		.cfi_offset 4, -20
 1003              		.cfi_offset 5, -16
 1004              		.cfi_offset 6, -12
 1005              		.cfi_offset 7, -8
 1006              		.cfi_offset 14, -4
 1007              		.loc 1 438 0
 1008 0002 2C4D     		ldr	r5, .L27
 1009              		.loc 1 440 0
 1010 0004 2C4C     		ldr	r4, .L27+4
 1011              		.loc 1 438 0
 1012 0006 AB69     		ldr	r3, [r5, #24]
 1013              		.loc 1 440 0
 1014 0008 2046     		mov	r0, r4
 1015              		.loc 1 438 0
 1016 000a 9E68     		ldr	r6, [r3, #8]
 1017              	.LVL84:
 1018              		.loc 1 440 0
 1019 000c FFF7FEFF 		bl	chMtxTryLock
 1020              	.LVL85:
 1021              		.loc 1 441 0
 1022 0010 0146     		mov	r1, r0
 1023 0012 0120     		movs	r0, #1
 1024              	.LVL86:
ARM GAS  C:\Users\Vergil\AppData\Local\Temp\ccNro7AK.s 			page 19


 1025 0014 FFF7FEFF 		bl	_test_assert
 1026              	.LVL87:
 1027 0018 00B1     		cbz	r0, .L26
 1028              	.L22:
 1029 001a F8BD     		pop	{r3, r4, r5, r6, r7, pc}
 1030              	.L26:
 1031              		.loc 1 443 0
 1032 001c 2046     		mov	r0, r4
 1033 001e FFF7FEFF 		bl	chMtxTryLock
 1034              	.LVL88:
 1035              		.loc 1 444 0
 1036 0022 80F00101 		eor	r1, r0, #1
 1037 0026 C9B2     		uxtb	r1, r1
 1038 0028 0220     		movs	r0, #2
 1039              	.LVL89:
 1040 002a FFF7FEFF 		bl	_test_assert
 1041              	.LVL90:
 1042 002e 0746     		mov	r7, r0
 1043 0030 0028     		cmp	r0, #0
 1044 0032 F2D1     		bne	.L22
 1045              	.LBB5:
 1046              		.loc 1 446 0
 1047 0034 2023     		movs	r3, #32
 1048              	.LVL91:
 1049              	@ 446 "../../test/testmtx.c" 1
 1050 0036 83F31188 		msr     BASEPRI, r3
 1051              	@ 0 "" 2
 1052              	.LVL92:
 1053              		.thumb
 1054              	.LBE5:
 1055              		.loc 1 447 0
 1056 003a FFF7FEFF 		bl	chMtxUnlockS
 1057              	.LVL93:
 1058              	.LBB6:
 1059              		.loc 1 448 0
 1060 003e 3B46     		mov	r3, r7
 1061              	.LVL94:
 1062              	@ 448 "../../test/testmtx.c" 1
 1063 0040 83F31188 		msr     BASEPRI, r3
 1064              	@ 0 "" 2
 1065              	.LVL95:
 1066              		.thumb
 1067              	.LBE6:
 1068              		.loc 1 450 0
 1069 0044 2268     		ldr	r2, [r4, #0]
 1070 0046 0320     		movs	r0, #3
 1071 0048 B2EB040E 		subs	lr, r2, r4
 1072 004c DEF10003 		rsbs	r3, lr, #0
 1073              	.LVL96:
 1074 0050 53EB0E01 		adcs	r1, r3, lr
 1075 0054 FFF7FEFF 		bl	_test_assert
 1076              	.LVL97:
 1077 0058 0028     		cmp	r0, #0
 1078 005a DED1     		bne	.L22
 1079              		.loc 1 451 0
 1080 005c A168     		ldr	r1, [r4, #8]
 1081 005e 0420     		movs	r0, #4
ARM GAS  C:\Users\Vergil\AppData\Local\Temp\ccNro7AK.s 			page 20


 1082 0060 D1F10101 		rsbs	r1, r1, #1
 1083 0064 38BF     		it	cc
 1084 0066 0021     		movcc	r1, #0
 1085 0068 FFF7FEFF 		bl	_test_assert
 1086              	.LVL98:
 1087 006c 0028     		cmp	r0, #0
 1088 006e D4D1     		bne	.L22
 1089              		.loc 1 452 0
 1090 0070 A869     		ldr	r0, [r5, #24]
 1091 0072 8268     		ldr	r2, [r0, #8]
 1092 0074 0520     		movs	r0, #5
 1093 0076 931B     		subs	r3, r2, r6
 1094 0078 5942     		rsbs	r1, r3, #0
 1095 007a 5941     		adcs	r1, r1, r3
 1096 007c FFF7FEFF 		bl	_test_assert
 1097              	.LVL99:
 1098 0080 0028     		cmp	r0, #0
 1099 0082 CAD1     		bne	.L22
 1100              		.loc 1 454 0
 1101 0084 2046     		mov	r0, r4
 1102 0086 FFF7FEFF 		bl	chMtxLock
 1103              	.LVL100:
 1104              		.loc 1 455 0
 1105 008a FFF7FEFF 		bl	chMtxUnlockAll
 1106              	.LVL101:
 1107              		.loc 1 456 0
 1108 008e 2268     		ldr	r2, [r4, #0]
 1109 0090 0620     		movs	r0, #6
 1110 0092 131B     		subs	r3, r2, r4
 1111 0094 5942     		rsbs	r1, r3, #0
 1112 0096 5941     		adcs	r1, r1, r3
 1113 0098 FFF7FEFF 		bl	_test_assert
 1114              	.LVL102:
 1115 009c 0028     		cmp	r0, #0
 1116 009e BCD1     		bne	.L22
 1117              		.loc 1 457 0
 1118 00a0 A268     		ldr	r2, [r4, #8]
 1119 00a2 0720     		movs	r0, #7
 1120 00a4 D2F10101 		rsbs	r1, r2, #1
 1121 00a8 38BF     		it	cc
 1122 00aa 0021     		movcc	r1, #0
 1123              		.loc 1 458 0
 1124 00ac BDE8F840 		pop	{r3, r4, r5, r6, r7, lr}
 1125              		.loc 1 457 0
 1126 00b0 FFF7FEBF 		b	_test_assert
 1127              	.LVL103:
 1128              	.L28:
 1129              		.align	2
 1130              	.L27:
 1131 00b4 00000000 		.word	rlist
 1132 00b8 00000000 		.word	.LANCHOR2
 1133              		.cfi_endproc
 1134              	.LFE27:
 1135              		.size	mtx5_execute, .-mtx5_execute
 1136 00bc AFF30080 		.section	.text.mtx4_execute,"ax",%progbits
 1137              		.align	2
 1138              		.p2align 4,,15
ARM GAS  C:\Users\Vergil\AppData\Local\Temp\ccNro7AK.s 			page 21


 1139              		.thumb
 1140              		.thumb_func
 1141              		.type	mtx4_execute, %function
 1142              	mtx4_execute:
 1143              	.LFB25:
 1144              		.loc 1 365 0
 1145              		.cfi_startproc
 1146              		@ args = 0, pretend = 0, frame = 8
 1147              		@ frame_needed = 0, uses_anonymous_args = 0
 1148 0000 2DE9F046 		push	{r4, r5, r6, r7, r9, sl, lr}
 1149              	.LCFI18:
 1150              		.cfi_def_cfa_offset 28
 1151              		.cfi_offset 4, -28
 1152              		.cfi_offset 5, -24
 1153              		.cfi_offset 6, -20
 1154              		.cfi_offset 7, -16
 1155              		.cfi_offset 9, -12
 1156              		.cfi_offset 10, -8
 1157              		.cfi_offset 14, -4
 1158              		.loc 1 368 0
 1159 0004 8D4D     		ldr	r5, .L34
 1160              		.loc 1 371 0
 1161 0006 8E4E     		ldr	r6, .L34+4
 1162              		.loc 1 368 0
 1163 0008 AB69     		ldr	r3, [r5, #24]
 1164              		.loc 1 371 0
 1165 000a 3268     		ldr	r2, [r6, #0]
 1166              		.loc 1 368 0
 1167 000c 9C68     		ldr	r4, [r3, #8]
 1168              	.LVL104:
 1169              		.loc 1 371 0
 1170 000e 8D48     		ldr	r0, .L34+8
 1171 0010 8D4B     		ldr	r3, .L34+12
 1172 0012 8E4F     		ldr	r7, .L34+16
 1173              		.loc 1 365 0
 1174 0014 85B0     		sub	sp, sp, #20
 1175              	.LCFI19:
 1176              		.cfi_def_cfa_offset 48
 1177              		.loc 1 369 0
 1178 0016 04F10109 		add	r9, r4, #1
 1179              	.LVL105:
 1180              		.loc 1 371 0
 1181 001a 0392     		str	r2, [sp, #12]
 1182 001c 0090     		str	r0, [sp, #0]
 1183 001e 4FF4EC71 		mov	r1, #472
 1184 0022 4A46     		mov	r2, r9
 1185 0024 0398     		ldr	r0, [sp, #12]
 1186 0026 FFF7FEFF 		bl	chThdCreateStatic
 1187              	.LVL106:
 1188              		.loc 1 372 0
 1189 002a 7668     		ldr	r6, [r6, #4]
 1190              		.loc 1 371 0
 1191 002c 3860     		str	r0, [r7, #0]
 1192              		.loc 1 372 0
 1193 002e 8848     		ldr	r0, .L34+20
 1194 0030 884B     		ldr	r3, .L34+24
 1195 0032 0090     		str	r0, [sp, #0]
ARM GAS  C:\Users\Vergil\AppData\Local\Temp\ccNro7AK.s 			page 22


 1196              		.loc 1 370 0
 1197 0034 04F1020A 		add	sl, r4, #2
 1198              	.LVL107:
 1199              		.loc 1 372 0
 1200 0038 4FF4EC71 		mov	r1, #472
 1201 003c 5246     		mov	r2, sl
 1202 003e 3046     		mov	r0, r6
 1203 0040 FFF7FEFF 		bl	chThdCreateStatic
 1204              	.LVL108:
 1205 0044 7860     		str	r0, [r7, #4]
 1206              		.loc 1 373 0
 1207 0046 8448     		ldr	r0, .L34+28
 1208 0048 FFF7FEFF 		bl	chMtxLock
 1209              	.LVL109:
 1210              		.loc 1 374 0
 1211 004c A969     		ldr	r1, [r5, #24]
 1212 004e 8B68     		ldr	r3, [r1, #8]
 1213 0050 0120     		movs	r0, #1
 1214 0052 1A1B     		subs	r2, r3, r4
 1215 0054 5142     		rsbs	r1, r2, #0
 1216 0056 5141     		adcs	r1, r1, r2
 1217 0058 FFF7FEFF 		bl	_test_assert
 1218              	.LVL110:
 1219 005c 10B1     		cbz	r0, .L33
 1220              	.L29:
 1221              		.loc 1 410 0
 1222 005e 05B0     		add	sp, sp, #20
 1223 0060 BDE8F086 		pop	{r4, r5, r6, r7, r9, sl, pc}
 1224              	.L33:
 1225              		.loc 1 375 0
 1226 0064 6420     		movs	r0, #100
 1227 0066 FFF7FEFF 		bl	chThdSleep
 1228              	.LVL111:
 1229              		.loc 1 376 0
 1230 006a A869     		ldr	r0, [r5, #24]
 1231 006c 8368     		ldr	r3, [r0, #8]
 1232 006e 0220     		movs	r0, #2
 1233 0070 B3EB0902 		subs	r2, r3, r9
 1234 0074 5142     		rsbs	r1, r2, #0
 1235 0076 5141     		adcs	r1, r1, r2
 1236 0078 FFF7FEFF 		bl	_test_assert
 1237              	.LVL112:
 1238 007c 0028     		cmp	r0, #0
 1239 007e EED1     		bne	.L29
 1240              		.loc 1 377 0
 1241 0080 7648     		ldr	r0, .L34+32
 1242 0082 FFF7FEFF 		bl	chMtxLock
 1243              	.LVL113:
 1244              		.loc 1 378 0
 1245 0086 A869     		ldr	r0, [r5, #24]
 1246 0088 8368     		ldr	r3, [r0, #8]
 1247 008a 0320     		movs	r0, #3
 1248 008c B3EB090C 		subs	ip, r3, r9
 1249 0090 DCF10002 		rsbs	r2, ip, #0
 1250 0094 52EB0C01 		adcs	r1, r2, ip
 1251 0098 FFF7FEFF 		bl	_test_assert
 1252              	.LVL114:
ARM GAS  C:\Users\Vergil\AppData\Local\Temp\ccNro7AK.s 			page 23


 1253 009c 0028     		cmp	r0, #0
 1254 009e DED1     		bne	.L29
 1255              		.loc 1 379 0
 1256 00a0 6420     		movs	r0, #100
 1257 00a2 FFF7FEFF 		bl	chThdSleep
 1258              	.LVL115:
 1259              		.loc 1 380 0
 1260 00a6 A969     		ldr	r1, [r5, #24]
 1261 00a8 8B68     		ldr	r3, [r1, #8]
 1262 00aa 0420     		movs	r0, #4
 1263 00ac B3EB0A0E 		subs	lr, r3, sl
 1264 00b0 DEF10002 		rsbs	r2, lr, #0
 1265 00b4 52EB0E01 		adcs	r1, r2, lr
 1266 00b8 FFF7FEFF 		bl	_test_assert
 1267              	.LVL116:
 1268 00bc 0028     		cmp	r0, #0
 1269 00be CED1     		bne	.L29
 1270              		.loc 1 381 0
 1271 00c0 FFF7FEFF 		bl	chMtxUnlock
 1272              	.LVL117:
 1273              		.loc 1 382 0
 1274 00c4 A869     		ldr	r0, [r5, #24]
 1275 00c6 8168     		ldr	r1, [r0, #8]
 1276 00c8 0520     		movs	r0, #5
 1277 00ca B1EB0903 		subs	r3, r1, r9
 1278 00ce 5A42     		rsbs	r2, r3, #0
 1279 00d0 52EB0301 		adcs	r1, r2, r3
 1280 00d4 FFF7FEFF 		bl	_test_assert
 1281              	.LVL118:
 1282 00d8 0028     		cmp	r0, #0
 1283 00da C0D1     		bne	.L29
 1284              		.loc 1 383 0
 1285 00dc 6420     		movs	r0, #100
 1286 00de FFF7FEFF 		bl	chThdSleep
 1287              	.LVL119:
 1288              		.loc 1 384 0
 1289 00e2 A869     		ldr	r0, [r5, #24]
 1290 00e4 8168     		ldr	r1, [r0, #8]
 1291 00e6 0620     		movs	r0, #6
 1292 00e8 B1EB0903 		subs	r3, r1, r9
 1293 00ec 5A42     		rsbs	r2, r3, #0
 1294 00ee 52EB0301 		adcs	r1, r2, r3
 1295 00f2 FFF7FEFF 		bl	_test_assert
 1296              	.LVL120:
 1297 00f6 0028     		cmp	r0, #0
 1298 00f8 B1D1     		bne	.L29
 1299              		.loc 1 385 0
 1300 00fa FFF7FEFF 		bl	chMtxUnlockAll
 1301              	.LVL121:
 1302              		.loc 1 386 0
 1303 00fe A869     		ldr	r0, [r5, #24]
 1304 0100 8168     		ldr	r1, [r0, #8]
 1305 0102 0720     		movs	r0, #7
 1306 0104 B1EB040C 		subs	ip, r1, r4
 1307 0108 DCF10003 		rsbs	r3, ip, #0
 1308 010c 53EB0C01 		adcs	r1, r3, ip
 1309 0110 FFF7FEFF 		bl	_test_assert
ARM GAS  C:\Users\Vergil\AppData\Local\Temp\ccNro7AK.s 			page 24


 1310              	.LVL122:
 1311 0114 0028     		cmp	r0, #0
 1312 0116 A2D1     		bne	.L29
 1313              		.loc 1 387 0
 1314 0118 FFF7FEFF 		bl	test_wait_threads
 1315              	.LVL123:
 1316              		.loc 1 390 0
 1317 011c 504A     		ldr	r2, .L34+36
 1318 011e 4A4B     		ldr	r3, .L34+12
 1319 0120 0092     		str	r2, [sp, #0]
 1320 0122 4FF4EC71 		mov	r1, #472
 1321 0126 4A46     		mov	r2, r9
 1322 0128 0398     		ldr	r0, [sp, #12]
 1323 012a FFF7FEFF 		bl	chThdCreateStatic
 1324              	.LVL124:
 1325 012e 3860     		str	r0, [r7, #0]
 1326              		.loc 1 391 0
 1327 0130 4C48     		ldr	r0, .L34+40
 1328 0132 484B     		ldr	r3, .L34+24
 1329 0134 0090     		str	r0, [sp, #0]
 1330 0136 4FF4EC71 		mov	r1, #472
 1331 013a 5246     		mov	r2, sl
 1332 013c 3046     		mov	r0, r6
 1333 013e FFF7FEFF 		bl	chThdCreateStatic
 1334              	.LVL125:
 1335 0142 7860     		str	r0, [r7, #4]
 1336              		.loc 1 392 0
 1337 0144 4448     		ldr	r0, .L34+28
 1338 0146 FFF7FEFF 		bl	chMtxLock
 1339              	.LVL126:
 1340              		.loc 1 393 0
 1341 014a A969     		ldr	r1, [r5, #24]
 1342 014c 8B68     		ldr	r3, [r1, #8]
 1343 014e 0820     		movs	r0, #8
 1344 0150 B3EB040E 		subs	lr, r3, r4
 1345 0154 DEF10002 		rsbs	r2, lr, #0
 1346 0158 52EB0E01 		adcs	r1, r2, lr
 1347 015c FFF7FEFF 		bl	_test_assert
 1348              	.LVL127:
 1349 0160 0028     		cmp	r0, #0
 1350 0162 7FF47CAF 		bne	.L29
 1351              		.loc 1 394 0
 1352 0166 6420     		movs	r0, #100
 1353 0168 FFF7FEFF 		bl	chThdSleep
 1354              	.LVL128:
 1355              		.loc 1 395 0
 1356 016c A869     		ldr	r0, [r5, #24]
 1357 016e 8168     		ldr	r1, [r0, #8]
 1358 0170 0920     		movs	r0, #9
 1359 0172 B1EB0903 		subs	r3, r1, r9
 1360 0176 5A42     		rsbs	r2, r3, #0
 1361 0178 52EB0301 		adcs	r1, r2, r3
 1362 017c FFF7FEFF 		bl	_test_assert
 1363              	.LVL129:
 1364 0180 0028     		cmp	r0, #0
 1365 0182 7FF46CAF 		bne	.L29
 1366              		.loc 1 396 0
ARM GAS  C:\Users\Vergil\AppData\Local\Temp\ccNro7AK.s 			page 25


 1367 0186 3548     		ldr	r0, .L34+32
 1368 0188 FFF7FEFF 		bl	chMtxLock
 1369              	.LVL130:
 1370              		.loc 1 397 0
 1371 018c A869     		ldr	r0, [r5, #24]
 1372 018e 8168     		ldr	r1, [r0, #8]
 1373 0190 0A20     		movs	r0, #10
 1374 0192 B1EB0903 		subs	r3, r1, r9
 1375 0196 5A42     		rsbs	r2, r3, #0
 1376 0198 52EB0301 		adcs	r1, r2, r3
 1377 019c FFF7FEFF 		bl	_test_assert
 1378              	.LVL131:
 1379 01a0 0028     		cmp	r0, #0
 1380 01a2 7FF45CAF 		bne	.L29
 1381              		.loc 1 398 0
 1382 01a6 6420     		movs	r0, #100
 1383 01a8 FFF7FEFF 		bl	chThdSleep
 1384              	.LVL132:
 1385              		.loc 1 399 0
 1386 01ac AE69     		ldr	r6, [r5, #24]
 1387 01ae B168     		ldr	r1, [r6, #8]
 1388 01b0 0B20     		movs	r0, #11
 1389 01b2 B1EB0A0C 		subs	ip, r1, sl
 1390 01b6 DCF10003 		rsbs	r3, ip, #0
 1391 01ba 53EB0C01 		adcs	r1, r3, ip
 1392 01be FFF7FEFF 		bl	_test_assert
 1393              	.LVL133:
 1394 01c2 0646     		mov	r6, r0
 1395 01c4 0028     		cmp	r0, #0
 1396 01c6 7FF44AAF 		bne	.L29
 1397              	.LBB7:
 1398              		.loc 1 400 0
 1399 01ca 2023     		movs	r3, #32
 1400              	.LVL134:
 1401              	@ 400 "../../test/testmtx.c" 1
 1402 01cc 83F31188 		msr     BASEPRI, r3
 1403              	@ 0 "" 2
 1404              	.LVL135:
 1405              		.thumb
 1406              	.LBE7:
 1407              		.loc 1 401 0
 1408 01d0 FFF7FEFF 		bl	chMtxUnlockS
 1409              	.LVL136:
 1410              		.loc 1 402 0
 1411 01d4 FFF7FEFF 		bl	chSchRescheduleS
 1412              	.LVL137:
 1413              	.LBB8:
 1414              		.loc 1 403 0
 1415 01d8 3346     		mov	r3, r6
 1416              	.LVL138:
 1417              	@ 403 "../../test/testmtx.c" 1
 1418 01da 83F31188 		msr     BASEPRI, r3
 1419              	@ 0 "" 2
 1420              	.LVL139:
 1421              		.thumb
 1422              	.LBE8:
 1423              		.loc 1 404 0
ARM GAS  C:\Users\Vergil\AppData\Local\Temp\ccNro7AK.s 			page 26


 1424 01de A869     		ldr	r0, [r5, #24]
 1425 01e0 8268     		ldr	r2, [r0, #8]
 1426 01e2 0C20     		movs	r0, #12
 1427 01e4 B2EB090E 		subs	lr, r2, r9
 1428 01e8 DEF10001 		rsbs	r1, lr, #0
 1429 01ec 51EB0E01 		adcs	r1, r1, lr
 1430 01f0 FFF7FEFF 		bl	_test_assert
 1431              	.LVL140:
 1432 01f4 0028     		cmp	r0, #0
 1433 01f6 7FF432AF 		bne	.L29
 1434              		.loc 1 405 0
 1435 01fa 6420     		movs	r0, #100
 1436 01fc FFF7FEFF 		bl	chThdSleep
 1437              	.LVL141:
 1438              		.loc 1 406 0
 1439 0200 AB69     		ldr	r3, [r5, #24]
 1440 0202 9A68     		ldr	r2, [r3, #8]
 1441 0204 0D20     		movs	r0, #13
 1442 0206 B2EB0903 		subs	r3, r2, r9
 1443 020a 5942     		rsbs	r1, r3, #0
 1444 020c 5941     		adcs	r1, r1, r3
 1445 020e FFF7FEFF 		bl	_test_assert
 1446              	.LVL142:
 1447 0212 0028     		cmp	r0, #0
 1448 0214 7FF423AF 		bne	.L29
 1449              		.loc 1 407 0
 1450 0218 FFF7FEFF 		bl	chMtxUnlockAll
 1451              	.LVL143:
 1452              		.loc 1 408 0
 1453 021c A869     		ldr	r0, [r5, #24]
 1454 021e 8268     		ldr	r2, [r0, #8]
 1455 0220 0E20     		movs	r0, #14
 1456 0222 131B     		subs	r3, r2, r4
 1457 0224 5942     		rsbs	r1, r3, #0
 1458 0226 5941     		adcs	r1, r1, r3
 1459 0228 FFF7FEFF 		bl	_test_assert
 1460              	.LVL144:
 1461 022c 0028     		cmp	r0, #0
 1462 022e 7FF416AF 		bne	.L29
 1463              		.loc 1 410 0
 1464 0232 05B0     		add	sp, sp, #20
 1465 0234 BDE8F046 		pop	{r4, r5, r6, r7, r9, sl, lr}
 1466              		.loc 1 409 0
 1467 0238 FFF7FEBF 		b	test_wait_threads
 1468              	.LVL145:
 1469              	.L35:
 1470              		.align	2
 1471              	.L34:
 1472 023c 00000000 		.word	rlist
 1473 0240 00000000 		.word	wa
 1474 0244 08000000 		.word	.LC2
 1475 0248 00000000 		.word	thread4a
 1476 024c 00000000 		.word	threads
 1477 0250 00000000 		.word	.LC0
 1478 0254 00000000 		.word	thread4b
 1479 0258 00000000 		.word	.LANCHOR1
 1480 025c 00000000 		.word	.LANCHOR2
ARM GAS  C:\Users\Vergil\AppData\Local\Temp\ccNro7AK.s 			page 27


 1481 0260 14000000 		.word	.LC5
 1482 0264 04000000 		.word	.LC1
 1483              		.cfi_endproc
 1484              	.LFE25:
 1485              		.size	mtx4_execute, .-mtx4_execute
 1486 0268 AFF30080 		.section	.text.thread4b,"ax",%progbits
 1486      AFF30080 
 1487              		.align	2
 1488              		.p2align 4,,15
 1489              		.thumb
 1490              		.thumb_func
 1491              		.type	thread4b, %function
 1492              	thread4b:
 1493              	.LFB24:
 1494              		.loc 1 356 0
 1495              		.cfi_startproc
 1496              		@ args = 0, pretend = 0, frame = 0
 1497              		@ frame_needed = 0, uses_anonymous_args = 0
 1498              	.LVL146:
 1499 0000 08B5     		push	{r3, lr}
 1500              	.LCFI20:
 1501              		.cfi_def_cfa_offset 8
 1502              		.cfi_offset 3, -8
 1503              		.cfi_offset 14, -4
 1504              		.loc 1 359 0
 1505 0002 9620     		movs	r0, #150
 1506              	.LVL147:
 1507 0004 FFF7FEFF 		bl	chThdSleep
 1508              	.LVL148:
 1509              		.loc 1 360 0
 1510 0008 40F20000 		movw	r0, #:lower16:.LANCHOR2
 1511 000c C0F20000 		movt	r0, #:upper16:.LANCHOR2
 1512 0010 FFF7FEFF 		bl	chMtxLock
 1513              	.LVL149:
 1514              		.loc 1 361 0
 1515 0014 FFF7FEFF 		bl	chMtxUnlock
 1516              	.LVL150:
 1517              		.loc 1 363 0
 1518 0018 0020     		movs	r0, #0
 1519 001a 08BD     		pop	{r3, pc}
 1520              		.cfi_endproc
 1521              	.LFE24:
 1522              		.size	thread4b, .-thread4b
 1523 001c AFF30080 		.section	.text.thread4a,"ax",%progbits
 1524              		.align	2
 1525              		.p2align 4,,15
 1526              		.thumb
 1527              		.thumb_func
 1528              		.type	thread4a, %function
 1529              	thread4a:
 1530              	.LFB23:
 1531              		.loc 1 347 0
 1532              		.cfi_startproc
 1533              		@ args = 0, pretend = 0, frame = 0
 1534              		@ frame_needed = 0, uses_anonymous_args = 0
 1535              	.LVL151:
 1536 0000 08B5     		push	{r3, lr}
ARM GAS  C:\Users\Vergil\AppData\Local\Temp\ccNro7AK.s 			page 28


 1537              	.LCFI21:
 1538              		.cfi_def_cfa_offset 8
 1539              		.cfi_offset 3, -8
 1540              		.cfi_offset 14, -4
 1541              		.loc 1 350 0
 1542 0002 3220     		movs	r0, #50
 1543              	.LVL152:
 1544 0004 FFF7FEFF 		bl	chThdSleep
 1545              	.LVL153:
 1546              		.loc 1 351 0
 1547 0008 40F20000 		movw	r0, #:lower16:.LANCHOR1
 1548 000c C0F20000 		movt	r0, #:upper16:.LANCHOR1
 1549 0010 FFF7FEFF 		bl	chMtxLock
 1550              	.LVL154:
 1551              		.loc 1 352 0
 1552 0014 FFF7FEFF 		bl	chMtxUnlock
 1553              	.LVL155:
 1554              		.loc 1 354 0
 1555 0018 0020     		movs	r0, #0
 1556 001a 08BD     		pop	{r3, pc}
 1557              		.cfi_endproc
 1558              	.LFE23:
 1559              		.size	thread4a, .-thread4a
 1560 001c AFF30080 		.section	.text.mtx3_execute,"ax",%progbits
 1561              		.align	2
 1562              		.p2align 4,,15
 1563              		.thumb
 1564              		.thumb_func
 1565              		.type	mtx3_execute, %function
 1566              	mtx3_execute:
 1567              	.LFB21:
 1568              		.loc 1 308 0
 1569              		.cfi_startproc
 1570              		@ args = 0, pretend = 0, frame = 8
 1571              		@ frame_needed = 0, uses_anonymous_args = 0
 1572 0000 2DE9F041 		push	{r4, r5, r6, r7, r8, lr}
 1573              	.LCFI22:
 1574              		.cfi_def_cfa_offset 24
 1575              		.cfi_offset 4, -24
 1576              		.cfi_offset 5, -20
 1577              		.cfi_offset 6, -16
 1578              		.cfi_offset 7, -12
 1579              		.cfi_offset 8, -8
 1580              		.cfi_offset 14, -4
 1581              		.loc 1 313 0
 1582 0004 304E     		ldr	r6, .L41
 1583 0006 DFF8E480 		ldr	r8, .L41+36
 1584 000a 304C     		ldr	r4, .L41+4
 1585              		.loc 1 308 0
 1586 000c 84B0     		sub	sp, sp, #16
 1587              	.LCFI23:
 1588              		.cfi_def_cfa_offset 40
 1589              		.loc 1 311 0
 1590 000e FFF7FEFF 		bl	test_wait_tick
 1591              	.LVL156:
 1592              		.loc 1 313 0
 1593 0012 B369     		ldr	r3, [r6, #24]
ARM GAS  C:\Users\Vergil\AppData\Local\Temp\ccNro7AK.s 			page 29


 1594              		.loc 1 312 0
 1595 0014 2E49     		ldr	r1, .L41+8
 1596              		.loc 1 313 0
 1597 0016 9A68     		ldr	r2, [r3, #8]
 1598              		.loc 1 312 0
 1599 0018 CF68     		ldr	r7, [r1, #12]
 1600              	.LVL157:
 1601              		.loc 1 313 0
 1602 001a 2E4B     		ldr	r3, .L41+12
 1603 001c D8F80000 		ldr	r0, [r8, #0]
 1604 0020 0025     		movs	r5, #0
 1605 0022 4FF4EC71 		mov	r1, #472
 1606 0026 053A     		subs	r2, r2, #5
 1607 0028 0095     		str	r5, [sp, #0]
 1608 002a FFF7FEFF 		bl	chThdCreateStatic
 1609              	.LVL158:
 1610              		.loc 1 314 0
 1611 002e B369     		ldr	r3, [r6, #24]
 1612 0030 D8F80420 		ldr	r2, [r8, #4]
 1613 0034 9B68     		ldr	r3, [r3, #8]
 1614 0036 0392     		str	r2, [sp, #12]
 1615              		.loc 1 313 0
 1616 0038 2060     		str	r0, [r4, #0]
 1617              		.loc 1 314 0
 1618 003a 1A1F     		subs	r2, r3, #4
 1619 003c 4FF4EC71 		mov	r1, #472
 1620 0040 254B     		ldr	r3, .L41+16
 1621 0042 0095     		str	r5, [sp, #0]
 1622 0044 0398     		ldr	r0, [sp, #12]
 1623 0046 FFF7FEFF 		bl	chThdCreateStatic
 1624              	.LVL159:
 1625              		.loc 1 315 0
 1626 004a B169     		ldr	r1, [r6, #24]
 1627 004c D8F80820 		ldr	r2, [r8, #8]
 1628 0050 8B68     		ldr	r3, [r1, #8]
 1629 0052 0392     		str	r2, [sp, #12]
 1630              		.loc 1 314 0
 1631 0054 6060     		str	r0, [r4, #4]
 1632              		.loc 1 315 0
 1633 0056 DA1E     		subs	r2, r3, #3
 1634 0058 4FF4EC71 		mov	r1, #472
 1635 005c 1F4B     		ldr	r3, .L41+20
 1636 005e 0095     		str	r5, [sp, #0]
 1637 0060 0398     		ldr	r0, [sp, #12]
 1638 0062 FFF7FEFF 		bl	chThdCreateStatic
 1639              	.LVL160:
 1640              		.loc 1 316 0
 1641 0066 B169     		ldr	r1, [r6, #24]
 1642 0068 D8F80C20 		ldr	r2, [r8, #12]
 1643 006c 8B68     		ldr	r3, [r1, #8]
 1644 006e 0392     		str	r2, [sp, #12]
 1645              		.loc 1 315 0
 1646 0070 A060     		str	r0, [r4, #8]
 1647              		.loc 1 316 0
 1648 0072 9A1E     		subs	r2, r3, #2
 1649 0074 4FF4EC71 		mov	r1, #472
 1650 0078 194B     		ldr	r3, .L41+24
ARM GAS  C:\Users\Vergil\AppData\Local\Temp\ccNro7AK.s 			page 30


 1651 007a 0095     		str	r5, [sp, #0]
 1652 007c 0398     		ldr	r0, [sp, #12]
 1653 007e FFF7FEFF 		bl	chThdCreateStatic
 1654              	.LVL161:
 1655              		.loc 1 317 0
 1656 0082 B169     		ldr	r1, [r6, #24]
 1657 0084 D8F81060 		ldr	r6, [r8, #16]
 1658 0088 8A68     		ldr	r2, [r1, #8]
 1659 008a 164B     		ldr	r3, .L41+28
 1660              		.loc 1 316 0
 1661 008c E060     		str	r0, [r4, #12]
 1662              		.loc 1 317 0
 1663 008e 4FF4EC71 		mov	r1, #472
 1664 0092 013A     		subs	r2, r2, #1
 1665 0094 0095     		str	r5, [sp, #0]
 1666 0096 3046     		mov	r0, r6
 1667 0098 FFF7FEFF 		bl	chThdCreateStatic
 1668              	.LVL162:
 1669 009c 2061     		str	r0, [r4, #16]
 1670              		.loc 1 318 0
 1671 009e FFF7FEFF 		bl	test_wait_threads
 1672              	.LVL163:
 1673              		.loc 1 319 0
 1674 00a2 0120     		movs	r0, #1
 1675 00a4 1049     		ldr	r1, .L41+32
 1676 00a6 FFF7FEFF 		bl	_test_assert_sequence
 1677              	.LVL164:
 1678 00aa 10B1     		cbz	r0, .L40
 1679              		.loc 1 321 0
 1680 00ac 04B0     		add	sp, sp, #16
 1681 00ae BDE8F081 		pop	{r4, r5, r6, r7, r8, pc}
 1682              	.L40:
 1683              		.loc 1 320 0
 1684 00b2 0220     		movs	r0, #2
 1685 00b4 07F16E01 		add	r1, r7, #110
 1686 00b8 07F17302 		add	r2, r7, #115
 1687              		.loc 1 321 0
 1688 00bc 04B0     		add	sp, sp, #16
 1689 00be BDE8F041 		pop	{r4, r5, r6, r7, r8, lr}
 1690              		.loc 1 320 0
 1691 00c2 FFF7FEBF 		b	_test_assert_time_window
 1692              	.LVL165:
 1693              	.L42:
 1694 00c6 00BF     		.align	2
 1695              	.L41:
 1696 00c8 00000000 		.word	rlist
 1697 00cc 00000000 		.word	threads
 1698 00d0 00000000 		.word	vtlist
 1699 00d4 00000000 		.word	thread3LL
 1700 00d8 00000000 		.word	thread3L
 1701 00dc 00000000 		.word	thread3M
 1702 00e0 00000000 		.word	thread3H
 1703 00e4 00000000 		.word	thread3HH
 1704 00e8 18000000 		.word	.LC6
 1705 00ec 00000000 		.word	wa
 1706              		.cfi_endproc
 1707              	.LFE21:
ARM GAS  C:\Users\Vergil\AppData\Local\Temp\ccNro7AK.s 			page 31


 1708              		.size	mtx3_execute, .-mtx3_execute
 1709              		.section	.text.mtx2_execute,"ax",%progbits
 1710              		.align	2
 1711              		.p2align 4,,15
 1712              		.thumb
 1713              		.thumb_func
 1714              		.type	mtx2_execute, %function
 1715              	mtx2_execute:
 1716              	.LFB14:
 1717              		.loc 1 190 0
 1718              		.cfi_startproc
 1719              		@ args = 0, pretend = 0, frame = 8
 1720              		@ frame_needed = 0, uses_anonymous_args = 0
 1721 0000 2DE9F041 		push	{r4, r5, r6, r7, r8, lr}
 1722              	.LCFI24:
 1723              		.cfi_def_cfa_offset 24
 1724              		.cfi_offset 4, -24
 1725              		.cfi_offset 5, -20
 1726              		.cfi_offset 6, -16
 1727              		.cfi_offset 7, -12
 1728              		.cfi_offset 8, -8
 1729              		.cfi_offset 14, -4
 1730              		.loc 1 195 0
 1731 0004 224E     		ldr	r6, .L46
 1732 0006 DFF8A480 		ldr	r8, .L46+28
 1733 000a 224C     		ldr	r4, .L46+4
 1734              		.loc 1 190 0
 1735 000c 84B0     		sub	sp, sp, #16
 1736              	.LCFI25:
 1737              		.cfi_def_cfa_offset 40
 1738              		.loc 1 193 0
 1739 000e FFF7FEFF 		bl	test_wait_tick
 1740              	.LVL166:
 1741              		.loc 1 195 0
 1742 0012 B369     		ldr	r3, [r6, #24]
 1743              		.loc 1 194 0
 1744 0014 2049     		ldr	r1, .L46+8
 1745              		.loc 1 195 0
 1746 0016 9A68     		ldr	r2, [r3, #8]
 1747              		.loc 1 194 0
 1748 0018 CF68     		ldr	r7, [r1, #12]
 1749              	.LVL167:
 1750              		.loc 1 195 0
 1751 001a 204B     		ldr	r3, .L46+12
 1752 001c D8F80000 		ldr	r0, [r8, #0]
 1753 0020 0025     		movs	r5, #0
 1754 0022 4FF4EC71 		mov	r1, #472
 1755 0026 013A     		subs	r2, r2, #1
 1756 0028 0095     		str	r5, [sp, #0]
 1757 002a FFF7FEFF 		bl	chThdCreateStatic
 1758              	.LVL168:
 1759              		.loc 1 196 0
 1760 002e B369     		ldr	r3, [r6, #24]
 1761 0030 D8F80420 		ldr	r2, [r8, #4]
 1762 0034 9B68     		ldr	r3, [r3, #8]
 1763 0036 0392     		str	r2, [sp, #12]
 1764              		.loc 1 195 0
ARM GAS  C:\Users\Vergil\AppData\Local\Temp\ccNro7AK.s 			page 32


 1765 0038 2060     		str	r0, [r4, #0]
 1766              		.loc 1 196 0
 1767 003a 9A1E     		subs	r2, r3, #2
 1768 003c 4FF4EC71 		mov	r1, #472
 1769 0040 174B     		ldr	r3, .L46+16
 1770 0042 0095     		str	r5, [sp, #0]
 1771 0044 0398     		ldr	r0, [sp, #12]
 1772 0046 FFF7FEFF 		bl	chThdCreateStatic
 1773              	.LVL169:
 1774              		.loc 1 197 0
 1775 004a B169     		ldr	r1, [r6, #24]
 1776 004c D8F80860 		ldr	r6, [r8, #8]
 1777 0050 8A68     		ldr	r2, [r1, #8]
 1778 0052 144B     		ldr	r3, .L46+20
 1779              		.loc 1 196 0
 1780 0054 6060     		str	r0, [r4, #4]
 1781              		.loc 1 197 0
 1782 0056 4FF4EC71 		mov	r1, #472
 1783 005a 033A     		subs	r2, r2, #3
 1784 005c 0095     		str	r5, [sp, #0]
 1785 005e 3046     		mov	r0, r6
 1786 0060 FFF7FEFF 		bl	chThdCreateStatic
 1787              	.LVL170:
 1788 0064 A060     		str	r0, [r4, #8]
 1789              		.loc 1 198 0
 1790 0066 FFF7FEFF 		bl	test_wait_threads
 1791              	.LVL171:
 1792              		.loc 1 199 0
 1793 006a 0120     		movs	r0, #1
 1794 006c 0E49     		ldr	r1, .L46+24
 1795 006e FFF7FEFF 		bl	_test_assert_sequence
 1796              	.LVL172:
 1797 0072 10B1     		cbz	r0, .L45
 1798              		.loc 1 201 0
 1799 0074 04B0     		add	sp, sp, #16
 1800 0076 BDE8F081 		pop	{r4, r5, r6, r7, r8, pc}
 1801              	.L45:
 1802              		.loc 1 200 0
 1803 007a 0220     		movs	r0, #2
 1804 007c 07F16401 		add	r1, r7, #100
 1805 0080 07F16902 		add	r2, r7, #105
 1806              		.loc 1 201 0
 1807 0084 04B0     		add	sp, sp, #16
 1808 0086 BDE8F041 		pop	{r4, r5, r6, r7, r8, lr}
 1809              		.loc 1 200 0
 1810 008a FFF7FEBF 		b	_test_assert_time_window
 1811              	.LVL173:
 1812              	.L47:
 1813 008e 00BF     		.align	2
 1814              	.L46:
 1815 0090 00000000 		.word	rlist
 1816 0094 00000000 		.word	threads
 1817 0098 00000000 		.word	vtlist
 1818 009c 00000000 		.word	thread2H
 1819 00a0 00000000 		.word	thread2M
 1820 00a4 00000000 		.word	thread2L
 1821 00a8 0C000000 		.word	.LC3
ARM GAS  C:\Users\Vergil\AppData\Local\Temp\ccNro7AK.s 			page 33


 1822 00ac 00000000 		.word	wa
 1823              		.cfi_endproc
 1824              	.LFE14:
 1825              		.size	mtx2_execute, .-mtx2_execute
 1826              		.section	.text.thread3HH,"ax",%progbits
 1827              		.align	2
 1828              		.p2align 4,,15
 1829              		.thumb
 1830              		.thumb_func
 1831              		.type	thread3HH, %function
 1832              	thread3HH:
 1833              	.LFB20:
 1834              		.loc 1 297 0
 1835              		.cfi_startproc
 1836              		@ args = 0, pretend = 0, frame = 0
 1837              		@ frame_needed = 0, uses_anonymous_args = 0
 1838              	.LVL174:
 1839 0000 08B5     		push	{r3, lr}
 1840              	.LCFI26:
 1841              		.cfi_def_cfa_offset 8
 1842              		.cfi_offset 3, -8
 1843              		.cfi_offset 14, -4
 1844              		.loc 1 300 0
 1845 0002 3220     		movs	r0, #50
 1846              	.LVL175:
 1847 0004 FFF7FEFF 		bl	chThdSleep
 1848              	.LVL176:
 1849              		.loc 1 301 0
 1850 0008 40F20000 		movw	r0, #:lower16:.LANCHOR1
 1851 000c C0F20000 		movt	r0, #:upper16:.LANCHOR1
 1852 0010 FFF7FEFF 		bl	chMtxLock
 1853              	.LVL177:
 1854              		.loc 1 302 0
 1855 0014 0A20     		movs	r0, #10
 1856 0016 FFF7FEFF 		bl	test_cpu_pulse
 1857              	.LVL178:
 1858              		.loc 1 303 0
 1859 001a FFF7FEFF 		bl	chMtxUnlock
 1860              	.LVL179:
 1861              		.loc 1 304 0
 1862 001e 4120     		movs	r0, #65
 1863 0020 FFF7FEFF 		bl	test_emit_token
 1864              	.LVL180:
 1865              		.loc 1 306 0
 1866 0024 0020     		movs	r0, #0
 1867 0026 08BD     		pop	{r3, pc}
 1868              		.cfi_endproc
 1869              	.LFE20:
 1870              		.size	thread3HH, .-thread3HH
 1871 0028 AFF30080 		.section	.text.thread3H,"ax",%progbits
 1871      AFF30080 
 1872              		.align	2
 1873              		.p2align 4,,15
 1874              		.thumb
 1875              		.thumb_func
 1876              		.type	thread3H, %function
 1877              	thread3H:
ARM GAS  C:\Users\Vergil\AppData\Local\Temp\ccNro7AK.s 			page 34


 1878              	.LFB19:
 1879              		.loc 1 287 0
 1880              		.cfi_startproc
 1881              		@ args = 0, pretend = 0, frame = 0
 1882              		@ frame_needed = 0, uses_anonymous_args = 0
 1883              	.LVL181:
 1884 0000 08B5     		push	{r3, lr}
 1885              	.LCFI27:
 1886              		.cfi_def_cfa_offset 8
 1887              		.cfi_offset 3, -8
 1888              		.cfi_offset 14, -4
 1889              		.loc 1 290 0
 1890 0002 2820     		movs	r0, #40
 1891              	.LVL182:
 1892 0004 FFF7FEFF 		bl	chThdSleep
 1893              	.LVL183:
 1894              		.loc 1 291 0
 1895 0008 1420     		movs	r0, #20
 1896 000a FFF7FEFF 		bl	test_cpu_pulse
 1897              	.LVL184:
 1898              		.loc 1 292 0
 1899 000e 4220     		movs	r0, #66
 1900 0010 FFF7FEFF 		bl	test_emit_token
 1901              	.LVL185:
 1902              		.loc 1 294 0
 1903 0014 0020     		movs	r0, #0
 1904 0016 08BD     		pop	{r3, pc}
 1905              		.cfi_endproc
 1906              	.LFE19:
 1907              		.size	thread3H, .-thread3H
 1908 0018 AFF30080 		.section	.text.thread3M,"ax",%progbits
 1908      AFF30080 
 1909              		.align	2
 1910              		.p2align 4,,15
 1911              		.thumb
 1912              		.thumb_func
 1913              		.type	thread3M, %function
 1914              	thread3M:
 1915              	.LFB18:
 1916              		.loc 1 275 0
 1917              		.cfi_startproc
 1918              		@ args = 0, pretend = 0, frame = 0
 1919              		@ frame_needed = 0, uses_anonymous_args = 0
 1920              	.LVL186:
 1921 0000 08B5     		push	{r3, lr}
 1922              	.LCFI28:
 1923              		.cfi_def_cfa_offset 8
 1924              		.cfi_offset 3, -8
 1925              		.cfi_offset 14, -4
 1926              		.loc 1 278 0
 1927 0002 1420     		movs	r0, #20
 1928              	.LVL187:
 1929 0004 FFF7FEFF 		bl	chThdSleep
 1930              	.LVL188:
 1931              		.loc 1 279 0
 1932 0008 40F20000 		movw	r0, #:lower16:.LANCHOR1
 1933 000c C0F20000 		movt	r0, #:upper16:.LANCHOR1
ARM GAS  C:\Users\Vergil\AppData\Local\Temp\ccNro7AK.s 			page 35


 1934 0010 FFF7FEFF 		bl	chMtxLock
 1935              	.LVL189:
 1936              		.loc 1 280 0
 1937 0014 0A20     		movs	r0, #10
 1938 0016 FFF7FEFF 		bl	test_cpu_pulse
 1939              	.LVL190:
 1940              		.loc 1 281 0
 1941 001a FFF7FEFF 		bl	chMtxUnlock
 1942              	.LVL191:
 1943              		.loc 1 282 0
 1944 001e 4320     		movs	r0, #67
 1945 0020 FFF7FEFF 		bl	test_emit_token
 1946              	.LVL192:
 1947              		.loc 1 284 0
 1948 0024 0020     		movs	r0, #0
 1949 0026 08BD     		pop	{r3, pc}
 1950              		.cfi_endproc
 1951              	.LFE18:
 1952              		.size	thread3M, .-thread3M
 1953 0028 AFF30080 		.section	.text.thread3L,"ax",%progbits
 1953      AFF30080 
 1954              		.align	2
 1955              		.p2align 4,,15
 1956              		.thumb
 1957              		.thumb_func
 1958              		.type	thread3L, %function
 1959              	thread3L:
 1960              	.LFB17:
 1961              		.loc 1 259 0
 1962              		.cfi_startproc
 1963              		@ args = 0, pretend = 0, frame = 0
 1964              		@ frame_needed = 0, uses_anonymous_args = 0
 1965              	.LVL193:
 1966 0000 08B5     		push	{r3, lr}
 1967              	.LCFI29:
 1968              		.cfi_def_cfa_offset 8
 1969              		.cfi_offset 3, -8
 1970              		.cfi_offset 14, -4
 1971              		.loc 1 262 0
 1972 0002 0A20     		movs	r0, #10
 1973              	.LVL194:
 1974 0004 FFF7FEFF 		bl	chThdSleep
 1975              	.LVL195:
 1976              		.loc 1 263 0
 1977 0008 40F20000 		movw	r0, #:lower16:.LANCHOR1
 1978 000c C0F20000 		movt	r0, #:upper16:.LANCHOR1
 1979 0010 FFF7FEFF 		bl	chMtxLock
 1980              	.LVL196:
 1981              		.loc 1 264 0
 1982 0014 1420     		movs	r0, #20
 1983 0016 FFF7FEFF 		bl	test_cpu_pulse
 1984              	.LVL197:
 1985              		.loc 1 265 0
 1986 001a 40F20000 		movw	r0, #:lower16:.LANCHOR2
 1987 001e C0F20000 		movt	r0, #:upper16:.LANCHOR2
 1988 0022 FFF7FEFF 		bl	chMtxLock
 1989              	.LVL198:
ARM GAS  C:\Users\Vergil\AppData\Local\Temp\ccNro7AK.s 			page 36


 1990              		.loc 1 266 0
 1991 0026 0A20     		movs	r0, #10
 1992 0028 FFF7FEFF 		bl	test_cpu_pulse
 1993              	.LVL199:
 1994              		.loc 1 267 0
 1995 002c FFF7FEFF 		bl	chMtxUnlock
 1996              	.LVL200:
 1997              		.loc 1 268 0
 1998 0030 0A20     		movs	r0, #10
 1999 0032 FFF7FEFF 		bl	test_cpu_pulse
 2000              	.LVL201:
 2001              		.loc 1 269 0
 2002 0036 FFF7FEFF 		bl	chMtxUnlock
 2003              	.LVL202:
 2004              		.loc 1 270 0
 2005 003a 4420     		movs	r0, #68
 2006 003c FFF7FEFF 		bl	test_emit_token
 2007              	.LVL203:
 2008              		.loc 1 272 0
 2009 0040 0020     		movs	r0, #0
 2010 0042 08BD     		pop	{r3, pc}
 2011              		.cfi_endproc
 2012              	.LFE17:
 2013              		.size	thread3L, .-thread3L
 2014 0044 AFF30080 		.section	.text.thread3LL,"ax",%progbits
 2014      AFF30080 
 2014      AFF30080 
 2015              		.align	2
 2016              		.p2align 4,,15
 2017              		.thumb
 2018              		.thumb_func
 2019              		.type	thread3LL, %function
 2020              	thread3LL:
 2021              	.LFB16:
 2022              		.loc 1 248 0
 2023              		.cfi_startproc
 2024              		@ args = 0, pretend = 0, frame = 0
 2025              		@ frame_needed = 0, uses_anonymous_args = 0
 2026              	.LVL204:
 2027              		.loc 1 251 0
 2028 0000 40F20000 		movw	r0, #:lower16:.LANCHOR2
 2029              	.LVL205:
 2030              		.loc 1 248 0
 2031 0004 08B5     		push	{r3, lr}
 2032              	.LCFI30:
 2033              		.cfi_def_cfa_offset 8
 2034              		.cfi_offset 3, -8
 2035              		.cfi_offset 14, -4
 2036              		.loc 1 251 0
 2037 0006 C0F20000 		movt	r0, #:upper16:.LANCHOR2
 2038 000a FFF7FEFF 		bl	chMtxLock
 2039              	.LVL206:
 2040              		.loc 1 252 0
 2041 000e 1E20     		movs	r0, #30
 2042 0010 FFF7FEFF 		bl	test_cpu_pulse
 2043              	.LVL207:
 2044              		.loc 1 253 0
ARM GAS  C:\Users\Vergil\AppData\Local\Temp\ccNro7AK.s 			page 37


 2045 0014 FFF7FEFF 		bl	chMtxUnlock
 2046              	.LVL208:
 2047              		.loc 1 254 0
 2048 0018 4520     		movs	r0, #69
 2049 001a FFF7FEFF 		bl	test_emit_token
 2050              	.LVL209:
 2051              		.loc 1 256 0
 2052 001e 0020     		movs	r0, #0
 2053 0020 08BD     		pop	{r3, pc}
 2054              		.cfi_endproc
 2055              	.LFE16:
 2056              		.size	thread3LL, .-thread3LL
 2057 0022 00BFAFF3 		.section	.text.thread2L,"ax",%progbits
 2057      0080AFF3 
 2057      0080AFF3 
 2057      0080
 2058              		.align	2
 2059              		.p2align 4,,15
 2060              		.thumb
 2061              		.thumb_func
 2062              		.type	thread2L, %function
 2063              	thread2L:
 2064              	.LFB11:
 2065              		.loc 1 157 0
 2066              		.cfi_startproc
 2067              		@ args = 0, pretend = 0, frame = 0
 2068              		@ frame_needed = 0, uses_anonymous_args = 0
 2069              	.LVL210:
 2070              		.loc 1 160 0
 2071 0000 40F20000 		movw	r0, #:lower16:.LANCHOR2
 2072              	.LVL211:
 2073              		.loc 1 157 0
 2074 0004 08B5     		push	{r3, lr}
 2075              	.LCFI31:
 2076              		.cfi_def_cfa_offset 8
 2077              		.cfi_offset 3, -8
 2078              		.cfi_offset 14, -4
 2079              		.loc 1 160 0
 2080 0006 C0F20000 		movt	r0, #:upper16:.LANCHOR2
 2081 000a FFF7FEFF 		bl	chMtxLock
 2082              	.LVL212:
 2083              		.loc 1 161 0
 2084 000e 2820     		movs	r0, #40
 2085 0010 FFF7FEFF 		bl	test_cpu_pulse
 2086              	.LVL213:
 2087              		.loc 1 162 0
 2088 0014 FFF7FEFF 		bl	chMtxUnlock
 2089              	.LVL214:
 2090              		.loc 1 163 0
 2091 0018 0A20     		movs	r0, #10
 2092 001a FFF7FEFF 		bl	test_cpu_pulse
 2093              	.LVL215:
 2094              		.loc 1 164 0
 2095 001e 4320     		movs	r0, #67
 2096 0020 FFF7FEFF 		bl	test_emit_token
 2097              	.LVL216:
 2098              		.loc 1 166 0
ARM GAS  C:\Users\Vergil\AppData\Local\Temp\ccNro7AK.s 			page 38


 2099 0024 0020     		movs	r0, #0
 2100 0026 08BD     		pop	{r3, pc}
 2101              		.cfi_endproc
 2102              	.LFE11:
 2103              		.size	thread2L, .-thread2L
 2104 0028 AFF30080 		.section	.text.thread2M,"ax",%progbits
 2104      AFF30080 
 2105              		.align	2
 2106              		.p2align 4,,15
 2107              		.thumb
 2108              		.thumb_func
 2109              		.type	thread2M, %function
 2110              	thread2M:
 2111              	.LFB12:
 2112              		.loc 1 169 0
 2113              		.cfi_startproc
 2114              		@ args = 0, pretend = 0, frame = 0
 2115              		@ frame_needed = 0, uses_anonymous_args = 0
 2116              	.LVL217:
 2117 0000 08B5     		push	{r3, lr}
 2118              	.LCFI32:
 2119              		.cfi_def_cfa_offset 8
 2120              		.cfi_offset 3, -8
 2121              		.cfi_offset 14, -4
 2122              		.loc 1 172 0
 2123 0002 1420     		movs	r0, #20
 2124              	.LVL218:
 2125 0004 FFF7FEFF 		bl	chThdSleep
 2126              	.LVL219:
 2127              		.loc 1 173 0
 2128 0008 2820     		movs	r0, #40
 2129 000a FFF7FEFF 		bl	test_cpu_pulse
 2130              	.LVL220:
 2131              		.loc 1 174 0
 2132 000e 4220     		movs	r0, #66
 2133 0010 FFF7FEFF 		bl	test_emit_token
 2134              	.LVL221:
 2135              		.loc 1 176 0
 2136 0014 0020     		movs	r0, #0
 2137 0016 08BD     		pop	{r3, pc}
 2138              		.cfi_endproc
 2139              	.LFE12:
 2140              		.size	thread2M, .-thread2M
 2141 0018 AFF30080 		.section	.text.thread2H,"ax",%progbits
 2141      AFF30080 
 2142              		.align	2
 2143              		.p2align 4,,15
 2144              		.thumb
 2145              		.thumb_func
 2146              		.type	thread2H, %function
 2147              	thread2H:
 2148              	.LFB13:
 2149              		.loc 1 179 0
 2150              		.cfi_startproc
 2151              		@ args = 0, pretend = 0, frame = 0
 2152              		@ frame_needed = 0, uses_anonymous_args = 0
 2153              	.LVL222:
ARM GAS  C:\Users\Vergil\AppData\Local\Temp\ccNro7AK.s 			page 39


 2154 0000 08B5     		push	{r3, lr}
 2155              	.LCFI33:
 2156              		.cfi_def_cfa_offset 8
 2157              		.cfi_offset 3, -8
 2158              		.cfi_offset 14, -4
 2159              		.loc 1 182 0
 2160 0002 2820     		movs	r0, #40
 2161              	.LVL223:
 2162 0004 FFF7FEFF 		bl	chThdSleep
 2163              	.LVL224:
 2164              		.loc 1 183 0
 2165 0008 40F20000 		movw	r0, #:lower16:.LANCHOR2
 2166 000c C0F20000 		movt	r0, #:upper16:.LANCHOR2
 2167 0010 FFF7FEFF 		bl	chMtxLock
 2168              	.LVL225:
 2169              		.loc 1 184 0
 2170 0014 0A20     		movs	r0, #10
 2171 0016 FFF7FEFF 		bl	test_cpu_pulse
 2172              	.LVL226:
 2173              		.loc 1 185 0
 2174 001a FFF7FEFF 		bl	chMtxUnlock
 2175              	.LVL227:
 2176              		.loc 1 186 0
 2177 001e 4120     		movs	r0, #65
 2178 0020 FFF7FEFF 		bl	test_emit_token
 2179              	.LVL228:
 2180              		.loc 1 188 0
 2181 0024 0020     		movs	r0, #0
 2182 0026 08BD     		pop	{r3, pc}
 2183              		.cfi_endproc
 2184              	.LFE13:
 2185              		.size	thread2H, .-thread2H
 2186              		.global	patternmtx
 2187              		.global	testmtx8
 2188              		.global	testmtx7
 2189              		.global	testmtx6
 2190              		.global	testmtx5
 2191              		.global	testmtx4
 2192              		.global	testmtx3
 2193              		.global	testmtx2
 2194              		.global	testmtx1
 2195 0028 AFF30080 		.section	.rodata.testmtx5,"a",%progbits
 2195      AFF30080 
 2196              		.align	2
 2197              		.type	testmtx5, %object
 2198              		.size	testmtx5, 16
 2199              	testmtx5:
 2200 0000 64000000 		.word	.LC10
 2201 0004 00000000 		.word	mtx5_setup
 2202 0008 00000000 		.word	0
 2203 000c 00000000 		.word	mtx5_execute
 2204              		.section	.rodata.testmtx6,"a",%progbits
 2205              		.align	2
 2206              		.type	testmtx6, %object
 2207              		.size	testmtx6, 16
 2208              	testmtx6:
 2209 0000 4C000000 		.word	.LC9
ARM GAS  C:\Users\Vergil\AppData\Local\Temp\ccNro7AK.s 			page 40


 2210 0004 00000000 		.word	mtx6_setup
 2211 0008 00000000 		.word	0
 2212 000c 00000000 		.word	mtx6_execute
 2213              		.section	.rodata.testmtx7,"a",%progbits
 2214              		.align	2
 2215              		.type	testmtx7, %object
 2216              		.size	testmtx7, 16
 2217              	testmtx7:
 2218 0000 34000000 		.word	.LC8
 2219 0004 00000000 		.word	mtx7_setup
 2220 0008 00000000 		.word	0
 2221 000c 00000000 		.word	mtx7_execute
 2222              		.section	.rodata.testmtx8,"a",%progbits
 2223              		.align	2
 2224              		.type	testmtx8, %object
 2225              		.size	testmtx8, 16
 2226              	testmtx8:
 2227 0000 20000000 		.word	.LC7
 2228 0004 00000000 		.word	mtx8_setup
 2229 0008 00000000 		.word	0
 2230 000c 00000000 		.word	mtx8_execute
 2231              		.section	.data.m1,"aw",%progbits
 2232              		.align	2
 2233              		.set	.LANCHOR2,. + 0
 2234              		.type	m1, %object
 2235              		.size	m1, 16
 2236              	m1:
 2237 0000 00000000 		.word	m1
 2238 0004 00000000 		.word	m1
 2239 0008 00000000 		.word	0
 2240 000c 00000000 		.word	0
 2241              		.section	.data.m2,"aw",%progbits
 2242              		.align	2
 2243              		.set	.LANCHOR1,. + 0
 2244              		.type	m2, %object
 2245              		.size	m2, 16
 2246              	m2:
 2247 0000 00000000 		.word	m2
 2248 0004 00000000 		.word	m2
 2249 0008 00000000 		.word	0
 2250 000c 00000000 		.word	0
 2251              		.section	.rodata.str1.4,"aMS",%progbits,1
 2252              		.align	2
 2253              	.LC0:
 2254 0000 4100     		.ascii	"A\000"
 2255 0002 0000     		.space	2
 2256              	.LC1:
 2257 0004 4300     		.ascii	"C\000"
 2258 0006 0000     		.space	2
 2259              	.LC2:
 2260 0008 4200     		.ascii	"B\000"
 2261 000a 0000     		.space	2
 2262              	.LC3:
 2263 000c 41424300 		.ascii	"ABC\000"
 2264              	.LC4:
 2265 0010 4500     		.ascii	"E\000"
 2266 0012 0000     		.space	2
ARM GAS  C:\Users\Vergil\AppData\Local\Temp\ccNro7AK.s 			page 41


 2267              	.LC5:
 2268 0014 4400     		.ascii	"D\000"
 2269 0016 0000     		.space	2
 2270              	.LC6:
 2271 0018 41424344 		.ascii	"ABCDE\000"
 2271      4500
 2272 001e 0000     		.space	2
 2273              	.LC7:
 2274 0020 436F6E64 		.ascii	"CondVar, boost test\000"
 2274      5661722C 
 2274      20626F6F 
 2274      73742074 
 2274      65737400 
 2275              	.LC8:
 2276 0034 436F6E64 		.ascii	"CondVar, broadcast test\000"
 2276      5661722C 
 2276      2062726F 
 2276      61646361 
 2276      73742074 
 2277              	.LC9:
 2278 004c 436F6E64 		.ascii	"CondVar, signal test\000"
 2278      5661722C 
 2278      20736967 
 2278      6E616C20 
 2278      74657374 
 2279 0061 000000   		.space	3
 2280              	.LC10:
 2281 0064 4D757465 		.ascii	"Mutexes, status\000"
 2281      7865732C 
 2281      20737461 
 2281      74757300 
 2282              	.LC11:
 2283 0074 4D757465 		.ascii	"Mutexes, priority return\000"
 2283      7865732C 
 2283      20707269 
 2283      6F726974 
 2283      79207265 
 2284 008d 000000   		.space	3
 2285              	.LC12:
 2286 0090 4D757465 		.ascii	"Mutexes, priority inheritance, complex case\000"
 2286      7865732C 
 2286      20707269 
 2286      6F726974 
 2286      7920696E 
 2287              	.LC13:
 2288 00bc 4D757465 		.ascii	"Mutexes, priority inheritance, simple case\000"
 2288      7865732C 
 2288      20707269 
 2288      6F726974 
 2288      7920696E 
 2289 00e7 00       		.space	1
 2290              	.LC14:
 2291 00e8 4D757465 		.ascii	"Mutexes, priority enqueuing test\000"
 2291      7865732C 
 2291      20707269 
 2291      6F726974 
 2291      7920656E 
ARM GAS  C:\Users\Vergil\AppData\Local\Temp\ccNro7AK.s 			page 42


 2292 0109 000000   		.section	.rodata.patternmtx,"a",%progbits
 2293              		.align	2
 2294              		.type	patternmtx, %object
 2295              		.size	patternmtx, 36
 2296              	patternmtx:
 2297 0000 00000000 		.word	testmtx1
 2298 0004 00000000 		.word	testmtx2
 2299 0008 00000000 		.word	testmtx3
 2300 000c 00000000 		.word	testmtx4
 2301 0010 00000000 		.word	testmtx5
 2302 0014 00000000 		.word	testmtx6
 2303 0018 00000000 		.word	testmtx7
 2304 001c 00000000 		.word	testmtx8
 2305 0020 00000000 		.word	0
 2306              		.section	.data.c1,"aw",%progbits
 2307              		.align	2
 2308              		.set	.LANCHOR0,. + 0
 2309              		.type	c1, %object
 2310              		.size	c1, 8
 2311              	c1:
 2312 0000 00000000 		.word	c1
 2313 0004 00000000 		.word	c1
 2314              		.section	.rodata.testmtx1,"a",%progbits
 2315              		.align	2
 2316              		.type	testmtx1, %object
 2317              		.size	testmtx1, 16
 2318              	testmtx1:
 2319 0000 E8000000 		.word	.LC14
 2320 0004 00000000 		.word	mtx1_setup
 2321 0008 00000000 		.word	0
 2322 000c 00000000 		.word	mtx1_execute
 2323              		.section	.rodata.testmtx2,"a",%progbits
 2324              		.align	2
 2325              		.type	testmtx2, %object
 2326              		.size	testmtx2, 16
 2327              	testmtx2:
 2328 0000 BC000000 		.word	.LC13
 2329 0004 00000000 		.word	mtx2_setup
 2330 0008 00000000 		.word	0
 2331 000c 00000000 		.word	mtx2_execute
 2332              		.section	.rodata.testmtx3,"a",%progbits
 2333              		.align	2
 2334              		.type	testmtx3, %object
 2335              		.size	testmtx3, 16
 2336              	testmtx3:
 2337 0000 90000000 		.word	.LC12
 2338 0004 00000000 		.word	mtx3_setup
 2339 0008 00000000 		.word	0
 2340 000c 00000000 		.word	mtx3_execute
 2341              		.section	.rodata.testmtx4,"a",%progbits
 2342              		.align	2
 2343              		.type	testmtx4, %object
 2344              		.size	testmtx4, 16
 2345              	testmtx4:
 2346 0000 74000000 		.word	.LC11
 2347 0004 00000000 		.word	mtx4_setup
 2348 0008 00000000 		.word	0
ARM GAS  C:\Users\Vergil\AppData\Local\Temp\ccNro7AK.s 			page 43


 2349 000c 00000000 		.word	mtx4_execute
 2350              		.text
 2351              	.Letext0:
 2352              		.file 2 "c:\\chibistudio\\tools\\gnu tools arm embedded\\4.7 2014q2\\bin\\../lib/gcc/arm-none-eabi
 2353              		.file 3 "c:\\chibistudio\\tools\\gnu tools arm embedded\\4.7 2014q2\\bin\\../lib/gcc/arm-none-eabi
 2354              		.file 4 "../../os/ports/GCC/ARMCMx/chtypes.h"
 2355              		.file 5 "../../os/kernel/include/chlists.h"
 2356              		.file 6 "../../os/kernel/include/chthreads.h"
 2357              		.file 7 "../../os/ports/GCC/ARMCMx/chcore_v7m.h"
 2358              		.file 8 "../../os/kernel/include/chvt.h"
 2359              		.file 9 "../../os/kernel/include/chschd.h"
 2360              		.file 10 "../../os/kernel/include/chmtx.h"
 2361              		.file 11 "../../os/kernel/include/chcond.h"
 2362              		.file 12 "../../test/test.h"