ARM GAS  C:\Users\Vergil\AppData\Local\Temp\ccBusahc.s 			page 1


   1              		.syntax unified
   2              		.cpu cortex-m4
   3              		.eabi_attribute 27, 3
   4              		.eabi_attribute 28, 1
   5              		.fpu fpv4-sp-d16
   6              		.eabi_attribute 20, 1
   7              		.eabi_attribute 21, 1
   8              		.eabi_attribute 23, 3
   9              		.eabi_attribute 24, 1
  10              		.eabi_attribute 25, 1
  11              		.eabi_attribute 26, 1
  12              		.eabi_attribute 30, 2
  13              		.eabi_attribute 34, 1
  14              		.eabi_attribute 18, 4
  15              		.thumb
  16              		.file	"wlan.c"
  17              		.text
  18              	.Ltext0:
  19              		.cfi_sections	.debug_frame
  20              		.section	.text.SpiReceiveHandler,"ax",%progbits
  21              		.align	2
  22              		.p2align 4,,15
  23              		.global	SpiReceiveHandler
  24              		.thumb
  25              		.thumb_func
  26              		.type	SpiReceiveHandler, %function
  27              	SpiReceiveHandler:
  28              	.LFB2:
  29              		.file 1 "C:\\Users\\Vergil\\ChibiOS_CC3000_SPI/CC3000HostDriver/wlan.c"
  30              		.loc 1 220 0
  31              		.cfi_startproc
  32              		@ args = 0, pretend = 0, frame = 0
  33              		@ frame_needed = 0, uses_anonymous_args = 0
  34              		@ link register save eliminated.
  35              	.LVL0:
  36              		.loc 1 221 0
  37 0000 40F20003 		movw	r3, #:lower16:.LANCHOR0
  38 0004 C0F20003 		movt	r3, #:upper16:.LANCHOR0
  39 0008 0122     		movs	r2, #1
  40 000a 5A80     		strh	r2, [r3, #2]	@ movhi
  41              		.loc 1 222 0
  42 000c 5860     		str	r0, [r3, #4]
  43              		.loc 1 225 0
  44              		.loc 1 224 0
  45 000e FFF7FEBF 		b	hci_unsolicited_event_handler
  46              	.LVL1:
  47              		.cfi_endproc
  48              	.LFE2:
  49              		.size	SpiReceiveHandler, .-SpiReceiveHandler
  50 0012 00BFAFF3 		.section	.text.wlan_init,"ax",%progbits
  50      0080AFF3 
  50      0080AFF3 
  50      0080
  51              		.align	2
  52              		.p2align 4,,15
  53              		.global	wlan_init
  54              		.thumb
ARM GAS  C:\Users\Vergil\AppData\Local\Temp\ccBusahc.s 			page 2


  55              		.thumb_func
  56              		.type	wlan_init, %function
  57              	wlan_init:
  58              	.LFB1:
  59              		.loc 1 186 0
  60              		.cfi_startproc
  61              		@ args = 16, pretend = 0, frame = 0
  62              		@ frame_needed = 0, uses_anonymous_args = 0
  63              		@ link register save eliminated.
  64              	.LVL2:
  65 0000 10B4     		push	{r4}
  66              	.LCFI0:
  67              		.cfi_def_cfa_offset 4
  68              		.cfi_offset 4, -4
  69              		.loc 1 188 0
  70 0002 40F20004 		movw	r4, #:lower16:.LANCHOR0
  71 0006 C0F20004 		movt	r4, #:upper16:.LANCHOR0
  72 000a E160     		str	r1, [r4, #12]
  73              		.loc 1 189 0
  74 000c 2261     		str	r2, [r4, #16]
  75              		.loc 1 190 0
  76 000e 6361     		str	r3, [r4, #20]
  77              		.loc 1 193 0
  78 0010 019B     		ldr	r3, [sp, #4]
  79              	.LVL3:
  80              		.loc 1 194 0
  81 0012 0299     		ldr	r1, [sp, #8]
  82              	.LVL4:
  83              		.loc 1 193 0
  84 0014 E361     		str	r3, [r4, #28]
  85              		.loc 1 195 0
  86 0016 039A     		ldr	r2, [sp, #12]
  87              	.LVL5:
  88              		.loc 1 196 0
  89 0018 049B     		ldr	r3, [sp, #16]
  90              		.loc 1 194 0
  91 001a 2162     		str	r1, [r4, #32]
  92              		.loc 1 195 0
  93 001c 6262     		str	r2, [r4, #36]
  94              		.loc 1 196 0
  95 001e A362     		str	r3, [r4, #40]
  96              		.loc 1 199 0
  97 0020 A061     		str	r0, [r4, #24]
  98              		.loc 1 202 0
  99 0022 0120     		movs	r0, #1
 100              	.LVL6:
 101 0024 84F84000 		strb	r0, [r4, #64]
 102              		.loc 1 203 0
 103 0028 10BC     		pop	{r4}
 104 002a 7047     		bx	lr
 105              		.cfi_endproc
 106              	.LFE1:
 107              		.size	wlan_init, .-wlan_init
 108 002c AFF30080 		.section	.text.wlan_start,"ax",%progbits
 109              		.align	2
 110              		.p2align 4,,15
 111              		.global	wlan_start
ARM GAS  C:\Users\Vergil\AppData\Local\Temp\ccBusahc.s 			page 3


 112              		.thumb
 113              		.thumb_func
 114              		.type	wlan_start, %function
 115              	wlan_start:
 116              	.LFB3:
 117              		.loc 1 256 0
 118              		.cfi_startproc
 119              		@ args = 0, pretend = 0, frame = 0
 120              		@ frame_needed = 0, uses_anonymous_args = 0
 121              	.LVL7:
 122 0000 70B5     		push	{r4, r5, r6, lr}
 123              	.LCFI1:
 124              		.cfi_def_cfa_offset 16
 125              		.cfi_offset 4, -16
 126              		.cfi_offset 5, -12
 127              		.cfi_offset 6, -8
 128              		.cfi_offset 14, -4
 129              		.loc 1 272 0
 130 0002 2449     		ldr	r1, .L24
 131              		.loc 1 260 0
 132 0004 244C     		ldr	r4, .L24+4
 133 0006 0023     		movs	r3, #0
 134              		.loc 1 256 0
 135 0008 0546     		mov	r5, r0
 136              		.loc 1 275 0
 137 000a 2448     		ldr	r0, .L24+8
 138              	.LVL8:
 139              		.loc 1 260 0
 140 000c A363     		str	r3, [r4, #56]
 141              		.loc 1 261 0
 142 000e E363     		str	r3, [r4, #60]
 143              		.loc 1 262 0
 144 0010 2380     		strh	r3, [r4, #0]	@ movhi
 145              		.loc 1 263 0
 146 0012 2386     		strh	r3, [r4, #48]	@ movhi
 147              		.loc 1 264 0
 148 0014 6386     		strh	r3, [r4, #50]	@ movhi
 149              		.loc 1 265 0
 150 0016 A386     		strh	r3, [r4, #52]	@ movhi
 151              		.loc 1 266 0
 152 0018 E386     		strh	r3, [r4, #54]	@ movhi
 153              		.loc 1 267 0
 154 001a E362     		str	r3, [r4, #44]
 155              		.loc 1 268 0
 156 001c 6380     		strh	r3, [r4, #2]	@ movhi
 157              		.loc 1 269 0
 158 001e 6360     		str	r3, [r4, #4]
 159              		.loc 1 272 0
 160 0020 A160     		str	r1, [r4, #8]
 161              		.loc 1 275 0
 162 0022 FFF7FEFF 		bl	SpiOpen
 163              	.LVL9:
 164              		.loc 1 278 0
 165 0026 E069     		ldr	r0, [r4, #28]
 166 0028 8047     		blx	r0
 167              	.LVL10:
 168              		.loc 1 281 0
ARM GAS  C:\Users\Vergil\AppData\Local\Temp\ccBusahc.s 			page 4


 169 002a A26A     		ldr	r2, [r4, #40]
 170              		.loc 1 278 0
 171 002c 0646     		mov	r6, r0
 172              	.LVL11:
 173              		.loc 1 281 0
 174 002e 0120     		movs	r0, #1
 175              	.LVL12:
 176 0030 9047     		blx	r2
 177              	.LVL13:
 178              		.loc 1 283 0
 179 0032 0EB3     		cbz	r6, .L16
 180              	.L14:
 181              		.loc 1 286 0
 182 0034 E069     		ldr	r0, [r4, #28]
 183 0036 8047     		blx	r0
 184              	.LVL14:
 185 0038 0028     		cmp	r0, #0
 186 003a FBD1     		bne	.L14
 187              	.L9:
 188              	.LVL15:
 189              	.LBB4:
 190              	.LBB5:
 191              		.loc 1 119 0
 192 003c A368     		ldr	r3, [r4, #8]
 193              	.LVL16:
 194              		.loc 1 122 0
 195 003e 002D     		cmp	r5, #0
 196 0040 14BF     		ite	ne
 197 0042 0225     		movne	r5, #2
 198 0044 0025     		moveq	r5, #0
 199              	.LVL17:
 200              		.loc 1 125 0
 201 0046 1946     		mov	r1, r3
 202 0048 0122     		movs	r2, #1
 203              		.loc 1 122 0
 204 004a 5D72     		strb	r5, [r3, #9]
 205              	.LVL18:
 206              		.loc 1 125 0
 207 004c 4FF48040 		mov	r0, #16384
 208 0050 FFF7FEFF 		bl	hci_command_send
 209              	.LVL19:
 210              		.loc 1 127 0
 211 0054 0021     		movs	r1, #0
 212 0056 4FF48040 		mov	r0, #16384
 213 005a FFF7FEFF 		bl	SimpleLinkWaitEvent
 214              	.LVL20:
 215              	.LBE5:
 216              	.LBE4:
 217              		.loc 1 305 0
 218 005e A168     		ldr	r1, [r4, #8]
 219 0060 0022     		movs	r2, #0
 220 0062 44F20B00 		movw	r0, #16395
 221 0066 FFF7FEFF 		bl	hci_command_send
 222              	.LVL21:
 223              		.loc 1 306 0
 224 006a 44F20B00 		movw	r0, #16395
 225 006e 0021     		movs	r1, #0
ARM GAS  C:\Users\Vergil\AppData\Local\Temp\ccBusahc.s 			page 5


 226              		.loc 1 307 0
 227 0070 BDE87040 		pop	{r4, r5, r6, lr}
 228              		.loc 1 306 0
 229 0074 FFF7FEBF 		b	SimpleLinkWaitEvent
 230              	.LVL22:
 231              	.L16:
 232              		.loc 1 293 0
 233 0078 E369     		ldr	r3, [r4, #28]
 234 007a 9847     		blx	r3
 235              	.LVL23:
 236 007c 0028     		cmp	r0, #0
 237 007e FBD0     		beq	.L16
 238              	.L15:
 239              		.loc 1 297 0
 240 0080 E169     		ldr	r1, [r4, #28]
 241 0082 8847     		blx	r1
 242              	.LVL24:
 243 0084 0028     		cmp	r0, #0
 244 0086 D9D0     		beq	.L9
 245 0088 E169     		ldr	r1, [r4, #28]
 246 008a 8847     		blx	r1
 247              	.LVL25:
 248 008c 0028     		cmp	r0, #0
 249 008e F7D1     		bne	.L15
 250 0090 D4E7     		b	.L9
 251              	.L25:
 252 0092 00BF     		.align	2
 253              	.L24:
 254 0094 00000000 		.word	wlan_tx_buffer
 255 0098 00000000 		.word	.LANCHOR0
 256 009c 00000000 		.word	SpiReceiveHandler
 257              		.cfi_endproc
 258              	.LFE3:
 259              		.size	wlan_start, .-wlan_start
 260              		.section	.text.wlan_stop,"ax",%progbits
 261              		.align	2
 262              		.p2align 4,,15
 263              		.global	wlan_stop
 264              		.thumb
 265              		.thumb_func
 266              		.type	wlan_stop, %function
 267              	wlan_stop:
 268              	.LFB4:
 269              		.loc 1 325 0
 270              		.cfi_startproc
 271              		@ args = 0, pretend = 0, frame = 0
 272              		@ frame_needed = 0, uses_anonymous_args = 0
 273 0000 38B5     		push	{r3, r4, r5, lr}
 274              	.LCFI2:
 275              		.cfi_def_cfa_offset 16
 276              		.cfi_offset 3, -16
 277              		.cfi_offset 4, -12
 278              		.cfi_offset 5, -8
 279              		.cfi_offset 14, -4
 280              		.loc 1 327 0
 281 0002 084C     		ldr	r4, .L36
 282 0004 0020     		movs	r0, #0
ARM GAS  C:\Users\Vergil\AppData\Local\Temp\ccBusahc.s 			page 6


 283 0006 A36A     		ldr	r3, [r4, #40]
 284 0008 9847     		blx	r3
 285              	.LVL26:
 286              	.L27:
 287              		.loc 1 330 0 discriminator 1
 288 000a E069     		ldr	r0, [r4, #28]
 289 000c 054D     		ldr	r5, .L36
 290 000e 8047     		blx	r0
 291              	.LVL27:
 292 0010 0028     		cmp	r0, #0
 293 0012 FAD0     		beq	.L27
 294              		.loc 1 335 0
 295 0014 A968     		ldr	r1, [r5, #8]
 296 0016 09B1     		cbz	r1, .L28
 297              		.loc 1 337 0
 298 0018 0022     		movs	r2, #0
 299 001a AA60     		str	r2, [r5, #8]
 300              	.L28:
 301              		.loc 1 341 0
 302 001c BDE83840 		pop	{r3, r4, r5, lr}
 303              		.loc 1 340 0
 304 0020 FFF7FEBF 		b	SpiClose
 305              	.LVL28:
 306              	.L37:
 307              		.align	2
 308              	.L36:
 309 0024 00000000 		.word	.LANCHOR0
 310              		.cfi_endproc
 311              	.LFE4:
 312              		.size	wlan_stop, .-wlan_stop
 313 0028 AFF30080 		.section	.text.wlan_connect,"ax",%progbits
 313      AFF30080 
 314              		.align	2
 315              		.p2align 4,,15
 316              		.global	wlan_connect
 317              		.thumb
 318              		.thumb_func
 319              		.type	wlan_connect, %function
 320              	wlan_connect:
 321              	.LFB5:
 322              		.loc 1 378 0
 323              		.cfi_startproc
 324              		@ args = 8, pretend = 0, frame = 16
 325              		@ frame_needed = 0, uses_anonymous_args = 0
 326              	.LVL29:
 327 0000 2DE9F04F 		push	{r4, r5, r6, r7, r8, r9, sl, fp, lr}
 328              	.LCFI3:
 329              		.cfi_def_cfa_offset 36
 330              		.cfi_offset 4, -36
 331              		.cfi_offset 5, -32
 332              		.cfi_offset 6, -28
 333              		.cfi_offset 7, -24
 334              		.cfi_offset 8, -20
 335              		.cfi_offset 9, -16
 336              		.cfi_offset 10, -12
 337              		.cfi_offset 11, -8
 338              		.cfi_offset 14, -4
ARM GAS  C:\Users\Vergil\AppData\Local\Temp\ccBusahc.s 			page 7


 339              		.loc 1 385 0
 340 0004 524C     		ldr	r4, .L66
 341 0006 D4F80890 		ldr	r9, [r4, #8]
 342              	.LVL30:
 343              		.loc 1 378 0
 344 000a 85B0     		sub	sp, sp, #20
 345              	.LCFI4:
 346              		.cfi_def_cfa_offset 56
 347              		.loc 1 378 0
 348 000c 1546     		mov	r5, r2
 349              		.loc 1 382 0
 350 000e 0024     		movs	r4, #0
 351              		.loc 1 378 0
 352 0010 8346     		mov	fp, r0
 353 0012 9A46     		mov	sl, r3
 354 0014 0E46     		mov	r6, r1
 355              		.loc 1 384 0
 356 0016 4FF0FF33 		mov	r3, #-1
 357              	.LVL31:
 358              		.loc 1 389 0
 359 001a 1C21     		movs	r1, #28
 360              	.LVL32:
 361 001c 09F10900 		add	r0, r9, #9
 362              	.LVL33:
 363              		.loc 1 384 0
 364 0020 0193     		str	r3, [sp, #4]
 365              	.LVL34:
 366              		.loc 1 378 0
 367 0022 0F9F     		ldr	r7, [sp, #60]
 368 0024 DDF83880 		ldr	r8, [sp, #56]
 369              		.loc 1 382 0
 370 0028 8DF80840 		strb	r4, [sp, #8]
 371 002c 8DF80940 		strb	r4, [sp, #9]
 372 0030 8DF80A40 		strb	r4, [sp, #10]
 373 0034 8DF80B40 		strb	r4, [sp, #11]
 374 0038 8DF80C40 		strb	r4, [sp, #12]
 375 003c 8DF80D40 		strb	r4, [sp, #13]
 376              		.loc 1 389 0
 377 0040 FFF7FEFF 		bl	UINT32_TO_STREAM_f
 378              	.LVL35:
 379              		.loc 1 390 0
 380 0044 2946     		mov	r1, r5
 381 0046 FFF7FEFF 		bl	UINT32_TO_STREAM_f
 382              	.LVL36:
 383              		.loc 1 391 0
 384 004a 5946     		mov	r1, fp
 385 004c FFF7FEFF 		bl	UINT32_TO_STREAM_f
 386              	.LVL37:
 387              		.loc 1 392 0
 388 0050 05F11001 		add	r1, r5, #16
 389 0054 FFF7FEFF 		bl	UINT32_TO_STREAM_f
 390              	.LVL38:
 391              		.loc 1 393 0
 392 0058 3946     		mov	r1, r7
 393 005a FFF7FEFF 		bl	UINT32_TO_STREAM_f
 394              	.LVL39:
 395              		.loc 1 394 0
ARM GAS  C:\Users\Vergil\AppData\Local\Temp\ccBusahc.s 			page 8


 396 005e 2146     		mov	r1, r4
 397 0060 FFF7FEFF 		bl	UINT16_TO_STREAM_f
 398              	.LVL40:
 399              		.loc 1 397 0
 400 0064 BAF1000F 		cmp	sl, #0
 401 0068 5ED0     		beq	.L39
 402              	.LBB6:
 403              		.loc 1 399 0
 404 006a 9AF80040 		ldrb	r4, [sl, #0]	@ zero_extendqisi2
 405 006e 0470     		strb	r4, [r0, #0]
 406              	.LVL41:
 407 0070 9AF80110 		ldrb	r1, [sl, #1]	@ zero_extendqisi2
 408 0074 4170     		strb	r1, [r0, #1]
 409              	.LVL42:
 410 0076 9AF80220 		ldrb	r2, [sl, #2]	@ zero_extendqisi2
 411 007a 8270     		strb	r2, [r0, #2]
 412              	.LVL43:
 413 007c 9AF80330 		ldrb	r3, [sl, #3]	@ zero_extendqisi2
 414 0080 C370     		strb	r3, [r0, #3]
 415              	.LVL44:
 416 0082 9AF80440 		ldrb	r4, [sl, #4]	@ zero_extendqisi2
 417 0086 0471     		strb	r4, [r0, #4]
 418              	.LVL45:
 419 0088 9AF80510 		ldrb	r1, [sl, #5]	@ zero_extendqisi2
 420 008c 841D     		adds	r4, r0, #6
 421 008e 4171     		strb	r1, [r0, #5]
 422              	.LVL46:
 423              	.L42:
 424              	.LBE6:
 425              	.LBB7:
 426              		.loc 1 406 0 discriminator 1
 427 0090 002D     		cmp	r5, #0
 428 0092 16DD     		ble	.L41
 429              		.loc 1 406 0 is_stmt 0
 430 0094 3078     		ldrb	r0, [r6, #0]	@ zero_extendqisi2
 431 0096 0123     		movs	r3, #1
 432 0098 6A1E     		subs	r2, r5, #1
 433 009a 9D42     		cmp	r5, r3
 434 009c 2070     		strb	r0, [r4, #0]
 435              	.LVL47:
 436 009e 02F00101 		and	r1, r2, #1
 437 00a2 0DD0     		beq	.L64
 438 00a4 21B1     		cbz	r1, .L40
 439 00a6 7078     		ldrb	r0, [r6, #1]	@ zero_extendqisi2
 440 00a8 0223     		movs	r3, #2
 441 00aa 9D42     		cmp	r5, r3
 442 00ac 6070     		strb	r0, [r4, #1]
 443 00ae 07D0     		beq	.L64
 444              	.L40:
 445              		.loc 1 406 0 discriminator 2
 446 00b0 F25C     		ldrb	r2, [r6, r3]	@ zero_extendqisi2
 447 00b2 591C     		adds	r1, r3, #1
 448 00b4 E254     		strb	r2, [r4, r3]
 449 00b6 0233     		adds	r3, r3, #2
 450 00b8 705C     		ldrb	r0, [r6, r1]	@ zero_extendqisi2
 451 00ba 9D42     		cmp	r5, r3
 452 00bc 6054     		strb	r0, [r4, r1]
ARM GAS  C:\Users\Vergil\AppData\Local\Temp\ccBusahc.s 			page 9


 453 00be F7D1     		bne	.L40
 454              	.L64:
 455 00c0 6419     		adds	r4, r4, r5
 456              	.L41:
 457              	.LBE7:
 458              		.loc 1 408 0 is_stmt 1
 459 00c2 F7B1     		cbz	r7, .L44
 460              		.loc 1 408 0 is_stmt 0 discriminator 1
 461 00c4 B8F1000F 		cmp	r8, #0
 462 00c8 1BD0     		beq	.L44
 463              	.LVL48:
 464              	.LBB8:
 465              		.loc 1 410 0 is_stmt 1 discriminator 1
 466 00ca 002F     		cmp	r7, #0
 467 00cc 19DD     		ble	.L44
 468 00ce 7B1E     		subs	r3, r7, #1
 469              		.loc 1 410 0 is_stmt 0
 470 00d0 98F80020 		ldrb	r2, [r8, #0]	@ zero_extendqisi2
 471 00d4 03F00101 		and	r1, r3, #1
 472 00d8 0123     		movs	r3, #1
 473 00da 9F42     		cmp	r7, r3
 474 00dc 2270     		strb	r2, [r4, #0]
 475              	.LVL49:
 476 00de 10D0     		beq	.L44
 477 00e0 29B1     		cbz	r1, .L45
 478 00e2 98F80100 		ldrb	r0, [r8, #1]	@ zero_extendqisi2
 479 00e6 0223     		movs	r3, #2
 480 00e8 9F42     		cmp	r7, r3
 481 00ea 6070     		strb	r0, [r4, #1]
 482 00ec 09D0     		beq	.L44
 483              	.L45:
 484              		.loc 1 410 0 discriminator 2
 485 00ee 18F80310 		ldrb	r1, [r8, r3]	@ zero_extendqisi2
 486 00f2 5A1C     		adds	r2, r3, #1
 487 00f4 E154     		strb	r1, [r4, r3]
 488 00f6 0233     		adds	r3, r3, #2
 489 00f8 18F80200 		ldrb	r0, [r8, r2]	@ zero_extendqisi2
 490 00fc 9F42     		cmp	r7, r3
 491 00fe A054     		strb	r0, [r4, r2]
 492 0100 F5D1     		bne	.L45
 493              	.L44:
 494              	.LBE8:
 495              		.loc 1 414 0 is_stmt 1
 496 0102 1C35     		adds	r5, r5, #28
 497              	.LVL50:
 498 0104 EB19     		adds	r3, r5, r7
 499 0106 DAB2     		uxtb	r2, r3
 500 0108 4946     		mov	r1, r9
 501 010a 0120     		movs	r0, #1
 502 010c FFF7FEFF 		bl	hci_command_send
 503              	.LVL51:
 504              		.loc 1 418 0
 505 0110 01A9     		add	r1, sp, #4
 506 0112 0120     		movs	r0, #1
 507 0114 FFF7FEFF 		bl	SimpleLinkWaitEvent
 508              	.LVL52:
 509              		.loc 1 419 0
ARM GAS  C:\Users\Vergil\AppData\Local\Temp\ccBusahc.s 			page 10


 510 0118 FFF7FEFF 		bl	__errno
 511              	.LVL53:
 512 011c 0199     		ldr	r1, [sp, #4]
 513 011e 0160     		str	r1, [r0, #0]
 514              		.loc 1 422 0
 515 0120 0846     		mov	r0, r1
 516 0122 05B0     		add	sp, sp, #20
 517 0124 BDE8F08F 		pop	{r4, r5, r6, r7, r8, r9, sl, fp, pc}
 518              	.LVL54:
 519              	.L39:
 520              	.LBB9:
 521              		.loc 1 403 0
 522 0128 9DF80A40 		ldrb	r4, [sp, #10]	@ zero_extendqisi2
 523 012c 9DF809E0 		ldrb	lr, [sp, #9]	@ zero_extendqisi2
 524 0130 9DF80B10 		ldrb	r1, [sp, #11]	@ zero_extendqisi2
 525 0134 9DF80C20 		ldrb	r2, [sp, #12]	@ zero_extendqisi2
 526 0138 9DF80D30 		ldrb	r3, [sp, #13]	@ zero_extendqisi2
 527 013c 8470     		strb	r4, [r0, #2]
 528 013e 80F800A0 		strb	sl, [r0, #0]
 529              	.LVL55:
 530 0142 80F801E0 		strb	lr, [r0, #1]
 531              	.LVL56:
 532 0146 C170     		strb	r1, [r0, #3]
 533              	.LVL57:
 534 0148 0271     		strb	r2, [r0, #4]
 535              	.LVL58:
 536 014a 4371     		strb	r3, [r0, #5]
 537              	.LVL59:
 538 014c 841D     		adds	r4, r0, #6
 539 014e 9FE7     		b	.L42
 540              	.L67:
 541              		.align	2
 542              	.L66:
 543 0150 00000000 		.word	.LANCHOR0
 544              	.LBE9:
 545              		.cfi_endproc
 546              	.LFE5:
 547              		.size	wlan_connect, .-wlan_connect
 548 0154 AFF30080 		.section	.text.wlan_disconnect,"ax",%progbits
 548      AFF30080 
 548      AFF30080 
 549              		.align	2
 550              		.p2align 4,,15
 551              		.global	wlan_disconnect
 552              		.thumb
 553              		.thumb_func
 554              		.type	wlan_disconnect, %function
 555              	wlan_disconnect:
 556              	.LFB6:
 557              		.loc 1 472 0
 558              		.cfi_startproc
 559              		@ args = 0, pretend = 0, frame = 8
 560              		@ frame_needed = 0, uses_anonymous_args = 0
 561 0000 10B5     		push	{r4, lr}
 562              	.LCFI5:
 563              		.cfi_def_cfa_offset 8
 564              		.cfi_offset 4, -8
ARM GAS  C:\Users\Vergil\AppData\Local\Temp\ccBusahc.s 			page 11


 565              		.cfi_offset 14, -4
 566 0002 82B0     		sub	sp, sp, #8
 567              	.LCFI6:
 568              		.cfi_def_cfa_offset 16
 569              		.loc 1 476 0
 570 0004 02AC     		add	r4, sp, #8
 571              		.loc 1 477 0
 572 0006 40F20003 		movw	r3, #:lower16:.LANCHOR0
 573 000a C0F20003 		movt	r3, #:upper16:.LANCHOR0
 574              		.loc 1 476 0
 575 000e 4FF0FF30 		mov	r0, #-1
 576 0012 44F8040D 		str	r0, [r4, #-4]!
 577              	.LVL60:
 578              		.loc 1 477 0
 579 0016 9968     		ldr	r1, [r3, #8]
 580              	.LVL61:
 581              		.loc 1 479 0
 582 0018 0022     		movs	r2, #0
 583 001a 0220     		movs	r0, #2
 584 001c FFF7FEFF 		bl	hci_command_send
 585              	.LVL62:
 586              		.loc 1 482 0
 587 0020 2146     		mov	r1, r4
 588 0022 0220     		movs	r0, #2
 589 0024 FFF7FEFF 		bl	SimpleLinkWaitEvent
 590              	.LVL63:
 591              		.loc 1 483 0
 592 0028 FFF7FEFF 		bl	__errno
 593              	.LVL64:
 594 002c 0199     		ldr	r1, [sp, #4]
 595 002e 0160     		str	r1, [r0, #0]
 596              		.loc 1 486 0
 597 0030 0846     		mov	r0, r1
 598 0032 02B0     		add	sp, sp, #8
 599 0034 10BD     		pop	{r4, pc}
 600              		.cfi_endproc
 601              	.LFE6:
 602              		.size	wlan_disconnect, .-wlan_disconnect
 603 0036 00BFAFF3 		.section	.text.wlan_ioctl_set_connection_policy,"ax",%progbits
 603      0080AFF3 
 603      0080
 604              		.align	2
 605              		.p2align 4,,15
 606              		.global	wlan_ioctl_set_connection_policy
 607              		.thumb
 608              		.thumb_func
 609              		.type	wlan_ioctl_set_connection_policy, %function
 610              	wlan_ioctl_set_connection_policy:
 611              	.LFB7:
 612              		.loc 1 523 0
 613              		.cfi_startproc
 614              		@ args = 0, pretend = 0, frame = 8
 615              		@ frame_needed = 0, uses_anonymous_args = 0
 616              	.LVL65:
 617 0000 F0B5     		push	{r4, r5, r6, r7, lr}
 618              	.LCFI7:
 619              		.cfi_def_cfa_offset 20
ARM GAS  C:\Users\Vergil\AppData\Local\Temp\ccBusahc.s 			page 12


 620              		.cfi_offset 4, -20
 621              		.cfi_offset 5, -16
 622              		.cfi_offset 6, -12
 623              		.cfi_offset 7, -8
 624              		.cfi_offset 14, -4
 625              		.loc 1 529 0
 626 0002 40F20003 		movw	r3, #:lower16:.LANCHOR0
 627 0006 C0F20003 		movt	r3, #:upper16:.LANCHOR0
 628              		.loc 1 523 0
 629 000a 83B0     		sub	sp, sp, #12
 630              	.LCFI8:
 631              		.cfi_def_cfa_offset 32
 632              		.loc 1 529 0
 633 000c 9D68     		ldr	r5, [r3, #8]
 634              	.LVL66:
 635              		.loc 1 523 0
 636 000e 0746     		mov	r7, r0
 637              		.loc 1 528 0
 638 0010 02AC     		add	r4, sp, #8
 639              		.loc 1 523 0
 640 0012 0E46     		mov	r6, r1
 641              		.loc 1 533 0
 642 0014 05F10900 		add	r0, r5, #9
 643              	.LVL67:
 644 0018 3946     		mov	r1, r7
 645              	.LVL68:
 646              		.loc 1 523 0
 647 001a 1746     		mov	r7, r2
 648              	.LVL69:
 649              		.loc 1 528 0
 650 001c 4FF0FF32 		mov	r2, #-1
 651              	.LVL70:
 652 0020 44F8042D 		str	r2, [r4, #-4]!
 653              	.LVL71:
 654              		.loc 1 533 0
 655 0024 FFF7FEFF 		bl	UINT32_TO_STREAM_f
 656              	.LVL72:
 657              		.loc 1 534 0
 658 0028 3146     		mov	r1, r6
 659 002a FFF7FEFF 		bl	UINT32_TO_STREAM_f
 660              	.LVL73:
 661              		.loc 1 535 0
 662 002e 3946     		mov	r1, r7
 663 0030 FFF7FEFF 		bl	UINT32_TO_STREAM_f
 664              	.LVL74:
 665              		.loc 1 538 0
 666 0034 2946     		mov	r1, r5
 667 0036 0C22     		movs	r2, #12
 668 0038 0420     		movs	r0, #4
 669 003a FFF7FEFF 		bl	hci_command_send
 670              	.LVL75:
 671              		.loc 1 542 0
 672 003e 0420     		movs	r0, #4
 673 0040 2146     		mov	r1, r4
 674 0042 FFF7FEFF 		bl	SimpleLinkWaitEvent
 675              	.LVL76:
 676              		.loc 1 545 0
ARM GAS  C:\Users\Vergil\AppData\Local\Temp\ccBusahc.s 			page 13


 677 0046 0198     		ldr	r0, [sp, #4]
 678 0048 03B0     		add	sp, sp, #12
 679 004a F0BD     		pop	{r4, r5, r6, r7, pc}
 680              		.cfi_endproc
 681              	.LFE7:
 682              		.size	wlan_ioctl_set_connection_policy, .-wlan_ioctl_set_connection_policy
 683 004c AFF30080 		.section	.text.wlan_add_profile,"ax",%progbits
 684              		.align	2
 685              		.p2align 4,,15
 686              		.global	wlan_add_profile
 687              		.thumb
 688              		.thumb_func
 689              		.type	wlan_add_profile, %function
 690              	wlan_add_profile:
 691              	.LFB8:
 692              		.loc 1 590 0
 693              		.cfi_startproc
 694              		@ args = 24, pretend = 0, frame = 24
 695              		@ frame_needed = 0, uses_anonymous_args = 0
 696              	.LVL77:
 697 0000 2DE9F04F 		push	{r4, r5, r6, r7, r8, r9, sl, fp, lr}
 698              	.LCFI9:
 699              		.cfi_def_cfa_offset 36
 700              		.cfi_offset 4, -36
 701              		.cfi_offset 5, -32
 702              		.cfi_offset 6, -28
 703              		.cfi_offset 7, -24
 704              		.cfi_offset 8, -20
 705              		.cfi_offset 9, -16
 706              		.cfi_offset 10, -12
 707              		.cfi_offset 11, -8
 708              		.cfi_offset 14, -4
 709              		.loc 1 598 0
 710 0004 A14C     		ldr	r4, .L135
 711 0006 A768     		ldr	r7, [r4, #8]
 712              	.LVL78:
 713              		.loc 1 590 0
 714 0008 87B0     		sub	sp, sp, #28
 715              	.LCFI10:
 716              		.cfi_def_cfa_offset 64
 717              		.loc 1 590 0
 718 000a 8346     		mov	fp, r0
 719              		.loc 1 596 0
 720 000c 0024     		movs	r4, #0
 721              		.loc 1 590 0
 722 000e 8946     		mov	r9, r1
 723              		.loc 1 601 0
 724 0010 07F10900 		add	r0, r7, #9
 725              	.LVL79:
 726 0014 5946     		mov	r1, fp
 727              	.LVL80:
 728              		.loc 1 590 0
 729 0016 1646     		mov	r6, r2
 730 0018 DDF84480 		ldr	r8, [sp, #68]
 731 001c 149D     		ldr	r5, [sp, #80]
 732              		.loc 1 596 0
 733 001e 8DF81040 		strb	r4, [sp, #16]
ARM GAS  C:\Users\Vergil\AppData\Local\Temp\ccBusahc.s 			page 14


 734              		.loc 1 590 0
 735 0022 9A46     		mov	sl, r3
 736              		.loc 1 596 0
 737 0024 8DF81140 		strb	r4, [sp, #17]
 738 0028 8DF81240 		strb	r4, [sp, #18]
 739 002c 8DF81340 		strb	r4, [sp, #19]
 740 0030 8DF81440 		strb	r4, [sp, #20]
 741 0034 8DF81540 		strb	r4, [sp, #21]
 742              		.loc 1 601 0
 743 0038 FFF7FEFF 		bl	UINT32_TO_STREAM_f
 744              	.LVL81:
 745              		.loc 1 604 0
 746 003c BBF1030F 		cmp	fp, #3
 747 0040 0CD8     		bhi	.L71
 748 0042 DFE81BF0 		tbh	[pc, fp, lsl #1]
 749              	.L75:
 750 0046 2501     		.2byte	(.L72-.L75)/2
 751 0048 A100     		.2byte	(.L73-.L75)/2
 752 004a 1900     		.2byte	(.L74-.L75)/2
 753 004c 1900     		.2byte	(.L74-.L75)/2
 754              	.LVL82:
 755              	.L134:
 756              		.loc 1 654 0
 757 004e 2436     		adds	r6, r6, #36
 758              	.LVL83:
 759 0050 06EB8808 		add	r8, r6, r8, lsl #2
 760 0054 1FFA88F8 		uxth	r8, r8
 761 0058 CDF80480 		str	r8, [sp, #4]
 762              	.LVL84:
 763              	.L71:
 764              		.loc 1 692 0
 765 005c 019C     		ldr	r4, [sp, #4]
 766 005e 3946     		mov	r1, r7
 767 0060 E2B2     		uxtb	r2, r4
 768 0062 0520     		movs	r0, #5
 769 0064 FFF7FEFF 		bl	hci_command_send
 770              	.LVL85:
 771              		.loc 1 696 0
 772 0068 0520     		movs	r0, #5
 773 006a 03A9     		add	r1, sp, #12
 774 006c FFF7FEFF 		bl	SimpleLinkWaitEvent
 775              	.LVL86:
 776              		.loc 1 699 0
 777 0070 0398     		ldr	r0, [sp, #12]
 778 0072 07B0     		add	sp, sp, #28
 779 0074 BDE8F08F 		pop	{r4, r5, r6, r7, r8, r9, sl, fp, pc}
 780              	.LVL87:
 781              	.L74:
 782              		.loc 1 665 0
 783 0078 2821     		movs	r1, #40
 784 007a FFF7FEFF 		bl	UINT32_TO_STREAM_f
 785              	.LVL88:
 786              		.loc 1 666 0
 787 007e 3146     		mov	r1, r6
 788 0080 FFF7FEFF 		bl	UINT32_TO_STREAM_f
 789              	.LVL89:
 790              		.loc 1 667 0
ARM GAS  C:\Users\Vergil\AppData\Local\Temp\ccBusahc.s 			page 15


 791 0084 0021     		movs	r1, #0
 792 0086 FFF7FEFF 		bl	UINT16_TO_STREAM_f
 793              	.LVL90:
 794 008a 0346     		mov	r3, r0
 795              	.LVL91:
 796              		.loc 1 668 0
 797 008c BAF1000F 		cmp	sl, #0
 798 0090 00F04B81 		beq	.L88
 799              	.LBB10:
 800              		.loc 1 670 0
 801 0094 9AF80040 		ldrb	r4, [sl, #0]	@ zero_extendqisi2
 802 0098 0470     		strb	r4, [r0, #0]
 803              	.LVL92:
 804 009a 9AF80100 		ldrb	r0, [sl, #1]	@ zero_extendqisi2
 805              	.LVL93:
 806 009e 5870     		strb	r0, [r3, #1]
 807              	.LVL94:
 808 00a0 9AF80210 		ldrb	r1, [sl, #2]	@ zero_extendqisi2
 809 00a4 9970     		strb	r1, [r3, #2]
 810              	.LVL95:
 811 00a6 9AF80320 		ldrb	r2, [sl, #3]	@ zero_extendqisi2
 812 00aa DA70     		strb	r2, [r3, #3]
 813              	.LVL96:
 814 00ac 9AF80440 		ldrb	r4, [sl, #4]	@ zero_extendqisi2
 815 00b0 1C71     		strb	r4, [r3, #4]
 816              	.LVL97:
 817 00b2 9AF80510 		ldrb	r1, [sl, #5]	@ zero_extendqisi2
 818 00b6 981D     		adds	r0, r3, #6
 819 00b8 5971     		strb	r1, [r3, #5]
 820              	.LVL98:
 821              	.L89:
 822              	.LBE10:
 823              		.loc 1 676 0
 824 00ba 1099     		ldr	r1, [sp, #64]
 825 00bc FFF7FEFF 		bl	UINT32_TO_STREAM_f
 826              	.LVL99:
 827              		.loc 1 677 0
 828 00c0 4146     		mov	r1, r8
 829 00c2 FFF7FEFF 		bl	UINT32_TO_STREAM_f
 830              	.LVL100:
 831              		.loc 1 678 0
 832 00c6 1299     		ldr	r1, [sp, #72]
 833 00c8 FFF7FEFF 		bl	UINT32_TO_STREAM_f
 834              	.LVL101:
 835              		.loc 1 679 0
 836 00cc 1399     		ldr	r1, [sp, #76]
 837 00ce FFF7FEFF 		bl	UINT32_TO_STREAM_f
 838              	.LVL102:
 839              		.loc 1 680 0
 840 00d2 06F10801 		add	r1, r6, #8
 841 00d6 FFF7FEFF 		bl	UINT32_TO_STREAM_f
 842              	.LVL103:
 843              		.loc 1 681 0
 844 00da 1599     		ldr	r1, [sp, #84]
 845 00dc FFF7FEFF 		bl	UINT32_TO_STREAM_f
 846              	.LVL104:
 847              	.LBB11:
ARM GAS  C:\Users\Vergil\AppData\Local\Temp\ccBusahc.s 			page 16


 848              		.loc 1 682 0
 849 00e0 0346     		mov	r3, r0
 850 00e2 1EB3     		cbz	r6, .L90
 851 00e4 99F80020 		ldrb	r2, [r9, #0]	@ zero_extendqisi2
 852 00e8 03F8012B 		strb	r2, [r3], #1
 853              	.LVL105:
 854 00ec C143     		mvns	r1, r0
 855              		.loc 1 580 0
 856 00ee 8419     		adds	r4, r0, r6
 857 00f0 6218     		adds	r2, r4, r1
 858              		.loc 1 682 0
 859 00f2 A342     		cmp	r3, r4
 860 00f4 02F00101 		and	r1, r2, #1
 861              		.loc 1 580 0
 862 00f8 C0EB0302 		rsb	r2, r0, r3
 863              		.loc 1 682 0
 864 00fc 16D0     		beq	.L90
 865 00fe 39B1     		cbz	r1, .L91
 866 0100 19F80220 		ldrb	r2, [r9, r2]	@ zero_extendqisi2
 867 0104 03F8012B 		strb	r2, [r3], #1
 868              	.LVL106:
 869 0108 A342     		cmp	r3, r4
 870              		.loc 1 580 0
 871 010a C0EB0302 		rsb	r2, r0, r3
 872              		.loc 1 682 0
 873 010e 0DD0     		beq	.L90
 874              	.L91:
 875              		.loc 1 682 0 is_stmt 0 discriminator 2
 876 0110 19F80210 		ldrb	r1, [r9, r2]	@ zero_extendqisi2
 877 0114 1A46     		mov	r2, r3
 878 0116 02F8011B 		strb	r1, [r2], #1
 879              		.loc 1 580 0 is_stmt 1 discriminator 2
 880 011a 111A     		subs	r1, r2, r0
 881              		.loc 1 682 0 discriminator 2
 882 011c 19F80110 		ldrb	r1, [r9, r1]	@ zero_extendqisi2
 883 0120 5970     		strb	r1, [r3, #1]
 884 0122 531C     		adds	r3, r2, #1
 885 0124 A342     		cmp	r3, r4
 886              		.loc 1 580 0 discriminator 2
 887 0126 C0EB0302 		rsb	r2, r0, r3
 888              		.loc 1 682 0 discriminator 2
 889 012a F1D1     		bne	.L91
 890              	.L90:
 891              	.LVL107:
 892              	.LBE11:
 893              	.LBB12:
 894              		.loc 1 683 0 discriminator 1
 895 012c 1598     		ldr	r0, [sp, #84]
 896 012e 08B3     		cbz	r0, .L94
 897              		.loc 1 683 0 is_stmt 0
 898 0130 1A46     		mov	r2, r3
 899 0132 2978     		ldrb	r1, [r5, #0]	@ zero_extendqisi2
 900              	.LBE12:
 901              		.loc 1 580 0 is_stmt 1
 902 0134 159C     		ldr	r4, [sp, #84]
 903              	.LBB13:
 904              		.loc 1 683 0
ARM GAS  C:\Users\Vergil\AppData\Local\Temp\ccBusahc.s 			page 17


 905 0136 02F8011B 		strb	r1, [r2], #1
 906              	.LVL108:
 907 013a D843     		mvns	r0, r3
 908              	.LBE13:
 909              		.loc 1 580 0
 910 013c 1C19     		adds	r4, r3, r4
 911 013e 2118     		adds	r1, r4, r0
 912              	.LBB14:
 913              		.loc 1 683 0
 914 0140 A242     		cmp	r2, r4
 915 0142 01F00100 		and	r0, r1, #1
 916              		.loc 1 580 0
 917 0146 C3EB0201 		rsb	r1, r3, r2
 918              		.loc 1 683 0
 919 014a 13D0     		beq	.L94
 920 014c 30B1     		cbz	r0, .L93
 921 014e 695C     		ldrb	r1, [r5, r1]	@ zero_extendqisi2
 922 0150 02F8011B 		strb	r1, [r2], #1
 923              	.LVL109:
 924 0154 A242     		cmp	r2, r4
 925              		.loc 1 580 0
 926 0156 C3EB0201 		rsb	r1, r3, r2
 927              		.loc 1 683 0
 928 015a 0BD0     		beq	.L94
 929              	.L93:
 930              		.loc 1 683 0 is_stmt 0 discriminator 2
 931 015c 685C     		ldrb	r0, [r5, r1]	@ zero_extendqisi2
 932 015e 1146     		mov	r1, r2
 933 0160 01F8010B 		strb	r0, [r1], #1
 934              		.loc 1 580 0 is_stmt 1 discriminator 2
 935 0164 C81A     		subs	r0, r1, r3
 936              		.loc 1 683 0 discriminator 2
 937 0166 285C     		ldrb	r0, [r5, r0]	@ zero_extendqisi2
 938 0168 5070     		strb	r0, [r2, #1]
 939 016a 4A1C     		adds	r2, r1, #1
 940 016c A242     		cmp	r2, r4
 941              		.loc 1 580 0 discriminator 2
 942 016e C3EB0201 		rsb	r1, r3, r2
 943              		.loc 1 683 0 discriminator 2
 944 0172 F3D1     		bne	.L93
 945              	.L94:
 946              	.LBE14:
 947              		.loc 1 685 0
 948 0174 159B     		ldr	r3, [sp, #84]
 949 0176 06F12C0B 		add	fp, r6, #44
 950              	.LVL110:
 951 017a 0BEB0302 		add	r2, fp, r3
 952 017e 1FFA82FB 		uxth	fp, r2
 953 0182 CDF804B0 		str	fp, [sp, #4]
 954              	.LVL111:
 955              		.loc 1 688 0
 956 0186 69E7     		b	.L71
 957              	.LVL112:
 958              	.L73:
 959              		.loc 1 630 0
 960 0188 2021     		movs	r1, #32
 961 018a FFF7FEFF 		bl	UINT32_TO_STREAM_f
ARM GAS  C:\Users\Vergil\AppData\Local\Temp\ccBusahc.s 			page 18


 962              	.LVL113:
 963              		.loc 1 631 0
 964 018e 3146     		mov	r1, r6
 965 0190 FFF7FEFF 		bl	UINT32_TO_STREAM_f
 966              	.LVL114:
 967              		.loc 1 632 0
 968 0194 0021     		movs	r1, #0
 969 0196 FFF7FEFF 		bl	UINT16_TO_STREAM_f
 970              	.LVL115:
 971 019a 0346     		mov	r3, r0
 972              	.LVL116:
 973              		.loc 1 633 0
 974 019c BAF1000F 		cmp	sl, #0
 975 01a0 00F0D780 		beq	.L81
 976              	.LBB15:
 977              		.loc 1 635 0
 978 01a4 9AF80040 		ldrb	r4, [sl, #0]	@ zero_extendqisi2
 979 01a8 0470     		strb	r4, [r0, #0]
 980              	.LVL117:
 981 01aa 9AF80100 		ldrb	r0, [sl, #1]	@ zero_extendqisi2
 982              	.LVL118:
 983 01ae 5870     		strb	r0, [r3, #1]
 984              	.LVL119:
 985 01b0 9AF80210 		ldrb	r1, [sl, #2]	@ zero_extendqisi2
 986 01b4 9970     		strb	r1, [r3, #2]
 987              	.LVL120:
 988 01b6 9AF80320 		ldrb	r2, [sl, #3]	@ zero_extendqisi2
 989 01ba DA70     		strb	r2, [r3, #3]
 990              	.LVL121:
 991 01bc 9AF80440 		ldrb	r4, [sl, #4]	@ zero_extendqisi2
 992 01c0 1C71     		strb	r4, [r3, #4]
 993              	.LVL122:
 994 01c2 9AF80510 		ldrb	r1, [sl, #5]	@ zero_extendqisi2
 995 01c6 981D     		adds	r0, r3, #6
 996 01c8 5971     		strb	r1, [r3, #5]
 997              	.LVL123:
 998              	.L82:
 999              	.LBE15:
 1000              		.loc 1 641 0
 1001 01ca 1099     		ldr	r1, [sp, #64]
 1002 01cc FFF7FEFF 		bl	UINT32_TO_STREAM_f
 1003              	.LVL124:
 1004              		.loc 1 642 0
 1005 01d0 06F10C01 		add	r1, r6, #12
 1006 01d4 FFF7FEFF 		bl	UINT32_TO_STREAM_f
 1007              	.LVL125:
 1008              		.loc 1 643 0
 1009 01d8 4146     		mov	r1, r8
 1010 01da FFF7FEFF 		bl	UINT32_TO_STREAM_f
 1011              	.LVL126:
 1012              		.loc 1 644 0
 1013 01de 1299     		ldr	r1, [sp, #72]
 1014 01e0 FFF7FEFF 		bl	UINT32_TO_STREAM_f
 1015              	.LVL127:
 1016              	.LBB16:
 1017              		.loc 1 645 0
 1018 01e4 0446     		mov	r4, r0
ARM GAS  C:\Users\Vergil\AppData\Local\Temp\ccBusahc.s 			page 19


 1019 01e6 1EB3     		cbz	r6, .L83
 1020 01e8 99F80030 		ldrb	r3, [r9, #0]	@ zero_extendqisi2
 1021 01ec 04F8013B 		strb	r3, [r4], #1
 1022              	.LVL128:
 1023 01f0 C243     		mvns	r2, r0
 1024              		.loc 1 580 0
 1025 01f2 8119     		adds	r1, r0, r6
 1026 01f4 8B18     		adds	r3, r1, r2
 1027              		.loc 1 645 0
 1028 01f6 8C42     		cmp	r4, r1
 1029 01f8 03F00102 		and	r2, r3, #1
 1030              		.loc 1 580 0
 1031 01fc C0EB0403 		rsb	r3, r0, r4
 1032              		.loc 1 645 0
 1033 0200 16D0     		beq	.L83
 1034 0202 3AB1     		cbz	r2, .L84
 1035 0204 19F80330 		ldrb	r3, [r9, r3]	@ zero_extendqisi2
 1036 0208 04F8013B 		strb	r3, [r4], #1
 1037              	.LVL129:
 1038 020c 8C42     		cmp	r4, r1
 1039              		.loc 1 580 0
 1040 020e C0EB0403 		rsb	r3, r0, r4
 1041              		.loc 1 645 0
 1042 0212 0DD0     		beq	.L83
 1043              	.L84:
 1044              		.loc 1 645 0 is_stmt 0 discriminator 2
 1045 0214 19F80320 		ldrb	r2, [r9, r3]	@ zero_extendqisi2
 1046 0218 2346     		mov	r3, r4
 1047 021a 03F8012B 		strb	r2, [r3], #1
 1048              		.loc 1 580 0 is_stmt 1 discriminator 2
 1049 021e 1A1A     		subs	r2, r3, r0
 1050              		.loc 1 645 0 discriminator 2
 1051 0220 19F80220 		ldrb	r2, [r9, r2]	@ zero_extendqisi2
 1052 0224 6270     		strb	r2, [r4, #1]
 1053 0226 5C1C     		adds	r4, r3, #1
 1054 0228 8C42     		cmp	r4, r1
 1055              		.loc 1 580 0 discriminator 2
 1056 022a C0EB0403 		rsb	r3, r0, r4
 1057              		.loc 1 645 0 discriminator 2
 1058 022e F1D1     		bne	.L84
 1059              	.L83:
 1060              	.LBE16:
 1061              		.loc 1 647 0 discriminator 1
 1062 0230 4FF0040E 		mov	lr, #4
 1063              	.LVL130:
 1064              	.L87:
 1065              	.LBB17:
 1066              	.LBB18:
 1067              		.loc 1 651 0
 1068 0234 2346     		mov	r3, r4
 1069 0236 B8F1000F 		cmp	r8, #0
 1070 023a 20D0     		beq	.L85
 1071 023c 2878     		ldrb	r0, [r5, #0]	@ zero_extendqisi2
 1072 023e 03F8010B 		strb	r0, [r3], #1
 1073              	.LVL131:
 1074 0242 E243     		mvns	r2, r4
 1075              		.loc 1 580 0
ARM GAS  C:\Users\Vergil\AppData\Local\Temp\ccBusahc.s 			page 20


 1076 0244 04EB0801 		add	r1, r4, r8
 1077 0248 8818     		adds	r0, r1, r2
 1078              		.loc 1 651 0
 1079 024a 8B42     		cmp	r3, r1
 1080 024c 00F00102 		and	r2, r0, #1
 1081              		.loc 1 580 0
 1082 0250 C4EB0300 		rsb	r0, r4, r3
 1083              		.loc 1 651 0
 1084 0254 13D0     		beq	.L85
 1085 0256 32B1     		cbz	r2, .L86
 1086 0258 285C     		ldrb	r0, [r5, r0]	@ zero_extendqisi2
 1087 025a 03F8010B 		strb	r0, [r3], #1
 1088              	.LVL132:
 1089 025e 8B42     		cmp	r3, r1
 1090              		.loc 1 580 0
 1091 0260 C4EB0300 		rsb	r0, r4, r3
 1092              		.loc 1 651 0
 1093 0264 0BD0     		beq	.L85
 1094              	.L86:
 1095              		.loc 1 651 0 is_stmt 0 discriminator 2
 1096 0266 2A5C     		ldrb	r2, [r5, r0]	@ zero_extendqisi2
 1097 0268 1846     		mov	r0, r3
 1098 026a 00F8012B 		strb	r2, [r0], #1
 1099              		.loc 1 580 0 is_stmt 1 discriminator 2
 1100 026e 021B     		subs	r2, r0, r4
 1101              		.loc 1 651 0 discriminator 2
 1102 0270 AA5C     		ldrb	r2, [r5, r2]	@ zero_extendqisi2
 1103 0272 5A70     		strb	r2, [r3, #1]
 1104 0274 431C     		adds	r3, r0, #1
 1105              	.LVL133:
 1106 0276 8B42     		cmp	r3, r1
 1107              		.loc 1 580 0 discriminator 2
 1108 0278 C4EB0300 		rsb	r0, r4, r3
 1109              		.loc 1 651 0 discriminator 2
 1110 027c F3D1     		bne	.L86
 1111              	.LVL134:
 1112              	.L85:
 1113              	.LBE18:
 1114              	.LBE17:
 1115              		.loc 1 647 0
 1116 027e BEF1010E 		subs	lr, lr, #1
 1117 0282 4544     		add	r5, r5, r8
 1118              	.LVL135:
 1119 0284 3FF4E3AE 		beq	.L134
 1120 0288 1C46     		mov	r4, r3
 1121 028a D3E7     		b	.L87
 1122              	.L136:
 1123              		.align	2
 1124              	.L135:
 1125 028c 00000000 		.word	.LANCHOR0
 1126              	.LVL136:
 1127              	.L72:
 1128              		.loc 1 609 0
 1129 0290 1421     		movs	r1, #20
 1130 0292 FFF7FEFF 		bl	UINT32_TO_STREAM_f
 1131              	.LVL137:
 1132              		.loc 1 610 0
ARM GAS  C:\Users\Vergil\AppData\Local\Temp\ccBusahc.s 			page 21


 1133 0296 3146     		mov	r1, r6
 1134 0298 FFF7FEFF 		bl	UINT32_TO_STREAM_f
 1135              	.LVL138:
 1136              		.loc 1 611 0
 1137 029c 0021     		movs	r1, #0
 1138 029e FFF7FEFF 		bl	UINT16_TO_STREAM_f
 1139              	.LVL139:
 1140 02a2 0346     		mov	r3, r0
 1141              	.LVL140:
 1142              		.loc 1 612 0
 1143 02a4 BAF1000F 		cmp	sl, #0
 1144 02a8 67D0     		beq	.L76
 1145              	.LBB19:
 1146              		.loc 1 614 0
 1147 02aa 9AF80040 		ldrb	r4, [sl, #0]	@ zero_extendqisi2
 1148 02ae 0470     		strb	r4, [r0, #0]
 1149              	.LVL141:
 1150 02b0 9AF80100 		ldrb	r0, [sl, #1]	@ zero_extendqisi2
 1151              	.LVL142:
 1152 02b4 5870     		strb	r0, [r3, #1]
 1153              	.LVL143:
 1154 02b6 9AF80210 		ldrb	r1, [sl, #2]	@ zero_extendqisi2
 1155 02ba 9970     		strb	r1, [r3, #2]
 1156              	.LVL144:
 1157 02bc 9AF80320 		ldrb	r2, [sl, #3]	@ zero_extendqisi2
 1158 02c0 DA70     		strb	r2, [r3, #3]
 1159              	.LVL145:
 1160 02c2 9AF80440 		ldrb	r4, [sl, #4]	@ zero_extendqisi2
 1161 02c6 1C71     		strb	r4, [r3, #4]
 1162              	.LVL146:
 1163 02c8 9AF80510 		ldrb	r1, [sl, #5]	@ zero_extendqisi2
 1164 02cc 981D     		adds	r0, r3, #6
 1165 02ce 5971     		strb	r1, [r3, #5]
 1166              	.LVL147:
 1167              	.L77:
 1168              	.LBE19:
 1169              		.loc 1 620 0
 1170 02d0 1099     		ldr	r1, [sp, #64]
 1171 02d2 FFF7FEFF 		bl	UINT32_TO_STREAM_f
 1172              	.LVL148:
 1173              	.LBB20:
 1174              		.loc 1 621 0
 1175 02d6 26B3     		cbz	r6, .L80
 1176 02d8 0346     		mov	r3, r0
 1177 02da 99F80020 		ldrb	r2, [r9, #0]	@ zero_extendqisi2
 1178 02de 03F8012B 		strb	r2, [r3], #1
 1179              	.LVL149:
 1180 02e2 C143     		mvns	r1, r0
 1181              	.LBE20:
 1182              		.loc 1 580 0
 1183 02e4 8419     		adds	r4, r0, r6
 1184 02e6 6218     		adds	r2, r4, r1
 1185              	.LBB21:
 1186              		.loc 1 621 0
 1187 02e8 A342     		cmp	r3, r4
 1188 02ea 02F00101 		and	r1, r2, #1
 1189              		.loc 1 580 0
ARM GAS  C:\Users\Vergil\AppData\Local\Temp\ccBusahc.s 			page 22


 1190 02ee C0EB0302 		rsb	r2, r0, r3
 1191              		.loc 1 621 0
 1192 02f2 16D0     		beq	.L80
 1193 02f4 39B1     		cbz	r1, .L79
 1194 02f6 19F80220 		ldrb	r2, [r9, r2]	@ zero_extendqisi2
 1195 02fa 03F8012B 		strb	r2, [r3], #1
 1196              	.LVL150:
 1197 02fe A342     		cmp	r3, r4
 1198              		.loc 1 580 0
 1199 0300 C0EB0302 		rsb	r2, r0, r3
 1200              		.loc 1 621 0
 1201 0304 0DD0     		beq	.L80
 1202              	.L79:
 1203              		.loc 1 621 0 is_stmt 0 discriminator 2
 1204 0306 19F80210 		ldrb	r1, [r9, r2]	@ zero_extendqisi2
 1205 030a 1A46     		mov	r2, r3
 1206 030c 02F8011B 		strb	r1, [r2], #1
 1207              		.loc 1 580 0 is_stmt 1 discriminator 2
 1208 0310 111A     		subs	r1, r2, r0
 1209              		.loc 1 621 0 discriminator 2
 1210 0312 19F80110 		ldrb	r1, [r9, r1]	@ zero_extendqisi2
 1211 0316 5970     		strb	r1, [r3, #1]
 1212 0318 531C     		adds	r3, r2, #1
 1213 031a A342     		cmp	r3, r4
 1214              		.loc 1 580 0 discriminator 2
 1215 031c C0EB0302 		rsb	r2, r0, r3
 1216              		.loc 1 621 0 discriminator 2
 1217 0320 F1D1     		bne	.L79
 1218              	.L80:
 1219              	.LBE21:
 1220              		.loc 1 623 0
 1221 0322 1836     		adds	r6, r6, #24
 1222              	.LVL151:
 1223 0324 B6B2     		uxth	r6, r6
 1224              	.LVL152:
 1225 0326 0196     		str	r6, [sp, #4]
 1226              	.LVL153:
 1227              		.loc 1 625 0
 1228 0328 98E6     		b	.L71
 1229              	.LVL154:
 1230              	.L88:
 1231              	.LBB22:
 1232              		.loc 1 674 0
 1233 032a 9DF81300 		ldrb	r0, [sp, #19]	@ zero_extendqisi2
 1234              	.LVL155:
 1235 032e 9DF811E0 		ldrb	lr, [sp, #17]	@ zero_extendqisi2
 1236 0332 9DF81240 		ldrb	r4, [sp, #18]	@ zero_extendqisi2
 1237 0336 9DF81410 		ldrb	r1, [sp, #20]	@ zero_extendqisi2
 1238 033a 9DF81520 		ldrb	r2, [sp, #21]	@ zero_extendqisi2
 1239 033e D870     		strb	r0, [r3, #3]
 1240 0340 83F800A0 		strb	sl, [r3, #0]
 1241              	.LVL156:
 1242 0344 83F801E0 		strb	lr, [r3, #1]
 1243              	.LVL157:
 1244 0348 9C70     		strb	r4, [r3, #2]
 1245              	.LVL158:
 1246 034a 1971     		strb	r1, [r3, #4]
ARM GAS  C:\Users\Vergil\AppData\Local\Temp\ccBusahc.s 			page 23


 1247              	.LVL159:
 1248 034c 5A71     		strb	r2, [r3, #5]
 1249              	.LVL160:
 1250 034e 981D     		adds	r0, r3, #6
 1251 0350 B3E6     		b	.L89
 1252              	.LVL161:
 1253              	.L81:
 1254              	.LBE22:
 1255              	.LBB23:
 1256              		.loc 1 639 0
 1257 0352 9DF81300 		ldrb	r0, [sp, #19]	@ zero_extendqisi2
 1258              	.LVL162:
 1259 0356 9DF811C0 		ldrb	ip, [sp, #17]	@ zero_extendqisi2
 1260 035a 9DF81240 		ldrb	r4, [sp, #18]	@ zero_extendqisi2
 1261 035e 9DF81410 		ldrb	r1, [sp, #20]	@ zero_extendqisi2
 1262 0362 9DF81520 		ldrb	r2, [sp, #21]	@ zero_extendqisi2
 1263 0366 D870     		strb	r0, [r3, #3]
 1264 0368 83F800A0 		strb	sl, [r3, #0]
 1265              	.LVL163:
 1266 036c 83F801C0 		strb	ip, [r3, #1]
 1267              	.LVL164:
 1268 0370 9C70     		strb	r4, [r3, #2]
 1269              	.LVL165:
 1270 0372 1971     		strb	r1, [r3, #4]
 1271              	.LVL166:
 1272 0374 5A71     		strb	r2, [r3, #5]
 1273              	.LVL167:
 1274 0376 981D     		adds	r0, r3, #6
 1275 0378 27E7     		b	.L82
 1276              	.LVL168:
 1277              	.L76:
 1278              	.LBE23:
 1279              	.LBB24:
 1280              		.loc 1 618 0
 1281 037a 9DF81300 		ldrb	r0, [sp, #19]	@ zero_extendqisi2
 1282              	.LVL169:
 1283 037e 9DF81150 		ldrb	r5, [sp, #17]	@ zero_extendqisi2
 1284 0382 9DF81240 		ldrb	r4, [sp, #18]	@ zero_extendqisi2
 1285 0386 9DF81410 		ldrb	r1, [sp, #20]	@ zero_extendqisi2
 1286 038a 9DF81520 		ldrb	r2, [sp, #21]	@ zero_extendqisi2
 1287 038e D870     		strb	r0, [r3, #3]
 1288 0390 83F800A0 		strb	sl, [r3, #0]
 1289              	.LVL170:
 1290 0394 5D70     		strb	r5, [r3, #1]
 1291              	.LVL171:
 1292 0396 9C70     		strb	r4, [r3, #2]
 1293              	.LVL172:
 1294 0398 1971     		strb	r1, [r3, #4]
 1295              	.LVL173:
 1296 039a 5A71     		strb	r2, [r3, #5]
 1297              	.LVL174:
 1298 039c 981D     		adds	r0, r3, #6
 1299 039e 97E7     		b	.L77
 1300              	.LBE24:
 1301              		.cfi_endproc
 1302              	.LFE8:
 1303              		.size	wlan_add_profile, .-wlan_add_profile
ARM GAS  C:\Users\Vergil\AppData\Local\Temp\ccBusahc.s 			page 24


 1304              		.section	.text.wlan_ioctl_del_profile,"ax",%progbits
 1305              		.align	2
 1306              		.p2align 4,,15
 1307              		.global	wlan_ioctl_del_profile
 1308              		.thumb
 1309              		.thumb_func
 1310              		.type	wlan_ioctl_del_profile, %function
 1311              	wlan_ioctl_del_profile:
 1312              	.LFB9:
 1313              		.loc 1 733 0
 1314              		.cfi_startproc
 1315              		@ args = 0, pretend = 0, frame = 8
 1316              		@ frame_needed = 0, uses_anonymous_args = 0
 1317              	.LVL175:
 1318 0000 30B5     		push	{r4, r5, lr}
 1319              	.LCFI11:
 1320              		.cfi_def_cfa_offset 12
 1321              		.cfi_offset 4, -12
 1322              		.cfi_offset 5, -8
 1323              		.cfi_offset 14, -4
 1324              		.loc 1 738 0
 1325 0002 40F20003 		movw	r3, #:lower16:.LANCHOR0
 1326 0006 C0F20003 		movt	r3, #:upper16:.LANCHOR0
 1327              		.loc 1 733 0
 1328 000a 83B0     		sub	sp, sp, #12
 1329              	.LCFI12:
 1330              		.cfi_def_cfa_offset 24
 1331              		.loc 1 738 0
 1332 000c 9D68     		ldr	r5, [r3, #8]
 1333              	.LVL176:
 1334              		.loc 1 733 0
 1335 000e 0146     		mov	r1, r0
 1336              		.loc 1 743 0
 1337 0010 02AC     		add	r4, sp, #8
 1338              		.loc 1 742 0
 1339 0012 05F10900 		add	r0, r5, #9
 1340              	.LVL177:
 1341 0016 FFF7FEFF 		bl	UINT32_TO_STREAM_f
 1342              	.LVL178:
 1343              		.loc 1 743 0
 1344 001a 4FF0FF30 		mov	r0, #-1
 1345 001e 44F8040D 		str	r0, [r4, #-4]!
 1346              	.LVL179:
 1347              		.loc 1 746 0
 1348 0022 2946     		mov	r1, r5
 1349 0024 0422     		movs	r2, #4
 1350 0026 0620     		movs	r0, #6
 1351 0028 FFF7FEFF 		bl	hci_command_send
 1352              	.LVL180:
 1353              		.loc 1 750 0
 1354 002c 0620     		movs	r0, #6
 1355 002e 2146     		mov	r1, r4
 1356 0030 FFF7FEFF 		bl	SimpleLinkWaitEvent
 1357              	.LVL181:
 1358              		.loc 1 753 0
 1359 0034 0198     		ldr	r0, [sp, #4]
 1360 0036 03B0     		add	sp, sp, #12
ARM GAS  C:\Users\Vergil\AppData\Local\Temp\ccBusahc.s 			page 25


 1361 0038 30BD     		pop	{r4, r5, pc}
 1362              		.cfi_endproc
 1363              	.LFE9:
 1364              		.size	wlan_ioctl_del_profile, .-wlan_ioctl_del_profile
 1365 003a 00BFAFF3 		.section	.text.wlan_ioctl_get_scan_results,"ax",%progbits
 1365      0080
 1366              		.align	2
 1367              		.p2align 4,,15
 1368              		.global	wlan_ioctl_get_scan_results
 1369              		.thumb
 1370              		.thumb_func
 1371              		.type	wlan_ioctl_get_scan_results, %function
 1372              	wlan_ioctl_get_scan_results:
 1373              	.LFB10:
 1374              		.loc 1 792 0
 1375              		.cfi_startproc
 1376              		@ args = 0, pretend = 0, frame = 0
 1377              		@ frame_needed = 0, uses_anonymous_args = 0
 1378              	.LVL182:
 1379 0000 38B5     		push	{r3, r4, r5, lr}
 1380              	.LCFI13:
 1381              		.cfi_def_cfa_offset 16
 1382              		.cfi_offset 3, -16
 1383              		.cfi_offset 4, -12
 1384              		.cfi_offset 5, -8
 1385              		.cfi_offset 14, -4
 1386              		.loc 1 796 0
 1387 0002 40F20003 		movw	r3, #:lower16:.LANCHOR0
 1388 0006 C0F20003 		movt	r3, #:upper16:.LANCHOR0
 1389              		.loc 1 792 0
 1390 000a 0246     		mov	r2, r0
 1391              		.loc 1 796 0
 1392 000c 9C68     		ldr	r4, [r3, #8]
 1393              	.LVL183:
 1394              		.loc 1 792 0
 1395 000e 0D46     		mov	r5, r1
 1396              		.loc 1 800 0
 1397 0010 04F10900 		add	r0, r4, #9
 1398              	.LVL184:
 1399 0014 1146     		mov	r1, r2
 1400              	.LVL185:
 1401 0016 FFF7FEFF 		bl	UINT32_TO_STREAM_f
 1402              	.LVL186:
 1403              		.loc 1 803 0
 1404 001a 2146     		mov	r1, r4
 1405 001c 0422     		movs	r2, #4
 1406 001e 0720     		movs	r0, #7
 1407 0020 FFF7FEFF 		bl	hci_command_send
 1408              	.LVL187:
 1409              		.loc 1 807 0
 1410 0024 0720     		movs	r0, #7
 1411 0026 2946     		mov	r1, r5
 1412 0028 FFF7FEFF 		bl	SimpleLinkWaitEvent
 1413              	.LVL188:
 1414              		.loc 1 810 0
 1415 002c 0020     		movs	r0, #0
 1416 002e 38BD     		pop	{r3, r4, r5, pc}
ARM GAS  C:\Users\Vergil\AppData\Local\Temp\ccBusahc.s 			page 26


 1417              		.cfi_endproc
 1418              	.LFE10:
 1419              		.size	wlan_ioctl_get_scan_results, .-wlan_ioctl_get_scan_results
 1420              		.section	.text.wlan_ioctl_set_scan_params,"ax",%progbits
 1421              		.align	2
 1422              		.p2align 4,,15
 1423              		.global	wlan_ioctl_set_scan_params
 1424              		.thumb
 1425              		.thumb_func
 1426              		.type	wlan_ioctl_set_scan_params, %function
 1427              	wlan_ioctl_set_scan_params:
 1428              	.LFB11:
 1429              		.loc 1 858 0
 1430              		.cfi_startproc
 1431              		@ args = 20, pretend = 0, frame = 8
 1432              		@ frame_needed = 0, uses_anonymous_args = 0
 1433              	.LVL189:
 1434 0000 2DE9F043 		push	{r4, r5, r6, r7, r8, r9, lr}
 1435              	.LCFI14:
 1436              		.cfi_def_cfa_offset 28
 1437              		.cfi_offset 4, -28
 1438              		.cfi_offset 5, -24
 1439              		.cfi_offset 6, -20
 1440              		.cfi_offset 7, -16
 1441              		.cfi_offset 8, -12
 1442              		.cfi_offset 9, -8
 1443              		.cfi_offset 14, -4
 1444              		.loc 1 863 0
 1445 0004 1D4C     		ldr	r4, .L143
 1446 0006 A668     		ldr	r6, [r4, #8]
 1447              	.LVL190:
 1448              		.loc 1 858 0
 1449 0008 83B0     		sub	sp, sp, #12
 1450              	.LCFI15:
 1451              		.cfi_def_cfa_offset 40
 1452              		.loc 1 858 0
 1453 000a 0746     		mov	r7, r0
 1454 000c 0D46     		mov	r5, r1
 1455              		.loc 1 867 0
 1456 000e 06F10900 		add	r0, r6, #9
 1457              	.LVL191:
 1458 0012 2421     		movs	r1, #36
 1459              	.LVL192:
 1460              		.loc 1 858 0
 1461 0014 9946     		mov	r9, r3
 1462 0016 9046     		mov	r8, r2
 1463 0018 0E9C     		ldr	r4, [sp, #56]
 1464              		.loc 1 867 0
 1465 001a FFF7FEFF 		bl	UINT32_TO_STREAM_f
 1466              	.LVL193:
 1467              		.loc 1 868 0
 1468 001e 3946     		mov	r1, r7
 1469 0020 FFF7FEFF 		bl	UINT32_TO_STREAM_f
 1470              	.LVL194:
 1471              		.loc 1 869 0
 1472 0024 2946     		mov	r1, r5
 1473 0026 FFF7FEFF 		bl	UINT32_TO_STREAM_f
ARM GAS  C:\Users\Vergil\AppData\Local\Temp\ccBusahc.s 			page 27


 1474              	.LVL195:
 1475              		.loc 1 870 0
 1476 002a 4146     		mov	r1, r8
 1477 002c FFF7FEFF 		bl	UINT32_TO_STREAM_f
 1478              	.LVL196:
 1479              		.loc 1 871 0
 1480 0030 4946     		mov	r1, r9
 1481 0032 FFF7FEFF 		bl	UINT32_TO_STREAM_f
 1482              	.LVL197:
 1483              		.loc 1 872 0
 1484 0036 0A99     		ldr	r1, [sp, #40]
 1485 0038 FFF7FEFF 		bl	UINT32_TO_STREAM_f
 1486              	.LVL198:
 1487              		.loc 1 873 0
 1488 003c 0B99     		ldr	r1, [sp, #44]
 1489 003e FFF7FEFF 		bl	UINT32_TO_STREAM_f
 1490              	.LVL199:
 1491              		.loc 1 874 0
 1492 0042 0C99     		ldr	r1, [sp, #48]
 1493 0044 FFF7FEFF 		bl	UINT32_TO_STREAM_f
 1494              	.LVL200:
 1495              		.loc 1 875 0
 1496 0048 0D99     		ldr	r1, [sp, #52]
 1497 004a FFF7FEFF 		bl	UINT32_TO_STREAM_f
 1498              	.LVL201:
 1499 004e 0023     		movs	r3, #0
 1500              	.LVL202:
 1501              	.L140:
 1502              	.LBB25:
 1503              		.loc 1 876 0 discriminator 2
 1504 0050 E15C     		ldrb	r1, [r4, r3]	@ zero_extendqisi2
 1505 0052 5A1C     		adds	r2, r3, #1
 1506 0054 C154     		strb	r1, [r0, r3]
 1507 0056 0233     		adds	r3, r3, #2
 1508 0058 A55C     		ldrb	r5, [r4, r2]	@ zero_extendqisi2
 1509 005a 402B     		cmp	r3, #64
 1510 005c 8554     		strb	r5, [r0, r2]
 1511 005e F7D1     		bne	.L140
 1512              	.LBE25:
 1513              		.loc 1 880 0
 1514 0060 3146     		mov	r1, r6
 1515 0062 6422     		movs	r2, #100
 1516 0064 0320     		movs	r0, #3
 1517 0066 FFF7FEFF 		bl	hci_command_send
 1518              	.LVL203:
 1519              		.loc 1 884 0
 1520 006a 0320     		movs	r0, #3
 1521 006c 01A9     		add	r1, sp, #4
 1522 006e FFF7FEFF 		bl	SimpleLinkWaitEvent
 1523              	.LVL204:
 1524              		.loc 1 887 0
 1525 0072 0198     		ldr	r0, [sp, #4]
 1526 0074 03B0     		add	sp, sp, #12
 1527 0076 BDE8F083 		pop	{r4, r5, r6, r7, r8, r9, pc}
 1528              	.L144:
 1529 007a 00BF     		.align	2
 1530              	.L143:
ARM GAS  C:\Users\Vergil\AppData\Local\Temp\ccBusahc.s 			page 28


 1531 007c 00000000 		.word	.LANCHOR0
 1532              		.cfi_endproc
 1533              	.LFE11:
 1534              		.size	wlan_ioctl_set_scan_params, .-wlan_ioctl_set_scan_params
 1535              		.section	.text.wlan_set_event_mask,"ax",%progbits
 1536              		.align	2
 1537              		.p2align 4,,15
 1538              		.global	wlan_set_event_mask
 1539              		.thumb
 1540              		.thumb_func
 1541              		.type	wlan_set_event_mask, %function
 1542              	wlan_set_event_mask:
 1543              	.LFB12:
 1544              		.loc 1 913 0
 1545              		.cfi_startproc
 1546              		@ args = 0, pretend = 0, frame = 8
 1547              		@ frame_needed = 0, uses_anonymous_args = 0
 1548              	.LVL205:
 1549 0000 30B5     		push	{r4, r5, lr}
 1550              	.LCFI16:
 1551              		.cfi_def_cfa_offset 12
 1552              		.cfi_offset 4, -12
 1553              		.cfi_offset 5, -8
 1554              		.cfi_offset 14, -4
 1555              		.loc 1 919 0
 1556 0002 48F20803 		movw	r3, #32776
 1557 0006 48F20802 		movw	r2, #32776
 1558 000a 0340     		ands	r3, r3, r0
 1559 000c 9342     		cmp	r3, r2
 1560              		.loc 1 913 0
 1561 000e 83B0     		sub	sp, sp, #12
 1562              	.LCFI17:
 1563              		.cfi_def_cfa_offset 24
 1564              		.loc 1 921 0
 1565 0010 144A     		ldr	r2, .L151
 1566              		.loc 1 919 0
 1567 0012 19D0     		beq	.L150
 1568              		.loc 1 935 0
 1569 0014 0121     		movs	r1, #1
 1570 0016 82F84010 		strb	r1, [r2, #64]
 1571              	.L148:
 1572              		.loc 1 939 0
 1573 001a 9568     		ldr	r5, [r2, #8]
 1574              	.LVL206:
 1575              		.loc 1 938 0
 1576 001c 02AC     		add	r4, sp, #8
 1577 001e 4FF0FF33 		mov	r3, #-1
 1578 0022 44F8043D 		str	r3, [r4, #-4]!
 1579              	.LVL207:
 1580              		.loc 1 943 0
 1581 0026 0146     		mov	r1, r0
 1582 0028 05F10900 		add	r0, r5, #9
 1583              	.LVL208:
 1584 002c FFF7FEFF 		bl	UINT32_TO_STREAM_f
 1585              	.LVL209:
 1586              		.loc 1 946 0
 1587 0030 2946     		mov	r1, r5
ARM GAS  C:\Users\Vergil\AppData\Local\Temp\ccBusahc.s 			page 29


 1588 0032 0422     		movs	r2, #4
 1589 0034 0820     		movs	r0, #8
 1590 0036 FFF7FEFF 		bl	hci_command_send
 1591              	.LVL210:
 1592              		.loc 1 950 0
 1593 003a 0820     		movs	r0, #8
 1594 003c 2146     		mov	r1, r4
 1595 003e FFF7FEFF 		bl	SimpleLinkWaitEvent
 1596              	.LVL211:
 1597              		.loc 1 952 0
 1598 0042 0198     		ldr	r0, [sp, #4]
 1599              	.LVL212:
 1600              	.L147:
 1601              		.loc 1 953 0
 1602 0044 03B0     		add	sp, sp, #12
 1603 0046 30BD     		pop	{r4, r5, pc}
 1604              	.LVL213:
 1605              	.L150:
 1606              		.loc 1 921 0
 1607 0048 0021     		movs	r1, #0
 1608              		.loc 1 925 0
 1609 004a 9842     		cmp	r0, r3
 1610              		.loc 1 921 0
 1611 004c 82F84010 		strb	r1, [r2, #64]
 1612              		.loc 1 925 0
 1613 0050 06D0     		beq	.L149
 1614              		.loc 1 930 0
 1615 0052 20F40040 		bic	r0, r0, #32768
 1616              	.LVL214:
 1617 0056 20F00804 		bic	r4, r0, #8
 1618              	.LVL215:
 1619              		.loc 1 931 0
 1620 005a 44F40040 		orr	r0, r4, #32768
 1621              	.LVL216:
 1622 005e DCE7     		b	.L148
 1623              	.L149:
 1624              		.loc 1 927 0
 1625 0060 0846     		mov	r0, r1
 1626              	.LVL217:
 1627 0062 EFE7     		b	.L147
 1628              	.L152:
 1629              		.align	2
 1630              	.L151:
 1631 0064 00000000 		.word	.LANCHOR0
 1632              		.cfi_endproc
 1633              	.LFE12:
 1634              		.size	wlan_set_event_mask, .-wlan_set_event_mask
 1635 0068 AFF30080 		.section	.text.wlan_ioctl_statusget,"ax",%progbits
 1635      AFF30080 
 1636              		.align	2
 1637              		.p2align 4,,15
 1638              		.global	wlan_ioctl_statusget
 1639              		.thumb
 1640              		.thumb_func
 1641              		.type	wlan_ioctl_statusget, %function
 1642              	wlan_ioctl_statusget:
 1643              	.LFB13:
ARM GAS  C:\Users\Vergil\AppData\Local\Temp\ccBusahc.s 			page 30


 1644              		.loc 1 970 0
 1645              		.cfi_startproc
 1646              		@ args = 0, pretend = 0, frame = 8
 1647              		@ frame_needed = 0, uses_anonymous_args = 0
 1648 0000 10B5     		push	{r4, lr}
 1649              	.LCFI18:
 1650              		.cfi_def_cfa_offset 8
 1651              		.cfi_offset 4, -8
 1652              		.cfi_offset 14, -4
 1653 0002 82B0     		sub	sp, sp, #8
 1654              	.LCFI19:
 1655              		.cfi_def_cfa_offset 16
 1656              		.loc 1 974 0
 1657 0004 02AC     		add	r4, sp, #8
 1658              		.loc 1 975 0
 1659 0006 40F20003 		movw	r3, #:lower16:.LANCHOR0
 1660 000a C0F20003 		movt	r3, #:upper16:.LANCHOR0
 1661              		.loc 1 974 0
 1662 000e 4FF0FF30 		mov	r0, #-1
 1663 0012 44F8040D 		str	r0, [r4, #-4]!
 1664              	.LVL218:
 1665              		.loc 1 975 0
 1666 0016 9968     		ldr	r1, [r3, #8]
 1667              	.LVL219:
 1668              		.loc 1 977 0
 1669 0018 0022     		movs	r2, #0
 1670 001a 0920     		movs	r0, #9
 1671 001c FFF7FEFF 		bl	hci_command_send
 1672              	.LVL220:
 1673              		.loc 1 981 0
 1674 0020 0920     		movs	r0, #9
 1675 0022 2146     		mov	r1, r4
 1676 0024 FFF7FEFF 		bl	SimpleLinkWaitEvent
 1677              	.LVL221:
 1678              		.loc 1 984 0
 1679 0028 0198     		ldr	r0, [sp, #4]
 1680 002a 02B0     		add	sp, sp, #8
 1681 002c 10BD     		pop	{r4, pc}
 1682              		.cfi_endproc
 1683              	.LFE13:
 1684              		.size	wlan_ioctl_statusget, .-wlan_ioctl_statusget
 1685 002e 00BF     		.section	.text.wlan_smart_config_start,"ax",%progbits
 1686              		.align	2
 1687              		.p2align 4,,15
 1688              		.global	wlan_smart_config_start
 1689              		.thumb
 1690              		.thumb_func
 1691              		.type	wlan_smart_config_start, %function
 1692              	wlan_smart_config_start:
 1693              	.LFB14:
 1694              		.loc 1 1009 0
 1695              		.cfi_startproc
 1696              		@ args = 0, pretend = 0, frame = 8
 1697              		@ frame_needed = 0, uses_anonymous_args = 0
 1698              	.LVL222:
 1699 0000 70B5     		push	{r4, r5, r6, lr}
 1700              	.LCFI20:
ARM GAS  C:\Users\Vergil\AppData\Local\Temp\ccBusahc.s 			page 31


 1701              		.cfi_def_cfa_offset 16
 1702              		.cfi_offset 4, -16
 1703              		.cfi_offset 5, -12
 1704              		.cfi_offset 6, -8
 1705              		.cfi_offset 14, -4
 1706              		.loc 1 1015 0
 1707 0002 40F20003 		movw	r3, #:lower16:.LANCHOR0
 1708 0006 C0F20003 		movt	r3, #:upper16:.LANCHOR0
 1709              		.loc 1 1009 0
 1710 000a 82B0     		sub	sp, sp, #8
 1711              	.LCFI21:
 1712              		.cfi_def_cfa_offset 24
 1713              		.loc 1 1015 0
 1714 000c 9E68     		ldr	r6, [r3, #8]
 1715              	.LVL223:
 1716              		.loc 1 1020 0
 1717 000e 02AC     		add	r4, sp, #8
 1718              		.loc 1 1009 0
 1719 0010 0146     		mov	r1, r0
 1720              		.loc 1 1014 0
 1721 0012 4FF0FF35 		mov	r5, #-1
 1722              		.loc 1 1019 0
 1723 0016 06F10900 		add	r0, r6, #9
 1724              	.LVL224:
 1725              		.loc 1 1014 0
 1726 001a 0195     		str	r5, [sp, #4]
 1727              	.LVL225:
 1728              		.loc 1 1019 0
 1729 001c FFF7FEFF 		bl	UINT32_TO_STREAM_f
 1730              	.LVL226:
 1731              		.loc 1 1020 0
 1732 0020 44F8045D 		str	r5, [r4, #-4]!
 1733              	.LVL227:
 1734              		.loc 1 1022 0
 1735 0024 3146     		mov	r1, r6
 1736 0026 0422     		movs	r2, #4
 1737 0028 0A20     		movs	r0, #10
 1738 002a FFF7FEFF 		bl	hci_command_send
 1739              	.LVL228:
 1740              		.loc 1 1026 0
 1741 002e 0A20     		movs	r0, #10
 1742 0030 2146     		mov	r1, r4
 1743 0032 FFF7FEFF 		bl	SimpleLinkWaitEvent
 1744              	.LVL229:
 1745              		.loc 1 1029 0
 1746 0036 0198     		ldr	r0, [sp, #4]
 1747 0038 02B0     		add	sp, sp, #8
 1748 003a 70BD     		pop	{r4, r5, r6, pc}
 1749              		.cfi_endproc
 1750              	.LFE14:
 1751              		.size	wlan_smart_config_start, .-wlan_smart_config_start
 1752 003c AFF30080 		.section	.text.wlan_smart_config_stop,"ax",%progbits
 1753              		.align	2
 1754              		.p2align 4,,15
 1755              		.global	wlan_smart_config_stop
 1756              		.thumb
 1757              		.thumb_func
ARM GAS  C:\Users\Vergil\AppData\Local\Temp\ccBusahc.s 			page 32


 1758              		.type	wlan_smart_config_stop, %function
 1759              	wlan_smart_config_stop:
 1760              	.LFB15:
 1761              		.loc 1 1046 0
 1762              		.cfi_startproc
 1763              		@ args = 0, pretend = 0, frame = 8
 1764              		@ frame_needed = 0, uses_anonymous_args = 0
 1765 0000 10B5     		push	{r4, lr}
 1766              	.LCFI22:
 1767              		.cfi_def_cfa_offset 8
 1768              		.cfi_offset 4, -8
 1769              		.cfi_offset 14, -4
 1770 0002 82B0     		sub	sp, sp, #8
 1771              	.LCFI23:
 1772              		.cfi_def_cfa_offset 16
 1773              		.loc 1 1050 0
 1774 0004 02AC     		add	r4, sp, #8
 1775              		.loc 1 1051 0
 1776 0006 40F20003 		movw	r3, #:lower16:.LANCHOR0
 1777 000a C0F20003 		movt	r3, #:upper16:.LANCHOR0
 1778              		.loc 1 1050 0
 1779 000e 4FF0FF30 		mov	r0, #-1
 1780 0012 44F8040D 		str	r0, [r4, #-4]!
 1781              	.LVL230:
 1782              		.loc 1 1051 0
 1783 0016 9968     		ldr	r1, [r3, #8]
 1784              	.LVL231:
 1785              		.loc 1 1053 0
 1786 0018 0022     		movs	r2, #0
 1787 001a 0B20     		movs	r0, #11
 1788 001c FFF7FEFF 		bl	hci_command_send
 1789              	.LVL232:
 1790              		.loc 1 1056 0
 1791 0020 0B20     		movs	r0, #11
 1792 0022 2146     		mov	r1, r4
 1793 0024 FFF7FEFF 		bl	SimpleLinkWaitEvent
 1794              	.LVL233:
 1795              		.loc 1 1059 0
 1796 0028 0198     		ldr	r0, [sp, #4]
 1797 002a 02B0     		add	sp, sp, #8
 1798 002c 10BD     		pop	{r4, pc}
 1799              		.cfi_endproc
 1800              	.LFE15:
 1801              		.size	wlan_smart_config_stop, .-wlan_smart_config_stop
 1802 002e 00BF     		.section	.text.wlan_smart_config_set_prefix,"ax",%progbits
 1803              		.align	2
 1804              		.p2align 4,,15
 1805              		.global	wlan_smart_config_set_prefix
 1806              		.thumb
 1807              		.thumb_func
 1808              		.type	wlan_smart_config_set_prefix, %function
 1809              	wlan_smart_config_set_prefix:
 1810              	.LFB16:
 1811              		.loc 1 1079 0
 1812              		.cfi_startproc
 1813              		@ args = 0, pretend = 0, frame = 8
 1814              		@ frame_needed = 0, uses_anonymous_args = 0
ARM GAS  C:\Users\Vergil\AppData\Local\Temp\ccBusahc.s 			page 33


 1815              	.LVL234:
 1816 0000 00B5     		push	{lr}
 1817              	.LCFI24:
 1818              		.cfi_def_cfa_offset 4
 1819              		.cfi_offset 14, -4
 1820              		.loc 1 1085 0
 1821 0002 0F4B     		ldr	r3, .L159
 1822              		.loc 1 1079 0
 1823 0004 83B0     		sub	sp, sp, #12
 1824              	.LCFI25:
 1825              		.cfi_def_cfa_offset 16
 1826              		.loc 1 1084 0
 1827 0006 4FF0FF32 		mov	r2, #-1
 1828 000a 0192     		str	r2, [sp, #4]
 1829              	.LVL235:
 1830              		.loc 1 1085 0
 1831 000c 9B68     		ldr	r3, [r3, #8]
 1832              	.LVL236:
 1833              		.loc 1 1088 0
 1834 000e A0B1     		cbz	r0, .L158
 1835              		.loc 1 1092 0
 1836 0010 5421     		movs	r1, #84
 1837              		.loc 1 1093 0
 1838 0012 4170     		strb	r1, [r0, #1]
 1839              		.loc 1 1094 0
 1840 0014 8170     		strb	r1, [r0, #2]
 1841              	.LVL237:
 1842              		.loc 1 1092 0
 1843 0016 0170     		strb	r1, [r0, #0]
 1844              	.LBB26:
 1845              		.loc 1 1097 0
 1846 0018 5972     		strb	r1, [r3, #9]
 1847              	.LVL238:
 1848 001a 4278     		ldrb	r2, [r0, #1]	@ zero_extendqisi2
 1849 001c 9A72     		strb	r2, [r3, #10]
 1850              	.LVL239:
 1851 001e 8078     		ldrb	r0, [r0, #2]	@ zero_extendqisi2
 1852              	.LVL240:
 1853              	.LBE26:
 1854              		.loc 1 1099 0
 1855 0020 1946     		mov	r1, r3
 1856              	.LBB27:
 1857              		.loc 1 1097 0
 1858 0022 D872     		strb	r0, [r3, #11]
 1859              	.LVL241:
 1860              	.LBE27:
 1861              		.loc 1 1099 0
 1862 0024 0322     		movs	r2, #3
 1863 0026 0C20     		movs	r0, #12
 1864 0028 FFF7FEFF 		bl	hci_command_send
 1865              	.LVL242:
 1866              		.loc 1 1103 0
 1867 002c 0C20     		movs	r0, #12
 1868 002e 01A9     		add	r1, sp, #4
 1869 0030 FFF7FEFF 		bl	SimpleLinkWaitEvent
 1870              	.LVL243:
 1871              		.loc 1 1105 0
ARM GAS  C:\Users\Vergil\AppData\Local\Temp\ccBusahc.s 			page 34


 1872 0034 0198     		ldr	r0, [sp, #4]
 1873              	.LVL244:
 1874              	.L157:
 1875              		.loc 1 1106 0
 1876 0036 03B0     		add	sp, sp, #12
 1877 0038 00BD     		pop	{pc}
 1878              	.LVL245:
 1879              	.L158:
 1880              		.loc 1 1089 0
 1881 003a 1046     		mov	r0, r2
 1882              	.LVL246:
 1883 003c FBE7     		b	.L157
 1884              	.L160:
 1885 003e 00BF     		.align	2
 1886              	.L159:
 1887 0040 00000000 		.word	.LANCHOR0
 1888              		.cfi_endproc
 1889              	.LFE16:
 1890              		.size	wlan_smart_config_set_prefix, .-wlan_smart_config_set_prefix
 1891 0044 AFF30080 		.section	.text.wlan_smart_config_process,"ax",%progbits
 1891      AFF30080 
 1891      AFF30080 
 1892              		.align	2
 1893              		.p2align 4,,15
 1894              		.global	wlan_smart_config_process
 1895              		.thumb
 1896              		.thumb_func
 1897              		.type	wlan_smart_config_process, %function
 1898              	wlan_smart_config_process:
 1899              	.LFB17:
 1900              		.loc 1 1126 0
 1901              		.cfi_startproc
 1902              		@ args = 0, pretend = 0, frame = 0
 1903              		@ frame_needed = 0, uses_anonymous_args = 0
 1904 0000 2DE9F041 		push	{r4, r5, r6, r7, r8, lr}
 1905              	.LCFI26:
 1906              		.cfi_def_cfa_offset 24
 1907              		.cfi_offset 4, -24
 1908              		.cfi_offset 5, -20
 1909              		.cfi_offset 6, -16
 1910              		.cfi_offset 7, -12
 1911              		.cfi_offset 8, -8
 1912              		.cfi_offset 14, -4
 1913              		.loc 1 1133 0
 1914 0004 2F48     		ldr	r0, .L175
 1915              		.loc 1 1126 0
 1916 0006 86B0     		sub	sp, sp, #24
 1917              	.LCFI27:
 1918              		.cfi_def_cfa_offset 48
 1919              		.loc 1 1133 0
 1920 0008 FFF7FEFF 		bl	aes_read_key
 1921              	.LVL247:
 1922              		.loc 1 1135 0
 1923 000c 0446     		mov	r4, r0
 1924 000e 18B1     		cbz	r0, .L173
 1925              	.LVL248:
 1926              	.L162:
ARM GAS  C:\Users\Vergil\AppData\Local\Temp\ccBusahc.s 			page 35


 1927              		.loc 1 1230 0
 1928 0010 2046     		mov	r0, r4
 1929 0012 06B0     		add	sp, sp, #24
 1930 0014 BDE8F081 		pop	{r4, r5, r6, r7, r8, pc}
 1931              	.LVL249:
 1932              	.L173:
 1933              		.loc 1 1147 0
 1934 0018 2B4D     		ldr	r5, .L175+4
 1935 001a 2246     		mov	r2, r4
 1936 001c 0D20     		movs	r0, #13
 1937              	.LVL250:
 1938 001e 4321     		movs	r1, #67
 1939 0020 2B46     		mov	r3, r5
 1940 0022 FFF7FEFF 		bl	nvmem_read
 1941              	.LVL251:
 1942              		.loc 1 1149 0
 1943 0026 0446     		mov	r4, r0
 1944 0028 0028     		cmp	r0, #0
 1945 002a F1D1     		bne	.L162
 1946              	.LVL252:
 1947              		.loc 1 1154 0
 1948 002c 95F80080 		ldrb	r8, [r5, #0]	@ zero_extendqisi2
 1949              	.LVL253:
 1950              		.loc 1 1158 0
 1951 0030 2449     		ldr	r1, .L175
 1952              		.loc 1 1156 0
 1953 0032 08F10307 		add	r7, r8, #3
 1954 0036 EE19     		adds	r6, r5, r7
 1955              	.LVL254:
 1956              		.loc 1 1158 0
 1957 0038 3046     		mov	r0, r6
 1958              	.LVL255:
 1959 003a FFF7FEFF 		bl	aes_decrypt
 1960              	.LVL256:
 1961              		.loc 1 1159 0
 1962 003e 2B78     		ldrb	r3, [r5, #0]	@ zero_extendqisi2
 1963 0040 EA18     		adds	r2, r5, r3
 1964 0042 5078     		ldrb	r0, [r2, #1]	@ zero_extendqisi2
 1965 0044 1028     		cmp	r0, #16
 1966 0046 36D8     		bhi	.L174
 1967              	.L163:
 1968              		.loc 1 1162 0
 1969 0048 F17F     		ldrb	r1, [r6, #31]	@ zero_extendqisi2
 1970 004a 59B1     		cbz	r1, .L164
 1971              		.loc 1 1164 0
 1972 004c EA5D     		ldrb	r2, [r5, r7]	@ zero_extendqisi2
 1973 004e 1F2A     		cmp	r2, #31
 1974 0050 09D0     		beq	.L171
 1975              		.loc 1 1171 0
 1976 0052 2022     		movs	r2, #32
 1977              	.L165:
 1978              	.LVL257:
 1979              		.loc 1 1181 0
 1980 0054 ED18     		adds	r5, r5, r3
 1981 0056 A878     		ldrb	r0, [r5, #2]	@ zero_extendqisi2
 1982 0058 0328     		cmp	r0, #3
 1983 005a D9D8     		bhi	.L162
ARM GAS  C:\Users\Vergil\AppData\Local\Temp\ccBusahc.s 			page 36


 1984 005c DFE800F0 		tbb	[pc, r0]
 1985              	.L169:
 1986 0060 22       		.byte	(.L166-.L169)/2
 1987 0061 15       		.byte	(.L167-.L169)/2
 1988 0062 05       		.byte	(.L168-.L169)/2
 1989 0063 05       		.byte	(.L168-.L169)/2
 1990              		.align	1
 1991              	.LVL258:
 1992              	.L164:
 1993              		.loc 1 1176 0
 1994 0064 EA5D     		ldrb	r2, [r5, r7]	@ zero_extendqisi2
 1995              	.L171:
 1996              	.LVL259:
 1997              		.loc 1 1177 0
 1998 0066 0136     		adds	r6, r6, #1
 1999              	.LVL260:
 2000 0068 F4E7     		b	.L165
 2001              	.L168:
 2002              		.loc 1 1214 0
 2003 006a 0120     		movs	r0, #1
 2004 006c 1821     		movs	r1, #24
 2005 006e 1E23     		movs	r3, #30
 2006 0070 0224     		movs	r4, #2
 2007              	.LVL261:
 2008 0072 8DE81B00 		stmia	sp, {r0, r1, r3, r4}
 2009 0076 0592     		str	r2, [sp, #20]
 2010 0078 0496     		str	r6, [sp, #16]
 2011 007a 0320     		movs	r0, #3
 2012 007c 1349     		ldr	r1, .L175+8
 2013 007e 4246     		mov	r2, r8
 2014              	.LVL262:
 2015 0080 0023     		movs	r3, #0
 2016 0082 FFF7FEFF 		bl	wlan_add_profile
 2017              	.LVL263:
 2018 0086 0446     		mov	r4, r0
 2019              	.LVL264:
 2020              		.loc 1 1225 0
 2021 0088 C2E7     		b	.L162
 2022              	.LVL265:
 2023              	.L167:
 2024              		.loc 1 1197 0
 2025 008a 0023     		movs	r3, #0
 2026 008c 0120     		movs	r0, #1
 2027 008e 8DE80D00 		stmia	sp, {r0, r2, r3}
 2028 0092 0393     		str	r3, [sp, #12]
 2029 0094 0496     		str	r6, [sp, #16]
 2030              	.LVL266:
 2031              	.L172:
 2032 0096 0593     		str	r3, [sp, #20]
 2033 0098 0C49     		ldr	r1, .L175+8
 2034 009a 4246     		mov	r2, r8
 2035 009c FFF7FEFF 		bl	wlan_add_profile
 2036              	.LVL267:
 2037 00a0 0446     		mov	r4, r0
 2038              	.LVL268:
 2039              		.loc 1 1208 0
 2040 00a2 B5E7     		b	.L162
ARM GAS  C:\Users\Vergil\AppData\Local\Temp\ccBusahc.s 			page 37


 2041              	.LVL269:
 2042              	.L166:
 2043              		.loc 1 1185 0
 2044 00a4 0023     		movs	r3, #0
 2045 00a6 0122     		movs	r2, #1
 2046              	.LVL270:
 2047 00a8 1846     		mov	r0, r3
 2048 00aa 8DE80C00 		stmia	sp, {r2, r3}
 2049 00ae 0293     		str	r3, [sp, #8]
 2050 00b0 0393     		str	r3, [sp, #12]
 2051 00b2 0493     		str	r3, [sp, #16]
 2052 00b4 EFE7     		b	.L172
 2053              	.L174:
 2054              		.loc 1 1160 0
 2055 00b6 06F11000 		add	r0, r6, #16
 2056 00ba 0249     		ldr	r1, .L175
 2057 00bc FFF7FEFF 		bl	aes_decrypt
 2058              	.LVL271:
 2059 00c0 2B78     		ldrb	r3, [r5, #0]	@ zero_extendqisi2
 2060 00c2 C1E7     		b	.L163
 2061              	.L176:
 2062              		.align	2
 2063              	.L175:
 2064 00c4 00000000 		.word	.LANCHOR1
 2065 00c8 00000000 		.word	.LANCHOR2
 2066 00cc 01000000 		.word	.LANCHOR2+1
 2067              		.cfi_endproc
 2068              	.LFE17:
 2069              		.size	wlan_smart_config_process, .-wlan_smart_config_process
 2070              		.global	profileArray
 2071              		.global	key
 2072              		.global	tSLInformation
 2073              		.section	.bss.key,"aw",%nobits
 2074              		.align	2
 2075              		.set	.LANCHOR1,. + 0
 2076              		.type	key, %object
 2077              		.size	key, 16
 2078              	key:
 2079 0000 00000000 		.space	16
 2079      00000000 
 2079      00000000 
 2079      00000000 
 2080              		.section	.bss.tSLInformation,"aw",%nobits
 2081              		.align	2
 2082              		.set	.LANCHOR0,. + 0
 2083              		.type	tSLInformation, %object
 2084              		.size	tSLInformation, 68
 2085              	tSLInformation:
 2086 0000 00000000 		.space	68
 2086      00000000 
 2086      00000000 
 2086      00000000 
 2086      00000000 
 2087              		.section	.bss.profileArray,"aw",%nobits
 2088              		.align	2
 2089              		.set	.LANCHOR2,. + 0
 2090              		.type	profileArray, %object
ARM GAS  C:\Users\Vergil\AppData\Local\Temp\ccBusahc.s 			page 38


 2091              		.size	profileArray, 67
 2092              	profileArray:
 2093 0000 00000000 		.space	67
 2093      00000000 
 2093      00000000 
 2093      00000000 
 2093      00000000 
 2094 0043 00       		.text
 2095              	.Letext0:
 2096              		.file 2 "C:\\Users\\Vergil\\ChibiOS_CC3000_SPI/CC3000HostDriver/data_types.h"
 2097              		.file 3 "C:\\Users\\Vergil\\ChibiOS_CC3000_SPI/CC3000HostDriver/cc3000_common.h"
 2098              		.file 4 "C:\\Users\\Vergil\\ChibiOS_CC3000_SPI/src/cc3000_spi.h"
 2099              		.file 5 "C:\\Users\\Vergil\\ChibiOS_CC3000_SPI/CC3000HostDriver/hci.h"
 2100              		.file 6 "C:\\Users\\Vergil\\ChibiOS_CC3000_SPI/CC3000HostDriver/evnt_handler.h"
 2101              		.file 7 "c:\\chibistudio\\tools\\gnu tools arm embedded\\4.7 2014q2\\bin\\../lib/gcc/arm-none-eabi
 2102              		.file 8 "C:\\Users\\Vergil\\ChibiOS_CC3000_SPI/CC3000HostDriver/security.h"
 2103              		.file 9 "C:\\Users\\Vergil\\ChibiOS_CC3000_SPI/CC3000HostDriver/nvmem.h"